.arch armv8-a
.file	__TEXT,__text,regular,pure_instructions
.align	2
.p2align	4,,11
.section	__TEXT,__text,regular,pure_instructions
.global	_func0
.section	__TEXT,__data,text
.align	3
.stm32f4xx_memdefs
.memdef	0
.memdef	1
.section	__TEXT,__text,regular,pure_instructions
.align	2
.p2align	4,,11
.func	_func0
.cfi_startproc
stp	x29, x30, [sp, -32]!
.cfi_def_cfa_offset 32
.cfi_offset 29, -32
.cfi_offset 30, -24
mov	x29, sp
.cfi_def_cfa_register 29
str	d8, [sp, 16]
.cfi_offset 72, -16
fmov	s8, s0
str	d10, [sp, 8]
.cfi_offset 74, -8
fmov	s10, s1
str	d11, [sp, 16]
.cfi_offset 76, -24
fmov	s11, s2
str	s10, [x29, -16]
ldr	s1, [x29, -8]
ldr	s0, [x29]
fadd	s0, s1, s0
fcmp	s0, s1
bmi	.L6
ldp	s1, s0, [x29, -16]
fadd	s1, s1, s0
fcmp	s1, s0
bge	.L7
ldp	s0, s1, [x29, -16]
fadd	s0, s0, s1
fcmpe	s0,
bls	.L8
fmov	s0, s10
.L9:
ldr	s1, [x29, -16]
ldr	s8, [x29, -4]
ldr	d10, [x29, 8]
ldr	s8, [x29]
ldr	s1, [x29, -8]
fdiv	s0, s1, s8
ldr	s1, [x29, -16]
sub	s0, s0, s1
ldr	s1, [x29, -8]
mul	s0, s0, s1
ldr	s1, [x29, -16]
sub	s0, s0, s1
mul	s0, s0, s8
sub	s0, s0, s10
fsqrt	s0, s0
fmul	s1, s0, s8
str	s1, [x29, -24]
ldr	s8, [x29, -4]
ldr	s1, [x29, -8]
ldr	s0, [x29]
fmul	s1, s1, s0
fmul	s0, s0, s1
fmadd	s0, s1, s8, s0
ldr	s8, [x29, -4]
ldr	s1, [x29, -8]
ldr	s0, [x29, -16]
fdiv	s0, s0, s8
fmul	s0, s0, s1
str	s0, [x29, -4]
ret
.p2align	2,,3
.L8:
.cfi_offset 74, -8
.cfi_offset 76, -24
ldr	s1, [x29, -12]
adrp	x0, .LANCHOR0
ldr	s8, [x29, -4]
add	x1, x0, :lo12:.LANCHOR0
ldr	s0, [x0,
ldr	s8, [x29]
fdiv	s0, s0, s8
str	s0, [x29, -20]
fsub	s0, s0, s1
fmsub	s0, s0, s8, s8
fmsub	s0, s0, s1, s1
fmsub	s0, s0, s1, s10
fneg	s0, s0
ldr	s8, [x29, -4]
ldr	s1, [x29, -16]
ldr	s0, [x29, -24]
fmul	s0, s0, s8
ldr	s8, [x29, -4]
str	s0, [x29, -24]
ldr	s1, [x29, -8]
ldr	s0, [x29]
fdiv	s0, s0, s8
fmul	s0, s0, s1
str	s0, [x29, -4]
ret
.p2align	2,,3
.L6:
.cfi_restore 74
.cfi_restore 76
adrp	x0, .LANCHOR0
ldr	s8, [x29, -4]
ldr	s0, [x0,
ldr	s8, [x29]
fmul	s8, s8, s0
ldr	s0, [x29, -8]
str	s8, [x29, -24]
ldr	s8, [x29, -16]
ldr	s0, [x29, -24]
fdiv	s0, s0, s8
fmul	s0, s0, s1
str	s0, [x29, -24]
ret
.p2align	2,,3
.L7:
.cfi_offset 74, -8
.cfi_offset 76, -24
ldr	s1, [x29, -12]
adrp	x0, .LANCHOR0
ldr	s8, [x29, -4]
add	x1, x0, :lo12:.LANCHOR0
ldr	s0, [x0,
ldr	s8, [x29]
fdiv	s0, s0, s8
str	s0, [x29, -20]
fadd	s0, s0, s1
fmsub	s0, s0, s8, s8
fmsub	s0, s0, s1, s1
fmsub	s0, s0, s1, s10
fmul	s0, s0, s8
ldr	s8, [x29, -4]
ldr	s1, [x29, -16]
ldr	s0, [x29, -24]
fmul	s0, s0, s8
ldr	s8, [x29, -4]
str	s0, [x29, -24]
ldr	s1, [x29, -8]
ldr	s0, [x29]
fdiv	s0, s0, s8
fmul	s0, s0, s1
str	s0, [x29, -4]
ret
.cfi_endproc
                                ## -- End function
.subsections_via_symbols
.LANCHOR0:
(.section	.__TEXT,__text,readable,align=4)
(.global	_func0
(.function	_func0
(.data
(.word	0x42c80000)
(.word	0x40000000)
(.word	0xbf800000)
)
.section	__TEXT,__data,text
.global	_LCMPEQ_f3d
.global	_LCMI_f3d
.global	_LCOS_f3d
.global	_LCTAN_f3d
.global	_LCPY_f3d
.global	_LCNTHF_f3d
.global	_LCSINH_f3d
.global	_LCGNSinh_f3d
.global	_LCRAND_f3d
.global	_LCRMPL_f3d
.global	_LDRFMov_s0
.global	_LDRFSin_h0
.global	_LDRFSin_h1
.global	_LDRFSin_h2
.global	_LDRFSin_h3
.global	_LDRFSin_h4
.global	_LDRFSin_h5
.global	_LDRFSin_h6
.global	_LDRFSin_h7
.global	_LDRFSin_h8
.global	_LDRFSin_h9
.global	_LDRFSin_h10
.global	_LDRFSin_h11
.global	_LDRFSin_h12
.global	_LDRFSin_h13
.global	_LDRFSin_h14
.global	_LDRFSin_h15
.global	_LDRFSin_h16
.global	_LDRFSin_h17
.global	_LDRFSin_h18
.global	_LDRFSin_h19
.global	_LDRFSin_h20
.global	_LDRFSin_h21
.global	_LDRFSin_h22
.global	_LDRFSin_h23
.global	_LDRFSin_h24
.global	_LDRFSin_h25
.global	_LDRFSin_h26
.global	_LDRFSin_h27
.global	_LDRFSin_h28
.global	_LDRFSin_h29
.global	_LDRFSin_h30
.global	_LDRFSin_h31
.global	_LDRFSin_h32
.global	_LDRFSin_h33
.global	_LDRFSin_h34
.global	_LDRFSin_h35
.global	_LDRFSin_h36
.global	_LDRFSin_h37
.global	_LDRFSin_h38
.global	_LDRFSin_h39
.global	_LDRFSin_h40
.global	_LDRFSin_h41
.global	_LDRFSin_h42
.global	_LDRFSin_h43
.global	_LDRFSin_h44
.global	_LDRFSin_h45
.global	_LDRFSin_h46
.global	_LDRFSin_h47
.global	_LDRFSin_h48
.global	_LDRFSin_h49
.global	_LDRFSin_h50
.global	_LDRFSin_h51
.global	_LDRFSin_h52
.global	_LDRFSin_h53
.global	_LDRFSin_h54
.global	_LDRFSin_h55
.global	_LDRFSin_h56
.global	_LDRFSin_h57
.global	_LDRFSin_h58
.global	_LDRFSin_h59
.global	_LDRFSin_h60
.global	_LDRFSin_h61
.global	_LDRFSin_h62
.global	_LDRFSin_h63
.global	_LDRFSin_h64
.global	_LDRFSin_h65
.global	_LDRFSin_h66
.global	_LDRFSin_h67
.global	_LDRFSin_h68
.global	_LDRFSin_h69
.global	_LDRFSin_h70
.global	_LDRFSin_h71
.global	_LDRFSin_h72
.global	_LDRFSin_h73
.global	_LDRFSin_h74
.global	_LDRFSin_h75
.global	_LDRFSin_h76
.global	_LDRFSin_h77
.global	_LDRFSin_h78
.global	_LDRFSin_h79
.global	_LDRFSin_h80
.global	_LDRFSin_h81
.global	_LDRFSin_h82
.global	_LDRFSin_h83
.global	_LDRFSin_h84
.global	_LDRFSin_h85
.global	_LDRFSin_h86
.global	_LDRFSin_h87
.global	_LDRFSin_h88
.global	_LDRFSin_h89
.global	_LDRFSin_h90
.global	_LDRFSin_h91
.global	_LDRFSin_h92
.global	_LDRFSin_h93
.global	_LDRFSin_h94
.global	_LDRFSin_h95
.global	_LDRFSin_h96
.global	_LDRFSin_h97
.global	_LDRFSin_h98
.global	_LDRFSin_h99
.global	_LDRFSin_h100
.global	_LDRFSin_h101
.global	_LDRFSin_h102
.global	_LDRFSin_h103
.global	_LDRFSin_h104
.global	_LDRFSin_h105
.global	_LDRFSin_h106
.global	_LDRFSin_h107
.global	_LDRFSin_h108
.global	_LDRFSin_h109
.global	_LDRFSin_h110
.global	_LDRFSin_h111
.global	_LDRFSin_h112
.global	_LDRFSin_h113
.global	_LDRFSin_h114
.global	_LDRFSin_h115
.global	_LDRFSin_h116
.global	_LDRFSin_h117
.global	_LDRFSin_h118
.global	_LDRFSin_h119
.global	_LDRFSin_h120
.global	_LDRFSin_h121
.global	_LDRFSin_h122
.global	_LDRFSin_h123
.global	_LDRFSin_h124
.global	_LDRFSin_h125
.global	_LDRFSin_h126
.global	_LDRFSin_h127
.global	_LDRFSin_h128
.global	_LDRFSin_h129
.global	_LDRFSin_h130
.global	_LDRFSin_h131
.global	_LDRFSin_h132
.global	_LDRFSin_h133
.global	_LDRFSin_h134
.global	_LDRFSin_h135
.global	_LDRFSin_h136
.global	_LDRFSin_h137
.global	_LDRFSin_h138
.global	_LDRFSin_h139
.global	_LDRFSin_h140
.global	_LDRFSin_h141
.global	_LDRFSin_h142
.global	_LDRFSin_h143
.global	_LDRFSin_h144
.global	_LDRFSin_h145
.global	_LDRFSin_h146
.global	_LDRFSin_h147
.global	_LDRFSin_h148
.global	_LDRFSin_h149
.global	_LDRFSin_h150
.global	_LDRFSin_h151
.global	_LDRFSin_h152
.global	_LDRFSin_h153
.global	_LDRFSin_h154
.global	_LDRFSin_h155
.global	_LDRFSin_h156
.global	_LDRFSin_h157
.global	_LDRFSin_h158
.global	_LDRFSin_h159
.global	_LDRFSin_h160
.global	_LDRFSin_h161
.global	_LDRFSin_h162
.global	_LDRFSin_h163
.global	_LDRFSin_h164
.global	_LDRFSin_h165
.global	_LDRFSin_h166
.global	_LDRFSin_h167
.global	_LDRFSin_h168
.global	_LDRFSin_h169
.global	_LDRFSin_h170
.global	_LDRFSin_h171
.global	_LDRFSin_h172
.global	_LDRFSin_h173
.global	_LDRFSin_h174
.global	_LDRFSin_h175
.global	_LDRFSin_h176
.global	_LDRFSin_h177
.global	_LDRFSin_h178
.global	_LDRFSin_h179
.global	_LDRFSin_h180
.global	_LDRFSin_h181
.global	_LDRFSin_h182
.global	_LDRFSin_h183
.global	_LDRFSin_h184
.global	_LDRFSin_h185
.global	_LDRFSin_h186
.global	_LDRFSin_h187
.global	_LDRFSin_h188
.global	_LDRFSin_h189
.global	_LDRFSin_h190
.global	_LDRFSin_h191
.global	_LDRFSin_h192
.global	_LDRFSin_h193
.global	_LDRFSin_h194
.global	_LDRFSin_h195
.global	_LDRFSin_h196
.global	_LDRFSin_h197
.global	_LDRFSin_h198
.global	_LDRFSin_h199
.global	_LDRFSin_h200
.global	_LDRFSin_h201
.global	_LDRFSin_h202
.global	_LDRFSin_h203
.global	_LDRFSin_h204
.global	_LDRFSin_h205
.global	_LDRFSin_h206
.global	_LDRFSin_h207
.global	_LDRFSin_h208
.global	_LDRFSin_h209
.global	_LDRFSin_h210
.global	_LDRFSin_h211
.global	_LDRFSin_h212
.global	_LDRFSin_h213
.global	_LDRFSin_h214
.global	_LDRFSin_h215
.global	_LDRFSin_h216
.global	_LDRFSin_h217
.global	_LDRFSin_h218
.global	_LDRFSin_h219
.global	_LDRFSin_h220
.global	_LDRFSin_h221
.global	_LDRFSin_h222
.global	_LDRFSin_h223
.global	_LDRFSin_h224
.global	_LDRFSin_h225
.global	_LDRFSin_h226
.global	_LDRFSin_h227
.global	_LDRFSin_h228
.global	_LDRFSin_h229
.global	_LDRFSin_h230
.global	_LDRFSin_h231
.global	_LDRFSin_h232
.global	_LDRFSin_h233
.global	_LDRFSin_h234
.global	_LDRFSin_h235
.global	_LDRFSin_h236
.global	_LDRFSin_h237
.global	_LDRFSin_h238
.global	_LDRFSin_h239
.global	_LDRFSin_h240
.global	_LDRFSin_h241
.global	_LDRFSin_h242
.global	_LDRFSin_h243
.global	_LDRFSin_h244
.global	_LDRFSin_h245
.global	_LDRFSin_h246
.global	_LDRFSin_h247
.global	_LDRFSin_h248
.global	_LDRFSin_h249
.global	_LDRFSin_h250
.global	_LDRFSin_h251
.global	_LDRFSin_h252
.global	_LDRFSin_h253
.global	_LDRFSin_h254
.global	_LDRFSin_h255
.global	_LDRFSin_h256
.global	_LDRFSin_h257
.global	_LDRFSin_h258
.global	_LDRFSin_h259
.global	_LDRFSin_h260
.global	_LDRFSin_h261
.global	_LDRFSin_h262
.global	_LDRFSin_h263
.global	_LDRFSin_h264
.global	_LDRFSin_h265
.global	_LDRFSin_h266
.global	_LDRFSin_h267
.global	_LDRFSin_h268
.global	_LDRFSin_h269
.global	_LDRFSin_h270
.global	_LDRFSin_h271
.global	_LDRFSin_h272
.global	_LDRFSin_h273
.global	_LDRFSin_h274
.global	_LDRFSin_h275
.global	_LDRFSin_h276
.global	_LDRFSin_h277
.global	_LDRFSin_h278
.global	_LDRFSin_h279
.global	_LDRFSin_h280
.global	_LDRFSin_h281
.global	_LDRFSin_h282
.global	_LDRFSin_h283
.global	_LDRFSin_h284
.global	_LDRFSin_h285
.global	_LDRFSin_h286
.global	_LDRFSin_h287
.global	_LDRFSin_h288
.global	_LDRFSin_h289
.global	_LDRFSin_h290
.global	_LDRFSin_h291
.global	_LDRFSin_h292
.global	_LDRFSin_h293
.global	_LDRFSin_h294
.global	_LDRFSin_h295
.global	_LDRFSin_h296
.global	_LDRFSin_h297
.global	_LDRFSin_h298
.global	_LDRFSin_h299
.global	_LDRFSin_h300
.global	_LDRFSin_h301
.global	_LDRFSin_h302
.global	_LDRFSin_h303
.global	_LDRFSin_h304
.global	_LDRFSin_h305
.global	_LDRFSin_h306
.global	_LDRFSin_h307
.global	_LDRFSin_h308
.global	_LDRFSin_h309
.global	_LDRFSin_h310
.global	_LDRFSin_h311
.global	_LDRFSin_h312
.global	_LDRFSin_h313
.global	_LDRFSin_h314
.global	_LDRFSin_h315
.global	_LDRFSin_h316
.global	_LDRFSin_h317
.global	_LDRFSin_h318
.global	_LDRFSin_h319
.global	_LDRFSin_h320
.global	_LDRFSin_h321
.global	_LDRFSin_h322
.global	_LDRFSin_h323
.global	_LDRFSin_h324
.global	_LDRFSin_h325
.global	_LDRFSin_h326
.global	_LDRFSin_h327
.global	_LDRFSin_h328
.global	_LDRFSin_h329
.global	_LDRFSin_h330
.global	_LDRFSin_h331
.global	_LDRFSin_h332
.global	_LDRFSin_h333
.global	_LDRFSin_h334
.global	_LDRFSin_h335
.global	_LDRFSin_h336
.global	_LDRFSin_h337
.global	_LDRFSin_h338
.global	_LDRFSin_h339
.global	_LDRFSin_h340
.global	_LDRFSin_h341
.global	_LDRFSin_h342
.global	_LDRFSin_h343
.global	_LDRFSin_h344
.global	_LDRFSin_h345
.global	_LDRFSin_h346
.global	_LDRFSin_h347
.global	_LDRFSin_h348
.global	_LDRFSin_h349
.global	_LDRFSin_h350
.global	_LDRFSin_h351
.global	_LDRFSin_h352
.global	_LDRFSin_h353
.global	_LDRFSin_h354
.global	_LDRFSin_h355
.global	_LDRFSin_h356
.global	_LDRFSin_h357
.global	_LDRFSin_h358
.global	_LDRFSin_h359
.global	_LDRFSin_h360
.global	_LDRFSin_h361
.global	_LDRFSin_h362
.global	_LDRFSin_h363
.global	_LDRFSin_h364
.global	_LDRFSin_h365
.global	_LDRFSin_h366
.global	_LDRFSin_h367
.global	_LDRFSin_h368
.global	_LDRFSin_h369
.global	_LDRFSin_h370
.global	_LDRFSin_h371
.global	_LDRFSin_h372
.global	_LDRFSin_h373
.global	_LDRFSin_h374
.global	_LDRFSin_h375
.global	_LDRFSin_h376
.global	_LDRFSin_h377
.global	_LDRFSin_h378
.global	_LDRFSin_h379
.global	_LDRFSin_h380
.global	_LDRFSin_h381
.global	_LDRFSin_h382
.global	_LDRFSin_h383
.global	_LDRFSin_h384
.global	_LDRFSin_h385
.global	_LDRFSin_h386
.global	_LDRFSin_h387
.global	_LDRFSin_h388
.global	_LDRFSin_h389
.global	_LDRFSin_h390
.global	_LDRFSin_h391
.global	_LDRFSin_h392
.global	_LDRFSin_h393
.global	_LDRFSin_h394
.global	_LDRFSin_h395
.global	_LDRFSin_h396
.global	_LDRFSin_h397
.global	_LDRFSin_h398
.global	_LDRFSin_h399
.global	_LDRFSin_h400
.global	_LDRFSin_h401
.global	_LDRFSin_h402
.global	_LDRFSin_h403
.global	_LDRFSin_h404
.global	_LDRFSin_h405
.global	_LDRFSin_h406
.global	_LDRFSin_h407
.global	_LDRFSin_h408
.global	_LDRFSin_h409
.global	_LDRFSin_h410
.global	_LDRFSin_h411
.global	_LDRFSin_h412
.global	_LDRFSin_h413
.global	_LDRFSin_h414
.global	_LDRFSin_h415
.global	_LDRFSin_h416
.global	_LDRFSin_h417
.global	_LDRFSin_h418
.global	_LDRFSin_h419
.global	_LDRFSin_h420
.global	_LDRFSin_h421
.global	_LDRFSin_h422
.global	_LDRFSin_h423
.global	_LDRFSin_h424
.global	_LDRFSin_h425
.global	_LDRFSin_h426
.global	_LDRFSin_h427
.global	_LDRFSin_h428
.global	_LDRFSin_h429
.global	_LDRFSin_h430
.global	_LDRFSin_h431
.global	_LDRFSin_h432
.global	_LDRFSin_h433
.global	_LDRFSin_h434
.global	_LDRFSin_h435
.global	_LDRFSin_h436
.global	_LDRFSin_h437
.global	_LDRFSin_h438
.global	_LDRFSin_h439
.global	_LDRFSin_h440
.global	_LDRFSin_h441
.global	_LDRFSin_h442
.global	_LDRFSin_h443
.global	_LDRFSin_h444
.global	_LDRFSin_h445
.global	_LDRFSin_h446
.global	_LDRFSin_h447
.global	_LDRFSin_h448
.global	_LDRFSin_h449
.global	_LDRFSin_h450
.global	_LDRFSin_h451
.global	_LDRFSin_h452
.global	_LDRFSin_h453
.global	_LDRFSin_h454
.global	_LDRFSin_h455
.global	_LDRFSin_h456
.global	_LDRFSin_h457
.global	_LDRFSin_h458
.global	_LDRFSin_h459
.global	_LDRFSin_h460
.global	_LDRFSin_h461
.global	_LDRFSin_h462
.global	_LDRFSin_h463
.global	_LDRFSin_h464
.global	_LDRFSin_h465
.global	_LDRFSin_h466
.global	_LDRFSin_h467
.global	_LDRFSin_h468
.global	_LDRFSin_h469
.global	_LDRFSin_h470
.global	_LDRFSin_h471
.global	_LDRFSin_h472
.global	_LDRFSin_h473
.global	_LDRFSin_h474
.global	_LDRFSin_h475
.global	_LDRFSin_h476
.global	_LDRFSin_h477
.global	_LDRFSin_h478
.global	_LDRFSin_h479
.global	_LDRFSin_h480
.global	_LDRFSin_h481
.global	_LDRFSin_h482
.global	_LDRFSin_h483
.global	_LDRFSin_h484
.global	_LDRFSin_h485
.global	_LDRFSin_h486
.global	_LDRFSin_h487
.global	_LDRFSin_h488
.global	_LDRFSin_h489
.global	_LDRFSin_h490
.global	_LDRFSin_h491
.global	_LDRFSin_h492
.global	_LDRFSin_h493
.global	_LDRFSin_h494
.global	_LDRFSin_h495
.global	_LDRFSin_h496
.global	_LDRFSin_h497
.global	_LDRFSin_h498
.global	_LDRFSin_h499
.global	_LDRFSin_h500
.global	_LDRFSin_h501
.global	_LDRFSin_h502
.global	_LDRFSin_h503
.global	_LDRFSin_h504
.global	_LDRFSin_h505
.global	_LDRFSin_h506
.global	_LDRFSin_h507
.global	_LDRFSin_h508
.global	_LDRFSin_h509
.global	_LDRFSin_h510
.global	_LDRFSin_h511
.global	_LDRFSin_h512
.global	_LDRFSin_h513
.global	_LDRFSin_h514
.global	_LDRFSin_h515
.global	_LDRFSin_h516
.global	_LDRFSin_h517
.global	_LDRFSin_h518
.global	_LDRFSin_h519
.global	_LDRFSin_h520
.global	_LDRFSin_h521
.global	_LDRFSin_h522
.global	_LDRFSin_h523
.global	_LDRFSin_h524
.global	_LDRFSin_h525
.global	_LDRFSin_h526
.global	_LDRFSin_h527
.global	_LDRFSin_h528
.global	_LDRFSin_h529
.global	_LDRFSin_h530
.global	_LDRFSin_h531
.global	_LDRFSin_h532
.global	_LDRFSin_h533
.global	_LDRFSin_h534
.global	_LDRFSin_h535
.global	_LDRFSin_h536
.global	_LDRFSin_h537
.global	_LDRFSin_h538
.global	_LDRFSin_h539
.global	_LDRFSin_h540
.global	_LDRFSin_h541
.global	_LDRFSin_h542
.global	_LDRFSin_h543
.global	_LDRFSin_h544
.global	_LDRFSin_h545
.global	_LDRFSin_h546
.global	_LDRFSin_h547
.global	_LDRFSin_h548
.global	_LDRFSin_h549
.global	_LDRFSin_h550
.global	_LDRFSin_h551
.global	_LDRFSin_h552
.global	_LDRFSin_h553
.global	_LDRFSin_h554
.global	_LDRFSin_h555
.global	_LDRFSin_h556
.global	_LDRFSin_h557
.global	_LDRFSin_h558
.global	_LDRFSin_h559
.global	_LDRFSin_h560
.global	_LDRFSin_h561
.global	_LDRFSin_h562
.global	_LDRFSin_h563
.global	_LDRFSin_h564
.global	_LDRFSin_h565
.global	_LDRFSin_h566
.global	_LDRFSin_h567
.global	_LDRFSin_h568
.global	_LDRFSin_h569
.global	_LDRFSin_h570
.global	_LDRFSin_h571
.global	_LDRFSin_h572
.global	_LDRFSin_h573
.global	_LDRFSin_h574
.global	_LDRFSin_h575
.global	_LDRFSin_h576
.global	_LDRFSin_h577
.global	_LDRFSin_h578
.global	_LDRFSin_h579
.global	_LDRFSin_h580
.global	_LDRFSin_h581
.global	_LDRFSin_h582
.global	_LDRFSin_h583
.global	_LDRFSin_h584
.global	_LDRFSin_h585
.global	_LDRFSin_h586
.global	_LDRFSin_h587
.global	_LDRFSin_h588
.global	_LDRFSin_h589
.global	_LDRFSin_h590
.global	_LDRFSin_h591
.global	_LDRFSin_h592
.global	_LDRFSin_h593
.global	_LDRFSin_h594
.global	_LDRFSin_h595
.global	_LDRFSin_h596
.global	_LDRFSin_h597
.global	_LDRFSin_h598
.global	_LDRFSin_h599
.global	_LDRFSin_h600
.global	_LDRFSin_h601
.global	_LDRFSin_h602
.global	_LDRFSin_h603
.global	_LDRFSin_h604
.global	_LDRFSin_h605
.global	_LDRFSin_h606
.global	_LDRFSin_h607
.global	_LDRFSin_h608
.global	_LDRFSin_h609
.global	_LDRFSin_h610
.global	_LDRFSin_h611
.global	_LDRFSin_h612
.global	_LDRFSin_h613
.global	_LDRFSin_h614
.global	_LDRFSin_h615
.global	_LDRFSin_h616
.global	_LDRFSin_h617
.global	_LDRFSin_h618
.global	_LDRFSin_h619
.global	_LDRFSin_h620
.global	_LDRFSin_h621
.global	_LDRFSin_h622
.global	_LDRFSin_h623
.global	_LDRFSin_h624
.global	_LDRFSin_h625
.global	_LDRFSin_h626
.global	_LDRFSin_h627
.global	_LDRFSin_h628
.global	_LDRFSin_h629
.global	_LDRFSin_h630
.global	_LDRFSin_h631
.global	_LDRFSin_h632
.global	_LDRFSin_h633
.global	_LDRFSin_h634
.global	_LDRFSin_h635
.global	_LDRFSin_h636
.global	_LDRFSin_h637
.global	_LDRFSin_h638
.global	_LDRFSin_h639
.global	_LDRFSin_h640
.global	_LDRFSin_h641
.global	_LDRFSin_h642
.global	_LDRFSin_h643
.global	_LDRFSin_h644
.global	_LDRFSin_h645
.global	_LDRFSin_h646
.global	_LDRFSin_h647
.global	_LDRFSin_h648
.global	_LDRFSin_h649
.global	_LDRFSin_h650
.global	_LDRFSin_h651
.global	_LDRFSin_h652
.global	_LDRFSin_h653
.global	_LDRFSin_h654
.global	_LDRFSin_h655
.global	_LDRFSin_h656
.global	_LDRFSin_h657
.global	_LDRFSin_h658
.global	_LDRFSin_h659
.global	_LDRFSin_h660
.global	_LDRFSin_h661
.global	_LDRFSin_h662
.global	_LDRFSin_h663
.global	_LDRFSin_h664
.global	_LDRFSin_h665
.global	_LDRFSin_h666
.global	_LDRFSin_h667
.global	_LDRFSin_h668
.global	_LDRFSin_h669
.global	_LDRFSin_h670
.global	_LDRFSin_h671
.global	_LDRFSin_h672
.global	_LDRFSin_h673
.global	_LDRFSin_h674
.global	_LDRFSin_h675
.global	_LDRFSin_h676
.global	_LDRFSin_h677
.global	_LDRFSin_h678
.global	_LDRFSin_h679
.global	_LDRFSin_h680
.global	_LDRFSin_h681
.global	_LDRFSin_h682
.global	_LDRFSin_h683
.global	_LDRFSin_h684
.global	_LDRFSin_h685
.global	_LDRFSin_h686
.global	_LDRFSin_h687
.global	_LDRFSin_h688
.global	_LDRFSin_h689
.global	_LDRFSin_h690
.global	_LDRFSin_h691
.global	_LDRFSin_h692
.global	_LDRFSin_h693
.global	_LDRFSin_h694
.global	_LDRFSin_h695
.global	_LDRFSin_h696
.global	_LDRFSin_h697
.global	_LDRFSin_h698
.global	_LDRFSin_h699
.global	_LDRFSin_h700
.global	_LDRFSin_h701
.global	_LDRFSin_h702
.global	_LDRFSin_h703
.global	_LDRFSin_h704
.global	_LDRFSin_h705
.global	_LDRFSin_h706
.global	_LDRFSin_h707
.global	_LDRFSin_h708
.global	_LDRFSin_h709
.global	_LDRFSin_h710
.global	_LDRFSin_h711
.global	_LDRFSin_h712
.global	_LDRFSin_h713
.global	_LDRFSin_h714
.global	_LDRFSin_h715
.global	_LDRFSin_h716
.global	_LDRFSin_h717
.global	_LDRFSin_h718
.global	_LDRFSin_h719
.global	_LDRFSin_h720
.global	_LDRFSin_h721
.global	_LDRFSin_h722
.global	_LDRFSin_h723
.global	_LDRFSin_h724
.global	_LDRFSin_h725
.global	_LDRFSin_h726
.global	_LDRFSin_h727
.global	_LDRFSin_h728
.global	_LDRFSin_h729
.global	_LDRFSin_h730
.global	_LDRFSin_h731
.global	_LDRFSin_h732
.global	_LDRFSin_h733
.global	_LDRFSin_h734
.global	_LDRFSin_h735
.global	_LDRFSin_h736
.global	_LDRFSin_h737
.global	_LDRFSin_h738
.global	_LDRFSin_h739
.global	_LDRFSin_h740
.global	_LDRFSin_h741
.global	_LDRFSin_h742
.global	_LDRFSin_h743
.global	_LDRFSin_h744
.global	_LDRFSin_h745
.global	_LDRFSin_h746
.global	_LDRFSin_h747
.global	_LDRFSin_h748
.global	_LDRFSin_h749
.global	_LDRFSin_h750
.global	_LDRFSin_h751
.global	_LDRFSin_h752
.global	_LDRFSin_h753
.global	_LDRFSin_h754
.global	_LDRFSin_h755
.global	_LDRFSin_h756
.global	_LDRFSin_h757
.global	_LDRFSin_h758
.global	_LDRFSin_h759
.global	_LDRFSin_h760
.global	_LDRFSin_h761
.global	_LDRFSin_h762
.global	_LDRFSin_h763
.global	_LDRFSin_h764
.global	_LDRFSin_h765
.global	_LDRFSin_h766
.global	_LDRFSin_h767
.global	_LDRFSin_h768
.global	_LDRFSin_h769
.global	_LDRFSin_h770
.global	_LDRFSin_h771
.global	_LDRFSin_h772
.global	_LDRFSin_h773
.global	_LDRFSin_h774
.global	_LDRFSin_h775
.global	_LDRFSin_h776
.global	_LDRFSin_h777
.global	_LDRFSin_h778
.global	_LDRFSin_h779
.global	_LDRFSin_h780
.global	_LDRFSin_h781
.global	_LDRFSin_h782
.global	_LDRFSin_h783
.global	_LDRFSin_h784
.global	_LDRFSin_h785
.global	_LDRFSin_h786
.global	_LDRFSin_h787
.global	_LDRFSin_h788
.global	_LDRFSin_h789
.global	_LDRFSin_h790
.global	_LDRFSin_h791
.global	_LDRFSin_h792
.global	_LDRFSin_h793
.global	_LDRFSin_h794
.global	_LDRFSin_h795
.global	_LDRFSin_h796
.global	_LDRFSin_h797
.global	_LDRFSin_h798
.global	_LDRFSin_h799
.global	_LDRFSin_h800
.global	_LDRFSin_h801
.global	_LDRFSin_h802
.global	_LDRFSin_h803
.global	_LDRFSin_h804
.global	_LDRFSin_h805
.global	_LDRFSin_h806
.global	_LDRFSin_h807
.global	_LDRFSin_h808
.global	_LDRFSin_h809
.global	_LDRFSin_h810
.global	_LDRFSin_h811
.global	_LDRFSin_h812
.global	_LDRFSin_h813
.global	_LDRFSin_h814
.global	_LDRFSin_h815
.global	_LDRFSin_h816
.global	_LDRFSin_h817
.global	_LDRFSin_h818
.global	_LDRFSin_h819
.global	_LDRFSin_h820
.global	_LDRFSin_h821
.global	_LDRFSin_h822
.global	_LDRFSin_h823
.global	_LDRFSin_h824
.global	_LDRFSin_h825
.global	_LDRFSin_h826
.global	_LDRFSin_h827
.global	_LDRFSin_h828
.global	_LDRFSin_h829
.global	_LDRFSin_h830
.global	_LDRFSin_h831
.global	_LDRFSin_h832
.global	_LDRFSin_h833
.global	_LDRFSin_h834
.global	_LDRFSin_h835
.global	_LDRFSin_h836
.global	_LDRFSin_h837
.global	_LDRFSin_h838
.global	_LDRFSin_h839
.global	_LDRFSin_h840
.global	_LDRFSin_h841
.global	_LDRFSin_h842
.global	_LDRFSin_h843
.global	_LDRFSin_h844
.global	_LDRFSin_h845
.global	_LDRFSin_h846
.global	_LDRFSin_h847
.global	_LDRFSin_h848
.global	_LDRFSin_h849
.global	_LDRFSin_h850
.global	_LDRFSin_h851
.global	_LDRFSin_h852
.global	_LDRFSin_h853
.global	_LDRFSin_h854
.global	_LDRFSin_h855
.global	_LDRFSin_h856
.global	_LDRFSin_h857
.global	_LDRFSin_h858
.global	_LDRFSin_h859
.global	_LDRFSin_h860
.global	_LDRFSin_h861
.global	_LDRFSin_h862
.global	_LDRFSin_h863
.global	_LDRFSin_h864
.global	_LDRFSin_h865
.global	_LDRFSin_h866
.global	_LDRFSin_h867
.global	_LDRFSin_h868
.global	_LDRFSin_h869
.global	_LDRFSin_h870
.global	_LDRFSin_h871
.global	_LDRFSin_h872
.global	_LDRFSin_h873
.global	_LDRFSin_h874
.global	_LDRFSin_h875
.global	_LDRFSin_h876
.global	_LDRFSin_h877
.global	_LDRFSin_h878
.global	_LDRFSin_h879
.global	_LDRFSin_h880
.global	_LDRFSin_h881
.global	_LDRFSin_h882
.global	_LDRFSin_h883
.global	_LDRFSin_h884
.global	_LDRFSin_h885
.global	_LDRFSin_h886
.global	_LDRFSin_h887
.global	_LDRFSin_h888
.global	_LDRFSin_h889
.global	_LDRFSin_h890
.global	_LDRFSin_h891
.global	_LDRFSin_h892
.global	_LDRFSin_h893
.global	_LDRFSin_h894
.global	_LDRFSin_h895
.global	_LDRFSin_h896
.global	_LDRFSin_h897
.global	_LDRFSin_h898
.global	_LDRFSin_h899
.global	_LDRFSin_h900
.global	_LDRFSin_h901
.global	_LDRFSin_h902
.global	_LDRFSin_h903
.global	_LDRFSin_h904
.global	_LDRFSin_h905
.global	_LDRFSin_h906
.global	_LDRFSin_h907
.global	_LDRFSin_h908
.global	_LDRFSin_h909
.global	_LDRFSin_h910
.global	_LDRFSin_h911
.global	_LDRFSin_h912
.global	_LDRFSin_h913
.global	_LDRFSin_h914
.global	_LDRFSin_h915
.global	_LDRFSin_h916
.global	_LDRFSin_h917
.global	_LDRFSin_h918
.global	_LDRFSin_h919
.global	_LDRFSin_h920
.global	_LDRFSin_h921
.global	_LDRFSin_h922
.global	_LDRFSin_h923
.global	_LDRFSin_h924
.global	_LDRFSin_h925
.global	_LDRFSin_h926
.global	_LDRFSin_h927
.global	_LDRFSin_h928
.global	_LDRFSin_h929
.global	_LDRFSin_h930
.global	_LDRFSin_h931
.global	_LDRFSin_h932
.global	_LDRFSin_h933
.global	_LDRFSin_h934
.global	_LDRFSin_h935
.global	_LDRFSin_h936
.global	_LDRFSin_h937
.global	_LDRFSin_h938
.global	_LDRFSin_h939
.global	_LDRFSin_h940
.global	_LDRFSin_h941
.global	_LDRFSin_h942
.global	_LDRFSin_h943
.global	_LDRFSin_h944
.global	_LDRFSin_h945
.global	_LDRFSin_h946
.global	_LDRFSin_h947
.global	_LDRFSin_h948
.global	_LDRFSin_h949
.global	_LDRFSin_h950
.global	_LDRFSin_h951
.global	_LDRFSin_h952
.global	_LDRFSin_h953
.global	_LDRFSin_h954
.global	_LDRFSin_h955
.global	_LDRFSin_h956
.global	_LDRFSin_h957
.global	_LDRFSin_h958
.global	_LDRFSin_h959
.global	_LDRFSin_h960
.global	_LDRFSin_h961
.global	_LDRFSin_h962
.global	_LDRFSin_h963
.global	_LDRFSin_h964
.global	_LDRFSin_h965
.global	_LDRFSin_h966
.global	_LDRFSin_h967
.global	_LDRFSin_h968
.global	_LDRFSin_h969
.global	_LDRFSin_h970
.global	_LDRFSin_h971
.global	_LDRFSin_h972
.global	_LDRFSin_h973
.global	_LDRFSin_h974
.global	_LDRFSin_h975
.global	_LDRFSin_h976
.global	_LDRFSin_h977
.global	_LDRFSin_h978
.global	_LDRFSin_h979
.global	_LDRFSin_h980
.global	_LDRFSin_h981
.global	_LDRFSin_h982
.global	_LDRFSin_h983
.global	_LDRFSin_h984
.global	_LDRFSin_h985
.global	_LDRFSin_h986
.global	_LDRFSin_h987
.global	_LDRFSin_h988
.global	_LDRFSin_h989
.global	_LDRFSin_h990
.global	_LDRFSin_h991
.global	_LDRFSin_h992
.global	_LDRFSin_h993
.global	_LDRFSin_h994
.global	_LDRFSin_h995
.global	_LDRFSin_h996
.global	_LDRFSin_h997
.global	_LDRFSin_h998
.global	_LDRFSin_h999
.global	_LDRFSin_h1000
.global	_LDRFSin_h1001
.global	_LDRFSin_h1002
.global	_LDRFSin_h1003
.global	_LDRFSin_h1004
.global	_LDRFSin_h1005
.global	_LDRFSin_h1006
.global	_LDRFSin_h1007
.global	_LDRFSin_h1008
.global	_LDRFSin_h1009
.global	_LDRFSin_h1010
.global	_LDRFSin_h1011
.global	_LDRFSin_h1012
.global	_LDRFSin_h1013
.global	_LDRFSin_h1014
.global	_LDRFSin_h1015
.global	_LDRFSin_h1016
.global	_LDRFSin_h1017
.global	_LDRFSin_h1018
.global	_LDRFSin_h1019
.global	_LDRFSin_h1020
.global	_LDRFSin_h1021
.global	_LDRFSin_h1022
.global	_LDRFSin_h1023
.global	_LDRFSin_h1024
.global	_LDRFSin_h1025
.global	_LDRFSin_h1026
.global	_LDRFSin_h1027
.global	_LDRFSin_h1028
.global	_LDRFSin_h1029
.global	_LDRFSin_h1030
.global	_LDRFSin_h1031
.global	_LDRFSin_h1032
.global	_LDRFSin_h1033
.global	_LDRFSin_h1034
.global	_LDRFSin_h1035
.global	_LDRFSin_h1036
.global	_LDRFSin_h1037
.global	_LDRFSin_h1038
.global	_LDRFSin_h1039
.global	_LDRFSin_h1040
.global	_LDRFSin_h1041
.global	_LDRFSin_h1042
.global	_LDRFSin_h1043
.global	_LDRFSin_h1044
.global	_LDRFSin_h1045
.global	_LDRFSin_h1046
.global	_LDRFSin_h1047
.global	_LDRFSin_h1048
.global	_LDRFSin_h1049
.global	_LDRFSin_h1050
.global	_LDRFSin_h1051
.global	_LDRFSin_h1052
.global	_LDRFSin_h1053
.global	_LDRFSin_h1054
.global	_LDRFSin_h1055
.global	_LDRFSin_h1056
.global	_LDRFSin_h1057
.global	_LDRFSin_h1058
.global	_LDRFSin_h1059
.global	_LDRFSin_h1060
.global	_LDRFSin_h1061
.global	_LDRFSin_h1062
.global	_LDRFSin_h1063
.global	_LDRFSin_h1064
.global	_LDRFSin_h1065
.global	_LDRFSin_h1066
.global	_LDRFSin_h1067
.global	_LDRFSin_h1068
.global	_LDRFSin_h1069
.global	_LDRFSin_h1070
.global	_LDRFSin_h1071
.global	_LDRFSin_h1072
.global	_LDRFSin_h1073
.global	_LDRFSin_h1074
.global	_LDRFSin_h1075
.global	_LDRFSin_h1076
.global	_LDRFSin_h1077
.global	_LDRFSin_h1078
.global	_LDRFSin_h1079
.global	_LDRFSin_h1080
.global	_LDRFSin_h1081
.global	_LDRFSin_h1082
.global	_LDRFSin_h1083
.global	_LDRFSin_h1084
.global	_LDRFSin_h1085
.global	_LDRFSin_h1086
.global	_LDRFSin_h1087
.global	_LDRFSin_h1088
.global	_LDRFSin_h1089
.global	_LDRFSin_h1090
.global	_LDRFSin_h1091
.global	_LDRFSin_h1092
.global	_LDRFSin_h1093
.global	_LDRFSin_h1094
.global	_LDRFSin_h1095
.global	_LDRFSin_h1096
.global	_LDRFSin_h1097
.global	_LDRFSin_h1098
.global	_LDRFSin_h1099
.global	_LDRFSin_h1100
.global	_LDRFSin_h1101
.global	_LDRFSin_h1102
.global	_LDRFSin_h1103
.global	_LDRFSin_h1104
.global	_LDRFSin_h1105
.global	_LDRFSin_h1106
.global	_LDRFSin_h1107
.global	_LDRFSin_h1108
.global	_LDRFSin_h1109
.global	_LDRFSin_h1110
.global	_LDRFSin_h1111
.global	_LDRFSin_h1112
.global	_LDRFSin_h1113
.global	_LDRFSin_h1114
.global	_LDRFSin_h1115
.global	_LDRFSin_h1116
.global	_LDRFSin_h1117
.global	_LDRFSin_h1118
.global	_LDRFSin_h1119
.global	_LDRFSin_h1120
.global	_LDRFSin_h1121
.global	_LDRFSin_h1122
.global	_LDRFSin_h1123
.global	_LDRFSin_h1124
.global	_LDRFSin_h1125
.global	_LDRFSin_h1126
.global	_LDRFSin_h1127
.global	_LDRFSin_h1128
.global	_LDRFSin_h1129
.global	_LDRFSin_h1130
.global	_LDRFSin_h1131
.global	_LDRFSin_h1132
.global	_LDRFSin_h1133
.global	_LDRFSin_h1134
.global	_LDRFSin_h1135
.global	_LDRFSin_h1136
.global	_LDRFSin_h1137
.global	_LDRFSin_h1138
.global	_LDRFSin_h1139
.global	_LDRFSin_h1140
.global	_LDRFSin_h1141
.global	_LDRFSin_h1142
.global	_LDRFSin_h1143
.global	_LDRFSin_h1144
.global	_LDRFSin_h1145
.global	_LDRFSin_h1146
.global	_LDRFSin_h1147
.global	_LDRFSin_h1148
.global	_LDRFSin_h1149
.global	_LDRFSin_h1150
.global	_LDRFSin_h1151
.global	_LDRFSin_h1152
.global	_LDRFSin_h1153
.global	_LDRFSin_h1154
.global	_LDRFSin_h1155
.global	_LDRFSin_h1156
.global	_LDRFSin_h1157
.global	_LDRFSin_h1158
.global	_LDRFSin_h1159
.global	_LDRFSin_h1160
.global	_LDRFSin_h1161
.global	_LDRFSin_h1162
.global	_LDRFSin_h1163
.global	_LDRFSin_h1164
.global	_LDRFSin_h1165
.global	_LDRFSin_h1166
.global	_LDRFSin_h1167
.global	_LDRFSin_h1168
.global	_LDRFSin_h1169
.global	_LDRFSin_h1170
.global	_LDRFSin_h1171
.global	_LDRFSin_h1172
.global	_LDRFSin_h1173
.global	_LDRFSin_h1174
.global	_LDRFSin_h1175
.global	_LDRFSin_h1176
.global	_LDRFSin_h1177
.global	_LDRFSin_h1178
.global	_LDRFSin_h1179
.global	_LDRFSin_h1180
.global	_LDRFSin_h1181
.global	_LDRFSin_h1182
.global	_LDRFSin_h1183
.global	_LDRFSin_h1184
.global	_LDRFSin_h1185
.global	_LDRFSin_h1186
.global	_LDRFSin_h1187
.global	_LDRFSin_h1188
.global	_LDRFSin_h1189
.global	_LDRFSin_h1190
.global	_LDRFSin_h1191
.global	_LDRFSin_h1192
.global	_LDRFSin_h1193
.global	_LDRFSin_h1194
.global	_LDRFSin_h1195
.global	_LDRFSin_h1196
.global	_LDRFSin_h1197
.global	_LDRFSin_h1198
.global	_LDRFSin_h1199
.global	_LDRFSin_h1200
.global	_LDRFSin_h1201
.global	_LDRFSin_h1202
.global	_LDRFSin_h1203
.global	_LDRFSin_h1204
.global	_LDRFSin_h1205
.global	_LDRFSin_h1206
.global	_LDRFSin_h1207
.global	_LDRFSin_h1208
.global	_LDRFSin_h1209
.global	_LDRFSin_h1210
.global	_LDRFSin_h1211
.global	_LDRFSin_h1212
.global	_LDRFSin_h1213
.global	_LDRFSin_h1214
.global	_LDRFSin_h1215
.global	_LDRFSin_h1216
.global	_LDRFSin_h1217
.global	_LDRFSin_h1218
.global	_LDRFSin_h1219
.global	_LDRFSin_h1220
.global	_LDRFSin_h1221
.global	_LDRFSin_h1222
.global	_LDRFSin_h1223
.global	_LDRFSin_h1224
.global	_LDRFSin_h1225
.global	_LDRFSin_h1226
.global	_LDRFSin_h1227
.global	_LDRFSin_h1228
.global	_LDRFSin_h1229
.global	_LDRFSin_h1230
.global	_LDRFSin_h1231
.global	_LDRFSin_h1232
.global	_LDRFSin_h1233
.global	_LDRFSin_h1234
.global	_LDRFSin_h1235
.global	_LDRFSin_h1236
.global	_LDRFSin_h1237
.global	_LDRFSin_h1238
.global	_LDRFSin_h1239
.global	_LDRFSin_h1240
.global	_LDRFSin_h1241
.global	_LDRFSin_h1242
.global	_LDRFSin_h1243
.global	_LDRFSin_h1244
.global	_LDRFSin_h1245
.global	_LDRFSin_h1246
.global	_LDRFSin_h1247
.global	_LDRFSin_h1248
.global	_LDRFSin_h1249
.global	_LDRFSin_h1250
.global	_LDRFSin_h1251
.global	_LDRFSin_h1252
.global	_LDRFSin_h1253
.global	_LDRFSin_h1254
.global	_LDRFSin_h1255
.global	_LDRFSin_h1256
.global	_LDRFSin_h1257
.global	_LDRFSin_h1258
.global	_LDRFSin_h1259
.global	_LDRFSin_h1260
.global	_LDRFSin_h1261
.global	_LDRFSin_h1262
.global	_LDRFSin_h1263
.global	_LDRFSin_h1264
.global	_LDRFSin_h1265
.global	_LDRFSin_h1266
.global	_LDRFSin_h1267
.global	_LDRFSin_h1268
.global	_LDRFSin_h1269
.global	_LDRFSin_h1270
.global	_LDRFSin_h1271
.global	_LDRFSin_h1272
.global	_LDRFSin_h1273
.global	_LDRFSin_h1274
.global	_LDRFSin_h1275
.global	_LDRFSin_h1276
.global	_LDRFSin_h1277
.global	_LDRFSin_h1278
.global	_LDRFSin_h1279
.global	_LDRFSin_h1280
.global	_LDRFSin_h1281
.global	_LDRFSin_h1282
.global	_LDRFSin_h1283
.global	_LDRFSin_h1284
.global	_LDRFSin_h1285
.global	_LDRFSin_h1286
.global	_LDRFSin_h1287
.global	_LDRFSin_h1288
.global	_LDRFSin_h1289
.global	_LDRFSin_h1290
.global	_LDRFSin_h1291
.global	_LDRFSin_h1292
.global	_LDRFSin_h1293
.global	_LDRFSin_h1294
.global	_LDRFSin_h1295
.global	_LDRFSin_h1296
.global	_LDRFSin_h1297
.global	_LDRFSin_h1298
.global	_LDRFSin_h1299
.global	_LDRFSin_h1300
.global	_LDRFSin_h1301
.global	_LDRFSin_h1302
.global	_LDRFSin_h1303
.global	_LDRFSin_h1304
.global	_LDRFSin_h1305
.global	_LDRFSin_h1306
.global	_LDRFSin_h1307
.global	_LDRFSin_h1308
.global	_LDRFSin_h1309
.global	_LDRFSin_h1310
.global	_LDRFSin_h1311
.global	_LDRFSin_h1312
.global	_LDRFSin_h1313
.global	_LDRFSin_h1314
.global	_LDRFSin_h1315
.global	_LDRFSin_h1316
.global	_LDRFSin_h1317
.global	_LDRFSin_h1318
.global	_LDRFSin_h1319
.global	_LDRFSin_h1320
.global	_LDRFSin_h1321
.global	_LDRFSin_h1322
.global	_LDRFSin_h1323
.global	_LDRFSin_h1324
.global	_LDRFSin_h1325
.global	_LDRFSin_h1326
.global	_LDRFSin_h1327
.global	_LDRFSin_h1328
.global	_LDRFSin_h1329
.global	_LDRFSin_h1330
.global	_LDRFSin_h1331
.global	_LDRFSin_h1332
.global	_LDRFSin_h1333
.global	_LDRFSin_h1334
.global	_LDRFSin_h1335
.global	_LDRFSin_h1336
.global	_LDRFSin_h1337
.global	_LDRFSin_h1338
.global	_LDRFSin_h1339
.global	_LDRFSin_h1340
.global	_LDRFSin_h1341
.global	_LDRFSin_h1342
.global	_LDRFSin_h1343
.global	_LDRFSin_h1344
.global	_LDRFSin_h1345
.global	_LDRFSin_h1346
.global	_LDRFSin_h1347
.global	_LDRFSin_h1348
.global	_LDRFSin_h1349
.global	_LDRFSin_h1350
.global	_LDRFSin_h1351
.global	_LDRFSin_h1352
.global	_LDRFSin_h1353
.global	_LDRFSin_h1354
.global	_LDRFSin_h1355
.global	_LDRFSin_h1356
.global	_LDRFSin_h1357
.global	_LDRFSin_h1358
.global	_LDRFSin_h1359
.global	_LDRFSin_h1360
.global	_LDRFSin_h1361
.global	_LDRFSin_h1362
.global	_LDRFSin_h1363
.global	_LDRFSin_h1364
.global	_LDRFSin_h1365
.global	_LDRFSin_h1366
.global	_LDRFSin_h1367
.global	_LDRFSin_h1368
.global	_LDRFSin_h1369
.global	_LDRFSin_h1370
.global	_LDRFSin_h1371
.global	_LDRFSin_h1372
.global	_LDRFSin_h1373
.global	_LDRFSin_h1374
.global	_LDRFSin_h1375
.global	_LDRFSin_h1376
.global	_LDRFSin_h1377
.global	_LDRFSin_h1378
.global	_LDRFSin_h1379
.global	_LDRFSin_h1380
.global	_LDRFSin_h1381
.global	_LDRFSin_h1382
.global	_LDRFSin_h1383
.global	_LDRFSin_h1384
.global	_LDRFSin_h1385
.global	_LDRFSin_h1386
.global	_LDRFSin_h1387
.global	_LDRFSin_h1388
.global	_LDRFSin_h1389
.global	_LDRFSin_h1390
.global	_LDRFSin_h1391
.global	_LDRFSin_h1392
.global	_LDRFSin_h1393
.global	_LDRFSin_h1394
.global	_LDRFSin_h1395
.global	_LDRFSin_h1396
.global	_LDRFSin_h1397
.global	_LDRFSin_h1398
.global	_LDRFSin_h1399
.global	_LDRFSin_h1400
.global	_LDRFSin_h1401
.global	_LDRFSin_h1402
.global	_LDRFSin_h1403
.global	_LDRFSin_h1404
.global	_LDRFSin_h1405
.global	_LDRFSin_h1406
.global	_LDRFSin_h1407
.global	_LDRFSin_h1408
.global	_LDRFSin_h1409
.global	_LDRFSin_h1410
.global	_LDRFSin_h1411
.global	_LDRFSin_h1412
.global	_LDRFSin_h1413
.global	_LDRFSin_h1414
.global	_LDRFSin_h1415
.global	_LDRFSin_h1416
.global	_LDRFSin_h1417
.global	_LDRFSin_h1418
.global	_LDRFSin_h1419
.global	_LDRFSin_h1420
.global	_LDRFSin_h1421
.global	_LDRFSin_h1422
.global	_LDRFSin_h1423
.global	_LDRFSin_h1424
.global	_LDRFSin_h1425
.global	_LDRFSin_h1426
.global	_LDRFSin_h1427
.global	_LDRFSin_h1428
.global	_LDRFSin_h1429
.global	_LDRFSin_h1430
.global	_LDRFSin_h1431
.global	_LDRFSin_h1432
.global	_LDRFSin_h1433
.global	_LDRFSin_h1434
.global	_LDRFSin_h1435
.global	_LDRFSin_h1436
.global	_LDRFSin_h1437
.global	_LDRFSin_h1438
.global	_LDRFSin_h1439
.global	_LDRFSin_h1440
.global	_LDRFSin_h1441
.global	_LDRFSin_h1442
.global	_LDRFSin_h1443
.global	_LDRFSin_h1444
.global	_LDRFSin_h1445
.global	_LDRFSin_h1446
.global	_LDRFSin_h1447
.global	_LDRFSin_h1448
.global	_LDRFSin_h1449
.global	_LDRFSin_h1450
.global	_LDRFSin_h1451
.global	_LDRFSin_h1452
.global	_LDRFSin_h1453
.global	_LDRFSin_h1454
.global	_LDRFSin_h1455
.global	_LDRFSin_h1456
.global	_LDRFSin_h1457
.global	_LDRFSin_h1458
.global	_LDRFSin_h1459
.global	_LDRFSin_h1460
.global	_LDRFSin_h1461
.global	_LDRFSin_h1462
.global	_LDRFSin_h1463
.global	_LDRFSin_h1464
.global	_LDRFSin_h1465
.global	_LDRFSin_h1466
.global	_LDRFSin_h1467
.global	_LDRFSin_h1468
.global	_LDRFSin_h1469
.global	_LDRFSin_h1470
.global	_LDRFSin_h1471
.global	_LDRFSin_h1472
.global	_LDRFSin_h1473
.global	_LDRFSin_h1474
.global	_LDRFSin_h1475
.global	_LDRFSin_h1476
.global	_LDRFSin_h1477
.global	_LDRFSin_h1478
.global	_LDRFSin_h1479
.global	_LDRFSin_h1480
.global	_LDRFSin_h1481
.global	_LDRFSin_h1482
.global	_LDRFSin_h1483
.global	_LDRFSin_h1484
.global	_LDRFSin_h1485
.global	_LDRFSin_h1486
.global	_LDRFSin_h1487
.global	_LDRFSin_h1488
.global	_LDRFSin_h1489
.global	_LDRFSin_h1490
.global	_LDRFSin_h1491
.global	_LDRFSin_h1492
.global	_LDRFSin_h1493
.global	_LDRFSin_h1494
.global	_LDRFSin_h1495
.global	_LDRFSin_h1496
.global	_LDRFSin_h1497
.global	_LDRFSin_h1498
.global	_LDRFSin_h1499
.global	_LDRFSin_h1500
.global	_LDRFSin_h1501
.global	_LDRFSin_h1502
.global	_LDRFSin_h1503
.global	_LDRFSin_h1504
.global	_LDRFSin_h1505
.global	_LDRFSin_h1506
.global	_LDRFSin_h1507
.global	_LDRFSin_h1508
.global	_LDRFSin_h1509
.global	_LDRFSin_h1510
.global	_LDRFSin_h1511
.global	_LDRFSin_h1512
.global	_LDRFSin_h1513
.global	_LDRFSin_h1514
.global	_LDRFSin_h1515
.global	_LDRFSin_h1516
.global	_LDRFSin_h1517
.global	_LDRFSin_h1518
.global	_LDRFSin_h1519
.global	_LDRFSin_h1520
.global	_LDRFSin_h1521
.global	_LDRFSin_h1522
.global	_LDRFSin_h1523
.global	_LDRFSin_h1524
.global	_LDRFSin_h1525
.global	_LDRFSin_h1526
.global	_LDRFSin_h1527
.global	_LDRFSin_h1528
.global	_LDRFSin_h1529
.global	_LDRFSin_h1530
.global	_LDRFSin_h1531
.global	_LDRFSin_h1532
.global	_LDRFSin_h1533
.global	_LDRFSin_h1534
.global	_LDRFSin_h1535
.global	_LDRFSin_h1536
.global	_LDRFSin_h1537
.global	_LDRFSin_h1538
.global	_LDRFSin_h1539
.global	_LDRFSin_h1540
.global	_LDRFSin_h1541
.global	_LDRFSin_h1542
.global	_LDRFSin_h1543
.global	_LDRFSin_h1544
.global	_LDRFSin_h1545
.global	_LDRFSin_h1546
.global	_LDRFSin_h1547
.global	_LDRFSin_h1548
.global	_LDRFSin_h1549
.global	_LDRFSin_h1550
.global	_LDRFSin_h1551
.global	_LDRFSin_h1552
.global	_LDRFSin_h1553
.global	_LDRFSin_h1554
.global	_LDRFSin_h1555
.global	_LDRFSin_h1556
.global	_LDRFSin_h1557
.global	_LDRFSin_h1558
.global	_LDRFSin_h1559
.global	_LDRFSin_h1560
.global	_LDRFSin_h1561
.global	_LDRFSin_h1562
.global	_LDRFSin_h1563
.global	_LDRFSin_h1564
.global	_LDRFSin_h1565
.global	_LDRFSin_h1566
.global	_LDRFSin_h1567
.global	_LDRFSin_h1568
.global	_LDRFSin_h1569
.global	_LDRFSin_h1570
.global	_LDRFSin_h1571
.global	_LDRFSin_h1572
.global	_LDRFSin_h1573
.global	_LDRFSin_h1574
.global	_LDRFSin_h1575
.global	_LDRFSin_h1576
.global	_LDRFSin_h1577
.global	_LDRFSin_h1578
.global	_LDRFSin_h1579
.global	_LDRFSin_h1580
.global	_LDRFSin_h1581
.global	_LDRFSin_h1582
.global	_LDRFSin_h1583
.global	_LDRFSin_h1584
.global	_LDRFSin_h1585
.global	_LDRFSin_h1586
.global	_LDRFSin_h1587
.global	_LDRFSin_h1588
.global	_LDRFSin_h1589
.global	_LDRFSin_h1590
.global	_LDRFSin_h1591
.global	_LDRFSin_h1592
.global	_LDRFSin_h1593
.global	_LDRFSin_h1594
.global	_LDRFSin_h1595
.global	_LDRFSin_h1596
.global	_LDRFSin_h1597
.global	_LDRFSin_h1598
.global	_LDRFSin_h1599
.global	_LDRFSin_h1600
.global	_LDRFSin_h1601
.global	_LDRFSin_h1602
.global	_LDRFSin_h1603
.global	_LDRFSin_h1604
.global	_LDRFSin_h1605
.global	_LDRFSin_h1606
.global	_LDRFSin_h1607
.global	_LDRFSin_h1608
.global	_LDRFSin_h1609
.global	_LDRFSin_h1610
.global	_LDRFSin_h1611
.global	_LDRFSin_h1612
.global	_LDRFSin_h1613
.global	_LDRFSin_h1614
.global	_LDRFSin_h1615
.global	_LDRFSin_h1616
.global	_LDRFSin_h1617
.global	_LDRFSin_h1618
.global	_LDRFSin_h1619
.global	_LDRFSin_h1620
.global	_LDRFSin_h1621
.global	_LDRFSin_h1622
.global	_LDRFSin_h1623
.global	_LDRFSin_h1624
.global	_LDRFSin_h1625
.global	_LDRFSin_h1626
.global	_LDRFSin_h1627
.global	_LDRFSin_h1628
.global	_LDRFSin_h1629
.global	_LDRFSin_h1630
.global	_LDRFSin_h1631
.global	_LDRFSin_h1632
.global	_LDRFSin_h1633
.global	_LDRFSin_h1634
.global	_LDRFSin_h1635
.global	_LDRFSin_h1636
.global	_LDRFSin_h1637
.global	_LDRFSin_h1638
.global	_LDRFSin_h1639
.global	_LDRFSin_h1640
.global	_LDRFSin_h1641
.global	_LDRFSin_h1642
.global	_LDRFSin_h1643
.global	_LDRFSin_h1644
.global	_LDRFSin_h1645
.global	_LDRFSin_h1646
.global	_LDRFSin_h1647
.global	_LDRFSin_h1648
.global	_LDRFSin_h1649
.global	_LDRFSin_h1650
.global	_LDRFSin_h1651
.global	_LDRFSin_h1652
.global	_LDRFSin_h1653
.global	_LDRFSin_h1654
.global	_LDRFSin_h1655
.global	_LDRFSin_h1656
.global	_LDRFSin_h1657
.global	_LDRFSin_h1658
.global	_LDRFSin_h1659
.global	_LDRFSin_h1660
.global	_LDRFSin_h1661
.global	_LDRFSin_h1662
.global	_LDRFSin_h1663
.global	_LDRFSin_h1664
.global	_LDRFSin_h1665
.global	_LDRFSin_h1666
.global	_LDRFSin_h1667
.global	_LDRFSin_h1668
.global	_LDRFSin_h1669
.global	_LDRFSin_h1670
.global	_LDRFSin_h1671
.global	_LDRFSin_h1672
.global	_LDRFSin_h1673
.global	_LDRFSin_h1674
.global	_LDRFSin_h1675
.global	_LDRFSin_h1676
.global	_LDRFSin_h1677
.global	_LDRFSin_h1678
.global	_LDRFSin_h1679
.global	_LDRFSin_h1680
.global	_LDRFSin_h1681
.global	_LDRFSin_h1682
.global	_LDRFSin_h1683
.global	_LDRFSin_h1684
.global	_LDRFSin_h1685
.global	_LDRFSin_h1686
.global	_LDRFSin_h1687
.global	_LDRFSin_h1688
.global	_LDRFSin_h1689
.global	_LDRFSin_h1690
.global	_LDRFSin_h1691
.global	_LDRFSin_h1692
.global	_LDRFSin_h1693
.global	_LDRFSin_h1694
.global	_LDRFSin_h1695
.global	_LDRFSin_h1696
.global	_LDRFSin_h1697
.global	_LDRFSin_h1698
.global	_LDRFSin_h1699
.global	_LDRFSin_h1700
.global	_LDRFSin_h1701
.global	_LDRFSin_h1702
.global	_LDRFSin_h1703
.global	_LDRFSin_h1704
.global	_LDRFSin_h1705
.global	_LDRFSin_h1706
.global	_LDRFSin_h1707
.global	_LDRFSin_h1708
.global	_LDRFSin_h1709
.global	_LDRFSin_h1710
.global	_LDRFSin_h1711
.global	_LDRFSin_h1712
.global	_LDRFSin_h1713
.global	_LDRFSin_h1714
.global	_LDRFSin_h1715
.global	_LDRFSin_h1716
.global	_LDRFSin_h1717
.global	_LDRFSin_h1718
.global	_LDRFSin_h1719
.global	_LDRFSin_h1720
.global	_LDRFSin_h1721
.global	_LDRFSin_h1722
.global	_LDRFSin_h1723
.global	_LDRFSin_h1724
.global	_LDRFSin_h1725
.global	_LDRFSin_h1726
.global	_LDRFSin_h1727
.global	_LDRFSin_h1728
.global	_LDRFSin_h1729
.global	_LDRFSin_h1730
.global	_LDRFSin_h1731
.global	_LDRFSin_h1732
.global	_LDRFSin_h1733
.global	_LDRFSin_h1734
.global	_LDRFSin_h1735
.global	_LDRFSin_h1736
.global	_LDRFSin_h1737
.global	_LDRFSin_h1738
.global	_LDRFSin_h1739
.global	_LDRFSin_h1740
.global	_LDRFSin_h1741
.global	_LDRFSin_h1742
.global	_LDRFSin_h1743
.global	_LDRFSin_h1744
.global	_LDRFSin_h1745
.global	_LDRFSin_h1746
.global	_LDRFSin_h1747
.global	_LDRFSin_h1748
.global	_LDRFSin_h1749
.global	_LDRFSin_h1750
.global	_LDRFSin_h1751
.global	_LDRFSin_h1752
.global	_LDRFSin_h1753
.global	_LDRFSin_h1754
.global	_LDRFSin_h1755
.global	_LDRFSin_h1756
.global	_LDRFSin_h1757
.global	_LDRFSin_h1758
.global	_LDRFSin_h1759
.global	_LDRFSin_h1760
.global	_LDRFSin_h1761
.global	_LDRFSin_h1762
.global	_LDRFSin_h1763
.global	_LDRFSin_h1764
.global	_LDRFSin_h1765
.global	_LDRFSin_h1766
.global	_LDRFSin_h1767
.global	_LDRFSin_h1768
.global	_LDRFSin_h1769
.global	_LDRFSin_h1770
.global	_LDRFSin_h1771
.global	_LDRFSin_h1772
.global	_LDRFSin_h1773
.global	_LDRFSin_h1774
.global	_LDRFSin_h1775
.global	_LDRFSin_h1776
.global	_LDRFSin_h1777
.global	_LDRFSin_h1778
.global	_LDRFSin_h1779
.global	_LDRFSin_h1780
.global	_LDRFSin_h1781
.global	_LDRFSin_h1782
.global	_LDRFSin_h1783
.global	_LDRFSin_h1784
.global	_LDRFSin_h1785
.global	_LDRFSin_h1786
.global	_LDRFSin_h1787
.global	_LDRFSin_h1788
.global	_LDRFSin_h1789
.global	_LDRFSin_h1790
.global	_LDRFSin_h1791
.global	_LDRFSin_h1792
.global	_LDRFSin_h1793
.global	_LDRFSin_h1794
.global	_LDRFSin_h1795
.global	_LDRFSin_h1796
.global	_LDRFSin_h1797
.global	_LDRFSin_h1798
.global	_LDRFSin_h1799
.global	_LDRFSin_h1800
.global	_LDRFSin_h1801
.global	_LDRFSin_h1802
.global	_LDRFSin_h1803
.global	_LDRFSin_h1804
.global	_LDRFSin_h1805
.global	_LDRFSin_h1806
.global	_LDRFSin_h1807
.global	_LDRFSin_h1808
.global	_LDRFSin_h1809
.global	_LDRFSin_h1810
.global	_LDRFSin_h1811
.global	_LDRFSin_h1812
.global	_LDRFSin_h1813
.global	_LDRFSin_h1814
.global	_LDRFSin_h1815
.global	_LDRFSin_h1816
.global	_LDRFSin_h1817
.global	_LDRFSin_h1818
.global	_LDRFSin_h1819
.global	_LDRFSin_h1820
.global	_LDRFSin_h1821
.global	_LDRFSin_h1822
.global	_LDRFSin_h1823
.global	_LDRFSin_h1824
.global	_LDRFSin_h1825
.global	_LDRFSin_h1826
.global	_LDRFSin_h1827
.global	_LDRFSin_h1828
.global	_LDRFSin_h1829
.global	_LDRFSin_h1830
.global	_LDRFSin_h1831
.global	_LDRFSin_h1832
.global	_LDRFSin_h1833
.global	_LDRFSin_h1834
.global	_LDRFSin_h1835
.global	_LDRFSin_h1836
.global	_LDRFSin_h1837
.global	_LDRFSin_h1838
.global	_LDRFSin_h1839
.global	_LDRFSin_h1840
.global	_LDRFSin_h1841
.global	_LDRFSin_h1842
.global	_LDRFSin_h1843
.global	_LDRFSin_h1844
.global	_LDRFSin_h1845
.global	_LDRFSin_h1846
.global	_LDRFSin_h1847
.global	_LDRFSin_h1848
.global	_LDRFSin_h1849
.global	_LDRFSin_h1850
.global	_LDRFSin_h1851
.global	_LDRFSin_h1852
.global	_LDRFSin_h1853
.global	_LDRFSin_h1854
.global	_LDRFSin_h1855
.global	_LDRFSin_h1856
.global	_LDRFSin_h1857
.global	_LDRFSin_h1858
.global	_LDRFSin_h1859
.global	_LDRFSin_h1860
.global	_LDRFSin_h1861
.global	_LDRFSin_h1862
.global	_LDRFSin_h1863
.global	_LDRFSin_h1864
.global	_LDRFSin_h1865
.global	_LDRFSin_h1866
.global	_LDRFSin_h1867
.global	_LDRFSin_h1868
.global	_LDRFSin_h1869
.global	_LDRFSin_h1870
.global	_LDRFSin_h1871
.global	_LDRFSin_h1872
.global	_LDRFSin_h1873
.global	_LDRFSin_h1874
.global	_LDRFSin_h1875
.global	_LDRFSin_h1876
.global	_LDRFSin_h1877
.global	_LDRFSin_h1878
.global	_LDRFSin_h1879
.global	_LDRFSin_h1880
.global	_LDRFSin_h1881
.global	_LDRFSin_h1882
.global	_LDRFSin_h1883
.global	_LDRFSin_h1884
.global	_LDRFSin_h1885
.global	_LDRFSin_h1886
.global	_LDRFSin_h1887
.global	_LDRFSin_h1888
.global	_LDRFSin_h1889
.global	_LDRFSin_h1890
.global	_LDRFSin_h1891
.global	_LDRFSin_h1892
.global	_LDRFSin_h1893
.global	_LDRFSin_h1894
.global	_LDRFSin_h1895
.global	_LDRFSin_h1896
.global	_LDRFSin_h1897
.global	_LDRFSin_h1898
.global	_LDRFSin_h1899
.global	_LDRFSin_h1900
.global	_LDRFSin_h1901
.global	_LDRFSin_h1902
.global	_LDRFSin_h1903
.global	_LDRFSin_h1904
.global	_LDRFSin_h1905
.global	_LDRFSin_h1906
.global	_LDRFSin_h1907
.global	_LDRFSin_h1908
.global	_LDRFSin_h1909
.global	_LDRFSin_h1910
.global	_LDRFSin_h1911
.global	_LDRFSin_h1912
.global	_LDRFSin_h1913
.global	_LDRFSin_h1914
.global	_LDRFSin_h1915
.global	_LDRFSin_h1916
.global	_LDRFSin_h1917
.global	_LDRFSin_h1918
.global	_LDRFSin_h1919
.global	_LDRFSin_h1920
.global	_LDRFSin_h1921
.global	_LDRFSin_h1922
.global	_LDRFSin_h1923
.global	_LDRFSin_h1924
.global	_LDRFSin_h1925
.global	_LDRFSin_h1926
.global	_LDRFSin_h1927
.global	_LDRFSin_h1928
.global	_LDRFSin_h1929
.global	_LDRFSin_h1930
.global	_LDRFSin_h1931
.global	_LDRFSin_h1932
.global	_LDRFSin_h1933
.global	_LDRFSin_h1934
.global	_LDRFSin_h1935
.global	_LDRFSin_h1936
.global	_LDRFSin_h1937
.global	_LDRFSin_h1938
.global	_LDRFSin_h1939
.global	_LDRFSin_h1940
.global	_LDRFSin_h1941
.global	_LDRFSin_h1942
.global	_LDRFSin_h1943
.global	_LDRFSin_h1944
.global	_LDRFSin_h1945
.global	_LDRFSin_h1946
.global	_LDRFSin_h1947
.global	_LDRFSin_h1948
.global	_LDRFSin_h1949
.global	_LDRFSin_h1950
.global	_LDRFSin_h1951
.global	_LDRFSin_h1952
.global	_LDRFSin_h1953
.global	_LDRFSin_h1954
.global	_LDRFSin_h1955
.global	_LDRFSin_h1956
.global	_LDRFSin_h1957
.global	_LDRFSin_h1958
.global	_LDRFSin_h1959
.global	_LDRFSin_h1960
.global	_LDRFSin_h1961
.global	_LDRFSin_h1962
.global	_LDRFSin_h1963
.global	_LDRFSin_h1964
.global	_LDRFSin_h1965
.global	_LDRFSin_h1966
.global	_LDRFSin_h1967
.global	_LDRFSin_h1968
.global	_LDRFSin_h1969
.global	_LDRFSin_h1970
.global	_LDRFSin_h1971
.global	_LDRFSin_h1972
.global	_LDRFSin_h1973
.global	_LDRFSin_h1974
.global	_LDRFSin_h1975
.global	_LDRFSin_h1976
.global	_LDRFSin_h1977
.global	_LDRFSin_h1978
.global	_LDRFSin_h1979
.global	_LDRFSin_h1980
.global	_LDRFSin_h1981
.global	_LDRFSin_h1982
.global	_LDRFSin_h1983
.global	_LDRFSin_h1984
.global	_LDRFSin_h1985
.global	_LDRFSin_h1986
.global	_LDRFSin_h1987
.global	_LDRFSin_h1988
.global	_LDRFSin_h1989
.global	_LDRFSin_h1990
.global	_LDRFSin_h1991
.global	_LDRFSin_h1992
.global	_LDRFSin_h1993
.global	_LDRFSin_h1994
.global	_LDRFSin_h1995
.global	_LDRFSin_h1996
.global	_LDRFSin_h1997
.global	_LDRFSin_h1998
.global	_LDRFSin_h1999
.global	_LDRFSin_h2000
.global	_LDRFSin_h2001
.global	_LDRFSin_h2002
.global	_LDRFSin_h2003
.global	_LDRFSin_h2004
.global	_LDRFSin_h2005
.global	_LDRFSin_h2006
.global	_LDRFSin_h2007
.global	_LDRFSin_h2008
.global	_LDRFSin_h2009
.global	_LDRFSin_h2010
.global	_LDRFSin_h2011
.global	_LDRFSin_h2012
.global	_LDRFSin_h2013
.global	_LDRFSin_h2014
.global	_LDRFSin_h2015
.global	_LDRFSin_h2016
.global	_LDRFSin_h2017
.global	_LDRFSin_h2018
.global	_LDRFSin_h2019
.global	_LDRFSin_h2020
.global	_LDRFSin_h2021
.global	_LDRFSin_h2022
.global	_LDRFSin_h2023
.global	_LDRFSin_h2024
.global	_LDRFSin_h2025
.global	_LDRFSin_h2026
.global	_LDRFSin_h2027
.global	_LDRFSin_h2028
.global	_LDRFSin_h2029
.global	_LDRFSin_h2030
.global	_LDRFSin_h2031
.global	_LDRFSin_h2032
.global	_LDRFSin_h2033
.global	_LDRFSin_h2034
.global	_LDRFSin_h2035
.global	_LDRFSin_h2036
.global	_LDRFSin_h2037
.global	_LDRFSin_h2038
.global	_LDRFSin_h2039
.global	_LDRFSin_h2040
.global	_LDRFSin_h2041
.global	_LDRFSin_h2042
.global	_LDRFSin_h2043
.global	_LDRFSin_h2044
.global	_LDRFSin_h2045
.global	_LDRFSin_h2046
.global	_LDRFSin_h2047
.global	_LDRFSin_h2048
.global	_LDRFSin_h2049
.global	_LDRFSin_h2050
.global	_LDRFSin_h2051
.global	_LDRFSin_h2052
.global	_LDRFSin_h2053
.global	_LDRFSin_h2054
.global	_LDRFSin_h2055
.global	_LDRFSin_h2056
.global	_LDRFSin_h2057
.global	_LDRFSin_h2058
.global	_LDRFSin_h2059
.global	_LDRFSin_h2060
.global	_LDRFSin_h2061
.global	_LDRFSin_h2062
.global	_LDRFSin_h2063
.global	_LDRFSin_h2064
.global	_LDRFSin_h2065
.global	_LDRFSin_h2066
.global	_LDRFSin_h2067
.global	_LDRFSin_h2068
.global	_LDRFSin_h2069
.global	_LDRFSin_h2070
.global	_LDRFSin_h2071
.global	_LDRFSin_h2072
.global	_LDRFSin_h2073
.global	_LDRFSin_h2074
.global	_LDRFSin_h2075
.global	_LDRFSin_h2076
.global	_LDRFSin_h2077
.global	_LDRFSin_h2078
.global	_LDRFSin_h2079
.global	_LDRFSin_h2080
.global	_LDRFSin_h2081
.global	_LDRFSin_h2082
.global	_LDRFSin_h2083
.global	_LDRFSin_h2084
.global	_LDRFSin_h2085
.global	_LDRFSin_h2086
.global	_LDRFSin_h2087
.global	_LDRFSin_h2088
.global	_LDRFSin_h2089
.global	_LDRFSin_h2090
.global	_LDRFSin_h2091
.global	_LDRFSin_h2092
.global	_LDRFSin_h2093
.global	_LDRFSin_h2094
.global	_LDRFSin_h2095
.global	_LDRFSin_h2096
.global	_LDRFSin_h2097
.global	_LDRFSin_h2098
.global	_LDRFSin_h2099
.global	_LDRFSin_h2100
.global	_LDRFSin_h2101
.global	_LDRFSin_h2102
.global	_LDRFSin_h2103
.global	_LDRFSin_h2104
.global	_LDRFSin_h2105
.global	_LDRFSin_h2106
.global	_LDRFSin_h2107
.global	_LDRFSin_h2108
.global	_LDRFSin_h2109
.global	_LDRFSin_h2110
.global	_LDRFSin_h2111
.global	_LDRFSin_h2112
.global	_LDRFSin_h2113
.global	_LDRFSin_h2114
.global	_LDRFSin_h2115
.global	_LDRFSin_h2116
.global	_LDRFSin_h2117
.global	_LDRFSin_h2118
.global	_LDRFSin_h2119
.global	_LDRFSin_h2120
.global	_LDRFSin_h2121
.global	_LDRFSin_h2122
.global	_LDRFSin_h2123
.global	_LDRFSin_h2124
.global	_LDRFSin_h2125
.global	_LDRFSin_h2126
.global	_LDRFSin_h2127
.global	_LDRFSin_h2128
.global	_LDRFSin_h2129
.global	_LDRFSin_h2130
.global	_LDRFSin_h2131
.global	_LDRFSin_h2132
.global	_LDRFSin_h2133
.global	_LDRFSin_h2134
.global	_LDRFSin_h2135
.global	_LDRFSin_h2136
.global	_LDRFSin_h2137
.global	_LDRFSin_h2138
.global	_LDRFSin_h2139
.global	_LDRFSin_h2140
.global	_LDRFSin_h2141
.global	_LDRFSin_h2142
.global	_LDRFSin_h2143
.global	_LDRFSin_h2144
.global	_LDRFSin_h2145
.global	_LDRFSin_h2146
.global	_LDRFSin_h2147
.global	_LDRFSin_h2148
.global	_LDRFSin_h2149
.global	_LDRFSin_h2150
.global	_LDRFSin_h2151
.global	_LDRFSin_h2152
.global	_LDRFSin_h2153
.global	_LDRFSin_h2154
.global	_LDRFSin_h2155
.global	_LDRFSin_h2156
.global	_LDRFSin_h2157
.global	_LDRFSin_h2158
.global	_LDRFSin_h2159
.global	_LDRFSin_h2160
.global	_LDRFSin_h2161
.global	_LDRFSin_h2162
.global	_LDRFSin_h2163
.global	_LDRFSin_h2164
.global	_LDRFSin_h2165
.global	_LDRFSin_h2166
.global	_LDRFSin_h2167
.global	_LDRFSin_h2168
.global	_LDRFSin_h2169
.global	_LDRFSin_h2170
.global	_LDRFSin_h2171
.global	_LDRFSin_h2172
.global	_LDRFSin_h2173
.global	_LDRFSin_h2174
.global	_LDRFSin_h2175
.global	_LDRFSin_h2176
.global	_LDRFSin_h2177
.global	_LDRFSin_h2178
.global	_LDRFSin_h2179
.global	_LDRFSin_h2180
.global	_LDRFSin_h2181
.global	_LDRFSin_h2182
.global	_LDRFSin_h2183
.global	_LDRFSin_h2184
.global	_LDRFSin_h2185
.global	_LDRFSin_h2186
.global	_LDRFSin_h2187
.global	_LDRFSin_h2188
.global	_LDRFSin_h2189
.global	_LDRFSin_h2190
.global	_LDRFSin_h2191
.global	_LDRFSin_h2192
.global	_LDRFSin_h2193
.global	_LDRFSin_h2194
.global	_LDRFSin_h2195
.global	_LDRFSin_h2196
.global	_LDRFSin_h2197
.global	_LDRFSin_h2198
.global	_LDRFSin_h2199
.global	_LDRFSin_h2200
.global	_LDRFSin_h2201
.global	_LDRFSin_h2202
.global	_LDRFSin_h2203
.global	_LDRFSin_h2204
.global	_LDRFSin_h2205
.global	_LDRFSin_h2206
.global	_LDRFSin_h2207
.global	_LDRFSin_h2208
.global	_LDRFSin_h2209
.global	_LDRFSin_h2210
.global	_LDRFSin_h2211
.global	_LDRFSin_h2212
.global	_LDRFSin_h2213
.global	_LDRFSin_h2214
.global	_LDRFSin_h2215
.global	_LDRFSin_h2216
.global	_LDRFSin_h2217
.global	_LDRFSin_h2218
.global	_LDRFSin_h2219
.global	_LDRFSin_h2220
.global	_LDRFSin_h2221
.global	_LDRFSin_h2222
.global	_LDRFSin_h2223
.global	_LDRFSin_h2224
.global	_LDRFSin_h2225
.global	_LDRFSin_h2226
.global	_LDRFSin_h2227
.global	_LDRFSin_h2228
.global	_LDRFSin_h2229
.global	_LDRFSin_h2230
.global	_LDRFSin_h2231
.global	_LDRFSin_h2232
.global	_LDRFSin_h2233
.global	_LDRFSin_h2234
.global	_LDRFSin_h2235
.global	_LDRFSin_h2236
.global	_LDRFSin_h2237
.global	_LDRFSin_h2238
.global	_LDRFSin_h2239
.global	_LDRFSin_h2240
.global	_LDRFSin_h2241
.global	_LDRFSin_h2242
.global	_LDRFSin_h2243
.global	_LDRFSin_h2244
.global	_LDRFSin_h2245
.global	_LDRFSin_h2246
.global	_LDRFSin_h2247
.global	_LDRFSin_h2248
.global	_LDRFSin_h2249
.global	_LDRFSin_h2250
.global	_LDRFSin_h2251
.global	_LDRFSin_h2252
.global	_LDRFSin_h2253
.global	_LDRFSin_h2254
.global	_LDRFSin_h2255
.global	_LDRFSin_h2256
.global	_LDRFSin_h2257
.global	_LDRFSin_h2258
.global	_LDRFSin_h2259
.global	_LDRFSin_h2260
.global	_LDRFSin_h2261
.global	_LDRFSin_h2262
.global	_LDRFSin_h2263
.global	_LDRFSin_h2264
.global	_LDRFSin_h2265
.global	_LDRFSin_h2266
.global	_LDRFSin_h2267
.global	_LDRFSin_h2268
.global	_LDRFSin_h2269
.global	_LDRFSin_h2270
.global	_LDRFSin_h2271
.global	_LDRFSin_h2272
.global	_LDRFSin_h2273
.global	_LDRFSin_h2274
.global	_LDRFSin_h2275
.global	_LDRFSin_h2276
.global	_LDRFSin_h2277
.global	_LDRFSin_h2278
.global	_LDRFSin_h2279
.global	_LDRFSin_h2280
.global	_LDRFSin_h2281
.global	_LDRFSin_h2282
.global	_LDRFSin_h2283
.global	_LDRFSin_h2284
.global	_LDRFSin_h2285
.global	_LDRFSin_h2286
.global	_LDRFSin_h2287
.global	_LDRFSin_h2288
.global	_LDRFSin_h2289
.global	_LDRFSin_h2290
.global	_LDRFSin_h2291
.global	_LDRFSin_h2292
.global	_LDRFSin_h2293
.global	_LDRFSin_h2294
.global	_LDRFSin_h2295
.global	_LDRFSin_h2296
.global	_LDRFSin_h2297
.global	_LDRFSin_h2298
.global	_LDRFSin_h2299
.global	_LDRFSin_h2300
.global	_LDRFSin_h2301
.global	_LDRFSin_h2302
.global	_LDRFSin_h2303
.global	_LDRFSin_h2304
.global	_LDRFSin_h2305
.global	_LDRFSin_h2306
.global	_LDRFSin_h2307
.global	_LDRFSin_h2308
.global	_LDRFSin_h2309
.global	_LDRFSin_h2310
.global	_LDRFSin_h2311
.global	_LDRFSin_h2312
.global	_LDRFSin_h2313
.global	_LDRFSin_h2314
.global	_LDRFSin_h2315
.global	_LDRFSin_h2316
.global	_LDRFSin_h2317
.global	_LDRFSin_h2318
.global	_LDRFSin_h2319
.global	_LDRFSin_h2320
.global	_LDRFSin_h2321
.global	_LDRFSin_h2322
.global	_LDRFSin_h2323
.global	_LDRFSin_h2324
.global	_LDRFSin_h2325
.global	_LDRFSin_h2326
.global	_LDRFSin_h2327
.global	_LDRFSin_h2328
.global	_LDRFSin_h2329
.global	_LDRFSin_h2330
.global	_LDRFSin_h2331
.global	_LDRFSin_h2332
.global	_LDRFSin_h2333
.global	_LDRFSin_h2334
.global	_LDRFSin_h2335
.global	_LDRFSin_h2336
.global	_LDRFSin_h2337
.global	_LDRFSin_h2338
.global	_LDRFSin_h2339
.global	_LDRFSin_h2340
.global	_LDRFSin_h2341
.global	_LDRFSin_h2342
.global	_LDRFSin_h2343
.global	_LDRFSin_h2344
.global	_LDRFSin_h2345
.global	_LDRFSin_h2346
.global	_LDRFSin_h2347
.global	_LDRFSin_h2348
.global	_LDRFSin_h2349
.global	_LDRFSin_h2350
.global	_LDRFSin_h2351
.global	_LDRFSin_h2352
.global	_LDRFSin_h2353
.global	_LDRFSin_h2354
.global	_LDRFSin_h2355
.global	_LDRFSin_h2356
.global	_LDRFSin_h2357
.global	_LDRFSin_h2358
.global	_LDRFSin_h2359
.global	_LDRFSin_h2360
.global	_LDRFSin_h2361
.global	_LDRFSin_h2362
.global	_LDRFSin_h2363
.global	_LDRFSin_h2364
.global	_LDRFSin_h2365
.global	_LDRFSin_h2366
.global	_LDRFSin_h2367
.global	_LDRFSin_h2368
.global	_LDRFSin_h2369
.global	_LDRFSin_h2370
.global	_LDRFSin_h2371
.global	_LDRFSin_h2372
.global	_LDRFSin_h2373
.global	_LDRFSin_h2374
.global	_LDRFSin_h2375
.global	_LDRFSin_h2376
.global	_LDRFSin_h2377
.global	_LDRFSin_h2378
.global	_LDRFSin_h2379
.global	_LDRFSin_h2380
.global	_LDRFSin_h2381
.global	_LDRFSin_h2382
.global	_LDRFSin_h2383
.global	_LDRFSin_h2384
.global	_LDRFSin_h2385
.global	_LDRFSin_h2386
.global	_LDRFSin_h2387
.global	_LDRFSin_h2388
.global	_LDRFSin_h2389
.global	_LDRFSin_h2390
.global	_LDRFSin_h2391
.global	_LDRFSin_h2392
.global	_LDRFSin_h2393
.global	_LDRFSin_h2394
.global	_LDRFSin_h2395
.global	_LDRFSin_h2396
.global	_LDRFSin_h2397
.global	_LDRFSin_h2398
.global	_LDRFSin_h2399
.global	_LDRFSin_h2400
.global	_LDRFSin_h2401
.global	_LDRFSin_h2402
.global	_LDRFSin_h2403
.global	_LDRFSin_h2404
.global	_LDRFSin_h2405
.global	_LDRFSin_h2406
.global	_LDRFSin_h2407
.global	_LDRFSin_h2408
.global	_LDRFSin_h2409
.global	_LDRFSin_h2410
.global	_LDRFSin_h2411
.global	_LDRFSin_h2412
.global	_LDRFSin_h2413
.global	_LDRFSin_h2414
.global	_LDRFSin_h2415
.global	_LDRFSin_h2416
.global	_LDRFSin_h2417
.global	_LDRFSin_h2418
.global	_LDRFSin_h2419
.global	_LDRFSin_h2420
.global	_LDRFSin_h2421
.global	_LDRFSin_h2422
.global	_LDRFSin_h2423
.global	_LDRFSin_h2424
.global	_LDRFSin_h2425
.global	_LDRFSin_h2426
.global	_LDRFSin_h2427
.global	_LDRFSin_h2428
.global	_LDRFSin_h2429
.global	_LDRFSin_h2430
.global	_LDRFSin_h2431
.global	_LDRFSin_h2432
.global	_LDRFSin_h2433
.global	_LDRFSin_h2434
.global	_LDRFSin_h2435
.global	_LDRFSin_h2436
.global	_LDRFSin_h2437
.global	_LDRFSin_h2438
.global	_LDRFSin_h2439
.global	_LDRFSin_h2440
.global	_LDRFSin_h2441
.global	_LDRFSin_h2442
.global	_LDRFSin_h2443
.global	_LDRFSin_h2444
.global	_LDRFSin_h2445
.global	_LDRFSin_h2446
.global	_LDRFSin_h2447
.global	_LDRFSin_h2448
.global	_LDRFSin_h2449
.global	_LDRFSin_h2450
.global	_LDRFSin_h2451
.global	_LDRFSin_h2452
.global	_LDRFSin_h2453
.global	_LDRFSin_h2454
.global	_LDRFSin_h2455
.global	_LDRFSin_h2456
.global	_LDRFSin_h2457
.global	_LDRFSin_h2458
.global	_LDRFSin_h2459
.global	_LDRFSin_h2460
.global	_LDRFSin_h2461
.global	_LDRFSin_h2462
.global	_LDRFSin_h2463
.global	_LDRFSin_h2464
.global	_LDRFSin_h2465
.global	_LDRFSin_h2466
.global	_LDRFSin_h2467
.global	_LDRFSin_h2468
.global	_LDRFSin_h2469
.global	_LDRFSin_h2470
.global	_LDRFSin_h2471
.global	_LDRFSin_h2472
.global	_LDRFSin_h2473
.global	_LDRFSin_h2474
.global	_LDRFSin_h2475
.global	_LDRFSin_h2476
.global	_LDRFSin_h247