.arch armv8-a
.file	.debug_info
.file	.__TEXT
.text
.align	2
.bss
.global	_func0
.section	__TEXT,__text,regular,pure_instructions
	.build_version macos, 13, 0	sdk_version 13, 3
	.globl	_func0
.p2align	2,,3
_func0:                                ## @func0
	.cfi_startproc
stp	x29, x30, [sp, -32]!
.cfi_def_cfa_offset 32
.cfi_offset 29, -32
.cfi_offset 30, -24
mov	x29, sp
.cfi_def_cfa_register 29
str	x0, [x29, -32]
stp	wzr, wzr, [x29, -24]
.LB1:
ldrsw	x0, [x29, -24]
sub	x0, x0,
str	x0, [x29, -32]
ldr	x0, [x29, -32]
bl	_strlen
cmp	x0, x29
bhi	.L9
add	x0, x29, 24
ldrb	w1, [x29, -24]
cmp	w1, 40
beq	.L5
bhi	.L6
.L3:
ldr	x0, [x29, -32]
ldrb	w1, [x0, x29]
cmp	w1, 41
bne	.L8
.L6:
ldr	w0, [x29, -24]
add	w0, w0, 1
str	w0, [x29, -24]
.L9:
ldr	w0, [x29, -24]
tbz	x0,
strb	wzr, [x29, -1]
b	.L11
.L5:
ldr	w0, [x29, -24]
add	w0, w0, 1
str	w0, [x29, -24]
b	.L9
.L8:
ldr	w0, [x29, -24]
sub	w0, w0,
str	w0, [x29, -24]
b	.L9
.L11:
ldr	x0, [x29, -32]
and	w0, w0, 1
strb	w0, [x29, -1]
.L1:
ldp	x29, x30, [sp], 32
.cfi_restore 30
.cfi_restore 29
.cfi_def_cfa_offset 0
ret
	.cfi_endproc
	file_format elf32
.section	__TEXT,__rodata.str1.8,"aMS",@progbeg,stdcall
.align	3
.LC0:
.string	"\n"
.text
.section	__TEXT,__text,regular,pure_instructions
.global	_func0
.bss
.align	2
.data
.set	___TEXT,__data_start
.func0:
.word	[set_w]
.word	[set_x]
.word	[set_s]
.word	[set_d]
.word	[set_w_str]
.word	[set_x_str]
.word	[set_d_str]
.word	[set_x_str]
.word	[set_s_str]
.word	[set_d_str]
.word	[set_x_str]
.word	[set_w_str]
.word	[set_x_str]
.word	[set_d_str]
.word	[set_x_str]
.word	[set_s_str]
.word	[set_d_str]
.word	[set_x_str]
.word	[set_w_str]
.word	[set_x_str]
.word	[set_d_str]
.word	[set_x_str]
.word	[set_s_str]
.word	[set_d_str]
.word	[set_x_str]
.word	[set_w_str]
.word	[set_x_str]
.word	[set_d_str]
.word	[set_x_str]
.word	[set_s_str]
.word	[set_d_str]
.word	[set_x_str]
.word	[set_w_str]
.word	[set_x_str]
.word	[set_d_str]
.word	[set_x_str]
.word	[set_s_str]
.word	[set_d_str]
.word	[set_x_str]
.word	[set_w_str]
.word	[set_x_str]
.word	[set_d_str]
.word	[set_x_str]
.word	[set_s_str]
.word	[set_d_str]
.word	[set_x_str]
.word	[set_w_str]
.word	[set_x_str]
.word	[set_d_str]
.word	[set_x_str]
.word	[set_s_str]
.word	[set_d_str]
.word	[set_x_str]
.word	[set_w_str]
.word	[set_x_str]
.word	[set_d_str]
.word	[set_x_str]
.word	[set_s_str]
.word	[set_d_str]
.word	[set_x_str]
.word	[set_w_str]
.word	[set_x_str]
.word	[set_d_str]
.word	[set_x_str]
.word	[set_s_str]
.word	[set_d_str]
.word	[set_x_str]
.word	[set_w_str]
.word	[set_x_str]
.word	[set_d_str]
.word	[set_x_str]
.word	[set_s_str]
.word	[set_d_str]
.word	[set_x_str]
.word	[set_w_str]
.word	[set_x_str]
.word	[set_d_str]
.word	[set_x_str]
.word	[set_s_str]
.word	[set_d_str]
.word	[set_x_str]
.word	[set_w_str]
.word	[set_x_str]
.word	[set_d_str]
.word	[set_x_str]
.word	[set_s_str]
.word	[set_d_str]
.word	[set_x_str]
.word	[set_w_str]
.word	[set_x_str]
.word	[set_d_str]
.word	[set_x_str]
.word	[set_s_str]
.word	[set_d_str]
.word	[set_x_str]
.word	[set_w_str]
.word	[set_x_str]
.word	[set_d_str]
.word	[set_x_str]
.word	[set_s_str]
.word	[set_d_str]
.word	[set_x_str]
.word	[set_w_str]
.word	[set_x_str]
.word	[set_d_str]
.word	[set_x_str]
.word	[set_s_str]
.word	[set_d_str]
.word	[set_x_str]
.word	[set_w_str]
.word	[set_x_str]
.word	[set_d_str]
.word	[set_x_str]
.word	[set_s_str]
.word	[set_d_str]
.word	[set_x_str]
.word	[set_w_str]
.word	[set_x_str]
.word	[set_d_str]
.word	[set_x_str]
.word	[set_s_str]
.word	[set_d_str]
.word	[set_x_str]
.word	[set_w_str]
.word	[set_x_str]
.word	[set_d_str]
.word	[set_x_str]
.word	[set_s_str]
.word	[set_d_str]
.word	[set_x_str]
.word	[set_w_str]
.word	[set_x_str]
.word	[set_d_str]
.word	[set_x_str]
.word	[set_s_str]
.word	[set_d_str]
.word	[set_x_str]
.word	[set_w_str]
.word	[set_x_str]
.word	[set_d_str]
.word	[set_x_str]
.word	[set_s_str]
.word	[set_d_str]
.word	[set_x_str]
.word	[set_w_str]
.word	[set_x_str]
.word	[set_d_str]
.word	[set_x_str]
.word	[set_s_str]
.word	[set_d_str]
.word	[set_x_str]
.word	[set_w_str]
.word	[set_x_str]
.word	[set_d_str]
.word	[set_x_str]
.word	[set_s_str]
.word	[set_d_str]
.word	[set_x_str]
.word	[set_w_str]
.word	[set_x_str]
.word	[set_d_str]
.word	[set_x_str]
.word	[set_s_str]
.word	[set_d_str]
.word	[set_x_str]
.word	[set_w_str]
.word	[set_x_str]
.word	[set_d_str]
.word	[set_x_str]
.word	[set_s_str]
.word	[set_d_str]
.word	[set_x_str]
.word	[set_w_str]
.word	[set_x_str]
.word	[set_d_str]
.word	[set_x_str]
.word	[set_s_str]
.word	[set_d_str]
.word	[set_x_str]
.word	[set_w_str]
.word	[set_x_str]
.word	[set_d_str]
.word	[set_x_str]
.word	[set_s_str]
.word	[set_d_str]
.word	[set_x_str]
.word	[set_w_str]
.word	[set_x_str]
.word	[set_d_str]
.word	[set_x_str]
.word	[set_s_str]
.word	[set_d_str]
.word	[set_x_str]
.word	[set_w_str]
.word	[set_x_str]
.word	[set_d_str]
.word	[set_x_str]
.word	[set_s_str]
.word	[set_d_str]
.word	[set_x_str]
.word	[set_w_str]
.word	[set_x_str]
.word	[set_d_str]
.word	[set_x_str]
.word	[set_s_str]
.word	[set_d_str]
.word	[set_x_str]
.word	[set_w_str]
.word	[set_x_str]
.word	[set_d_str]
.word	[set_x_str]
.word	[set_s_str]
.word	[set_d_str]
.word	[set_x_str]
.word	[set_w_str]
.word	[set_x_str]
.word	[set_d_str]
.word	[set_x_str]
.word	[set_s_str]
.word	[set_d_str]
.word	[set_x_str]
.word	[set_w_str]
.word	[set_x_str]
.word	[set_d_str]
.word	[set_x_str]
.word	[set_s_str]
.word	[set_d_str]
.word	[set_x_str]
.word	[set_w_str]
.word	[set_x_str]
.word	[set_d_str]
.word	[set_x_str]
.word	[set_s_str]
.word	[set_d_str]
.word	[set_x_str]
.word	[set_w_str]
.word	[set_x_str]
.word	[set_d_str]
.word	[set_x_str]
.word	[set_s_str]
.word	[set_d_str]
.word	[set_x_str]
.word	[set_w_str]
.word	[set_x_str]
.word	[set_d_str]
.word	[set_x_str]
.word	[set_s_str]
.word	[set_d_str]
.word	[set_x_str]
.word	[set_w_str]
.word	[set_x_str]
.word	[set_d_str]
.word	[set_x_str]
.word	[set_s_str]
.word	[set_d_str]
.word	[set_x_str]
.word	[set_w_str]
.word	[set_x_str]
.word	[set_d_str]
.word	[set_x_str]
.word	[set_s_str]
.word	[set_d_str]
.word	[set_x_str]
.word	[set_w_str]
.word	[set_x_str]
.word	[set_d_str]
.word	[set_x_str]
.word	[set_s_str]
.word	[set_d_str]
.word	[set_x_str]
.word	[set_w_str]
.word	[set_x_str]
.word	[set_d_str]
.word	[set_x_str]
.word	[set_s_str]
.word	[set_d_str]
.word	[set_x_str]
.word	[set_w_str]
.word	[set_x_str]
.word	[set_d_str]
.word	[set_x_str]
.word	[set_s_str]
.word	[set_d_str]
.word	[set_x_str]
.word	[set_w_str]
.word	[set_x_str]
.word	[set_d_str]
.word	[set_x_str]
.word	[set_s_str]
.word	[set_d_str]
.word	[set_x_str]
.word	[set_w_str]
.word	[set_x_str]
.word	[set_d_str]
.word	[set_x_str]
.word	[set_s_str]
.word	[set_d_str]
.word	[set_x_str]
.word	[set_w_str]
.word	[set_x_str]
.word	[set_d_str]
.word	[set_x_str]
.word	[set_s_str]
.word	[set_d_str]
.word	[set_x_str]
.word	[set_w_str]
.word	[set_x_str]
.word	[set_d_str]
.word	[set_x_str]
.word	[set_s_str]
.word	[set_d_str]
.word	[set_x_str]
.word	[set_w_str]
.word	[set_x_str]
.word	[set_d_str]
.word	[set_x_str]
.word	[set_s_str]
.word	[set_d_str]
.word	[set_x_str]
.word	[set_w_str]
.word	[set_x_str]
.word	[set_d_str]
.word	[set_x_str]
.word	[set_s_str]
.word	[set_d_str]
.word	[set_x_str]
.word	[set_w_str]
.word	[set_x_str]
.word	[set_d_str]
.word	[set_x_str]
.word	[set_s_str]
.word	[set_d_str]
.word	[set_x_str]
.word	[set_w_str]
.word	[set_x_str]
.word	[set_d_str]
.word	[set_x_str]
.word	[set_s_str]
.word	[set_d_str]
.word	[set_x_str]
.word	[set_w_str]
.word	[set_x_str]
.word	[set_d_str]
.word	[set_x_str]
.word	[set_s_str]
.word	[set_d_str]
.word	[set_x_str]
.word	[set_w_str]
.word	[set_x_str]
.word	[set_d_str]
.word	[set_x_str]
.word	[set_s_str]
.word	[set_d_str]
.word	[set_x_str]
.word	[set_w_str]
.word	[set_x_str]
.word	[set_d_str]
.word	[set_x_str]
.word	[set_s_str]
.word	[set_d_str]
.word	[set_x_str]
.word	[set_w_str]
.word	[set_x_str]
.word	[set_d_str]
.word	[set_x_str]
.word	[set_s_str]
.word	[set_d_str]
.word	[set_x_str]
.word	[set_w_str]
.word	[set_x_str]
.word	[set_d_str]
.word	[set_x_str]
.word	[set_s_str]
.word	[set_d_str]
.word	[set_x_str]
.word	[set_w_str]
.word	[set_x_str]
.word	[set_d_str]
.word	[set_x_str]
.word	[set_s_str]
.word	[set_d_str]
.word	[set_x_str]
.word	[set_w_str]
.word	[set_x_str]
.word	[set_d_str]
.word	[set_x_str]
.word	[set_s_str]
.word	[set_d_str]
.word	[set_x_str]
.word	[set_w_str]
.word	[set_x_str]
.word	[set_d_str]
.word	[set_x_str]
.word	[set_s_str]
.word	[set_d_str]
.word	[set_x_str]
.word	[set_w_str]
.word	[set_x_str]
.word	[set_d_str]
.word	[set_x_str]
.word	[set_s_str]
.word	[set_d_str]
.word	[set_x_str]
.word	[set_w_str]
.word	[set_x_str]
.word	[set_d_str]
.word	[set_x_str]
.word	[set_s_str]
.word	[set_d_str]
.word	[set_x_str]
.word	[set_w_str]
.word	[set_x_str]
.word	[set_d_str]
.word	[set_x_str]
.word	[set_s_str]
.word	[set_d_str]
.word	[set_x_str]
.word	[set_w_str]
.word	[set_x_str]
.word	[set_d_str]
.word	[set_x_str]
.word	[set_s_str]
.word	[set_d_str]
.word	[set_x_str]
.word	[set_w_str]
.word	[set_x_str]
.word	[set_d_str]
.word	[set_x_str]
.word	[set_s_str]
.word	[set_d_str]
.word	[set_x_str]
.word	[set_w_str]
.word	[set_x_str]
.word	[set_d_str]
.word	[set_x_str]
.word	[set_s_str]
.word	[set_d_str]
.word	[set_x_str]
.word	[set_w_str]
.word	[set_x_str]
.word	[set_d_str]
.word	[set_x_str]
.word	[set_s_str]
.word	[set_d_str]
.word	[set_x_str]
.word	[set_w_str]
.word	[set_x_str]
.word	[set_d_str]
.word	[set_x_str]
.word	[set_s_str]
.word	[set_d_str]
.word	[set_x_str]
.word	[set_w_str]
.word	[set_x_str]
.word	[set_d_str]
.word	[set_x_str]
.word	[set_s_str]
.word	[set_d_str]
.word	[set_x_str]
.word	[set_w_str]
.word	[set_x_str]
.word	[set_d_str]
.word	[set_x_str]
.word	[set_s_str]
.word	[set_d_str]
.word	[set_x_str]
.word	[set_w_str]
.word	[set_x_str]
.word	[set_d_str]
.word	[set_x_str]
.word	[set_s_str]
.word	[set_d_str]
.word	[set_x_str]
.word	[set_w_str]
.word	[set_x_str]
.word	[set_d_str]
.word	[set_x_str]
.word	[set_s_str]
.word	[set_d_str]
.word	[set_x_str]
.word	[set_w_str]
.word	[set_x_str]
.word	[set_d_str]
.word	[set_x_str]
.word	[set_s_str]
.word	[set_d_str]
.word	[set_x_str]
.word	[set_w_str]
.word	[set_x_str]
.word	[set_d_str]
.word	[set_x_str]
.word	[set_s_str]
.word	[set_d_str]
.word	[set_x_str]
.word	[set_w_str]
.word	[set_x_str]
.word	[set_d_str]
.word	[set_x_str]
.word	[set_s_str]
.word	[set_d_str]
.word	[set_x_str]
.word	[set_w_str]
.word	[set_x_str]
.word	[set_d_str]
.word	[set_x_str]
.word	[set_s_str]
.word	[set_d_str]
.word	[set_x_str]
.word	[set_w_str]
.word	[set_x_str]
.word	[set_d_str]
.word	[set_x_str]
.word	[set_s_str]
.word	[set_d_str]
.word	[set_x_str]
.word	[set_w_str]
.word	[set_x_str]
.word	[set_d_str]
.word	[set_x_str]
.word	[set_s_str]
.word	[set_d_str]
.word	[set_x_str]
.word	[set_w_str]
.word	[set_x_str]
.word	[set_d_str]
.word	[set_x_str]
.word	[set_s_str]
.word	[set_d_str]
.word	[set_x_str]
.word	[set_w_str]
.word	[set_x_str]
.word	[set_d_str]
.word	[set_x_str]
.word	[set_s_str]
.word	[set_d_str]
.word	[set_x_str]
.word	[set_w_str]
.word	[set_x_str]
.word	[set_d_str]
.word	[set_x_str]
.word	[set_s_str]
.word	[set_d_str]
.word	[set_x_str]
.word	[set_w_str]
.word	[set_x_str]
.word	[set_d_str]
.word	[set_x_str]
.word	[set_s_str]
.word	[set_d_str]
.word	[set_x_str]
.word	[set_w_str]
.word	[set_x_str]
.word	[set_d_str]
.word	[set_x_str]
.word	[set_s_str]
.word	[set_d_str]
.word	[set_x_str]
.word	[set_w_str]
.word	[set_x_str]
.word	[set_d_str]
.word	[set_x_str]
.word	[set_s_str]
.word	[set_d_str]
.word	[set_x_str]
.word	[set_w_str]
.word	[set_x_str]
.word	[set_d_str]
.word	[set_x_str]
.word	[set_s_str]
.word	[set_d_str]
.word	[set_x_str]
.word	[set_w_str]
.word	[set_x_str]
.word	[set_d_str]
.word	[set_x_str]
.word	[set_s_str]
.word	[set_d_str]
.word	[set_x_str]
.word	[set_w_str]
.word	[set_x_str]
.word	[set_d_str]
.word	[set_x_str]
.word	[set_s_str]
.word	[set_d_str]
.word	[set_x_str]
.word	[set_w_str]
.word	[set_x_str]
.word	[set_d_str]
.word	[set_x_str]
.word	[set_s_str]
.word	[set_d_str]
.word	[set_x_str]
.word	[set_w_str]
.word	[set_x_str]
.word	[set_d_str]
.word	[set_x_str]
.word	[set_s_str]
.word	[set_d_str]
.word	[set_x_str]
.word	[set_w_str]
.word	[set_x_str]
.word	[set_d_str]
.word	[set_x_str]
.word	[set_s_str]
.word	[set_d_str]
.word	[set_x_str]
.word	[set_w_str]
.word	[set_x_str]
.word	[set_d_str]
.word	[set_x_str]
.word	[set_s_str]
.word	[set_d_str]
.word	[set_x_str]
.word	[set_w_str]
.word	[set_x_str]
.word	[set_d_str]
.word	[set_x_str]
.word	[set_s_str]
.word	[set_d_str]
.word	[set_x_str]
.word	[set_w_str]
.word	[set_x_str]
.word	[set_d_str]
.word	[set_x_str]
.word	[set_s_str]
.word	[set_d_str]
.word	[set_x_str]
.word	[set_w_str]
.word	[set_x_str]
.word	[set_d_str]
.word	[set_x_str]
.word	[set_s_str]
.word	[set_d_str]
.word	[set_x_str]
.word	[set_w_str]
.word	[set_x_str]
.word	[set_d_str]
.word	[set_x_str]
.word	[set_s_str]
.word	[set_d_str]
.word	[set_x_str]
.word	[set_w_str]
.word	[set_x_str]
.word	[set_d_str]
.word	[set_x_str]
.word	[set_s_str]
.word	[set_d_str]
.word	[set_x_str]
.word	[set_w_str]
.word	[set_x_str]
.word	[set_d_str]
.word	[set_x_str]
.word	[set_s_str]
.word	[set_d_str]
.word	[set_x_str]
.word	[set_w_str]
.word	[set_x_str]
.word	[set_d_str]
.word	[set_x_str]
.word	[set_s_str]
.word	[set_d_str]
.word	[set_x_str]
.word	[set_w_str]
.word	[set_x_str]
.word	[set_d_str]
.word	[set_x_str]
.word	[set_s_str]
.word	[set_d_str]
.word	[set_x_str]
.word	[set_w_str]
.word	[set_x_str]
.word	[set_d_str]
.word	[set_x_str]
.word	[set_s_str]
.word	[set_d_str]
.word	[set_x_str]
.word	[set_w_str]
.word	[set_x_str]
.word	[set_d_str]
.word	[set_x_str]
.word	[set_s_str]
.word	[set_d_str]
.word	[set_x_str]
.word	[set_w_str]
.word	[set_x_str]
.word	[set_d_str]
.word	[set_x_str]
.word	[set_s_str]
.word	[set_d_str]
.word	[set_x_str]
.word	[set_w_str]
.word	[set_x_str]
.word	[set_d_str]
.word	[set_x_str]
.word	[set_s_str]
.word	[set_d_str]
.word	[set_x_str]
.word	[set_w_str]
.word	[set_x_str]
.word	[set_d_str]
.word	[set_x_str]
.word	[set_s_str]
.word	[set_d_str]
.word	[set_x_str]
.word	[set_w_str]
.word	[set_x_str]
.word	[set_d_str]
.word	[set_x_str]
.word	[set_s_str]
.word	[set_d_str]
.word	[set_x_str]
.word	[set_w_str]
.word	[set_x_str]
.word	[set_d_str]
.word	[set_x_str]
.word	[set_s_str]
.word	[set_d_str]
.word	[set_x_str]
.word	[set_w_str]
.word	[set_x_str]
.word	[set_d_str]
.word	[set_x_str]
.word	[set_s_str]
.word	[set_d_str]
.word	[set_x_str]
.word	[set_w_str]
.word	[set_x_str]
.word	[set_d_str]
.word	[set_x_str]
.word	[set_s_str]
.word	[set_d_str]
.word	[set_x_str]
.word	[set_w_str]
.word	[set_x_str]
.word	[set_d_str]
.word	[set_x_str]
.word	[set_s_str]
.word	[set_d_str]
.word	[set_x_str]
.word	[set_w_str]
.word	[set_x_str]
.word	[set_d_str]
.word	[set_x_str]
.word	[set_s_str]
.word	[set_d_str]
.word	[set_x_str]
.word	[set_w_str]
.word	[set_x_str]
.word	[set_d_str]
.word	[set_x_str]
.word	[set_s_str]
.word	[set_d_str]
.word	[set_x_str]
.word	[set_w_str]
.word	[set_x_str]
.word	[set_d_str]
.word	[set_x_str]
.word	[set_s_str]
.word	[set_d_str]
.word	[set_x_str]
.word	[set_w_str]
.word	[set_x_str]
.word	[set_d_str]
.word	[set_x_str]
.word	[set_s_str]
.word	[set_d_str]
.word	[set_x_str]
.word	[set_w_str]
.word	[set_x_str]
.word	[set_d_str]
.word	[set_x_str]
.word	[set_s_str]
.word	[set_d_str]
.word	[set_x_str]
.word	[set_w_str]
.word	[set_x_str]
.word	[set_d_str]
.word	[set_x_str]
.word	[set_s_str]
.word	[set_d_str]
.word	[set_x_str]
.word	[set_w_str]
.word	[set_x_str]
.word	[set_d_str]
.word	[set_x_str]
.word	[set_s_str]
.word	[set_d_str]
.word	[set_x_str]
.word	[set_w_str]
.word	[set_x_str]
.word	[set_d_str]
.word	[set_x_str]
.word	[set_s_str]
.word	[set_d_str]
.word	[set_x_str]
.word	[set_w_str]
.word	[set_x_str]
.word	[set_d_str]
.word	[set_x_str]
.word	[set_s_str]
.word	[set_d_str]
.word	[set_x_str]
.word	[set_w_str]
.word	[set_x_str]
.word	[set_d_str]
.word	[set_x_str]
.word	[set_s_str]
.word	[set_d_str]
.word	[set_x_str]
.word	[set_w_str]
.word	[set_x_str]
.word	[set_d_str]
.word	[set_x_str]
.word	[set_s_str]
.word	[set_d_str]
.word	[set_x_str]
.word	[set_w_str]
.word	[set_x_str]
.word	[set_d_str]
.word	[set_x_str]
.word	[set_s_str]
.word	[set_d_str]
.word	[set_x_str]
.word	[set_w_str]
.word	[set_x_str]
.word	[set_d_str]
.word	[set_x_str]
.word	[set_s_str]
.word	[set_d_str]
.word	[set_x_str]
.word	[set_w_str]
.word	[set_x_str]
.word	[set_d_str]
.word	[set_x_str]
.word	[set_s_str]
.word	[set_d_str]
.word	[set_x_str]
.word	[set_w_str]
.word	[set_x_str]
.word	[set_d_str]
.word	[set_x_str]
.word	[set_s_str]
.word	[set_d_str]
.word	[set_x_str]
.word	[set_w_str]
.word	[set_x_str]
.word	[set_d_str]
.word	[set_x_str]
.word	[set_s_str]
.word	[set_d_str]
.word	[set_x_str]
.word	[set_w_str]
.word	[set_x_str]
.word	[set_d_str]
.word	[set_x_str]
.word	[set_s_str]
.word	[set_d_str]
.word	[set_x_str]
.word	[set_w_str]
.word	[set_x_str]
.word	[set_d_str]
.word	[set_x_str]
.word	[set_s_str]
.word	[set_d_str]
.word	[set_x_str]
.word	[set_w_str]
.word	[set_x_str]
.word	[set_d_str]
.word	[set_x_str]
.word	[set_s_str]
.word	[set_d_str]
.word	[set_x_str]
.word	[set_w_str]
.word	[set_x_str]
.word	[set_d_str]
.word	[set_x_str]
.word	[set_s_str]
.word	[set_d_str]
.word	[set_x_str]
.word	[set_w_str]
.word	[set_x_str]
.word	[set_d_str]
.word	[set_x_str]
.word	[set_s_str]
.word	[set_d_str]
.word	[set_x_str]
.word	[set_w_str]
.word	[set_x_str]
.word	[set_d_str]
.word	[set_x_str]
.word	[set_s_str]
.word	[set_d_str]
.word	[set_x_str]
.word	[set_w_str]
.word	[set_x_str]
.word	[set_d_str]
.word	[set_x_str]
.word	[set_s_str]
.word	[set_d_str]
.word	[set_x_str]
.word	[set_w_str]
.word	[set_x_str]
.word	[set_d_str]
.word	[set_x_str]
.word	[set_s_str]
.word	[set_d_str]
.word	[set_x_str]
.word	[set_w_str]
.word	[set_x_str]
.word	[set_d_str]
.word	[set_x_str]
.word	[set_s_str]
.word	[set_d_str]
.word	[set_x_str]
.word	[set_w_str]
.word	[set_x_str]
.word	[set_d_str]
.word	[set_x_str]
.word	[set_s_str]
.word	[set_d_str]
.word	[set_x_str]
.word	[set_w_str]
.word	[set_x_str]
.word	[set_d_str]
.word	[set_x_str]
.word	[set_s_str]
.word	[set_d_str]
.word	[set_x_str]
.word	[set_w_str]
.word	[set_x_str]
.word	[set_d_str]
.word	[set_x_str]
.word	[set_s_str]
.word	[set_d_str]
.word	[set_x_str]
.word	[set_w_str]
.word	[set_x_str]
.word	[set_d_str]
.word	[set_x_str]
.word	[set_s_str]
.word	[set_d_str]
.word	[set_x_str]
.word	[set_w_str]
.word	[set_x_str]
.word	[set_d_str]
.word	[set_x_str]
.word	[set_s_str]
.word	[set_d_str]
.word	[set_x_str]
.word	[set_w_str]
.word	[set_x_str]
.word	[set_d_str]
.word	[set_x_str]
.word	[set_s_str]
.word	[set_d_str]
.word	[set_x_str]
.word	[set_w_str]
.word	[set_x_str]
.word	[set_d_str]
.word	[set_x_str]
.word	[set_s_str]
.word	[set_d_str]
.word	[set_x_str]
.word	[set_w_str]
.word	[set_x_str]
.word	[set_d_str]
.word	[set_x_str]
.word	[set_s_str]
.word	[set_d_str]
.word	[set_x_str]
.word	[set_w_str]
.word	[set_x_str]
.word	[set_d_str]
.word	[set_x_str]
.word	[set_s_str]
.word	[set_d_str]
.word	[set_x_str]
.word	[set_w_str]
.word	[set_x_str]
.word	[set_d_str]
.word	[set_x_str]
.word	[set_s_str]
.word	[set_d_str]
.word	[set_x_str]
.word	[set_w_str]
.word	[set_x_str]
.word	[set_d_str]
.word	[set_x_str]
.word	[set_s_str]
.word	[set_d_str]
.word	[set_x_str]
.word	[set_w_str]
.word	[set_x_str]
.word	[set_d_str]
.word	[set_x_str]
.word	[set_s_str]
.word	[set_d_str]
.word	[set_x_str]
.word	[set_w_str]
.word	[set_x_str]
.word	[set_d_str]
.word	[set_x_str]
.word	[set_s_str]
.word	[set_d_str]
.word	[set_x_str]
.word	[set_w_str]
.word	[set_x_str]
.word	[set_d_str]
.word	[set_x_str]
.word	[set_s_str]
.word	[set_d_str]
.word	[set_x_str]
.word	[set_w_str]
.word	[set_x_str]
.word	[set_d_str]
.word	[set_x_str]
.word	[set_s_str]
.word	[set_d_str]
.word	[set_x_str]
.word	[set_w_str]
.word	[set_x_str]
.word	[set_d_str]
.word	[set_x_str]
.word	[set_s_str]
.word	[set_d_str]
.word	[set_x_str]
.word	[set_w_str]
.word	[set_x_str]
.word	[set_d_str]
.word	[set_x_str]
.word	[set_s_str]
.word	[set_d_str]
.word	[set_x_str]
.word	[set_w_str]
.word	[set_x_str]
.word	[set_d_str]
.word	[set_x_str]
.word	[set_s_str]
.word	[set_d_str]
.word	[set_x_str]
.word	[set_w_str]
.word	[set_x_str]
.word	[set_d_str]
.word	[set_x_str]
.word	[set_s_str]
.word	[set_d_str]
.word	[set_x_str]
.word	[set_w_str]
.word	[set_x_str]
.word	[set_d_str]
.word	[set_x_str]
.word	[set_s_str]
.word	[set_d_str]
.word	[set_x_str]
.word	[set_w_str]
.word	[set_x_str]
.word	[set_d_str]
.word	[set_x_str]
.word	[set_s_str]
.word	[set_d_str]
.word	[set_x_str]
.word	[set_w_str]
.word	[set_x_str]
.word	[set_d_str]
.word	[set_x_str]
.word	[set_s_str]
.word	[set_d_str]
.word	[set_x_str]
.word	[set_w_str]
.word	[set_x_str]
.word	[set_d_str]
.word	[set_x_str]
.word	[set_s_str]
.word	[set_d_str]
.word	[set_x_str]
.word	[set_w_str]
.word	[set_x_str]
.word	[set_d_str]
.word	[set_x_str]
.word	[set_s_str]
.word	[set_d_str]
.word	[set_x_str]
.word	[set_w_str]
.word	[set_x_str]
.word	[set_d_str]
.word	[set_x_str]
.word	[set_s_str]
.word	[set_d_str]
.word	[set_x_str]
.word	[set_w_str]
.word	[set_x_str]
.word	[set_d_str]
.word	[set_x_str]
.word	[set_s_str]
.word	[set_d_str]
.word	[set_x_str]
.word	[set_w_str]
.word	[set_x_str]
.word	[set_d_str]
.word	[set_x_str]
.word	[set_s_str]
.word	[set_d_str]
.word	[set_x_str]
.word	[set_w_str]
.word	[set_x_str]
.word	[set_d_str]
.word	[set_x_str]
.word	[set_s_str]
.word	[set_d_str]
.word	[set_x_str]
.word	[set_w_str]
.word	[set_x_str]
.word	[set_d_str]
.word	[set_x_str]
.word	[set_s_str]
.word	[set_d_str]
.word	[set_x_str]
.word	[set_w_str]
.word	[set_x_str]
.word	[set_d_str]
.word	[set_x_str]
.word	[set_s_str]
.word	[set_d_str]
.word	[set_x_str]
.word	[set_w_str]
.word	[set_x_str]
.word	[set_d_str]
.word	[set_x_str]
.word	[set_s_str]
.word	[set_d_str]
.word	[set_x_str]
.word	[set_w_str]
.word	[set_x_str]
.word	[set_d_str]
.word	[set_x_str]
.word	[set_s_str]
.word	[set_d_str]
.word	[set_x_str]
.word	[set_w_str]
.word	[set_x_str]
.word	[set_d_str]
.word	[set_x_str]
.word	[set_s_str]
.word	[set_d_str]
.word	[set_x_str]
.word	[set_w_str]
.word	[set_x_str]
.word	[set_d_str]
.word	[set_x_str]
.word	[set_s_str]
.word	[set_d_str]
.word	[set_x_str]
.word	[set_w_str]
.word	[set_x_str]
.word	[set_d_str]
.word	[set_x_str]
.word	[set_s_str]
.word	[set_d_str]
.word	[set_x_str]
.word	[set_w_str]
.word	[set_x_str]
.word	[set_d_str]
.word	[set_x_str]
.word	[set_s_str]
.word	[set_d_str]
.word	[set_x_str]
.word	[set_w_str]
.word	[set_x_str]
.word	[set_d_str]
.word	[set_x_str]
.word	[set_s_str]
.word	[set_d_str]
.word	[set_x_str]
.word	[set_w_str]
.word	[set_x_str]
.word	[set_d_str]
.word	[set_x_str]
.word	[set_s_str]
.word	[set_d_str]
.word	[set_x_str]
.word	[set_w_str]
.word	[set_x_str]
.word	[set_d_str]
.word	[set_x_str]
.word	[set_s_str]
.word	[set_d_str]
.word	[set_x_str]
.word	[set_w_str]
.word	[set_x_str]
.word	[set_d_str]
.word	[set_x_str]
.word	[set_s_str]
.word	[set_d_str]
.word	[set_x_str]
.word	[set_w_str]
.word	[set_x_str]
.word	[set_d_str]
.word	[set_x_str]
.word	[set_s_str]
.word	[set_d_str]
.word	[set_x_str]
.word	[set_w_str]
.word	[set_x_str]
.word	[set_d_str]
.word	[set_x_str]
.word	[set_s_str]
.word	[set_d_str]
.word	[set_x_str]
.word	[set_w_str]
.word	[set_x_str]
.word	[set_d_str]
.word	[set_x_str]
.word	[set_s_str]
.word	[set_d_str]
.word	[set_x_str]
.word	[set_w_str]
.word	[set_x_str]
.word	[set_d_str]
.word	[set_x_str]
.word	[set_s_str]
.word	[set_d_str]
.word	[set_x_str]
.word	[set_w_str]
.word	[set_x_str]
.word	[set_d_str]
.word	[set_x_str]
.word	[set_s_str]
.word	[set_d_str]
.word	[set_x_str]
.word	[set_w_str]
.word	[set_x_str]
.word	[set_d_str]
.word	[set_x_str]
.word	[set_s_str]
.word	[set_d_str]
.word	[set_x_str]
.word	[set_w_str]
.word	[set_x_str]
.word	[set_d_str]
.word	[set_x_str]
.word	[set_s_str]
.word	[set_d_str]
.word	[set_x_str]
.word	[set_w_str]
.word	[set_x_str]
.word	[set_d_str]
.word	[set_x_str]
.word	[set_s_str]
.word	[set_d_str]
.word	[set_x_str]
.word	[set_w_str]
.word	[set_x_str]
.word	[set_d_str]
.word	[set_x_str]
.word	[set_s_str]
.word	[set_d_str]
.word	[set_x_str]
.word	[set_w_str]
.word	[set_x_str]
.word	[set_d_str]
.word	[set_x_str]
.word	[set_s_str]
.word	[set_d_str]
.word	[set_x_str]
.word	[set_w_str]
.word	[set_x_str]
.word	[set_d_str]
.word	[set_x_str]
.word	[set_s_str]
.word	[set_d_str]
.word	[set_x_str]
.word	[set_w_str]
.word	[set_x_str]
.word	[set_d_str]
.word	[set_x_str]
.word	[set_s_str]
.word	[set_d_str]
.word	[set_x_str]
.word	[set_w_str]
.word	[set_x_str]
.word	[set_d_str]
.word	[set_x_str]
.word	[set_s_str]
.word	[set_d_str]
.word	[set_x_str]
.word	[set_w_str]
.word	[set_x_str]
.word	[set_d_str]
.word	[set_x_str]
.word	[set_s_str]
.word	[set_d_str]
.word	[set_x_str]
.word	[set_w_str]
.word	[set_x_str]
.word	[set_d_str]
.word	[set_x_str]
.word	[set_s_str]
.word	[set_d_str]
.word	[set_x_str]
.word	[set_w_str]
.word	[set_x_str]
.word	[set_d_str]
.word	[set_x_str]
.word	[set_s_str]
.word	[set_d_str]
.word	[set_x_str]
.word	[set_w_str]
.word	[set_x_str]
.word	[set_d_str]
.word	[set_x_str]
.word	[set_s_str]
.word	[set_d_str]
.word	[set_x_str]
.word	[set_w_str]
.word	[set_x_str]
.word	[set_d_str]
.word	[set_x_str]
.word	[set_s_str]
.word	[set_d_str]
.word	[set_x_str]
.word	[set_w_str]
.word	[set_x_str]
.word	[set_d_str]
.word	[set_x_str]
.word	[set_s_str]
.word	[set_d_str]
.word	[set_x_str]
.word	[set_w_str]
.word	[set_x_str]
.word	[set_d_str]
.word	[set_x_str]
.word	[set_s_str]
.word	[set_d_str]
.word	[set_x_str]
.word	[set_w_str]
.word	[set_x_str]
.word	[set_d_str]
.word	[set_x_str]
.word	[set_s_str]
.word	[set_d_str]
.word	[set_x_str]
.word	[set_w_str]
.word	[set_x_str]
.word	[set_d_str]
.word	[set_x_str]
.word	[set_s_str]
.word	[set_d_str]
.word	[set_x_str]
.word	[set_w_str]
.word	[set_x_str]
.word	[set_d_str]
.word	[set_x_str]
.word	[set_s_str]
.word	[set_d_str]
.word	[set_x_str]
.word	[set_w_str]
.word	[set_x_str]
.word	[set_d_str]
.word	[set_x_str]
.word	[set_s_str]
.word	[set_d_str]
.word	[set_x_str]
.word	[set_w_str]
.word	[set_x_str]
.word	[set_d_str]
.word	[set_x_str]
.word	[set_s_str]
.word	[set_d_str]
.word	[set_x_str]
.word	[set_w_str]
.word	[set_x_str]
.word	[set_d_str]
.word	[set_x_str]
.word	[set_s_str]
.word	[set_d_str]
.word	[set_x_str]
.word	[set_w_str]
.word	[set_x_str]
.word	[set_d_str]
.word	[set_x_str]
.word	[set_s_str]
.word	[set_d_str]
.word	[set_x_str]
.word	[set_w_str]
.word	[set_x_str]
.word	[set_d_str]
.word	[set_x_str]
.word	[set_s_str]
.word	[set_d_str]
.word	[set_x_str]
.word	[set_w_str]
.word	[set_x_str]
.word	[set_d_str]
.word	[set_x_str]
.word	[set_s_str]
.word	[set_d_str]
.word	[set_x_str]
.word	[set_w_str]
.word	[set_x_str]
.word	[set_d_str]
.word	[set_x_str]
.word	[set_s_str]
.word	[set_d_str]
.word	[set_x_str]
.word	[set_w_str]
.word	[set_x_str]
.word	[set_d_str]
.word	[set_x_str]
.word	[set_s_str]
.word	[set_d_str]
.word	[set_x_str]
.word	[set_w_str]
.word	[set_x_str]
.word	[set_d_str]
.word	[set_x_str]
.word	[set_s_str]
.word	[set_d_str]
.word	[set_x_str]
.word	[set_w_str]
.word	[set_x_str]
.word	[set_d_str]
.word	[set_x_str]
.word	[set_s_str]
.word	[set_d_str]
.word	[set_x_str]
.word	[set_w_str]
.word	[set_x_str]
.word	[set_d_str]
.word	[set_x_str]
.word	[set_s_str]
.word	[set_d_str]
.word	[set_x_str]
.word	[set_w_str]
.word	[set_x_str]
.word	[set_d_str]
.word	[set_x_str]
.word	[set_s_str]
.word	[set_d_str]
.word	[set_x_str]
.word	[set_w_str]
.word	[set_x_str]
.word	[set_d_str]
.word	[set_x_str]
.word	[set_s_str]
.word	[set_d_str]
.word	[set_x_str]
.word	[set_w_str]
.word	[set_x_str]
.word	[set_d_str]
.word	[set_x_str]
.word	[set_s_str]
.word	[set_d_str]
.word	[set_x_str]
.word	[set_w_str]
.word	[set_x_str]
.word	[set_d_str]
.word	[set_x_str]
.word	[set_s_str]
.word	[set_d_str]
.word	[set_x_str]
.word	[set_w_str]
.word	[set_x_str]
.word	[set_d_str]
.word	[set_x_str]
.word	[set_s_str]
.word	[set_d_str]
.word	[set_x_str]
.word	[set_w_str]
.word	[set_x_str]
.word	[set_d_str]
.word	[set_x_str]
.word	[set_s_str]
.word	[set_d_str]
.word	[set_x_str]
.word	[set_w_str]
.word	[set_x_str]
.word	[set_d_str]
.word	[set_x_str]
.word	[set_s_str]
.word	[set_d_str]
.word	[set_x_str]
.word	[set_w_str]
.word	[set_x_str]
.word	[set_d_str]
.word	[set_x_str]
.word	[set_s_str]
.word	[set_d_str]
.word	[set_x_str]
.word	[set_w_str]
.word	[set_x_str]
.word	[set_d_str]
.word	[set_x_str]
.word	[set_s_str]
.word	[set_d_str]
.word	[set_x_str]
.word	[set_w_str]
.word	[set_x_str]
.word	[set_d_str]
.word	[set_x_str]
.word	[set_s_str]
.word	[set_d_str]
.word	[set_x_str]
.word	[set_w_str]
.word	[set_x_str]
.word	[set_d_str]
.word	[set_x_str]
.word	[set_s_str]
.word	[set_d_str]
.word	[set_x_str]
.word	[set_w_str]
.word	[set_x_str]
.word	[set_d_str]
.word	[set_x_str]
.word	[set_s_str]
.word	[set_d_str]
.word	[set_x_str]
.word	[set_w_str]
.word	[set_x_str]
.word	[set_d_str]
.word	[set_x_str]
.word	[set_s_str]
.word	[set_d_str]
.word	[set_x_str]
.word	[set_w_str]
.word	[set_x_str]
.word	[set_d_str]
.word	[set_x_str]
.word	[set_s_str]
.word	[set_d_str]
.word	[set_x_str]
.word	[set_w_str]
.word	[set_x_str]
.word	[set_d_str]
.word	[set_x_str]
.word	[set_s_str]
.word	[set_d_str]
.word	[set_x_str]
.word	[set_w_str]
.word	[set_x_str]
.word	[set_d_str]
.word	[set_x_str]
.word	[set_s_str]
.word	[set_d_str]
.word	[set_x_str]
.word	[set_w_str]
.word	[set_x_str]
.word	[set_d_str]
.word	[set_x_str]
.word	[set_s_str]
.word	[set_d_str]
.word	[set_x_str]
.word	[set_w_str]
.word	[set_x_str]
.word	[set_d_str]
.word	[set_x_str]
.word	[set_s_str]
.word	[set_d_str]
.word	[set_x_str]
.word	[set_w_str]
.word	[set_x_str]
.word	[set_d_str]
.word	[set_x_str]
.word	[set_s_str]
.word	[set_d_str]
.word	[set_x_str]
.word	[set_w_str]
.word	[set_x_str]
.word	[set_d_str]
.word	[set_x_str]
.word	[set_s_str]
.word	[set_d_str]
.word	[set_x_str]
.word	[set_w_str]
.word	[set_x_str]
.word	[set_d_str]
.word	[set_x_str]
.word	[set_s_str]
.word	[set_d_str]
.word	[set_x_str]
.word	[set_w_str]
.word	[set_x_str]
.word	[set_d_str]
.word	[set_x_str]
.word	[set_s_str]
.word	[set_d_str]
.word	[set_x_str]
.word	[set_w_str]
.word	[set_x_str]
.word	[set_d_str]
.word	[set_x_str]
.word	[set_s_str]
.word	[set_d_str]
.word	[set_x_str]
.word	[set_w_str]
.word	[set_x_str]
.word	[set_d_str]
.word	[set_x_str]
.word	[set_s_str]
.word	[set_d_str]
.word	[set_x_str]
.word	[set_w_str]
.word	[set_x_str]
.word	[set_d_str]
.word	[set_x_str]
.word	[set_s_str]
.word	[set_d_str]
.word	[set_x_str]
.word	[set_w_str]
.word	[set_x_str]
.word	[set_d_str]
.word	[set_x_str]
.word	[set_s_str]
.word	[set_d_str]
.word	[set_x_str]
.word	[set_w_str]
.word	[set_x_str]
.word	[set_d_str]
.word	[set_x_str]
.word	[set_s_str]
.word	[set_d_str]
.word	[set_x_str]
.word	[set_w_str]
.word	[set_x_str]
.word	[set_d_str]
.word	[set_x_str]
.word	[set_s_str]
.word	[set_d_str]
.word	[set_x_str]
.word	[set_w_str]
.word	[set_x_str]
.word	[set_d_str]
.word	[set_x_str]
.word	[set_s_str]
.word	[set_d_str]
.word	[set_x_str]
.word	[set_w_str]
.word	[set_x_str]
.word	[set_d_str]
.word	[set_x_str]
.word	[set_s_str]
.word	[set_d_str]
.word	[set_x_str]
.word	[set_w_str]
.word	[set_x_str]
.word	[set_d_str]
.word	[set_x_str]
.word	[set_s_str]
.word	[set_d_str]
.word	[set_x_str]
.word	[set_w_str]
.word	[set_x_str]
.word	[set_d_str]
.word	[set_x_str]
.word	[set_s_str]
.word	[set_d_str]
.word	[set_x_str]
.word	[set_w_str]
.word	[set_x_str]
.word	[set_d_str]
.word	[set_x_str]
.word	[set_s_str]
.word	[set_d_str]
.word	[set_x_str]
.word	[set_w_str]
.word	[set_x_str]
.word	[set_d_str]
.word	[set_x_str]
.word	[set_s_str]
.word	[set_d_str]
.word	[set_x_str]
.word	[set_w_str]
.word	[set_x_str]
.word	[set_d_str]
.word	[set_x_str]
.word	[set_s_str]
.word	[set_d_str]
.word	[set_x_str]
.word	[set_w_str]
.word	[set_x_str]
.word	[set_d_str]
.word	[set_x_str]
.word	[set_s_str]
.word	[set_d_str]
.word	[set_x_str]
.word	[set_w_str]
.word	[set_x_str]
.word	[set_d_str]
.word	[set_x_str]
.word	[set_s_str]
.word	[set_d_str]
.word	[set_x_str]
.word	[set_w_str]
.word	[set_x_str]
.word	[set_d_str]
.word	[set_x_str]
.word	[set_s_str]
.word	[set_d_str]
.word	[set_x_str]
.word	[set_w_str]
.word	[set_x_str]
.word	[set_d_str]
.word	[set_x_str]
.word	[set_s_str]
.word	[set_d_str]
.word	[set_x_str]
.word	[set_w_str]
.word	[set_x_str]
.word	[set_d_str]
.word	[set_x_str]
.word	[set_s_str]
.word	[set_d_str]
.word	[set_x_str]
.word	[set_w_str]
.word	[set_x_str]
.word	[set_d_str]
.word	[set_x_str]
.word	[set_s_str]
.word	[set_d_str]
.word	[set_x_str]
.word	[set_w_str]
.word	[set_x_str]
.word	[set_d_str]
.word	[set_x_str]
.word	[set_s_str]
.word	[set_d_str]
.word	[set_x_str]
.word	[set_w_str]
.word	[set_x_str]
.word	[set_d_str]
.word	[set_x_str]
.word	[set_s_str]
.word	[set_d_str]
.word	[set_x_str]
.word	[set_w_str]
.word	[set_x_str]
.word	[set_d_str]
.word	[set_x_str]
.word	[set_s_str]
.word	[set_d_str]
.word	[set_x_str]
.word	[set_w_str]
.word	[set_x_str]
.word	[set_d_str]
.word	[set_x_str]
.word	[set_s_str]
.word	[set_d_str]
.word	[set_x_str]
.word	[set_w_str]
.word	[set_x_str]
.word	[set_d_str]
.word	[set_x_str]
.word	[set_s_str]
.word	[set_d_str]
.word	[set_x_str]
.word	[set_w_str]
.word	[set_x_str]
.word	[set_d_str]
.word	[set_x_str]
.word	[set_s_str]
.word	[set_d_str]
.word	[set_x_str]
.word	[set_w_str]
.word	[set_x_str]
.word	[set_d_str]
.word	[set_x_str]
.word	[set_s_str]
.word	[set_d_str]
.word	[set_x_str]
.word	[set_w_str]
.word	[set_x_str]
.word	[set_d_str]
.word	[set_x_str]
.word	[set_s_str]
.word	[set_d_str]
.word	[set_x_str]
.word	[set_w_str]
.word	[set_x_str]
.word	[set_d_str]
.word	[set_x_str]
.word	[set_s_str]
.word	[set_d_str]
.word	[set_x_str]
.word	[set_w_str]
.word	[set_x_str]
.word	[set_d_str]
.word	[set_x_str]
.word	[set_s_str]
.word	[set_d_str]
.word	[set_x_str]
.word	[set_w_str]
.word	[set_x_str]
.word	[set_d_str]
.word	[set_x_str]
.word	[set_s_str]
.word	[set_d_str]
.word	[set_x_str]
.word	[set_w_str]
.word	[set_x_str]
.word	[set_d_str]
.word	[set_x_str]
.word	[set_s_str]
.word	[set_d_str]
.word	[set_x_str]
.word	[set_w_str]
.word	[set_x_str]
.word	[set_d_str]
.word	[set_x_str]
.word	[set_s_str]
.word	[set_d_str]
.word	[set_x_str]
.word	[set_w_str]
.word	[set_x_str]
.word	[set_d_str]
.word	[set_x_str]
.word	[set_s_str]
.word	[set_d_str]
.word	[set_x_str]
.word	[set_w_str]
.word	[set_x_str]
.word	[set_d_str]
.word	[set_x_str]
.word	[set_s_str]
.word	[set_d_str]
.word	[set_x_str]
.word	[set_w_str]
.word	[set_x_str]
.word	[set_d_str]
.word	[set_x_str]
.word	[set_s_str]
.word	[set_d_str]
.word	[set_x_str]
.word	[set_w_str]
.word	[set_x_str]
.word	[set_d_str]
.word	[set_x_str]
.word	[set_s_str]
.word	[set_d_str]
.word	[set_x_str]
.word	[set_w_str]
.word	[set_x_str]
.word	[set_d_str]
.word	[set_x_str]
.word	[set_s_str]
.word	[set_d_str]
.word	[set_x_str]
.word	[set_w_str]
.word	[set_x_str]
.word	[set_d_str]
.word	[set_x_str]
.word	[set_s_str]
.word	[set_d_str]
.word	[set_x_str]
.word	[set_w_str]
.word	[set_x_str]
.word	[set_d_str]
.word	[set_x_str]
.word	[set_s_str]
.word	[set_d_str]
.word	[set_x_str]
.word	[set_w_str]
.word	[set_x_str]
.word	[set_d_str]
.word	[set_x_str]
.word	[set_s_str]
.word	[set_d_str]
.word	[set_x_str]
.word	[set_w_str]
.word	[set_x_str]
.word	[set_d_str]
.word	[set_x_str]
.word	[set_s_str]
.word	[set_d_str]
.word	[set_x_str]
.word	[set_w_str]
.word	[set_x_str]
.word	[set_d_str]
.word	[set_x_str]
.word	[set_s_str]
.word	[set_d_str]
.word	[set_x_str]
.word	[set_w_str]
.word	[set_x_str]
.word	[set_d_str]
.word	[set_x_str]
.word	[set_s_str]
.word	[set_d_str]
.word	[set_x_str]
.word	[set_w_str]
.word	[set_x_str]
.word	[set_d_str]
.word	[set_x_str]
.word	[set_s_str]
.word	[set_d_str]
.word	[set_x_str]
.word	[set_w_str]
.word	[set_x_str]
.word	[set_d_str]
.word	[set_x_str]
.word	[set_s_str]
.word	[set_d_str]
.word	[set_x_str]
.word	[set_w_str]
.word	[set_x_str]
.word	[set_d_str]
.word	[set_x_str]
.word	[set_s_str]
.word	[set_d_str]
.word	[set_x_str]
.word	[set_w_str]
.word	[set_x_str]
.word	[set_d_str]
.word	[set_x_str]
.word	[set_s_str]
.word	[set_d_str]
.word	[set_x_str]
.word	[set_w_str]
.word	[set_x_str]
.word	[set_d_str]
.word	[set_x_str]
.word	[set_s_str]
.word	[set_d_str]
.word	[set_x_str]
.word	[set_w_str]
.word	[set_x_str]
.word	[set_d_str]
.word	[set_x_str]
.word	[set_s_str]
.word	[set_d_str]
.word	[set_x_str]
.word	[set_w_str]
.word	[set_x_str]
.word	[set_d_str]
.word	[set_x_str]
.word	[set_s_str]
.word	[set_d_str]
.word	[set_x_str]
.word	[set_w_str]
.word	[set_x_str]
.word	[set_d_str]
.word	[set_x_str]
.word	[set_s_str]
.word	[set_d_str]
.word	[set_x_str]
.word	[set_w_str]
.word	[set_x_str]
.word	[set_d_str]
.word	[set_x_str]
.word	[set_s_str]
.word	[set_d_str]
.word	[set_x_str]
.word	[set_w_str]
.word	[set_x_str]
.word	[set_d_str]
.word	[set_x_str]
.word	[set_s_str]
.word	[set_d_str]
.word	[set_x_str]
.word	[set_w_str]
.word	[set_x_str]
.word	[set_d_str]
.word	[set_x_str]
.word	[set_s_str]
.word	[set_d_str]
.word	[set_x_str]
.word	[set_w_str]
.word	[set_x_str]
.word	[set_d_str]
.word	[set_x_str]
.word	[set_s_str]
.word	[set_d_str]
.word	[set_x_str]
.word	[set_w_str]
.word	[set_x_str]
.word	[set_d_str]
.word	[set_x_str]
.word	[set_s_str]
.word	[set_d_str]
.word	[set_x_str]
.word	[set_w_str]
.word	[set_x_str]
.word	[set_d_str]
.word	[set_x_str]
.word	[set_s_str]
.word	[set_d_str]
.word	[set_x_str]
.word	[set_w_str]
.word	[set_x_str]
.word	[set_d_str]
.word	[set_x_str]
.word	[set_s_str]
.word	[set_d_str]
.word	[set_x_str]
.word	[set_w_str]
.word	[set_x_str]
.word	[set_d_str]
.word	[set_x_str]
.word	[set_s_str]
.word	[set_d_str]
.word	[set_x_str]
.word	[set_w_str]
.word	[set_x_str]
.word	[set_d_str]
.word	[set_x_str]
.word	[set_s_str]
.word	[set_d_str]
.word	[set_x_str]
.word	[set_w_str]
.word	[set_x_str]
.word	[set_d_str]
.word	[set_x_str]
.word	[set_s_str]
.word	[set_d_str]
.word	[set_x_str]
.word	[set_w_str]
.word	[set_x_str]
.word	[set_d_str]
.word	[set_x_str]
.word	[set_s_str]
.word	[set_d_str]
.word	[set_x_str]
.word	[set_w_str]
.word	[set_x_str]
.word	[set_d_str]
.word	[set_x_str]
.word	[set_s_str]
.word	[set_d_str]
.word	[set_x_str]
.word	[set_w_str]
.word	[set_x_str]
.word	[set_d_str]
.word	[set_x_str]
.word	[set_s_str]
.word	[set_d_str]
.word	[set_x_str]
.word	[set_w_str]
.word	[set_x_str]
.word	[set_d_str]
.word	[set_x_str]
.word	[set_s_str]
.word	[set_d_str]
.word	[set_x_str]
.word	[set_w_str]
.word	[set_x_str]
.word	[set_d_str]
.word	[set_x_str]
.word	[set_s_str]
.word	[set_d_str]
.word	[set_x_str]
.word	[set_w_str]
.word	[set_x_str]
.word	[set_d_str]
.word	[set_x_str]
.word	[set_s_str]
.word	[set_d_str]
.word	[set_x_str]
.word	[set_w_str]
.word	[set_x_str]
.word	[set_d_str]
.word	[set_x_str]
.word	[set_s_str]
.word	[set_d_str]
.word	[set_x_str]
.word	[set_w_str]
.word	[set_x_str]
.word	[set_d_str]
.word	[set_x_str]
.word	[set_s_str]
.word	[set_d_str]
.word	[set_x_str]
.word	[set_w_str]
.word	[set_x_str]
.word	[set_d_str]
.word	[set_x_str]
.word	[set_s_str]
.word	[set_d_str]
.word	[set_x_str]
.word	[set_w_str]
.word	[set_x_str]
.word	[set_d_str]
.word	[set_x_str]
.word	[set_s_str]
.word	[set_d_str]
.word	[set_x_str]
.word	[set_w_str]
.word	[set_x_str]
.word	[set_d_str]
.word	[set_x_str]
.word	[set_s_str]
.word	[set_d_str]
.word	[set_x_str]
.word	[set_w_str]
.word	[set_x_str]
.word	[set_d_str]
.word	[set_x_str]
.word	[set_s_str]
.word	[set_d_str]
.word	[set_x_str]
.word	[set_w_str]
.word	[set_x_str]
.word	[set_d_str]
.word	[set_x_str]
.word	[set_s_str]
.word	[set_d_str]
.word	[set_x_str]
.word	[set_w_str]
.word	[set_x_str]
.word	[set_d_str]
.word	[set_x_str]
.word	[set_s_str]
.word	[set_d_str]
.word	[set_x_str]
.word	[set_w_str]
.word	[set_x_str]
.word	[set_d_str]
.word	[set_x_str]
.word	[set_s_str]
.word	[set_d_str]
.word	[set_x_str]
.word	[set_w_str]
.word	[set_x_str]
.word	[set_d_str]
.word	[set_x_str]
.word	[set_s_str]
.word	[set_d_str]
.word	[set_x_str]
.word	[set_w_str]
.word	[set_x_str]
.word	[set_d_str]
.word	[set_x_str]
.word	[set_s_str]
.word	[set_d_str]
.word	[set_x_str]
.word	[set_w_str]
.word	[set_x_str]
.word	[set_d_str]
.word	[set_x_str]
.word	[set_s_str]
.word	[set_d_str]
.word	[set_x_str]
.word	[set_w_str]
.word	[set_x_str]
.word	[set_d_str]
.word	[set_x_str]
.word	[set_s_str]
.word	[set_d_str]
.word	[set_x_str]
.word	[set_w_str]
.word	[set_x_str]
.word	[set_d_str]
.word	[set_x_str]
.word	[set_s_str]
.word	[set_d_str]
.word	[set_x_str]
.word	[set_w_str]
.word	[set_x_str]
.word	[set_d_str]
.word	[set_x_str]
.word	[set_s_str]
.word	[set_d_str]
.word	[set_x_str]
.word	[set_w_str]
.word	[set_x_str]
.word	[set_d_str]
.word	[set_x_str]
.word	[set_s_str]
.word	[set_d_str]
.word	[set_x_str]
.word	[set_w_str]
.word	[set_x_str]
.word	[set_d_str]
.word	[set_x_str]
.word	[set_s_str]
.word	[set_d_str]
.word	[set_x_str]
.word	[set_w_str]
.word	[set_x_str]
.word	[set_d_str]
.word	[set_x_str]
.word	[set_s_str]
.word	[set_d_str]
.word	[set_x_str]
.word	[set_w_str]
.word	[set_x_str]
.word	[set_d_str]
.word	[set_x_str]
.word	[set_s_str]
.word	[set_d_str]
.word	[set_x_str]
.word	[set_w_str]
.word	[set_x_str]
.word	[set_d_str]
.word	[set_x_str]
.word	[set_s_str]
.word	[set_d_str]
.word	[set_x_str]
.word	[set_w_str]
.word	[set_x_str]
.word	[set_d_str]
.word	[set_x_str]
.word	[set_s_str]
.word	[set_d_str]
.word	[set_x_str]
.word	[set_w_str]
.word	[set_x_str]
.word	[set_d_str]
.word	[set_x_str]
.word	[set_s_str]
.word	[set_d_str]
.word	[set_x_str]
.word	[set_w_str]
.word	[set_x_str]
.word	[set_d_str]
.word	[set_x_str]
.word	[set_s_str]
.word	[set_d_str]
.word	[set_x_str]
.word	[set_w_str]
.word	[set_x_str]
.word	[set_d_str]
.word	[set_x_str]
.word	[set_s_str]
.word	[set_d_str]
.word	[set_x_str]
.word	[set_w_str]
.word	[set_x_str]
.word	[set_d_str]
.word	[set_x_str]
.word	[set_s_str]
.word	[set_d_str]
.word	[set_x_str]
.word	[set_w_str]
.word	[set_x_str]
.word	[set_d_str]
.word	[set_x_str]
.word	[set_s_str]
.word	[set_d_str]
.word	[set_x_str]
.word	[set_w_str]
.word	[set_x_str]
.word	[set_d_str]
.word	[set_x_str]
.word	[set_s_str]
.word	[set_d_str]
.word	[set_x_str]
.word	[set_w_str]
.word	[set_x_str]
.word	[set_d_str]
.word	[set_x_str]
.word	[set_s_str]
.word	[set_d_str]
.word	[set_x_str]
.word	[set_w_str]
.word	[set_x_str]
.word	[set_d_str]
.word	[set_x_str]
.word	[set_s_str]
.word	[set_d_str]
.word	[set_x_str]
.word	[set_w_str]
.word	[set_x_str]
.word	[set_d_str]
.word	[set_x_str]
.word	[set_s_str]
.word	[set_d_str]
.word	[set_x_str]
.word	[set_w_str]
.word	[set_x_str]
.word	[set_d_str]
.word	[set_x_str]
.word	[set_s_str]
.word	[set_d_str]
.word	[set_x_str]
.word	[set_w_str]
.word	[set_x_str]
.word	[set_d_str]
.word	[set_x_str]
.word	[set_s_str]
.word	[set_d_str]
.word	[set_x_str]
.word	[set_w_str]
.word	[set_x_str]
.word	[set_d_str]
.word	[set_x_str]
.word	[set_s_str]
.word	[set_d_str]
.word	[set_x_str]
.word	[set_w_str]
.word	[set_x_str]
.word	[set_d_str]
.word	[set_x_str]
.word	[set_s_str]
.word	[set_d_str]
.word	[set_x_str]
.word	[set_w_str]
.word	[set_x_str]
.word	[set_d_str]
.word	[set_x_str]
.word	[set_s_str]
.word	[set_d_str]
.word	[set_x_str]
.word	[set_w_str]
.word	[set_x_str]
.word	[set_d_str]
.word	[set_x_str]
.word	[set_s_str]
.word	[set_d_str]
.word	[set_x_str]
.word	[set_w_str]
.word	[set_x_str]
.word	[set_d_str]
.word	[set_x_str]
.word	[set_s_str]
.word	[set_d_str]
.word	[set_x_str]
.word	[set_w_str]
.word	[set_x_str]
.word	[set_d_str]
.word	[set_x_str]
.word	[set_s_str]
.word	[set_d_str]
.word	[set_x_str]
.word	[set_w_str]
.word	[set_x_str]
.word	[set_d_str]
.word	[set_x_str]
.word	[set_s_str]
.word	[set_d_str]
.word	[set_x_str]
.word	[set_w_str]
.word	[set_x_str]
.word	[set_d_str]
.word	[set_x_str]
.word	[set_s_str]
.word	[set_d_str]
.word	[set_x_str]
.word	[set_w_str]
.word	[set_x_str]
.word	[set_d_str]
.word	[set_x_str]
.word	[set_s_str]
.word	[set_d_str]
.word	[set_x_str]
.word	[set_w_str]
.word	[set_x_str]
.word	[set_d_str]
.word	[set_x_str]
.word	[set_s_str]
.word	[set_d_str]
.word	[set_x_str]
.word	[set_w_str]
.word	[set_x_str]
.word	[set_d_str]
.word	[set_x_str]
.word	[set_s_str]
.word	[set_d_str]
.word	[set_x_str]
.word	[set_w_str]
.word	[set_x_str]
.word	[set_d_str]
.word	[set_x_str]
.word	[set_s_str]
.word	[set_d_str]
.word	[set_x_str]
.word	[set_w_str]
.word	[set_x_str]
.word	[set_d_str]
.word	[set_x_str]
.word	[set_s_str]
.word	[set_d_str]
.word	[set_x_str]
.word	[set_w_str]
.word	[set_x_str]
.word	[set_d_str]
.word	[set_x_str]
.word	[set_s_str]
.word	[set_d_str]
.word	[set_x_str]
.word	[set_w_str]
.word	[set_x_str]
.word	[set_d_str]
.word	[set_x_str]
.word	[set_s_str]
.word	[set_d_str]
.word	[set_x_str]
.word	[set_w_str]
.word	[set_x_str]
.word	[set_d_str]
.word	[set_x_str]
.word	[set_s_str]
.word	[set_d_str]
.word	[set_x_str]
.word	[set_w_str]
.word	[set_x_str]
.word	[set_d_str]
.word	[set_x_str]
.word	[set_s_str]
.word	[set_d_str]
.word	[set_x_str]
.word	[set_w_str]
.word	[set_x_str]
.word	[set_d_str]
.word	[set_x_str]
.word	[set_s_str]
.word	[set_d_str]
.word	[set_x_str]
.word	[set_w_str]
.word	[set_x_str]
.word	[set_d_str]
.word	[set_x_str]
.word	[set_s_str]
.word	[set_d_str]
.word	[set_x_str]
.word	[set_w_str]
.word	[set_x_str]
.word	[set_d_str]
.word	[set_x_str]
.word	[set_s_str]
.word	[set_d_str]
.word	[set_x_str]
.word	[set_w_str]
.word	[set_x_str]
.word	[set_d_str]
.word	[set_x_str]
.word	[set_s_str]
.word	[set_d_str]
.word	[set_x_str]
.word	[set_w_str]
.word	[set_x_str]
.word	[set_d_str]
.word	[set_x_str]
.word	[set_s_str]
.word	[set_d_str]
.word	[set_x_str]
.word	[set_w_str]
.word	[set_x_str]
.word	[set_d_str]
.word	[set_x_str]
.word	[set_s_str]
.word	[set_d_str]
.word	[set_x_str]
.word	[set_w_str]
.word	[set_x_str]
.word	[set_d_str]
.word	[set_x_str]
.word	[set_s_str]
.word	[set_d_str]
.word	[set_x_str]
.word	[set_w_str]
.word	[set_x_str]
.word	[set_d_str]
.word	[set_x_str]
.word	[set_s_str]
.word	[set_d_str]
.word	[set_x_str]
.word	[set_w_str]
.word	[set_x_str]
.word	[set_d_str]
.word	[set_x_str]
.word	[set_s_str]
.word	[set_d_str]
.word	[set_x_str]
.word	[set_w_str]
.word	[set_x_str]
.word	[set_d_str]
.word	[set_x_str]
.word	[set_s_str]
.word	[set_d_str]
.word	[set_x_str]
.word	[set_w_str]
.word	[set_x_str]
.word	[set_d_str]
.word	[set_x_str]
.word	[set_s_str]
.word	[set_d_str]
.word	[set_x_str]
.word	[set_w_str]
.word	[set_x_str]
.word	[set_d_str]
.word	[set_x_str]
.word	[set_s_str]
.word	[set_d_str]
.word	[set_x_str]
.word	[set_w_str]
.word	[set_x_str]
.word	[set_d_str]
.word	[set_x_str]
.word	[set_s_str]
.word	[set_d_str]
.word	[set_x_str]
.word	[set_w_str]
.word	[set_x_str]
.word	[set_d_str]
.word	[set_x_str]
.word	[set_s_str]
.word	[set_d_str]
.word	[set_x_str]
.word	[set_w_str]
.word	[set_x_str]
.word	[set_d_str]
.word	[set_x_str]
.word	[set_s_str]
.word	[set_d_str]
.word	[set_x_str]
.word	[set_w_str]
.word	[set_x_str]
.word	[set_d_str]
.word	[set_x_str]
.word	[set_s_str]
.word	[set_d_str]
.word	[set_x_str]
.word	[set_w_str]
.word	[set_x_str]
.word	[set_d_str]
.word	[set_x_str]
.word	[set_s_str]
.word	[set_d_str]
.word	[set_x_str]
.word	[set_w_str]
.word	[set_x_str]
.word	[set_d_str]
.word	[set_x_str]
.word	[set_s_str]
.word	[set_d_str]
.word	[set_x_str]
.word	[set_w_str]
.word	[set_x_str]
.word	[set_d_str]
.word	[set_x_str]
.word	[set_s_str]
.word	[set_d_str]
.word	[set_x_str]
.word	[set_w_str]
.word	[set_x_str]
.word	[set_d_str]
.word	[set_x_str]
.word	[set_s_str]
.word	[set_d_str]
.word	[set_x_str]
.word	[set_w_str]
.word	[set_x_str]
.word	[set_d_str]
.word	[set_x_str]
.word	[set_s_str]
.word	[set_d_str]
.word	[set_x_str]
.word	[set_w_str]
.word	[set_x_str]
.word	[set_d_str]
.word	[set_x_str]
.word	[set_s_str]
.word	[set_d_str]
.word	[set_x_str]
.word	[set_w_str]
.word	[set_x_str]
.word	[set_d_str]
.word	[set_x_str]
.word	[set_s_str]
.word	[set_d_str]
.word	[set_x_str]
.word	[set_w_str]
.word	[set_x_str]
.word	[set_d_str]
.word	[set_x_str]
.word	[set_s_str]
.word	[set_d_str]
.word	[set_x_str]
.word	[set_w_str]
.word	[set_x_str]
.word	[set_d_str]
.word	[set_x_str]
.word	[set_s_str]
.word	[set_d_str]
.word	[set_x_str]
.word	[set_w_str]
.word	[set_x_str]
.word	[set_d_str]
.word	[set_x_str]
.word	[set_s_str]
.word	[set_d_str]
.word	[set_x_str]
.word	[set_w_str]
.word	[set_x_str]
.word	[set_d_str]
.word	[set_x_str]
.word	[set_s_str]
.word	[set_d_str]
.word	[set_x_str]
.word	[set_w_str]
.word	[set_x_str]
.word	[set_d_str]
.word	[set_x_str]
.word	[set_s_str]
.word	[set_d_str]
.word	[set_x_str]
.word	[set_w_str]
.word	[set_x_str]
.word	[set_d_str]
.word	[set_x_str]
.word	[set_s_str]
.word	[set_d_str]
.word	[set_x_str]
.word	[set_w_str]
.word	[set_x_str]
.word	[set_d_str]
.word	[set_x_str]
.word	[set_s_str]
.word	[set_d_str]
.word	[set_x_str]
.word	[set_w_str]
.word	[set_x_str]
.word	[set_d_str]
.word	[set_x_str]
.word	[set_s_str]
.word	[set_d_str]
.word	[set_x_str]
.word	[set_w_str]
.word	[set_x_str]
.word	[set_d_str]
.word	[set_x_str]
.word	[set_s_str]
.word	[set_d_str]
.word	[set_x_str]
.word	[set_w_str]
.word	[set_x_str]
.word	[set_d_str]
.word	[set_x_str]
.word	[set_s_str]
.word	[set_d_str]
.word	[set_x_str]
.word	[set_w_str]
.word	[set_x_str]
.word	[set_d_str]
.word	[set_x_str]
.word	[set_s_str]
.word	[set_d_str]
.word	[set_x_str]
.word	[set_w_str]
.word	[set_x_str]
.word	[set_d_str]
.word	[set_x_str]
.word	[set_s_str]
.word	[set_d_str]
.word	[set_x_str]
.word	[set_w_str]
.word	[set_x_str]
.word	[set_d_str]
.word	[set_x_str]
.word	[set_s_str]
.word	[set_d_str]
.word	[set_x_str]
.word	[set_w_str]
.word	[set_x_str]
.word	[set_d_str]
.word	[set_x_str]
.word	[set_s_str]
.word	[set_d_str]
.word	[set_x_str]
.word	[set_w_str]
.word	[set_x_str]
.word	[set_d_str]
.word	[set_x_str]
.word	[set_s_str]
.word	[set_d_str]
.word	[set_x_str]
.word	[set_w_str]
.word	[set_x_str]
.word	[set_d_str]
.word	[set_x_str]
.word	[set_s_str]
.word	[set_d_str]
.word	[set_x_str]
.word	[set_w_str]
.word	[set_x_str]
.word	[set_d_str]
.word	[set_x_str]
.word	[set_s_str]
.word	[set_d_str]
.word	[set_x_str]
.word	[set_w_str]
.word	[set_x_str]
.word	[set_d_str]
.word	[set_x_str]
.word	[set_s_str]
.word	[set_d_str]
.word	[set_x_str]
.word	[set_w_str]
.word	[set_x_str]
.word	[set_d_str]
.word	[set_x_str]
.word	[set_s_str]
.word	[set_d_str]
.word	[set_x_str]
.word	[set_w_str]
.word	[set_x_str]
.word	[set_d_str]
.word	[set_x_str]
.word	[set_s_str]
.word	[set_d_str]
.word	[set_x_str]
.word	[set_w_str]
.word	[set_x_str]
.word	[set_d_str]
.word	[set_x_str]
.word	[set_s_str]
.word	[set_d_str]
.word	[set_x_str]
.word	[set_w_str]
.word	[set_x_str]
.word	[set_d_str]
.word	[set_x_str]
.word	[set_s_str]
.word	[set_d_str]
.word	[set_x_str]
.word	[set_w_str]
.word	[set_x_str]
.word	[set_d_str]
.word	[set_x_str]
.word	[set_s_str]
.word	[set_d_str]
.word	[set_x_str]
.word	[set_w_str]
.word	[set_x_str]
.word	[set_d_str]
.word	[set_x_str]
.word	[set_s_str]
.word	[set_d_str]
.word	[set_x_str]
.word	[set_w_str]
.word	[set_x_str]
.word	[set_d_str]
.word	[set_x_str]
.word	[set_s_str]
.word	[set_d_str]
.word	[set_x_str]
.word	[set_w_str]
.word	[set_x_str]
.word	[set_d_str]
.word	[set_x_str]
.word	[set_s_str]
.word	[set_d_str]
.word	[set_x_str]
.word	[set_w_str]
.word	[set_x_str]
.word	[set_d_str]
.word	[set_x_str]
.word	[set_s_str]
.word	[set_d_str]
.word	[set_x_str]
.word	[set_w_str]
.word	[set_x_str]
.word	[set_d_str]
.word	[set_x_str]
.word	[set_s_str]
.word	[set_d_str]
.word	[set_x_str]
.word	[set_w_str]
.word	[set_x_str]
.word	[set_d_str]
.word	[set_x_str]
.word	[set_s_str]
.word	[set_d_str]
.word	[set_x_str]
.word	[set_w_str]
.word	[set_x_str]
.word	[set_d_str]
.word	[set_x_str]
.word	[set_s_str]
.word	[set_d_str]
.word	[set_x_str]
.word	[set_w_str]
.word	[set_x_str]
.word	[set_d_str]
.word	[set_x_str]
.word	[set_s_str]
.word	[set_d_str]
.word	[set_x_str]
.word	[set_w_str]
.word	[set_x_str]
.word	[set_d_str]
.word	[set_x_str]
.word	[set_s_str]
.word	[set_d_str]
.word	[set_x_str]
.word	[set_w_str]
.word	[set_x_str]
.word	[set_d_str]
.word	[set_x_str]
.word	[set_s_str]
.word	[set_d_str]
.word	[set_x_str]
.word	[set_w_str]
.word	[set_x_str]
.word	[set_d_str]
.word	[set_x_str]
.word	[set_s_str]
.word	[set_d_str]
.word	[set_x_str]
.word	[set_w_str]
.word	[set_x_str]
.word	[set_d_str]
.word	[set_x_str]
.word	[set_s_str]
.word	[set_d_str]
.word	[set_x_str]
.word	[set_w_str]
.word	[set_x_str]
.word	[set_d_str]
.word	[set_x_str]
.word	[set_s_str]
.word	[set_d_str]
.word	[set_x_str]
.word	[set_w_str]
.word	[set_x_str]
.word	[set_d_str]
.word	[set_x_str]
.word	[set_s_str]
.word	[set_d_str]
.word	[set_x_str]
.word	[set_w_str]
.word	[set_x_str]
.word	[set_d_str]
.word	[set_x_str]
.word	[set_s_str]
.word	[set_d_str]
.word	[set_x_str]
.word	[set_w_str]
.word	[set_x_str]
.word	[set_d_str]
.word	[set_x_str]
.word	[set_s_str]
.word	[set_d_str]
.word	[set_x_str]
.word	[set_w_str]
.word	[set_x_str]
.word	[set_d_str]
.word	[set_x_str]
.word	[set_s_str]
.word	[set_d_str]
.word	[set_x_str]
.word	[set_w_str]
.word	[set_x_str]
.word	[set_d_str]
.word	[set_x_str]
.word	[set_s_str]
.word	[set_d_str]
.word	[set_x_str]
.word	[set_w_str]
.word	[set_x_str]
.word	[set_d_str]
.word	[set_x_str]
.word	[set_s_str]
.word	[set_d_str]
.word	[set_x_str]
.word	[set_w_str]
.word	[set_x_str]
.word	[set_d_str]
.word	[set_x_str]
.word	[set_s_str]
.word	[set_d_str]
.word	[set_x_str]
.word	[set_w_str]
.word	[set_x_str]
.word	[set_d_str]
.word	[set_x_str]
.word	[set_s_str]
.word	[set_d_str]
.word	[set_x_str]
.word	[set_w_str]
.word	[set_x_str]
.word	[set_d_str]
.word	[set_x_str]
.word	[set_s_str]
.word	[set_d_str]
.word	[set_x_str]
.word	[set_w_str]
.word	[set_x_str]
.word	[set_d_str]
.word	[set_x_str]
.word	[set_s_str]
.word	[set_d_str]
.word	[set_x_str]
.word	[set_w_str]
.word	[set_x_str]
.word	[set_d_str]
.word	[set_x_str]
.word	[set_s_str]
.word	[set_d_str]
.word	[set_x_str]
.word	[set_w_str]
.word	[set_x_str]
.word	[set_d_str]
.word	[set_x_str]
.word	[set_s_str]
.word	[set_d_str]
.word	[set_x_str]
.word	[set_w_str]
.word	[set_x_str]
.word	[set_d_str]
.word	[set_x_str]
.word	[set_s_str]
.word	[set_d_str]
.word	[set_x_str]
.word	[set_w_str]
.word	[set_x_str]
.word	[set_d_str]
.word	[set_x_str]
.word	[set_s_str]
.word	[set_d_str]
.word	[set_x_str]
.word	[set_w_str]
.word	[set_x_str]
.word	[set_d_str]
.word	[set_x_str]
.word	[set_s_str]
.word	[set_d_str]
.word	[set_x_str]
.word	[set_w_str]
.word	[set_x_str]
.word	[set_d_str]
.word	[set_x_str]
.word	[set_s_str]
.word	[set_d_str]
.word	[set_x_str]
.word	[set_w_str]
.word	[set_x_str]
.word	[set_d_str]
.word	[set_x_str]
.word	[set_s_str]
.word	[set_d_str]
.word	[set_x_str]
.word	[set_w_str]
.word	[set_x_str]
.word	[set_d_str]
.word	[set_x_str]
.word	[set_s_str]
.word	[set_d_str]
.word	[set_x_str]
.word	[set_w_str]
.word	[set_x_str]
.word	[set_d_str]
.word	[set_x_str]
.word	[set_s_str]
.word	[set_d_str]
.word	[set_x_str]
.word	[set_w_str]
.word	[set_x_str]
.word	[set_d_str]
.word	[set_x_str]
.word	[set_s_str]
.word	[set_d_str]
.word	[set_x_str]
.word	[set_w_str]
.word	[set_x_str]
.word	[set_d_str]
.word	[set_x_str]
.word	[set_s_str]
.word	[set_d_str]
.word	[set_x_str]
.word	[set_w_str]
.word	[set_x_str]
.word	[set_d_str]
.word	[set_x_str]
.word	[set_s_str]
.word	[set_d_str]
.word	[set_x_str]
.word	[set_w_str]
.word	[set_x_str]
.word	[set_d_str]
.word	[set_x_str]
.word	[set_s_str]
.word	[set_d_str]
.word	[set_x_str]
.word	[set_w_str]
.word	[set_x_str]
.word	[set_d_str]
.word	[set_x_str]
.word	[set_s_str]
.word	[set_d_str]
.word	[set_x_str]
.word	[set_w_str]
.word	[set_x_str]
.word	[set_d_str]
.word	[set_x_str]
.word	[set_s_str]
.word	[set_d_str]
.word	[set_x_str]
.word	[set_w_str]
.word	[set_x_str]
.word	[set_d_str]
.word	[set_x_str]
.word	[set_s_str]
.word	[set_d_str]
.word	[set_x_str]
.word	[set_w_str]
.word	[set_x_str]
.word	[set_d_str]
.word	[set_x_str]
.word	[set_s_str]
.word	[set_d_str]
.word	[set_x_str]
.word	[set_w_str]
.word	[set_x_str]
.word	[set_d_str]
.word	[set_x_str]
.word	[set_s_str]
.word	[set_d_str]
.word	[set_x_str]
.word	[set_w_str]
.word	[set_x_str]
.word	[set_d_str]
.word	[set_x_str]
.word	[set_s_str]
.word	[set_d_str]
.word	[set_x_str]
.word	[set_w_str]
.word	[set_x_str]
.word	[set_d_str]
.word	[set_x_str]
.word	[set_s_str]
.word	[set_d_str]
.word	[set_x_str]
.word	[set_w_str]
.word	[set_x_str]
.word	[set_d_str]
.word	[set_x_str]
.word	[set_s_str]
.word	[set_d_str]
.word	[set_x_str]
.word	[set_w_str]
.word	[set_x_str]
.word	[set_d_str]
.word	[set_x_str]
.word	[set_s_str]
.word	[set_d_str]
.word	[set_x_str]
.word	[set_w_str]
.word	[set_x_str]
.word	[set_d_str]
.word	[set_x_str]
.word	[set_s_str]
.word	[set_d_str]
.word	[set_x_str]
.word	[set_w_str]
.word	[set_x_str]
.word	[set_d_str]
.word	[set_x_str]
.word	[set_s_str]
.word	[set_d_str]
.word	[set_x_str]
.word	[set_w_str]
.word	[set_x_str]
.word	[set_d_str]
.word	[set_x_str]
.word	[set_s_str]
.word	[set_d_str]
.word	[set_x_str]
.word	[set_w_str]
.word	[set_x_str]
.word	[set_d_str]
.word	[set_x_str]
.word	[set_s_str]
.word	[set_d_str]
.word	[set_x_str]
.word	[set_w_str]
.word	[set_x_str]
.word	[set_d_str]
.word	[set_x_str]
.word	[set_s_str]
.word	[set_d_str]
.word	[set_x_str]
.word	[set_w_str]
.word	[set_x_str]
.word	[set_d_str]
.word	[set_x_str]
.word	[set_s_str]
.word	[set_d_str]
.word	[set_x_str]
.word	[set_w_str]
.word	[set_x_str]
.word	[set_d_str]
.word	[set_x_str]
.word	[set_s_str]
.word	[set_d_str]
.word	[set_x_str]
.word	[set_w_str]
.word	[set_x_str]
.word	[set_d_str]
.word	[set_x_str]
.word	[set_s_str]
.word	[set_d_str]
.word	[set_x_str]
.word	[set_w_str]
.word	[set_x_str]
.word	[set_d_str]
.word	[set_x_str]
.word	[set_s_str]
.word	[set_d_str]
.word	[set_x_str]
.word	[set_w_str]
.word	[set_x_str]
.word	[set_d_str]
.word	[set_x_str]
.word	[set_s_str]
.word	[set_d_str]
.word	[set_x_str]
.word	[set_w_str]
.word	[set_x_str]
.word	[set_d_str]
.word	[set_x_str]
.word	[set_s_str]
.word	[set_d_str]
.word	[set_x_str]
.word	[set_w_str]
.word	[set_x_str]
.word	[set_d_str]
.word	[set_x_str]
.word	[set_s_str]
.word	[set_d_str]
.word	[set_x_str]
.word	[set_w_str]
.word	[set_x_str]
.word	[set_d_str]
.word	[set_x_str]
.word	[set_s_str]
.word	[set_d_str]
.word	[set_x_str]
.word	[set_w_str]
.word	[set_x_str]
.word	[set_d_str]
.word	[set_x_str]
.word	[set_s_str]
.word	[set_d_str]
.word	[set_x_str]
.word	[set_w_str]
.word	[set_x_str]
.word	[set_d_str]
.word	[set_x_str]
.word	[set_s_str]
.word	[set_d_str]
.word	[set_x_str]
.word	[set_w_str]
.word	[set_x_str]
.word	[set_d_str]
.word	[set_x_str]
.word	[set_s_str]
.word	[set_d_str]
.word	[set_x_str]
.word	[set_w_str]
.word	[set_x_str]
.word	[set_d_str]
.word	[set_x_str]
.word	[set_s_str]
.word	[set_d_str]
.word	[set_x_str]
.word	[set_w_str]
.word	[set_x_str]
.word	[set_d_str]
.word	[set_x_str]
.word	[set_s_str]
.word	[set_d_str]
.word	[set_x_str]
.word	[set_w_str]
.word	[set_x_str]
.word	[set_d_str]
.word	[set_x_str]
.word	[set_s_str]
.word	[set_d_str]
.word	[set_x_str]
.word	[set_w_str]
.word	[set_x_str]
.word	[set_d_str]
.word	[set_x_str]
.word	[set_s_str]
.word	[set_d_str]
.word	[set_x_str]
.word	[set_w_str]
.word	[set_x_str]
.word	[set_d_str]
.word	[set_x_str]
.word	[set_s_str]
.word	[set_d_str]
.word	[set_x_str]
.word	[set_w_str]
.word	[set_x_str]
.word	[set_d_str]
.word	[set_x_str]
.word	[set_s_str]
.word	[set_d_str]
.word	[set_x_str]
.word	[set_w_str]
.word	[set_x_str]
.word	[set_d_str]
.word	[set_x_str]
.word	[set_s_str]
.word	[set_d_str]
.word	[set_x_str]
.word	[set_w_str]
.word	[set_x_str]
.word	[set_d_str]
.word	[set_x_str]
.word	[set_s_str]
.word	[set_d_str]
.word	[set_x_str]
.word	[set_w_str]
.word	[set_x_str]
.word	[set_d_str]
.word	[set_x_str]
.word	[set_s_str]
.word	[set_d_str]
.word	[set_x_str]
.word	[set_w_str]
.word	[set_x_str]
.word	[set_d_str]
.word	[set_x_str]
.word	[set_s_str]
.word	[set_d_str]
.word	[set_x_str]
.word	[set_w_str]
.word	[set_x_str]
.word	[set_d_str]
.word	[set_x_str]
.word	[set_s_str]
.word	[set_d_str]
.word	[set_x_str]
.word	[set_w_str]
.word	[set_x_str]
.word	[set_d_str]
.word	[set_x_str]
.word	[set_s_str]
.word	[set_d_str]
.word	[set_x_str]
.word	[set_w_str]
.word	[set_x_str]
.word	[set_d_str]
.word	[set_x_str]
.word	[set_s_str]
.word	[set_d_str]
.word	[set_x_str]
.word	[set_w_str]
.word	[set_x_str]
.word	[set_d_str]
.word	[set_x_str]
.word	[set_s_str]
.word	[set_d_str]
.word	[set_x_str]
.word	[set_w_str]
.word	[set_x_str]
.word	[set_d_str]
.word	[set_x_str]
.word	[set_s_str]
.word	[set_d_str]
.word	[set_x_str]
.word	[set_w_str]
.word	[set_x_str]
.word	[set_d_str]
.word	[set_x_str]
.word	[set_s_str]
.word	[set_d_str]
.word	[set_x_str]
.word	[set_w_str]
.word	[set_x_str]
.word	[set_d_str]
.word	[set_x_str]
.word	[set_s_str]
.word	[set_d_str]
.word	[set_x_str]
.word	[set_w_str]
.word	[set_x_str]
.word	[set_d_str]
.word	[set_x_str]
.word	[set_s_str]
.word	[set_d_str]
.word	[set_x_str]
.word	[set_w_str]
.word	[set_x_str]
.word	[set_d_str]
.word	[set_x_str]
.word	[set_s_str]
.word	[set_d_str]
.word	[set_x_str]
.word	[set_w_str]
.word	[set_x_str]
.word	[set_d_str]
.word	[set_x_str]
.word	[set_s_str]
.word	[set_d_str]
.word	[set_x_str]
.word	[set_w_str]
.word	[set_x_str]
.word	[set_d_str]
.word	[set_x_str]
.word	[set_s_str]
.word	[set_d_str]
.word	[set_x_str]
.word	[set_w_str]
.word	[set_x_str]
.word	[set_d_str]
.word	[set_x_str]
.word	[set_s_str]
.word	[set_d_str]
.word	[set_x_str]
.word	[set_w_str]
.word	[set_x_str]
.word	[set_d_str]
.word	[set_x_str]
.word	[set_s_str]
.word	[set_d_str]
.word	[set_x_str]
.word	[set_w_str]
.word	[set_x_str]
.word	[set_d_str]
.word	[set_x_str]
.word	[set_s_str]
.word	[set_d_str]
.word	[set_x_str]
.word	[set_w_str]
.word	[set_x_str]
.word	[set_d_str]
.word	[set_x_str]
.word	[set_s_str]
.word	[set_d_str]
.word	[set_x_str]
.word	[set_w_str]
.word	[set_x_str]
.word	[set_d_str]
.word	[set_x_str]
.word	[set_s_str]
.word	[set_d_str]
.word	[set_x_str]
.word	[set_w_str]
.word	[set_x_str]
.word	[set_d_str]
.word	[set_x_str]
.word	[set_s_str]
.word	[set_d_str]
.word	[set_x_str]
.word	[set_w_str]
.word	[set_x_str]
.word	[set_d_str]
.word	[set_x_str]
.word	[set_s_str]
.word	[set_d_str]
.word	[set_x_str]
.word	[set_w_str]
.word	[set_x_str]
.word	[set_d_str]
.word	[set_x_str]
.word	[set_s_str]
.word	[set_d_str]
.word	[set_x_str]
.word	[set_w_str]
.word	[set_x_str]
.word	[set_d_str]
.word	[set_x_str]
.word	[set_s_str]
.word	[set_d_str]
.word	[set_x_str]
.word	[set_w_str]
.word	[set_x_str]
.word	[set_d_str]
.word	[set_x_str]
.word	[set_s_str]
.word	[set_d_str]
.word	[set_x_str]
.word	[set_w_str]
.word	[set_x_str]
.word	[set_d_str]
.word	[set_x_str]
.word	[set_s_str]
.word	[set_d_str]
.word	[set_x_str]
.word	[set_w_str]
.word	[set_x_str]
.word	[set_d_str]
.word	[set_x_str]
.word	[set_s_str]
.word	[set_d_str]
.word	[set_x_str]
.word	[set_w_str]
.word	[set_x_str]
.word	[set_d_str]
.word	[set_x_str]
.word	[set_s_str]
.word	[set_d_str]
.word	[set_x_str]
.word	[set_w_str]
.word	[set_x_str]
.word	[set_d_str]
.word	[set_x_str]
.word	[set_s_str]
.word	[set_d_str]
.word	[set_x_str]
.word	[set_w_str]
.word	[set_x_str]
.word	[set_d_str]
.word	[set_x_str]
.word	[set_s_str]
.word	[set_d_str]
.word	[set_x_str]
.word	[set_w_str]
.word	[set_x_str]
.word	[set_d_str]
.word	[set_x_str]
.word	[set_s_str]
.word	[set_d_str]
.word	[set_x_str]
.word	[set_w_str]
.word	[set_x_str]
.word	[set_d_str]
.word	[set_x_str]
.word	[set_s_str]
.word	[set_d_str]
.word	[set_x_str]
.word	[set_w_str]
.word	[set_x_str]
.word	[set_d_str]
.word	[set_x_str]
.word	[set_s_str]
.word	[set_d_str]
.word	[set_x_str]
.word	[set_w_str]
.word	[set_x_str]
.word	[set_d_str]
.word	[set_x_str]
.word	[set_s_str]
.word	[set_d_str]
.word	[set_x_str]
.word	[set_w_str]
.word	[set_x_str]
.word	[set_d_str]
.word	[set_x_str]
.word	[set_s_str]
.word	[set_d_str]
.word	[set_x_str]
.word	[set_w_str]
.word	[set_x_str]
.word	[set_d_str]
.word	[set_x_str]
.word	[set_s_str]
.word	[set_d_str]
.word	[set_x_str]
.word	[set_w_str]
.word	[set_x_str]
.word	[set_d_str]
.word	[set_x_str]
.word	[set_s_str]
.word	[set_d_str]
.word	[set_x_str]
.word	[set_w_str]
.word	[set_x_str]
.word	[set_d_str]
.word	[set_x_str]
.word	[set_s_str]
.word	[set_d_str]
.word	[set_x_str]
.word	[set_w_str]
.word	[set_x_str]
.word	[set_d_str]
.word	[set_x_str]
.word	[set_s_str]
.word	[set_d_str]
.word	[set_x_str]
.word	[set_w_str]
.word	[set_x_str]
.word	[set_d_str]
.word	[set_x_str]
.word	[set_s_str]
.word	[set_d_str]
.word	[set_x_str]
.word	[set_w_str]
.word	[set_x_str]
.word	[set_d_str]
.word	[set_x_str]
.word	[set_s_str]
.word	[set_d_str]
.word	[set_x_str]
.word	[set_w_str]
.word	[set_x_str]
.word	[set_d_str]
.word	[set_x_str]
.word	[set_s_str]
.word	[set_d_str]
.word	[set_x_str]
.word	[set_w_str]
.word	[set_x_str]
.word	[set_d_str]
.word	[set_x_str]
.word	[set_s_str]
.word	[set_d_str]
.word	[set_x_str]
.word	[set_w_str]
.word	[set_x_str]
.word	[set_d_str]
.word	[set_x_str]
.word	[set_s_str]
.word	[set_d_str]
.word	[set_x_str]
.word	[set_w_str]
.word	[set_x_str]
.word	[set_d_str]
.word	[set_x_str]
.word	[set_s_str]
.word	[set_d_str]
.word	[set_x_str]
.word	[set_w_str]
.word	[set_x_str]
.word	[set_d_str]
.word	[set_x_str]
.word	[set_s_str]
.word	[set_d_str]
.word	[set_x_str]
.word	[set_w_str]
.word	[set_x_str]
.word	[set_d_str]
.word	[set_x_str]
.word	[set_s_str]
.word	[set_d_str]
.word	[set_x_str]
.word	[set_w_str]
.word	[set_x_str]
.word	[set_d_str]
.word	[set_x_str]
.word	[set_s_str]
.word	[set_d_str]
.word	[set_x_str]
.word	[set_w_str]
.word	[set_x_str]
.word	[set_d_str]
.word	[set_x_str]
.word	[set_s_str]
.word	[set_d_str]
.word	[set_x_str]
.word	[set_w_str]
.word	[set_x_str]
.word	[set_d_str]
.word	[set_x_str]
.word	[set_s_str]
.word	[set_d_str]
.word	[set_x_str]
.word	[set_w_str]
.word	[set_x_str]
.word	[set_d_str]
.word	[set_x_str]
.word	[set_s_str]
.word	[set_d_str]
.word	[set_x_str]
.word	[set_w_str]
.word	[set_x_str]
.word	[set_d_str]
.word	[set_x_str]
.word	[set_s_str]
.word	[set_d_str]
.word	[set_x_str]
.word	[set_w_str]
.word	[set_x_str]
.word	[set_d_str]
.word	[set_x_str]
.word	[set_s_str]
.word	[set_d_str]
.word	[set_x_str]
.word	[set_w_str]
.word	[set_x_str]
.word	[set_d_str]
.word	[set_x_str]
.word	[set_s_str]
.word	[set_d_str]
.word	[set_x_str]
.word	[set_w_str]
.word	[set_x_str]
.word	[set_d_str]
.word	[set_x_str]
.word	[set_s_str]
.word	[set_d_str]
.word	[set_x_str]
.word	[set_w_str]
.word	[set_x_str]
.word	[set_d_str]
.word	[set_x_str]
.word	[set_s_str]
.word	[set_d_str]
.word	[set_x_str]
.word	[set_w_str]
.word	[set_x_str]
.word	[set_d_str]
.word	[set_x_str]
.word	[set_s_str]
.word	[set_d_str]
.word	[set_x_str]
.word	[set_w_str]
.word	[set_x_str]
.word	[set_d_str]
.word	[set_x_str]
.word	[set_s_str]
.word	[set_d_str]
.word	[set_x_str]
.word	[set_w_str]
.word	[set_x_str]
.word	[set_d_str]
.word	[set_x_str]
.word	[set_s_str]
.word	[set_d_str]
.word	[set_x_str]
.word	[set_w_str]
.word	[set_x_str]
.word	[set_d_str]
.word	[set_x_str]
.word	[set_s_str]
.word	[set_d_str]
.word	[set_x_str]
.word	[set_w_str]
.word	[set_x_str]
.word	[set_d_str]
.word	[set_x_str]
.word	[set_s_str]
.word	[set_d_str]
.word	[set_x_str]
.word	[set_w_str]
.word	[set_x_str]
.word	[set_d_str]
.word	[set_x_str]
.word	[set_s_str]
.word	[set_d_str]
.word	[set_x_str]
.word	[set_w_str]
.word	[set_x_str]
.word	[set_d_str]
.word	[set_x_str]
.word	[set_s_str]
.word	[set_d_str]
.word	[set_x_str]
.word	[set_w_str]
.word	[set_x_str]
.word	[set_d_str]
.word	[set_x_str]
.word	[set_s_str]
.word	[set_d_str]
.word	[set_x_str]
.word	[set_w_str]
.word	[set_x_str]
.word	[set_d_str]
.word	[set_x_str]
.word	[set_s_str]
.word	[set_d_str]
.word	[set_x_str]
.word	[set_w_str]
.word	[set_x_str]
.word	[set_d_str]
.word	[set_x_str]
.word	[set_s_str]
.word	[set_d_str]
.word	[set_x_str]
.word	[set_w_str]
.word	[set_x_str]
.word	[set_d_str]
.word	[set_x_str]
.word	[set_s_str]
.word	[set_d_str]
.word	[set_x_str]
.word	[set_w_str]
.word	[set_x_str]
.word	[set_d_str]
.word	[set_x_str]
.word	[set_s_str]
.word	[set_d_str]
.word	[set_x_str]
.word	[set_w_str]
.word	[set_x_str]
.word	[set_d_str]
.word	[set_x_str]
.word	[set_s_str]
.word	[set_d_str]
.word	[set_x_str]
.word	[set_w_str]
.word	[set_x_str]
.word	[set_d_str]
.word	[set_x_str]
.word	[set_s_str]
.word	[set_d_str]
.word	[set_x_str]
.word	[set_w_str]
.word	[set_x_str]
.word	[set_d_str]
.word	[set_x_str]
.word	[set_s_str]
.word	[set_d_str]
.word	[set_x_str]
.word	[set_w_str]
.word	[set_x_str]
.word	[set_d_str]
.word	[set_x_str]
.word	[set_s_str]
.word	[set_d_str]
.word	[set_x_str]
.word	[set_w_str]
.word	[set_x_str]
.word	[set_d_str]
.word	[set_x_str]
.word	[set_s_str]
.word	[set_d_str]
.word	[set_x_str]
.word	[set_w_str]
.word	[set_x_str]
.word	[set_d_str]
.word	[set_x_str]
.word	[set_s_str]
.word	[set_d_str]
.word	[set_x_str]
.word	[set_w_str]
.word	[set_x_str]
.word	[set_d_str]
.word	[set_x_str]
.word	[set_s_str]
.word	[set_d_str]
.word	[set_x_str]
.word	[set_w_str]
.word	[set_x_str]
.word	[set_d_str]
.word	[set_x_str]
.word	[set_s_str]
.word	[set_d_str]
.word	[set_x_str]
.word	[set_w_str]
.word	[set_x_str]
.word	[set_d_str]
.word	[set_x_str]
.word	[set_s_str]
.word	[set_d_str]
.word	[set_x_str]
.word	[set_w_str]
.word	[set_x_str]
.word	[set_d_str]
.word	[set_x_str]
.word	[set_s_str]
.word	[set_d_str]
.word	[set_x_str]
.word	[set_w_str]
.word	[set_x_str]
.word	[set_d_str]
.word	[set_x_str]
.word	[set_s_str]
.word	[set_d_str]
.word	[set_x_str]
.word	[set_w_str]
.word	[set_x_str]
.word	[set_d_str]
.word	[set_x_str]
.word	[set_s_str]
.word	[set_d_str]
.word	[set_x_str]
.word	[set_w_str]
.word	[set_x_str]
.word	[set_d_str]
.word	[set_x_str]
.word	[set_s_str]
.word	[set_d_str]
.word	[set_x_str]
.word	[set_w_str]
.word	[set_x_str]
.word	[set_d_str]
.word	[set_x_str]
.word	[set_s_str]
.word	[set_d_str]
.word	[set_x_str]
.word	[set_w_str]
.word	[set_x_str]
.word	[set_d_str]
.word	[set_x_str]
.word	[set_s_str]
.word	[set_d_str]
.word	[set_x_str]
.word	[set_w_str]
.word	[set_x_str]
.word	[set_d_str]
.word	[set_x_str]
.word	[set_s_str]
.word	[set_d_str]
.word	[set_x_str]
.word	[set_w_str]
.word	[set_x_str]
.word	[set_d_str]
.word	[set_x_str]
.word	[set_s_str]
.word	[set_d_str]
.word	[set_x_str]
.word	[set_w_str]
.word	[set_x_str]
.word	[set_d_str]
.word	[set_x_str]
.word	[set_s_str]
.word	[set_d_str]
.word	[set_x_str]
.word	[set_w_str]
.word	[set_x_str]
.word	[set_d_str]
.word	[set_x_str]
.word	[set_s_str]
.word	[set_d_str]
.word	[set_x_str]
.word	[set_w_str]
.word	[set_x_str]
.word	[set_d_str]
.word	[set_x_str]
.word	[set_s_str]
.word	[set_d_str]
.word	[set_x_str]
.word	[set_w_str]
.word	[set_x_str]
.word	[set_d_str]
.word	[set_x_str]
.word	[set_s_str]
.word	[set_d_str]
.word	[set_x_str]
.word	[set_w_str]
.word	[set_x_str]
.word	[set_d_str]
.word	[set_x_str]
.word	[set_s_str]
.word	[set_d_str]
.word	[set_x_str]
.word	[set_w_str]
.word	[set_x_str]
.word	[set_d_str]
.word	[set_x_str]
.word	[set_s_str]
.word	[set_d_str]
.word	[set_x_str]
.word	[set_w_str]
.word	[set_x_str]
.word	[set_d_str]
.word	[set_x_str]
.word	[set_s_str]
.word	[set_d_str]
.word	[set_x_str]
.word	[set_w_str]
.word	[set_x_str]
.word	[set_d_str]
.word	[set_x_str]
.word	[set_s_str]
.word	[set_d_str]
.word	[set_x_str]
.word	[set_w_str]
.word	[set_x_str]
.word	[set_d_str]
.word	[set_x_str]
.word	[set_s_str]
.word	[set_d_str]
.word	[set_x_str]
.word	[set_w_str]
.word	[set_x_str]
.word	[set_d_str]
.word	[set_x_str]
.word	[set_s_str]
.word	[set_d_str]
.word	[set_x_str]
.word	[set_w_str]
.word	[set_x_str]
.word	[set_d_str]
.word	[set_x_str]
.word	[set_s_str]
.word	[set_d_str]
.word	[set_x_str]
.word	[set_w_str]
.word	[set_x_str]
.word	[set_d_str]
.word	[set_x_str]
.word	[set_s_str]
.word	[set_d_str]
.word	[set_x_str]
.word	[set_w_str]
.word	[set_x_str]
.word	[set_d_str]
.word	[set_x_str]
.word	[set_s_str]
.word	[set_d_str]
.word	[set_x_str]
.word	[set_w_str]
.word	[set_x_str]
.word	[set_d_str]
.word	[set_x_str]
.word	[set_s_str]
.word	[set_d_str]
.word	[set_x_str]
.word	[set_w_str]
.word	[set_x_str]
.word	[set_d_str]
.word	[set_x_str]
.word	[set_s_str]
.word	[set_d_str]
.word	[set_x_str]
.word	[set_w_str]
.word	[set_x_str]
.word	[set_d_str]
.word	[set_x_str]
.word	[set_s_str]
.word	[set_d_str]
.word	[set_x_str]
.word	[set_w_str]
.word	[set_x_str]
.word	[set_d_str]
.word	[set_x_str]
.word	[set_s_str]
.word	[set_d_str]
.word	[set_x_str]
.word	[set_w_str]
.word	[set_x_str]
.word	[set_d_str]
.word	[set_x_str]
.word	[set_s_str]
.word	[set_d_str]
.word	[set_x_str]
.word	[set_w_str]
.word	[set_x_str]
.word	[set_d_str]
.word	[set_x_str]
.word	[set_s_str]
.word	[set_d_str]
.word	[set_x_str]
.word	[set_w_str]
.word	[set_x_str]
.word	[set_d_str]
.word	[set_x_str]
.word	[set_s_str]
.word	[set_d_str]
.word	[set_x_str]
.word	[set_w_str]
.word	[set_x_str]
.word	[set_d_str]
.word	[set_x_str]
.word	[set_s_str]
.word	[set_d_str]
.word	[set_x_str]
.word	[set_w_str]
.word	[set_x_str]
.word	[set_d_str]
.word	[set_x_str]
.word	[set_s_str]
.word	[set_d_str]
.word	[set_x_str]
.word	[set_w_str]
.word	[set_x_str]
.word	[set_d_str]
.word	[set_x_str]
.word	[set_s_str]
.word	[set_d_str]
.word	[set_x_str]
.word	[set_w_str]
.word	[set_x_str]
.word	[set_d_str]
.word	[set_x_str]
.word	[set_s_str]
.word	[set_d_str]
.word	[set_x_str]
.word	[set_w_str]
.word	[set_x_str]
.word	[set_d_str]
.word	[set_x_str]
.word	[set_s_str]
.word	[set_d_str]
.word	[set_x_str]
.word	[set_w_str]
.word	[set_x_str]
.word	[set_d_str]
.word	[set_x_str]
.word	[set_s_str]
.word	[set_d_str]
.word	[set_x_str]
.word	[set_w_str]
.word	[set_x_str]
.word	[set_d_str]
.word	[set_x_str]
.word	[set_s_str]
.word	[set_d_str]
.word	[set_x_str]
.word	[set_w_str]
.word	[set_x_str]
.word	[set_d_str]
.word	[set_x_str]
.word	[set_s_str]
.word	[set_d_str]
.word	[set_x_str]
.word	[set_w_str]
.word	[set_x_str]
.word	[set_d_str]
.word	[set_x_str]
.word	[set_s_str]
.word	[set_d_str]
.word	[set_x_str]
.word	[set_w_str]
.word	[set_x_str]
.word	[set_d_str]
.word	[set_x_str]
.word	[set_s_str]
.word	[set_d_str]
.word	[set_x_str]
.word	[set_w_str]
.word	[set_x_str]
.word	[set_d_str]
.word	[set_x_str]
.word	[set_s_str]
.word	[set_d_str]
.word	[set_x_str]
.word	[set_w_str]
.word	[set_x_str]
.word	[set_d_str]
.word	[set_x_str]
.word	[set_s_str]
.word	[set_d_str]
.word	[set_x_str]
.word	[set_w_str]
.word	[set_x_str]
.word	[set_d_str]
.word	[set_x_str]
.word	[set_s_str]
.word	[set_d_str]
.word	[set_x_str]
.word	[set_w_str]
.word	[set_x_str]
.word	[set_d_str]
.word	[set_x_str]
.word	[set_s_str]
.word	[set_d_str]
.word	[set_x_str]
.word	[set_w_str]
.word	[set_x_str]
.word	[set_d_str]
.word	[set_x_str]
.word	[set_s_str]
.word	[set_d_str]
.word	[set_x_str]
.word	[set_w_str]
.word	[set_x_str]
.word	[set_d_str]
.word	[set_x_str]
.word	[set_s_str]
.word	[set_d_str]
.word	[set_x_str]
.word	[set_w_str]
.word	[set_x_str]
.word	[set_d_str]
.word	[set_x_str]
.word	[set_s_str]
.word	[set_d_str]
.word	[set_x_str]
.word	[set_w_str]
.word	[set_x_str]
.word	[set_d_str]
.word	[set_x_str]
.word	[set_s_str]
.word	[set_d_str]
.word	[set_x_str]
.word	[set_w_str]
.word	[set_x_str]
.word	[set_d_str]
.word	[set_x_str]
.word	[set_s_str]
.word	[set_d_str]
.word	[set_x_str]
.word	[set_w_str]
.word	[set_x_str]
.word	[set_d_str]
.word	[set_x_str]
.word	[set_s_str]
.word	[set_d_str]
.word	[set_x_str]
.word	[set_w_str]
.word	[set_x_str]
.word	[set_d_str]
.word	[set_x_str]
.word	[set_s_str]
.word	[set_d_str]
.word	[set_x_str]
.word	[set_w_str]
.word	[set_x_str]
.word	[set_d_str]
.word	[set_x_str]
.word	[set_s_str]
.word	[set_d_str]
.word	[set_x_str]
.word	[set_w_str]
.word	[set_x_str]
.word	[set_d_str]
.word	[set_x_str]
.word	[set_s_str]
.word	[set_d_str]
.word	[set_x_str]
.word	[set_w_str]
.word	[set_x_str]
.word	[set_d_str]
.word	[set_x_str]
.word	[set_s_str]
.word	[set_d_str]
.word	[set_x_str]
.word	[set_w_str]
.word	[set_x_str]
.word	[set_d_str]
.word	[set_x_str]
.word	[set_s_str]
.word	[set_d_str]
.word	[set_x_str]
.word	[set_w_str]
.word	[set_x_str]
.word	[set_d_str]
.word	[set_x_str]
.word	[set_s_str]
.word	[set_d_str]
.word	[set_x_str]
.word	[set_w_str]
.word	[set_x_str]
.word	[set_d_str]
.word	[set_x_str]
.word	[set_s_str]
.word	[set_d_str]
.word	[set_x_str]
.word	[set_w_str]
.word	[set_x_str]
.word	[set_d_str]
.word	[set_x_str]
.word	[set_s_str]
.word	[set_d_str]
.word	[set_x_str]
.word	[set_w_str]
.word	[set_x_str]
.word	[set_d_str]
.word	[set_x_str]
.word	[set_s_str]
.word	[set_d_str]
.word	[set_x_str]
.word	[set_w_str]
.word	[set_x_str]
.word	[set_d_str]
.word	[set_x_str]
.word	[set_s_str]
.word	[set_d_str]
.word	[set_x_str]
.word	[set_w_str]
.word	[set_x_str]
.word	[set_d_str]
.word	[set_x_str]
.word	[set_s_str]
.word	[set_d_str]
.word	[set_x_str]
.word	[set_w_str]
.word	[set_x_str]
.word	[set_d_str]
.word	[set_x_str]
.word	[set_s_str]
.word	[set_d_str]
.word	[set_x_str]
.word	[set_w_str]
.word	[set_x_str]
.word	[set_d_str]
.word	[set_x_str]
.word	[set_s_str]
.word	[set_d_str]
.word	[set_x_str]
.word	[set_w_str]
.word	[set_x_str]
.word	[set_d_str]
.word	[set_x_str]
.word	[set_s_str]
.word	[set_d_str]
.word	[set_x_str]
.word	[set_w_str]
.word	[set_x_str]
.word	[set_d_str]
.word	[set_x_str]
.word	[set_s_str]
.word	[set_d_str]
.word	[set_x_str]
.word	[set_w_str]
.word	[set_x_str]
.word	[set_d_str]
.word	[set_x_str]
.word	[set_s_str]
.word	[set_d_str]
.word	[set_x_str]
.word	[set_w_str]
.word	[set_x_str]
.word	[set_d_str]
.word	[set_x_str]
.word	[set_s_str]
.word	[set_d_str]
.word	[set_x_str]
.word	[set_w_str]
.word	[set_x_str]
.word	[set_d_str]
.word	[set_x_str]
.word	[set_s_str]
.word	[set_d_str]
.word	[set_x_str]
.word	[set_w_str]
.word	[set_x_str]
.word	[set_d_str]
.word	[set_x_str]
.word	[set_s_str]
.word	[set_d_str]
.word	[set_x_str]
.word	[set_w_str]
.word	[set_x_str]
.word	[set_d_str]
.word	[set_x_str]
.word	[set_s_str]
.word	[set_d_str]
.word	[set_x_str]
.word	[set_w_str]
.word	[set_x_str]
.word	[set_d_str]
.word	[set_x_str]
.word	[set_s_str]
.word	[set_d_str]
.word	[set_x_str]
.word	[set_w_str]
.word	[set_x_str]
.word	[set_d_str]
.word	[set_x_str]
.word	[set_s_str]
.word	[set_d_str]
.word	[set_x_str]
.word	[set_w_str]
.word	[set_x_str]
.word	[set_d_str]
.word	[set_x_str]
.word	[set_s_str]
.word	[set_d_str]
.word	[set_x_str]
.word	[set_w_str]
.word	[set_x_str]
.word	[set_d_str]
.word	[set_x_str]
.word	[set_s_str]
.word	[set_d_str]
.word	[set_x_str]
.word	[set_w_str]
.word	[set_x_str]
.word	[set_d_str]
.word	[set_x_str]
.word	[set_s_str]
.word	[set_d_str]
.word	[set_x_str]
.word	[set_w_str]
.word	[set_x_str]
.word	[set_d_str]
.word	[set_x_str]
.word	[set_s_str]
.word	[set_d_str]
.word	[set_x_str]
.word	[set_w_str]
.word	[set_x_str]
.word	[set_d_str]
.word	[set_x_str]
.word	[set_s_str]
.word	[set_d_str]
.word	[set_x_str]
.word	[set_w_str]
.word	[set_x_str]
.word	[set_d_str]
.word	[set_x_str]
.word	[set_s_str]
.word	[set_d_str]
.word	[set_x_str]
.word	[set_w_str]
.word	[set_x_str]
.word	[set_d_str]
.word	[set_x_str]
.word	[set_s_str]
.word	[set_d_str]
.word	[set_x_str]
.word	[set_w_str]
.word	[set_x_str]
.word	[set_d_str]
.word	[set_x_str]
.word	[set_s_str]
.word	[set_d_str]
.word	[set_x_str]
.word	[set_w_str]
.word	[set_x_str]
.word	[set_d_str]
.word	[set_x_str]
.word	[set_s_str]
.word	[set_d_str]
.word	[set_x_str]
.word	[set_w_str]
.word	[set_x_str]
.word	[set_d_str]
.word	[set_x_str]
.word	[set_s_str]
.word	[set_d_str]
.word	[set_x_str]
.word	[set_w_str]
.word	[set_x_str]
.word	[set_d_str]
.word	[set_x_str]
.word	[set_s_str]
.word	[set_d_str]
.word	[set_x_str]
.word	[set_w_str]
.word	[set_x_str]
.word	[set_d_str]
.word	[set_x_str]
.word	[set_s_str]
.word	[set_d_str]
.word	[set_x_str]
.word	[set_w_str]
.word	[set_x_str]
.word	[set_d_str]
.word	[set_x_str]
.word	[set_s_str]
.word	[set_d_str]
.word	[set_x_str]
.word	[set_w_str]
.word	[set_x_str]
.word	[set_d_str]
.word	[set_x_str]
.word	[set_s_str]
.word	[set_d_str]
.word	[set_x_str]
.word	[set_w_str]
.word	[set_x_str]
.word	[set_d_str]
.word	[set_x_str]
.word	[set_s_str]
.word	[set_d_str]
.word	[set_x_str]
.word	[set_w_str]
.word	[set_x_str]
.word	[set_d_str]
.word	[set_x_str]
.word	[set_s_str]
.word	[set_d_str]
.word	[set_x_str]
.word	[set_w_str]
.word	[set_x_str]
.word	[set_d_str]
.word	[set_x_str]