.arch armv8-a
.file	.__TEXT,__text,regular,pure_instructions
.align	2
.global	_func0                          ## -- Begin function func0
.section	__TEXT,__text,regular,pure_instructions
.align	2
.func0:                                 ## @func0
    .cfi_startproc
stp	x29, x30, [sp, -80]!
.cfi_def_cfa_offset 80
.cfi_offset 29, -80
.cfi_offset 30, -72
mov	w9, -1000
mov	x29, sp
.cfi_def_cfa_register 29
stp	x19, x20, [sp, 16]
.cfi_offset 19, -64
.cfi_offset 20, -56
mov	x20, x0
stp	x21, x22, [sp, 32]
.cfi_offset 21, -48
.cfi_offset 22, -40
mov	w22, w2
mov	x21, x1
stp	x23, x24, [sp, 48]
.cfi_offset 23, -32
.cfi_offset 24, -24
adrp	x23, .LANCHOR0
add	x23, x23, :lo12:.LANCHOR0
str	x25, [sp, 64]
sub	sp, sp,
.cfi_offset 25, -16
mov	x25, x3
str	wzr, [x23]
str	w9, [x23, 8]
stp	xzr, x21, [x23, 16]
str	wzr, [x23, 24]
str	x20, [x23, 32]
.LB1:
ldr	w0, [x23]
cmp	w0, w22
bge	.L14
.L1:
ldp	x19, x20, [sp, 16]
ldp	x21, x22, [sp, 32]
ldp	x23, x24, [sp, 48]
ldr	x25, [sp, 64]
add	sp, sp, 80
.cfi_remember_state
.cfi_restore 29
.cfi_restore 30
.cfi_restore 25
.cfi_restore 23
.cfi_restore 24
.cfi_restore 21
.cfi_restore 22
.cfi_restore 19
.cfi_restore 20
.cfi_def_cfa_offset 0
b	.L1
.L14:
.cfi_restore_state
ldr	w0, [x23, 24]
ldrsw	x2, [x23, 24]
ldr	x1, [x21, x2, lsl 3]
str	x1, [x23, 40]
str	wzr, [x23, 44]
.L4:
ldr	w0, [x23, 44]
str	wzr, [x23, 48]
cbnz	w0, .L15
ldr	w0, [x23, 44]
cmp	w0, w9
ble	.L16
.L17:
ldr	x0, [x23, 40]
ldr	w1, [x23, 44]
str	x0, [x23, 32]
str	w1, [x23, 40]
.L18:
ldr	w0, [x23, 48]
add	w0, w0, 1
str	w0, [x23, 48]
b	.L4
.L15:
ldr	x0, [x23, 40]
ldrb	w1, [x23, 48]
strb	w1, [x23, 48]
cmp	w1, 65
blt	.L7
.L19:
ldr	x0, [x23, 40]
ldrb	w1, [x23, 48]
strb	w1, [x23, 48]
cmp	w1, 90
bgt	.L17
ldr	w0, [x23, 44]
add	w0, w0, 1
str	w0, [x23, 44]
b	.L4
.L16:
ldr	x0, [x23, 32]
str	w0, [x23, 24]
str	x0, [x23, 32]
b	.L1
.L7:
ldr	x0, [x23, 40]
ldrb	w1, [x23, 48]
strb	w1, [x23, 48]
cmp	w1, 97
blt	.L10
.L11:
ldr	x0, [x23, 32]
ldrb	w1, [x23, 48]
strb	w1, [x23, 48]
cmp	w1, 122
bhi	.L18
.L10:
ldr	w0, [x23, 48]
sub	w0, w0,
str	w0, [x23, 48]
b	.L4
.L18:
ldr	x0, [x23, 32]
ldrb	w1, [x23, 48]
strb	w1, [x23, 48]
cmp	w1, 97
ccmp	w0, w9, 4, le
bls	.L11
ldr	w0, [x23, 44]
sub	w0, w0,
str	w0, [x23, 44]
b	.L4
.L17:
ldr	x0, [x23, 32]
str	w0, [x23, 24]
str	x0, [x23, 32]
b	.L1
.L11:
ldr	x0, [x23, 32]
str	w0, [x23, 24]
str	x0, [x23, 32]
b	.L1
.L10:
ldr	x0, [x23, 32]
str	w0, [x23, 24]
str	x0, [x23, 32]
b	.L1
.L14:
ldr	x0, [x23, 32]
mov	w1, 0
ldr	x25, [sp, 64]
adrp	x3, .LC0
ldr	x4, [x23, 16]
add	x3, x3, :lo12:.LC0
str	x21, [x23, 32]
mov	x2, -1
strb	wzr, [x0]
bl	qstrchk
ldp	x19, x20, [sp, 16]
ldp	x21, x22, [sp, 32]
ldp	x23, x24, [sp, 48]
ldr	x25, [sp, 64]
add	sp, sp, 80
.cfi_restore 29
.cfi_restore 30
.cfi_restore 25
.cfi_restore 23
.cfi_restore 24
.cfi_restore 21
.cfi_restore 22
.cfi_restore 19
.cfi_restore 20
.cfi_def_cfa_offset 0
ret
.cfi_endproc
                                        ## -- End function
.LC0:
.string	"%s.%s"
.section	__TEXT,__cstring,cstring_literals
.L_.str:
.string	"%s.%s"
.text
.global	_func0
.bss
.align	3
.set	.LANCHOR0,. + 0
.data
.align	3
.LC0:
.word	(.LC0)
.byte	(.LC1)
.byte	(.LC2)
.byte	(.LC3)
.byte	(.LC4)
.byte	(.LC5)
.byte	(.LC6)
.byte	(.LC7)
.byte	(.LC8)
.byte	(.LC9)
.byte	(.LC10)
.byte	(.LC11)
.byte	(.LC12)
.byte	(.LC13)
.byte	(.LC14)
.byte	(.LC15)
.byte	(.LC16)
.byte	(.LC17)
.byte	(.LC18)
.byte	(.LC19)
.byte	(.LC20)
.byte	(.LC21)
.byte	(.LC22)
.byte	(.LC23)
.byte	(.LC24)
.byte	(.LC25)
.byte	(.LC26)
.byte	(.LC27)
.byte	(.LC28)
.byte	(.LC29)
.byte	(.LC30)
.byte	(.LC31)
.byte	(.LC32)
.byte	(.LC33)
.byte	(.LC34)
.byte	(.LC35)
.byte	(.LC36)
.byte	(.LC37)
.byte	(.LC38)
.byte	(.LC39)
.byte	(.LC40)
.byte	(.LC41)
.byte	(.LC42)
.byte	(.LC43)
.byte	(.LC44)
.byte	(.LC45)
.byte	(.LC46)
.byte	(.LC47)
.byte	(.LC48)
.byte	(.LC49)
.byte	(.LC50)
.byte	(.LC51)
.byte	(.LC52)
.byte	(.LC53)
.byte	(.LC54)
.byte	(.LC55)
.byte	(.LC56)
.byte	(.LC57)
.byte	(.LC58)
.byte	(.LC59)
.byte	(.LC60)
.byte	(.LC61)
.byte	(.LC62)
.byte	(.LC63)
.byte	(.LC64)
.byte	(.LC65)
.byte	(.LC66)
.byte	(.LC67)
.byte	(.LC68)
.byte	(.LC69)
.byte	(.LC70)
.byte	(.LC71)
.byte	(.LC72)
.byte	(.LC73)
.byte	(.LC74)
.byte	(.LC75)
.byte	(.LC76)
.byte	(.LC77)
.byte	(.LC78)
.byte	(.LC79)
.byte	(.LC80)
.byte	(.LC81)
.byte	(.LC82)
.byte	(.LC83)
.byte	(.LC84)
.byte	(.LC85)
.byte	(.LC86)
.byte	(.LC87)
.byte	(.LC88)
.byte	(.LC89)
.byte	(.LC90)
.byte	(.LC91)
.byte	(.LC92)
.byte	(.LC93)
.byte	(.LC94)
.byte	(.LC95)
.byte	(.LC96)
.byte	(.LC97)
.byte	(.LC98)
.byte	(.LC99)
.byte	(.LC100)
.byte	(.LC101)
.byte	(.LC102)
.byte	(.LC103)
.byte	(.LC104)
.byte	(.LC105)
.byte	(.LC106)
.byte	(.LC107)
.byte	(.LC108)
.byte	(.LC109)
.byte	(.LC110)
.byte	(.LC111)
.byte	(.LC112)
.byte	(.LC113)
.byte	(.LC114)
.byte	(.LC115)
.byte	(.LC116)
.byte	(.LC117)
.byte	(.LC118)
.byte	(.LC119)
.byte	(.LC120)
.byte	(.LC121)
.byte	(.LC122)
.byte	(.LC123)
.byte	(.LC124)
.byte	(.LC125)
.byte	(.LC126)
.byte	(.LC127)
.byte	(.LC128)
.byte	(.LC129)
.byte	(.LC130)
.byte	(.LC131)
.byte	(.LC132)
.byte	(.LC133)
.byte	(.LC134)
.byte	(.LC135)
.byte	(.LC136)
.byte	(.LC137)
.byte	(.LC138)
.byte	(.LC139)
.byte	(.LC140)
.byte	(.LC141)
.byte	(.LC142)
.byte	(.LC143)
.byte	(.LC144)
.byte	(.LC145)
.byte	(.LC146)
.byte	(.LC147)
.byte	(.LC148)
.byte	(.LC149)
.byte	(.LC150)
.byte	(.LC151)
.byte	(.LC152)
.byte	(.LC153)
.byte	(.LC154)
.byte	(.LC155)
.byte	(.LC156)
.byte	(.LC157)
.byte	(.LC158)
.byte	(.LC159)
.byte	(.LC160)
.byte	(.LC161)
.byte	(.LC162)
.byte	(.LC163)
.byte	(.LC164)
.byte	(.LC165)
.byte	(.LC166)
.byte	(.LC167)
.byte	(.LC168)
.byte	(.LC169)
.byte	(.LC170)
.byte	(.LC171)
.byte	(.LC172)
.byte	(.LC173)
.byte	(.LC174)
.byte	(.LC175)
.byte	(.LC176)
.byte	(.LC177)
.byte	(.LC178)
.byte	(.LC179)
.byte	(.LC180)
.byte	(.LC181)
.byte	(.LC182)
.byte	(.LC183)
.byte	(.LC184)
.byte	(.LC185)
.byte	(.LC186)
.byte	(.LC187)
.byte	(.LC188)
.byte	(.LC189)
.byte	(.LC190)
.byte	(.LC191)
.byte	(.LC192)
.byte	(.LC193)
.byte	(.LC194)
.byte	(.LC195)
.byte	(.LC196)
.byte	(.LC197)
.byte	(.LC198)
.byte	(.LC199)
.byte	(.LC200)
.byte	(.LC201)
.byte	(.LC202)
.byte	(.LC203)
.byte	(.LC204)
.byte	(.LC205)
.byte	(.LC206)
.byte	(.LC207)
.byte	(.LC208)
.byte	(.LC209)
.byte	(.LC210)
.byte	(.LC211)
.byte	(.LC212)
.byte	(.LC213)
.byte	(.LC214)
.byte	(.LC215)
.byte	(.LC216)
.byte	(.LC217)
.byte	(.LC218)
.byte	(.LC219)
.byte	(.LC220)
.byte	(.LC221)
.byte	(.LC222)
.byte	(.LC223)
.byte	(.LC224)
.byte	(.LC225)
.byte	(.LC226)
.byte	(.LC227)
.byte	(.LC228)
.byte	(.LC229)
.byte	(.LC230)
.byte	(.LC231)
.byte	(.LC232)
.byte	(.LC233)
.byte	(.LC234)
.byte	(.LC235)
.byte	(.LC236)
.byte	(.LC237)
.byte	(.LC238)
.byte	(.LC239)
.byte	(.LC240)
.byte	(.LC241)
.byte	(.LC242)
.byte	(.LC243)
.byte	(.LC244)
.byte	(.LC245)
.byte	(.LC246)
.byte	(.LC247)
.byte	(.LC248)
.byte	(.LC249)
.byte	(.LC250)
.byte	(.LC251)
.byte	(.LC252)
.byte	(.LC253)
.byte	(.LC254)
.byte	(.LC255)
.byte	(.LC256)
.byte	(.LC257)
.byte	(.LC258)
.byte	(.LC259)
.byte	(.LC260)
.byte	(.LC261)
.byte	(.LC262)
.byte	(.LC263)
.byte	(.LC264)
.byte	(.LC265)
.byte	(.LC266)
.byte	(.LC267)
.byte	(.LC268)
.byte	(.LC269)
.byte	(.LC270)
.byte	(.LC271)
.byte	(.LC272)
.byte	(.LC273)
.byte	(.LC274)
.byte	(.LC275)
.byte	(.LC276)
.byte	(.LC277)
.byte	(.LC278)
.byte	(.LC279)
.byte	(.LC280)
.byte	(.LC281)
.byte	(.LC282)
.byte	(.LC283)
.byte	(.LC284)
.byte	(.LC285)
.byte	(.LC286)
.byte	(.LC287)
.byte	(.LC288)
.byte	(.LC289)
.byte	(.LC290)
.byte	(.LC291)
.byte	(.LC292)
.byte	(.LC293)
.byte	(.LC294)
.byte	(.LC295)
.byte	(.LC296)
.byte	(.LC297)
.byte	(.LC298)
.byte	(.LC299)
.byte	(.LC300)
.byte	(.LC301)
.byte	(.LC302)
.byte	(.LC303)
.byte	(.LC304)
.byte	(.LC305)
.byte	(.LC306)
.byte	(.LC307)
.byte	(.LC308)
.byte	(.LC309)
.byte	(.LC310)
.byte	(.LC311)
.byte	(.LC312)
.byte	(.LC313)
.byte	(.LC314)
.byte	(.LC315)
.byte	(.LC316)
.byte	(.LC317)
.byte	(.LC318)
.byte	(.LC319)
.byte	(.LC320)
.byte	(.LC321)
.byte	(.LC322)
.byte	(.LC323)
.byte	(.LC324)
.byte	(.LC325)
.byte	(.LC326)
.byte	(.LC327)
.byte	(.LC328)
.byte	(.LC329)
.byte	(.LC330)
.byte	(.LC331)
.byte	(.LC332)
.byte	(.LC333)
.byte	(.LC334)
.byte	(.LC335)
.byte	(.LC336)
.byte	(.LC337)
.byte	(.LC338)
.byte	(.LC339)
.byte	(.LC340)
.byte	(.LC341)
.byte	(.LC342)
.byte	(.LC343)
.byte	(.LC344)
.byte	(.LC345)
.byte	(.LC346)
.byte	(.LC347)
.byte	(.LC348)
.byte	(.LC349)
.byte	(.LC350)
.byte	(.LC351)
.byte	(.LC352)
.byte	(.LC353)
.byte	(.LC354)
.byte	(.LC355)
.byte	(.LC356)
.byte	(.LC357)
.byte	(.LC358)
.byte	(.LC359)
.byte	(.LC360)
.byte	(.LC361)
.byte	(.LC362)
.byte	(.LC363)
.byte	(.LC364)
.byte	(.LC365)
.byte	(.LC366)
.byte	(.LC367)
.byte	(.LC368)
.byte	(.LC369)
.byte	(.LC370)
.byte	(.LC371)
.byte	(.LC372)
.byte	(.LC373)
.byte	(.LC374)
.byte	(.LC375)
.byte	(.LC376)
.byte	(.LC377)
.byte	(.LC378)
.byte	(.LC379)
.byte	(.LC380)
.byte	(.LC381)
.byte	(.LC382)
.byte	(.LC383)
.byte	(.LC384)
.byte	(.LC385)
.byte	(.LC386)
.byte	(.LC387)
.byte	(.LC388)
.byte	(.LC389)
.byte	(.LC390)
.byte	(.LC391)
.byte	(.LC392)
.byte	(.LC393)
.byte	(.LC394)
.byte	(.LC395)
.byte	(.LC396)
.byte	(.LC397)
.byte	(.LC398)
.byte	(.LC399)
.byte	(.LC400)
.byte	(.LC401)
.byte	(.LC402)
.byte	(.LC403)
.byte	(.LC404)
.byte	(.LC405)
.byte	(.LC406)
.byte	(.LC407)
.byte	(.LC408)
.byte	(.LC409)
.byte	(.LC410)
.byte	(.LC411)
.byte	(.LC412)
.byte	(.LC413)
.byte	(.LC414)
.byte	(.LC415)
.byte	(.LC416)
.byte	(.LC417)
.byte	(.LC418)
.byte	(.LC419)
.byte	(.LC420)
.byte	(.LC421)
.byte	(.LC422)
.byte	(.LC423)
.byte	(.LC424)
.byte	(.LC425)
.byte	(.LC426)
.byte	(.LC427)
.byte	(.LC428)
.byte	(.LC429)
.byte	(.LC430)
.byte	(.LC431)
.byte	(.LC432)
.byte	(.LC433)
.byte	(.LC434)
.byte	(.LC435)
.byte	(.LC436)
.byte	(.LC437)
.byte	(.LC438)
.byte	(.LC439)
.byte	(.LC440)
.byte	(.LC441)
.byte	(.LC442)
.byte	(.LC443)
.byte	(.LC444)
.byte	(.LC445)
.byte	(.LC446)
.byte	(.LC447)
.byte	(.LC448)
.byte	(.LC449)
.byte	(.LC450)
.byte	(.LC451)
.byte	(.LC452)
.byte	(.LC453)
.byte	(.LC454)
.byte	(.LC455)
.byte	(.LC456)
.byte	(.LC457)
.byte	(.LC458)
.byte	(.LC459)
.byte	(.LC460)
.byte	(.LC461)
.byte	(.LC462)
.byte	(.LC463)
.byte	(.LC464)
.byte	(.LC465)
.byte	(.LC466)
.byte	(.LC467)
.byte	(.LC468)
.byte	(.LC469)
.byte	(.LC470)
.byte	(.LC471)
.byte	(.LC472)
.byte	(.LC473)
.byte	(.LC474)
.byte	(.LC475)
.byte	(.LC476)
.byte	(.LC477)
.byte	(.LC478)
.byte	(.LC479)
.byte	(.LC480)
.byte	(.LC481)
.byte	(.LC482)
.byte	(.LC483)
.byte	(.LC484)
.byte	(.LC485)
.byte	(.LC486)
.byte	(.LC487)
.byte	(.LC488)
.byte	(.LC489)
.byte	(.LC490)
.byte	(.LC491)
.byte	(.LC492)
.byte	(.LC493)
.byte	(.LC494)
.byte	(.LC495)
.byte	(.LC496)
.byte	(.LC497)
.byte	(.LC498)
.byte	(.LC499)
.byte	(.LC500)
.byte	(.LC501)
.byte	(.LC502)
.byte	(.LC503)
.byte	(.LC504)
.byte	(.LC505)
.byte	(.LC506)
.byte	(.LC507)
.byte	(.LC508)
.byte	(.LC509)
.byte	(.LC510)
.byte	(.LC511)
.byte	(.LC512)
.byte	(.LC513)
.byte	(.LC514)
.byte	(.LC515)
.byte	(.LC516)
.byte	(.LC517)
.byte	(.LC518)
.byte	(.LC519)
.byte	(.LC520)
.byte	(.LC521)
.byte	(.LC522)
.byte	(.LC523)
.byte	(.LC524)
.byte	(.LC525)
.byte	(.LC526)
.byte	(.LC527)
.byte	(.LC528)
.byte	(.LC529)
.byte	(.LC530)
.byte	(.LC531)
.byte	(.LC532)
.byte	(.LC533)
.byte	(.LC534)
.byte	(.LC535)
.byte	(.LC536)
.byte	(.LC537)
.byte	(.LC538)
.byte	(.LC539)
.byte	(.LC540)
.byte	(.LC541)
.byte	(.LC542)
.byte	(.LC543)
.byte	(.LC544)
.byte	(.LC545)
.byte	(.LC546)
.byte	(.LC547)
.byte	(.LC548)
.byte	(.LC549)
.byte	(.LC550)
.byte	(.LC551)
.byte	(.LC552)
.byte	(.LC553)
.byte	(.LC554)
.byte	(.LC555)
.byte	(.LC556)
.byte	(.LC557)
.byte	(.LC558)
.byte	(.LC559)
.byte	(.LC560)
.byte	(.LC561)
.byte	(.LC562)
.byte	(.LC563)
.byte	(.LC564)
.byte	(.LC565)
.byte	(.LC566)
.byte	(.LC567)
.byte	(.LC568)
.byte	(.LC569)
.byte	(.LC570)
.byte	(.LC571)
.byte	(.LC572)
.byte	(.LC573)
.byte	(.LC574)
.byte	(.LC575)
.byte	(.LC576)
.byte	(.LC577)
.byte	(.LC578)
.byte	(.LC579)
.byte	(.LC580)
.byte	(.LC581)
.byte	(.LC582)
.byte	(.LC583)
.byte	(.LC584)
.byte	(.LC585)
.byte	(.LC586)
.byte	(.LC587)
.byte	(.LC588)
.byte	(.LC589)
.byte	(.LC590)
.byte	(.LC591)
.byte	(.LC592)
.byte	(.LC593)
.byte	(.LC594)
.byte	(.LC595)
.byte	(.LC596)
.byte	(.LC597)
.byte	(.LC598)
.byte	(.LC599)
.byte	(.LC600)
.byte	(.LC601)
.byte	(.LC602)
.byte	(.LC603)
.byte	(.LC604)
.byte	(.LC605)
.byte	(.LC606)
.byte	(.LC607)
.byte	(.LC608)
.byte	(.LC609)
.byte	(.LC610)
.byte	(.LC611)
.byte	(.LC612)
.byte	(.LC613)
.byte	(.LC614)
.byte	(.LC615)
.byte	(.LC616)
.byte	(.LC617)
.byte	(.LC618)
.byte	(.LC619)
.byte	(.LC620)
.byte	(.LC621)
.byte	(.LC622)
.byte	(.LC623)
.byte	(.LC624)
.byte	(.LC625)
.byte	(.LC626)
.byte	(.LC627)
.byte	(.LC628)
.byte	(.LC629)
.byte	(.LC630)
.byte	(.LC631)
.byte	(.LC632)
.byte	(.LC633)
.byte	(.LC634)
.byte	(.LC635)
.byte	(.LC636)
.byte	(.LC637)
.byte	(.LC638)
.byte	(.LC639)
.byte	(.LC640)
.byte	(.LC641)
.byte	(.LC642)
.byte	(.LC643)
.byte	(.LC644)
.byte	(.LC645)
.byte	(.LC646)
.byte	(.LC647)
.byte	(.LC648)
.byte	(.LC649)
.byte	(.LC650)
.byte	(.LC651)
.byte	(.LC652)
.byte	(.LC653)
.byte	(.LC654)
.byte	(.LC655)
.byte	(.LC656)
.byte	(.LC657)
.byte	(.LC658)
.byte	(.LC659)
.byte	(.LC660)
.byte	(.LC661)
.byte	(.LC662)
.byte	(.LC663)
.byte	(.LC664)
.byte	(.LC665)
.byte	(.LC666)
.byte	(.LC667)
.byte	(.LC668)
.byte	(.LC669)
.byte	(.LC670)
.byte	(.LC671)
.byte	(.LC672)
.byte	(.LC673)
.byte	(.LC674)
.byte	(.LC675)
.byte	(.LC676)
.byte	(.LC677)
.byte	(.LC678)
.byte	(.LC679)
.byte	(.LC680)
.byte	(.LC681)
.byte	(.LC682)
.byte	(.LC683)
.byte	(.LC684)
.byte	(.LC685)
.byte	(.LC686)
.byte	(.LC687)
.byte	(.LC688)
.byte	(.LC689)
.byte	(.LC690)
.byte	(.LC691)
.byte	(.LC692)
.byte	(.LC693)
.byte	(.LC694)
.byte	(.LC695)
.byte	(.LC696)
.byte	(.LC697)
.byte	(.LC698)
.byte	(.LC699)
.byte	(.LC700)
.byte	(.LC701)
.byte	(.LC702)
.byte	(.LC703)
.byte	(.LC704)
.byte	(.LC705)
.byte	(.LC706)
.byte	(.LC707)
.byte	(.LC708)
.byte	(.LC709)
.byte	(.LC710)
.byte	(.LC711)
.byte	(.LC712)
.byte	(.LC713)
.byte	(.LC714)
.byte	(.LC715)
.byte	(.LC716)
.byte	(.LC717)
.byte	(.LC718)
.byte	(.LC719)
.byte	(.LC720)
.byte	(.LC721)
.byte	(.LC722)
.byte	(.LC723)
.byte	(.LC724)
.byte	(.LC725)
.byte	(.LC726)
.byte	(.LC727)
.byte	(.LC728)
.byte	(.LC729)
.byte	(.LC730)
.byte	(.LC731)
.byte	(.LC732)
.byte	(.LC733)
.byte	(.LC734)
.byte	(.LC735)
.byte	(.LC736)
.byte	(.LC737)
.byte	(.LC738)
.byte	(.LC739)
.byte	(.LC740)
.byte	(.LC741)
.byte	(.LC742)
.byte	(.LC743)
.byte	(.LC744)
.byte	(.LC745)
.byte	(.LC746)
.byte	(.LC747)
.byte	(.LC748)
.byte	(.LC749)
.byte	(.LC750)
.byte	(.LC751)
.byte	(.LC752)
.byte	(.LC753)
.byte	(.LC754)
.byte	(.LC755)
.byte	(.LC756)
.byte	(.LC757)
.byte	(.LC758)
.byte	(.LC759)
.byte	(.LC760)
.byte	(.LC761)
.byte	(.LC762)
.byte	(.LC763)
.byte	(.LC764)
.byte	(.LC765)
.byte	(.LC766)
.byte	(.LC767)
.byte	(.LC768)
.byte	(.LC769)
.byte	(.LC770)
.byte	(.LC771)
.byte	(.LC772)
.byte	(.LC773)
.byte	(.LC774)
.byte	(.LC775)
.byte	(.LC776)
.byte	(.LC777)
.byte	(.LC778)
.byte	(.LC779)
.byte	(.LC780)
.byte	(.LC781)
.byte	(.LC782)
.byte	(.LC783)
.byte	(.LC784)
.byte	(.LC785)
.byte	(.LC786)
.byte	(.LC787)
.byte	(.LC788)
.byte	(.LC789)
.byte	(.LC790)
.byte	(.LC791)
.byte	(.LC792)
.byte	(.LC793)
.byte	(.LC794)
.byte	(.LC795)
.byte	(.LC796)
.byte	(.LC797)
.byte	(.LC798)
.byte	(.LC799)
.byte	(.LC800)
.byte	(.LC801)
.byte	(.LC802)
.byte	(.LC803)
.byte	(.LC804)
.byte	(.LC805)
.byte	(.LC806)
.byte	(.LC807)
.byte	(.LC808)
.byte	(.LC809)
.byte	(.LC810)
.byte	(.LC811)
.byte	(.LC812)
.byte	(.LC813)
.byte	(.LC814)
.byte	(.LC815)
.byte	(.LC816)
.byte	(.LC817)
.byte	(.LC818)
.byte	(.LC819)
.byte	(.LC820)
.byte	(.LC821)
.byte	(.LC822)
.byte	(.LC823)
.byte	(.LC824)
.byte	(.LC825)
.byte	(.LC826)
.byte	(.LC827)
.byte	(.LC828)
.byte	(.LC829)
.byte	(.LC830)
.byte	(.LC831)
.byte	(.LC832)
.byte	(.LC833)
.byte	(.LC834)
.byte	(.LC835)
.byte	(.LC836)
.byte	(.LC837)
.byte	(.LC838)
.byte	(.LC839)
.byte	(.LC840)
.byte	(.LC841)
.byte	(.LC842)
.byte	(.LC843)
.byte	(.LC844)
.byte	(.LC845)
.byte	(.LC846)
.byte	(.LC847)
.byte	(.LC848)
.byte	(.LC849)
.byte	(.LC850)
.byte	(.LC851)
.byte	(.LC852)
.byte	(.LC853)
.byte	(.LC854)
.byte	(.LC855)
.byte	(.LC856)
.byte	(.LC857)
.byte	(.LC858)
.byte	(.LC859)
.byte	(.LC860)
.byte	(.LC861)
.byte	(.LC862)
.byte	(.LC863)
.byte	(.LC864)
.byte	(.LC865)
.byte	(.LC866)
.byte	(.LC867)
.byte	(.LC868)
.byte	(.LC869)
.byte	(.LC870)
.byte	(.LC871)
.byte	(.LC872)
.byte	(.LC873)
.byte	(.LC874)
.byte	(.LC875)
.byte	(.LC876)
.byte	(.LC877)
.byte	(.LC878)
.byte	(.LC879)
.byte	(.LC880)
.byte	(.LC881)
.byte	(.LC882)
.byte	(.LC883)
.byte	(.LC884)
.byte	(.LC885)
.byte	(.LC886)
.byte	(.LC887)
.byte	(.LC888)
.byte	(.LC889)
.byte	(.LC890)
.byte	(.LC891)
.byte	(.LC892)
.byte	(.LC893)
.byte	(.LC894)
.byte	(.LC895)
.byte	(.LC896)
.byte	(.LC897)
.byte	(.LC898)
.byte	(.LC899)
.byte	(.LC900)
.byte	(.LC901)
.byte	(.LC902)
.byte	(.LC903)
.byte	(.LC904)
.byte	(.LC905)
.byte	(.LC906)
.byte	(.LC907)
.byte	(.LC908)
.byte	(.LC909)
.byte	(.LC910)
.byte	(.LC911)
.byte	(.LC912)
.byte	(.LC913)
.byte	(.LC914)
.byte	(.LC915)
.byte	(.LC916)
.byte	(.LC917)
.byte	(.LC918)
.byte	(.LC919)
.byte	(.LC920)
.byte	(.LC921)
.byte	(.LC922)
.byte	(.LC923)
.byte	(.LC924)
.byte	(.LC925)
.byte	(.LC926)
.byte	(.LC927)
.byte	(.LC928)
.byte	(.LC929)
.byte	(.LC930)
.byte	(.LC931)
.byte	(.LC932)
.byte	(.LC933)
.byte	(.LC934)
.byte	(.LC935)
.byte	(.LC936)
.byte	(.LC937)
.byte	(.LC938)
.byte	(.LC939)
.byte	(.LC940)
.byte	(.LC941)
.byte	(.LC942)
.byte	(.LC943)
.byte	(.LC944)
.byte	(.LC945)
.byte	(.LC946)
.byte	(.LC947)
.byte	(.LC948)
.byte	(.LC949)
.byte	(.LC950)
.byte	(.LC951)
.byte	(.LC952)
.byte	(.LC953)
.byte	(.LC954)
.byte	(.LC955)
.byte	(.LC956)
.byte	(.LC957)
.byte	(.LC958)
.byte	(.LC959)
.byte	(.LC960)
.byte	(.LC961)
.byte	(.LC962)
.byte	(.LC963)
.byte	(.LC964)
.byte	(.LC965)
.byte	(.LC966)
.byte	(.LC967)
.byte	(.LC968)
.byte	(.LC969)
.byte	(.LC970)
.byte	(.LC971)
.byte	(.LC972)
.byte	(.LC973)
.byte	(.LC974)
.byte	(.LC975)
.byte	(.LC976)
.byte	(.LC977)
.byte	(.LC978)
.byte	(.LC979)
.byte	(.LC980)
.byte	(.LC981)
.byte	(.LC982)
.byte	(.LC983)
.byte	(.LC984)
.byte	(.LC985)
.byte	(.LC986)
.byte	(.LC987)
.byte	(.LC988)
.byte	(.LC989)
.byte	(.LC990)
.byte	(.LC991)
.byte	(.LC992)
.byte	(.LC993)
.byte	(.LC994)
.byte	(.LC995)
.byte	(.LC996)
.byte	(.LC997)
.byte	(.LC998)
.byte	(.LC999)
.byte	(.LC1000)
.byte	(.LC1001)
.byte	(.LC1002)
.byte	(.LC1003)
.byte	(.LC1004)
.byte	(.LC1005)
.byte	(.LC1006)
.byte	(.LC1007)
.byte	(.LC1008)
.byte	(.LC1009)
.byte	(.LC1010)
.byte	(.LC1011)
.byte	(.LC1012)
.byte	(.LC1013)
.byte	(.LC1014)
.byte	(.LC1015)
.byte	(.LC1016)
.byte	(.LC1017)
.byte	(.LC1018)
.byte	(.LC1019)
.byte	(.LC1020)
.byte	(.LC1021)
.byte	(.LC1022)
.byte	(.LC1023)
.byte	(.LC1024)
.byte	(.LC1025)
.byte	(.LC1026)
.byte	(.LC1027)
.byte	(.LC1028)
.byte	(.LC1029)
.byte	(.LC1030)
.byte	(.LC1031)
.byte	(.LC1032)
.byte	(.LC1033)
.byte	(.LC1034)
.byte	(.LC1035)
.byte	(.LC1036)
.byte	(.LC1037)
.byte	(.LC1038)
.byte	(.LC1039)
.byte	(.LC1040)
.byte	(.LC1041)
.byte	(.LC1042)
.byte	(.LC1043)
.byte	(.LC1044)
.byte	(.LC1045)
.byte	(.LC1046)
.byte	(.LC1047)
.byte	(.LC1048)
.byte	(.LC1049)
.byte	(.LC1050)
.byte	(.LC1051)
.byte	(.LC1052)
.byte	(.LC1053)
.byte	(.LC1054)
.byte	(.LC1055)
.byte	(.LC1056)
.byte	(.LC1057)
.byte	(.LC1058)
.byte	(.LC1059)
.byte	(.LC1060)
.byte	(.LC1061)
.byte	(.LC1062)
.byte	(.LC1063)
.byte	(.LC1064)
.byte	(.LC1065)
.byte	(.LC1066)
.byte	(.LC1067)
.byte	(.LC1068)
.byte	(.LC1069)
.byte	(.LC1070)
.byte	(.LC1071)
.byte	(.LC1072)
.byte	(.LC1073)
.byte	(.LC1074)
.byte	(.LC1075)
.byte	(.LC1076)
.byte	(.LC1077)
.byte	(.LC1078)
.byte	(.LC1079)
.byte	(.LC1080)
.byte	(.LC1081)
.byte	(.LC1082)
.byte	(.LC1083)
.byte	(.LC1084)
.byte	(.LC1085)
.byte	(.LC1086)
.byte	(.LC1087)
.byte	(.LC1088)
.byte	(.LC1089)
.byte	(.LC1090)
.byte	(.LC1091)
.byte	(.LC1092)
.byte	(.LC1093)
.byte	(.LC1094)
.byte	(.LC1095)
.byte	(.LC1096)
.byte	(.LC1097)
.byte	(.LC1098)
.byte	(.LC1099)
.byte	(.LC1100)
.byte	(.LC1101)
.byte	(.LC1102)
.byte	(.LC1103)
.byte	(.LC1104)
.byte	(.LC1105)
.byte	(.LC1106)
.byte	(.LC1107)
.byte	(.LC1108)
.byte	(.LC1109)
.byte	(.LC1110)
.byte	(.LC1111)
.byte	(.LC1112)
.byte	(.LC1113)
.byte	(.LC1114)
.byte	(.LC1115)
.byte	(.LC1116)
.byte	(.LC1117)
.byte	(.LC1118)
.byte	(.LC1119)
.byte	(.LC1120)
.byte	(.LC1121)
.byte	(.LC1122)
.byte	(.LC1123)
.byte	(.LC1124)
.byte	(.LC1125)
.byte	(.LC1126)
.byte	(.LC1127)
.byte	(.LC1128)
.byte	(.LC1129)
.byte	(.LC1130)
.byte	(.LC1131)
.byte	(.LC1132)
.byte	(.LC1133)
.byte	(.LC1134)
.byte	(.LC1135)
.byte	(.LC1136)
.byte	(.LC1137)
.byte	(.LC1138)
.byte	(.LC1139)
.byte	(.LC1140)
.byte	(.LC1141)
.byte	(.LC1142)
.byte	(.LC1143)
.byte	(.LC1144)
.byte	(.LC1145)
.byte	(.LC1146)
.byte	(.LC1147)
.byte	(.LC1148)
.byte	(.LC1149)
.byte	(.LC1150)
.byte	(.LC1151)
.byte	(.LC1152)
.byte	(.LC1153)
.byte	(.LC1154)
.byte	(.LC1155)
.byte	(.LC1156)
.byte	(.LC1157)
.byte	(.LC1158)
.byte	(.LC1159)
.byte	(.LC1160)
.byte	(.LC1161)
.byte	(.LC1162)
.byte	(.LC1163)
.byte	(.LC1164)
.byte	(.LC1165)
.byte	(.LC1166)
.byte	(.LC1167)
.byte	(.LC1168)
.byte	(.LC1169)
.byte	(.LC1170)
.byte	(.LC1171)
.byte	(.LC1172)
.byte	(.LC1173)
.byte	(.LC1174)
.byte	(.LC1175)
.byte	(.LC1176)
.byte	(.LC1177)
.byte	(.LC1178)
.byte	(.LC1179)
.byte	(.LC1180)
.byte	(.LC1181)
.byte	(.LC1182)
.byte	(.LC1183)
.byte	(.LC1184)
.byte	(.LC1185)
.byte	(.LC1186)
.byte	(.LC1187)
.byte	(.LC1188)
.byte	(.LC1189)
.byte	(.LC1190)
.byte	(.LC1191)
.byte	(.LC1192)
.byte	(.LC1193)
.byte	(.LC1194)
.byte	(.LC1195)
.byte	(.LC1196)
.byte	(.LC1197)
.byte	(.LC1198)
.byte	(.LC1199)
.byte	(.LC1200)
.byte	(.LC1201)
.byte	(.LC1202)
.byte	(.LC1203)
.byte	(.LC1204)
.byte	(.LC1205)
.byte	(.LC1206)
.byte	(.LC1207)
.byte	(.LC1208)
.byte	(.LC1209)
.byte	(.LC1210)
.byte	(.LC1211)
.byte	(.LC1212)
.byte	(.LC1213)
.byte	(.LC1214)
.byte	(.LC1215)
.byte	(.LC1216)
.byte	(.LC1217)
.byte	(.LC1218)
.byte	(.LC1219)
.byte	(.LC1220)
.byte	(.LC1221)
.byte	(.LC1222)
.byte	(.LC1223)
.byte	(.LC1224)
.byte	(.LC1225)
.byte	(.LC1226)
.byte	(.LC1227)
.byte	(.LC1228)
.byte	(.LC1229)
.byte	(.LC1230)
.byte	(.LC1231)
.byte	(.LC1232)
.byte	(.LC1233)
.byte	(.LC1234)
.byte	(.LC1235)
.byte	(.LC1236)
.byte	(.LC1237)
.byte	(.LC1238)
.byte	(.LC1239)
.byte	(.LC1240)
.byte	(.LC1241)
.byte	(.LC1242)
.byte	(.LC1243)
.byte	(.LC1244)
.byte	(.LC1245)
.byte	(.LC1246)
.byte	(.LC1247)
.byte	(.LC1248)
.byte	(.LC1249)
.byte	(.LC1250)
.byte	(.LC1251)
.byte	(.LC1252)
.byte	(.LC1253)
.byte	(.LC1254)
.byte	(.LC1255)
.byte	(.LC1256)
.byte	(.LC1257)
.byte	(.LC1258)
.byte	(.LC1259)
.byte	(.LC1260)
.byte	(.LC1261)
.byte	(.LC1262)
.byte	(.LC1263)
.byte	(.LC1264)
.byte	(.LC1265)
.byte	(.LC1266)
.byte	(.LC1267)
.byte	(.LC1268)
.byte	(.LC1269)
.byte	(.LC1270)
.byte	(.LC1271)
.byte	(.LC1272)
.byte	(.LC1273)
.byte	(.LC1274)
.byte	(.LC1275)
.byte	(.LC1276)
.byte	(.LC1277)
.byte	(.LC1278)
.byte	(.LC1279)
.byte	(.LC1280)
.byte	(.LC1281)
.byte	(.LC1282)
.byte	(.LC1283)
.byte	(.LC1284)
.byte	(.LC1285)
.byte	(.LC1286)
.byte	(.LC1287)
.byte	(.LC1288)
.byte	(.LC1289)
.byte	(.LC1290)
.byte	(.LC1291)
.byte	(.LC1292)
.byte	(.LC1293)
.byte	(.LC1294)
.byte	(.LC1295)
.byte	(.LC1296)
.byte	(.LC1297)
.byte	(.LC1298)
.byte	(.LC1299)
.byte	(.LC1300)
.byte	(.LC1301)
.byte	(.LC1302)
.byte	(.LC1303)
.byte	(.LC1304)
.byte	(.LC1305)
.byte	(.LC1306)
.byte	(.LC1307)
.byte	(.LC1308)
.byte	(.LC1309)
.byte	(.LC1310)
.byte	(.LC1311)
.byte	(.LC1312)
.byte	(.LC1313)
.byte	(.LC1314)
.byte	(.LC1315)
.byte	(.LC1316)
.byte	(.LC1317)
.byte	(.LC1318)
.byte	(.LC1319)
.byte	(.LC1320)
.byte	(.LC1321)
.byte	(.LC1322)
.byte	(.LC1323)
.byte	(.LC1324)
.byte	(.LC1325)
.byte	(.LC1326)
.byte	(.LC1327)
.byte	(.LC1328)
.byte	(.LC1329)
.byte	(.LC1330)
.byte	(.LC1331)
.byte	(.LC1332)
.byte	(.LC1333)
.byte	(.LC1334)
.byte	(.LC1335)
.byte	(.LC1336)
.byte	(.LC1337)
.byte	(.LC1338)
.byte	(.LC1339)
.byte	(.LC1340)
.byte	(.LC1341)
.byte	(.LC1342)
.byte	(.LC1343)
.byte	(.LC1344)
.byte	(.LC1345)
.byte	(.LC1346)
.byte	(.LC1347)
.byte	(.LC1348)
.byte	(.LC1349)
.byte	(.LC1350)
.byte	(.LC1351)
.byte	(.LC1352)
.byte	(.LC1353)
.byte	(.LC1354)
.byte	(.LC1355)
.byte	(.LC1356)
.byte	(.LC1357)
.byte	(.LC1358)
.byte	(.LC1359)
.byte	(.LC1360)
.byte	(.LC1361)
.byte	(.LC1362)
.byte	(.LC1363)
.byte	(.LC1364)
.byte	(.LC1365)
.byte	(.LC1366)
.byte	(.LC1367)
.byte	(.LC1368)
.byte	(.LC1369)
.byte	(.LC1370)
.byte	(.LC1371)
.byte	(.LC1372)
.byte	(.LC1373)
.byte	(.LC1374)
.byte	(.LC1375)
.byte	(.LC1376)
.byte	(.LC1377)
.byte	(.LC1378)
.byte	(.LC1379)
.byte	(.LC1380)
.byte	(.LC1381)
.byte	(.LC1382)
.byte	(.LC1383)
.byte	(.LC1384)
.byte	(.LC1385)
.byte	(.LC1386)
.byte	(.LC1387)
.byte	(.LC1388)
.byte	(.LC1389)
.byte	(.LC1390)
.byte	(.LC1391)
.byte	(.LC1392)
.byte	(.LC1393)
.byte	(.LC1394)
.byte	(.LC1395)
.byte	(.LC1396)
.byte	(.LC1397)
.byte	(.LC1398)
.byte	(.LC1399)
.byte	(.LC1400)
.byte	(.LC1401)
.byte	(.LC1402)
.byte	(.LC1403)
.byte	(.LC1404)
.byte	(.LC1405)
.byte	(.LC1406)
.byte	(.LC1407)
.byte	(.LC1408)
.byte	(.LC1409)
.byte	(.LC1410)
.byte	(.LC1411)
.byte	(.LC1412)
.byte	(.LC1413)
.byte	(.LC1414)
.byte	(.LC1415)
.byte	(.LC1416)
.byte	(.LC1417)
.byte	(.LC1418)
.byte	(.LC1419)
.byte	(.LC1420)
.byte	(.LC1421)
.byte	(.LC1422)
.byte	(.LC1423)
.byte	(.LC1424)
.byte	(.LC1425)
.byte	(.LC1426)
.byte	(.LC1427)
.byte	(.LC1428)
.byte	(.LC1429)
.byte	(.LC1430)
.byte	(.LC1431)
.byte	(.LC1432)
.byte	(.LC1433)
.byte	(.LC1434)
.byte	(.LC1435)
.byte	(.LC1436)
.byte	(.LC1437)
.byte	(.LC1438)
.byte	(.LC1439)
.byte	(.LC1440)
.byte	(.LC1441)
.byte	(.LC1442)
.byte	(.LC1443)
.byte	(.LC1444)
.byte	(.LC1445)
.byte	(.LC1446)
.byte	(.LC1447)
.byte	(.LC1448)
.byte	(.LC1449)
.byte	(.LC1450)
.byte	(.LC1451)
.byte	(.LC1452)
.byte	(.LC1453)
.byte	(.LC1454)
.byte	(.LC1455)
.byte	(.LC1456)
.byte	(.LC1457)
.byte	(.LC1458)
.byte	(.LC1459)
.byte	(.LC1460)
.byte	(.LC1461)
.byte	(.LC1462)
.byte	(.LC1463)
.byte	(.LC1464)
.byte	(.LC1465)
.byte	(.LC1466)
.byte	(.LC1467)
.byte	(.LC1468)
.byte	(.LC1469)
.byte	(.LC1470)
.byte	(.LC1471)
.byte	(.LC1472)
.byte	(.LC1473)
.byte	(.LC1474)
.byte	(.LC1475)
.byte	(.LC1476)
.byte	(.LC1477)
.byte	(.LC1478)
.byte	(.LC1479)
.byte	(.LC1480)
.byte	(.LC1481)
.byte	(.LC1482)
.byte	(.LC1483)
.byte	(.LC1484)
.byte	(.LC1485)
.byte	(.LC1486)
.byte	(.LC1487)
.byte	(.LC1488)
.byte	(.LC1489)
.byte	(.LC1490)
.byte	(.LC1491)
.byte	(.LC1492)
.byte	(.LC1493)
.byte	(.LC1494)
.byte	(.LC1495)
.byte	(.LC1496)
.byte	(.LC1497)
.byte	(.LC1498)
.byte	(.LC1499)
.byte	(.LC1500)
.byte	(.LC1501)
.byte	(.LC1502)
.byte	(.LC1503)
.byte	(.LC1504)
.byte	(.LC1505)
.byte	(.LC1506)
.byte	(.LC1507)
.byte	(.LC1508)
.byte	(.LC1509)
.byte	(.LC1510)
.byte	(.LC1511)
.byte	(.LC1512)
.byte	(.LC1513)
.byte	(.LC1514)
.byte	(.LC1515)
.byte	(.LC1516)
.byte	(.LC1517)
.byte	(.LC1518)
.byte	(.LC1519)
.byte	(.LC1520)
.byte	(.LC1521)
.byte	(.LC1522)
.byte	(.LC1523)
.byte	(.LC1524)
.byte	(.LC1525)
.byte	(.LC1526)
.byte	(.LC1527)
.byte	(.LC1528)
.byte	(.LC1529)
.byte	(.LC1530)
.byte	(.LC1531)
.byte	(.LC1532)
.byte	(.LC1533)
.byte	(.LC1534)
.byte	(.LC1535)
.byte	(.LC1536)
.byte	(.LC1537)
.byte	(.LC1538)
.byte	(.LC1539)
.byte	(.LC1540)
.byte	(.LC1541)
.byte	(.LC1542)
.byte	(.LC1543)
.byte	(.LC1544)
.byte	(.LC1545)
.byte	(.LC1546)
.byte	(.LC1547)
.byte	(.LC1548)
.byte	(.LC1549)
.byte	(.LC1550)
.byte	(.LC1551)
.byte	(.LC1552)
.byte	(.LC1553)
.byte	(.LC1554)
.byte	(.LC1555)
.byte	(.LC1556)
.byte	(.LC1557)
.byte	(.LC1558)
.byte	(.LC1559)
.byte	(.LC1560)
.byte	(.LC1561)
.byte	(.LC1562)
.byte	(.LC1563)
.byte	(.LC1564)
.byte	(.LC1565)
.byte	(.LC1566)
.byte	(.LC1567)
.byte	(.LC1568)
.byte	(.LC1569)
.byte	(.LC1570)
.byte	(.LC1571)
.byte	(.LC1572)
.byte	(.LC1573)
.byte	(.LC1574)
.byte	(.LC1575)
.byte	(.LC1576)
.byte	(.LC1577)
.byte	(.LC1578)
.byte	(.LC1579)
.byte	(.LC1580)
.byte	(.LC1581)
.byte	(.LC1582)
.byte	(.LC1583)
.byte	(.LC1584)
.byte	(.LC1585)
.byte	(.LC1586)
.byte	(.LC1587)
.byte	(.LC1588)
.byte	(.LC1589)
.byte	(.LC1590)
.byte	(.LC1591)
.byte	(.LC1592)
.byte	(.LC1593)
.byte	(.LC1594)
.byte	(.LC1595)
.byte	(.LC1596)
.byte	(.LC1597)
.byte	(.LC1598)
.byte	(.LC1599)
.byte	(.LC1600)
.byte	(.LC1601)
.byte	(.LC1602)
.byte	(.LC1603)
.byte	(.LC1604)
.byte	(.LC1605)
.byte	(.LC1606)
.byte	(.LC1607)
.byte	(.LC1608)
.byte	(.LC1609)
.byte	(.LC1610)
.byte	(.LC1611)
.byte	(.LC1612)
.byte	(.LC1613)
.byte	(.LC1614)
.byte	(.LC1615)
.byte	(.LC1616)
.byte	(.LC1617)
.byte	(.LC1618)
.byte	(.LC1619)
.byte	(.LC1620)
.byte	(.LC1621)
.byte	(.LC1622)
.byte	(.LC1623)
.byte	(.LC1624)
.byte	(.LC1625)
.byte	(.LC1626)
.byte	(.LC1627)
.byte	(.LC1628)
.byte	(.LC1629)
.byte	(.LC1630)
.byte	(.LC1631)
.byte	(.LC1632)
.byte	(.LC1633)
.byte	(.LC1634)
.byte	(.LC1635)
.byte	(.LC1636)
.byte	(.LC1637)
.byte	(.LC1638)
.byte	(.LC1639)
.byte	(.LC1640)
.byte	(.LC1641)
.byte	(.LC1642)
.byte	(.LC1643)
.byte	(.LC1644)
.byte	(.LC1645)
.byte	(.LC1646)
.byte	(.LC1647)
.byte	(.LC1648)
.byte	(.LC1649)
.byte	(.LC1650)
.byte	(.LC1651)
.byte	(.LC1652)
.byte	(.LC1653)
.byte	(.LC1654)
.byte	(.LC1655)
.byte	(.LC1656)
.byte	(.LC1657)
.byte	(.LC1658)
.byte	(.LC1659)
.byte	(.LC1660)
.byte	(.LC1661)
.byte	(.LC1662)
.byte	(.LC1663)
.byte	(.LC1664)
.byte	(.LC1665)
.byte	(.LC1666)
.byte	(.LC1667)
.byte	(.LC1668)
.byte	(.LC1669)
.byte	(.LC1670)
.byte	(.LC1671)
.byte	(.LC1672)
.byte	(.LC1673)
.byte	(.LC1674)
.byte	(.LC1675)
.byte	(.LC1676)
.byte	(.LC1677)
.byte	(.LC1678)
.byte	(.LC1679)
.byte	(.LC1680)
.byte	(.LC1681)
.byte	(.LC1682)
.byte	(.LC1683)
.byte	(.LC1684)
.byte	(.LC1685)
.byte	(.LC1686)
.byte	(.LC1687)
.byte	(.LC1688)
.byte	(.LC1689)
.byte	(.LC1690)
.byte	(.LC1691)
.byte	(.LC1692)
.byte	(.LC1693)
.byte	(.LC1694)
.byte	(.LC1695)
.byte	(.LC1696)
.byte	(.LC1697)
.byte	(.LC1698)
.byte	(.LC1699)
.byte	(.LC1700)
.byte	(.LC1701)
.byte	(.LC1702)
.byte	(.LC1703)
.byte	(.LC1704)
.byte	(.LC1705)
.byte	(.LC1706)
.byte	(.LC1707)
.byte	(.LC1708)
.byte	(.LC1709)
.byte	(.LC1710)
.byte	(.LC1711)
.byte	(.LC1712)
.byte	(.LC1713)
.byte	(.LC1714)
.byte	(.LC1715)
.byte	(.LC1716)
.byte	(.LC1717)
.byte	(.LC1718)
.byte	(.LC1719)
.byte	(.LC1720)
.byte	(.LC1721)
.byte	(.LC1722)
.byte	(.LC1723)
.byte	(.LC1724)
.byte	(.LC1725)
.byte	(.LC1726)
.byte	(.LC1727)
.byte	(.LC1728)
.byte	(.LC1729)
.byte	(.LC1730)
.byte	(.LC1731)
.byte	(.LC1732)
.byte	(.LC1733)
.byte	(.LC1734)
.byte	(.LC1735)
.byte	(.LC1736)
.byte	(.LC1737)
.byte	(.LC1738)
.byte	(.LC1739)
.byte	(.LC1740)
.byte	(.LC1741)
.byte	(.LC1742)
.byte	(.LC1743)
.byte	(.LC1744)
.byte	(.LC1745)
.byte	(.LC1746)
.byte	(.LC1747)
.byte	(.LC1748)
.byte	(.LC1749)
.byte	(.LC1750)
.byte	(.LC1751)
.byte	(.LC1752)
.byte	(.LC1753)
.byte	(.LC1754)
.byte	(.LC1755)
.byte	(.LC1756)
.byte	(.LC1757)
.byte	(.LC1758)
.byte	(.LC1759)
.byte	(.LC1760)
.byte	(.LC1761)
.byte	(.LC1762)
.byte	(.LC1763)
.byte	(.LC1764)
.byte	(.LC1765)
.byte	(.LC1766)
.byte	(.LC1767)
.byte	(.LC1768)
.byte	(.LC1769)
.byte	(.LC1770)
.byte	(.LC1771)
.byte	(.LC1772)
.byte	(.LC1773)
.byte	(.LC1774)
.byte	(.LC1775)
.byte	(.LC1776)
.byte	(.LC1777)
.byte	(.LC1778)
.byte	(.LC1779)
.byte	(.LC1780)
.byte	(.LC1781)
.byte	(.LC1782)
.byte	(.LC1783)
.byte	(.LC1784)
.byte	(.LC1785)
.byte	(.LC1786)
.byte	(.LC1787)
.byte	(.LC1788)
.byte	(.LC1789)
.byte	(.LC1790)
.byte	(.LC1791)
.byte	(.LC1792)
.byte	(.LC1793)
.byte	(.LC1794)
.byte	(.LC1795)
.byte	(.LC1796)
.byte	(.LC1797)
.byte	(.LC1798)
.byte	(.LC1799)
.byte	(.LC1800)
.byte	(.LC1801)
.byte	(.LC1802)
.byte	(.LC1803)
.byte	(.LC1804)
.byte	(.LC1805)
.byte	(.LC1806)
.byte	(.LC1807)
.byte	(.LC1808)
.byte	(.LC1809)
.byte	(.LC1810)
.byte	(.LC1811)
.byte	(.LC1812)
.byte	(.LC1813)
.byte	(.LC1814)
.byte	(.LC1815)
.byte	(.LC1816)
.byte	(.LC1817)
.byte	(.LC1818)
.byte	(.LC1819)
.byte	(.LC1820)
.byte	(.LC1821)
.byte	(.LC1822)
.byte	(.LC1823)
.byte	(.LC1824)
.byte	(.LC1825)
.byte	(.LC1826)
.byte	(.LC1827)
.byte	(.LC1828)
.byte	(.LC1829)
.byte	(.LC1830)
.byte	(.LC1831)
.byte	(.LC1832)
.byte	(.LC1833)
.byte	(.LC1834)
.byte	(.LC1835)
.byte	(.LC1836)
.byte	(.LC1837)
.byte	(.LC1838)
.byte	(.LC1839)
.byte	(.LC1840)
.byte	(.LC1841)
.byte	(.LC1842)
.byte	(.LC1843)
.byte	(.LC1844)
.byte	(.LC1845)
.byte	(.LC1846)
.byte	(.LC1847)
.byte	(.LC1848)
.byte	(.LC1849)
.byte	(.LC1850)
.byte	(.LC1851)
.byte	(.LC1852)
.byte	(.LC1853)
.byte	(.LC1854)
.byte	(.LC1855)
.byte	(.LC1856)
.byte	(.LC1857)
.byte	(.LC1858)
.byte	(.LC1859)
.byte	(.LC1860)
.byte	(.LC1861)
.byte	(.LC1862)
.byte	(.LC1863)
.byte	(.LC1864)
.byte	(.LC1865)
.byte	(.LC1866)
.byte	(.LC1867)
.byte	(.LC1868)
.byte	(.LC1869)
.byte	(.LC1870)
.byte	(.LC1871)
.byte	(.LC1872)
.byte	(.LC1873)
.byte	(.LC1874)
.byte	(.LC1875)
.byte	(.LC1876)
.byte	(.LC1877)
.byte	(.LC1878)
.byte	(.LC1879)
.byte	(.LC1880)
.byte	(.LC1881)
.byte	(.LC1882)
.byte	(.LC1883)
.byte	(.LC1884)
.byte	(.LC1885)
.byte	(.LC1886)
.byte	(.LC1887)
.byte	(.LC1888)
.byte	(.LC1889)
.byte	(.LC1890)
.byte	(.LC1891)
.byte	(.LC1892)
.byte	(.LC1893)
.byte	(.LC1894)
.byte	(.LC1895)
.byte	(.LC1896)
.byte	(.LC1897)
.byte	(.LC1898)
.byte	(.LC1899)
.byte	(.LC1900)
.byte	(.LC1901)
.byte	(.LC1902)
.byte	(.LC1903)
.byte	(.LC1904)
.byte	(.LC1905)
.byte	(.LC1906)
.byte	(.LC1907)
.byte	(.LC1908)
.byte	(.LC1909)
.byte	(.LC1910)
.byte	(.LC1911)
.byte	(.LC1912)
.byte	(.LC1913)
.byte	(.LC1914)
.byte	(.LC1915)
.byte	(.LC1916)
.byte	(.LC1917)
.byte	(.LC1918)
.byte	(.LC1919)
.byte	(.LC1920)
.byte	(.LC1921)
.byte	(.LC1922)
.byte	(.LC1923)
.byte	(.LC1924)
.byte	(.LC1925)
.byte	(.LC1926)
.byte	(.LC1927)
.byte	(.LC1928)
.byte	(.LC1929)
.byte	(.LC1930)
.byte	(.LC1931)
.byte	(.LC1932)
.byte	(.LC1933)
.byte	(.LC1934)
.byte	(.LC1935)
.byte	(.LC1936)
.byte	(.LC1937)
.byte	(.LC1938)
.byte	(.LC1939)
.byte	(.LC1940)
.byte	(.LC1941)
.byte	(.LC1942)
.byte	(.LC1943)
.byte	(.LC1944)
.byte	(.LC1945)
.byte	(.LC1946)
.byte	(.LC1947)
.byte	(.LC1948)
.byte	(.LC1949)
.byte	(.LC1950)
.byte	(.LC1951)
.byte	(.LC1952)
.byte	(.LC1953)
.byte	(.LC1954)
.byte	(.LC1955)
.byte	(.LC1956)
.byte	(.LC1957)
.byte	(.LC1958)
.byte	(.LC1959)
.byte	(.LC1960)
.byte	(.LC1961)
.byte	(.LC1962)
.byte	(.LC1963)
.byte	(.LC1964)
.byte	(.LC1965)
.byte	(.LC1966)
.byte	(.LC1967)
.byte	(.LC1968)
.byte	(.LC1969)
.byte	(.LC1970)
.byte	(.LC1971)
.byte	(.LC1972)
.byte	(.LC1973)
.byte	(.LC1974)
.byte	(.LC1975)
.byte	(.LC1976)
.byte	(.LC1977)
.byte	(.LC1978)
.byte	(.LC1979)
.byte	(.LC1980)
.byte	(.LC1981)
.byte	(.LC1982)
.byte	(.LC1983)
.byte	(.LC1984)
.byte	(.LC1985)
.byte	(.LC1986)
.byte	(.LC1987)
.byte	(.LC1988)
.byte	(.LC1989)
.byte	(.LC1990)
.byte	(.LC1991)
.byte	(.LC1992)
.byte	(.LC1993)
.byte	(.LC1994)
.byte	(.LC1995)
.byte	(.LC1996)
.byte	(.LC1997)
.byte	(.LC1998)
.byte	(.LC1999)
.byte	(.LC2000)
.byte	(.LC2001)
.byte	(.LC2002)
.byte	(.LC2003)
.byte	(.LC2004)
.byte	(.LC2005)
.byte	(.LC2006)
.byte	(.LC2007)
.byte	(.LC2008)
.byte	(.LC2009)
.byte	(.LC2010)
.byte	(.LC2011)
.byte	(.LC2012)
.byte	(.LC2013)
.byte	(.LC2014)
.byte	(.LC2015)
.byte	(.LC2016)
.byte	(.LC2017)
.byte	(.LC2018)
.byte	(.LC2019)
.byte	(.LC2020)
.byte	(.LC2021)
.byte	(.LC2022)
.byte	(.LC2023)
.byte	(.LC2024)
.byte	(.LC2025)
.byte	(.LC2026)
.byte	(.LC2027)
.byte	(.LC2028)
.byte	(.LC2029)
.byte	(.LC2030)
.byte	(.LC2031)
.byte	(.LC2032)
.byte	(.LC2033)
.byte	(.LC2034)
.byte	(.LC2035)
.byte	(.LC2036)
.byte	(.LC2037)
.byte	(.LC2038)
.byte	(.LC2039)
.byte	(.LC2040)
.byte	(.LC2041)
.byte	(.LC2042)
.byte	(.LC2043)
.byte	(.LC2044)
.byte	(.LC2045)
.byte	(.LC2046)
.byte	(.LC2047)
.byte	(.LC2048)
.byte	(.LC2049)
.byte	(.LC2050)
.byte	(.LC2051)
.byte	(.LC2052)
.byte	(.LC2053)
.byte	(.LC2054)
.byte	(.LC2055)
.byte	(.LC2056)
.byte	(.LC2057)
.byte	(.LC2058)
.byte	(.LC2059)
.byte	(.LC2060)
.byte	(.LC2061)
.byte	(.LC2062)
.byte	(.LC2063)
.byte	(.LC2064)
.byte	(.LC2065)
.byte	(.LC2066)
.byte	(.LC2067)
.byte	(.LC2068)
.byte	(.LC2069)
.byte	(.LC2070)
.byte	(.LC2071)
.byte	(.LC2072)
.byte	(.LC2073)
.byte	(.LC2074)
.byte	(.LC2075)
.byte	(.LC2076)
.byte	(.LC2077)
.byte	(.LC2078)
.byte	(.LC2079)
.byte	(.LC2080)
.byte	(.LC2081)
.byte	(.LC2082)
.byte	(.LC2083)
.byte	(.LC2084)
.byte	(.LC2085)
.byte	(.LC2086)
.byte	(.LC2087)
.byte	(.LC2088)
.byte	(.LC2089)
.byte	(.LC2090)
.byte	(.LC2091)
.byte	(.LC2092)
.byte	(.LC2093)
.byte	(.LC2094)
.byte	(.LC2095)
.byte	(.LC2096)
.byte	(.LC2097)
.byte	(.LC2098)
.byte	(.LC2099)
.byte	(.LC2100)
.byte	(.LC2101)
.byte	(.LC2102)
.byte	(.LC2103)
.byte	(.LC2104)
.byte	(.LC2105)
.byte	(.LC2106)
.byte	(.LC2107)
.byte	(.LC2108)
.byte	(.LC2109)
.byte	(.LC2110)
.byte	(.LC2111)
.byte	(.LC2112)
.byte	(.LC2113)
.byte	(.LC2114)
.byte	(.LC2115)
.byte	(.LC2116)
.byte	(.LC2117)
.byte	(.LC2118)
.byte	(.LC2119)
.byte	(.LC2120)
.byte	(.LC2121)
.byte	(.LC2122)
.byte	(.LC2123)
.byte	(.LC2124)
.byte	(.LC2125)
.byte	(.LC2126)
.byte	(.LC2127)
.byte	(.LC2128)
.byte	(.LC2129)
.byte	(.LC2130)
.byte	(.LC2131)
.byte	(.LC2132)
.byte	(.LC2133)
.byte	(.LC2134)
.byte	(.LC2135)
.byte	(.LC2136)
.byte	(.LC2137)
.byte	(.LC2138)
.byte	(.LC2139)
.byte	(.LC2140)
.byte	(.LC2141)
.byte	(.LC2142)
.byte	(.LC2143)
.byte	(.LC2144)
.byte	(.LC2145)
.byte	(.LC2146)
.byte	(.LC2147)
.byte	(.LC2148)
.byte	(.LC2149)
.byte	(.LC2150)
.byte	(.LC2151)
.byte	(.LC2152)
.byte	(.LC2153)
.byte	(.LC2154)
.byte	(.LC2155)
.byte	(.LC2156)
.byte	(.LC2157)
.byte	(.LC2158)
.byte	(.LC2159)
.byte	(.LC2160)
.byte	(.LC2161)
.byte	(.LC2162)
.byte	(.LC2163)
.byte	(.LC2164)
.byte	(.LC2165)
.byte	(.LC2166)
.byte	(.LC2167)
.byte	(.LC2168)
.byte	(.LC2169)
.byte	(.LC2170)
.byte	(.LC2171)
.byte	(.LC2172)
.byte	(.LC2173)
.byte	(.LC2174)
.byte	(.LC2175)
.byte	(.LC2176)
.byte	(.LC2177)
.byte	(.LC2178)
.byte	(.LC2179)
.byte	(.LC2180)
.byte	(.LC2181)
.byte	(.LC2182)
.byte	(.LC2183)
.byte	(.LC2184)
.byte	(.LC2185)
.byte	(.LC2186)
.byte	(.LC2187)
.byte	(.LC2188)
.byte	(.LC2189)
.byte	(.LC2190)
.byte	(.LC2191)
.byte	(.LC2192)
.byte	(.LC2193)
.byte	(.LC2194)
.byte	(.LC2195)
.byte	(.LC2196)
.byte	(.LC2197)
.byte	(.LC2198)
.byte	(.LC2199)
.byte	(.LC2200)
.byte	(.LC2201)
.byte	(.LC2202)
.byte	(.LC2203)
.byte	(.LC2204)
.byte	(.LC2205)
.byte	(.LC2206)
.byte	(.LC2207)
.byte	(.LC2208)
.byte	(.LC2209)
.byte	(.LC2210)
.byte	(.LC2211)
.byte	(.LC2212)
.byte	(.LC2213)
.byte	(.LC2214)
.byte	(.LC2215)
.byte	(.LC2216)
.byte	(.LC2217)
.byte	(.LC2218)
.byte	(.LC2219)
.byte	(.LC2220)
.byte	(.LC2221)
.byte	(.LC2222)
.byte	(.LC2223)
.byte	(.LC2224)
.byte	(.LC2225)
.byte	(.LC2226)
.byte	(.LC2227)
.byte	(.LC2228)
.byte	(.LC2229)
.byte	(.LC2230)
.byte	(.LC2231)
.byte	(.LC2232)
.byte	(.LC2233)
.byte	(.LC2234)
.byte	(.LC2235)
.byte	(.LC2236)
.byte	(.LC2237)
.byte	(.LC2238)
.byte	(.LC2239)
.byte	(.LC2240)
.byte	(.LC2241)
.byte	(.LC2242)
.byte	(.LC2243)
.byte	(.LC2244)
.byte	(.LC2245)
.byte	(.LC2246)
.byte	(.LC2247)
.byte	(.LC2248)
.byte	(.LC2249)
.byte	(.LC2250)
.byte	(.LC2251)
.byte	(.LC2252)
.byte	(.LC2253)
.byte	(.LC2254)
.byte	(.LC2255)
.byte	(.LC2256)
.byte	(.LC2257)
.byte	(.LC2258)
.byte	(.LC2259)
.byte	(.LC2260)
.byte	(.LC2261)
.byte	(.LC2262)
.byte	(.LC2263)
.byte	(.LC2264)
.byte	(.LC2265)
.byte	(.LC2266)
.byte	(.LC2267)
.byte	(.LC2268)
.byte	(.LC2269)
.byte	(.LC2270)
.byte	(.LC2271)
.byte	(.LC2272)
.byte	(.LC2273)
.byte	(.LC2274)
.byte	(.LC2275)
.byte	(.LC2276)
.byte	(.LC2277)
.byte	(.LC2278)
.byte	(.LC2279)
.byte	(.LC2280)
.byte	(.LC2281)
.byte	(.LC2282)
.byte	(.LC2283)
.byte	(.LC2284)
.byte	(.LC2285)
.byte	(.LC2286)
.byte	(.LC2287)
.byte	(.LC2288)
.byte	(.LC2289)
.byte	(.LC2290)
.byte	(.LC2291)
.byte	(.LC2292)
.byte	(.LC2293)
.byte	(.LC2294)
.byte	(.LC2295)
.byte	(.LC2296)
.byte	(.LC2297)
.byte	(.LC2298)
.byte	(.LC2299)
.byte	(.LC2300)
.byte	(.LC2301)
.byte	(.LC2302)
.byte	(.LC2303)
.byte	(.LC2304)
.byte	(.LC2305)
.byte	(.LC2306)
.byte	(.LC2307)
.byte	(.LC2308)
.byte	(.LC2309)
.byte	(.LC2310)
.byte	(.LC2311)
.byte	(.LC2312)
.byte	(.LC2313)
.byte	(.LC2314)
.byte	(.LC2315)
.byte	(.LC2316)
.byte	(.LC2317)
.byte	(.LC2318)
.byte	(.LC2319)
.byte	(.LC2320)
.byte	(.LC2321)
.byte	(.LC2322)
.byte	(.LC2323)
.byte	(.LC2324)
.byte	(.LC2325)
.byte	(.LC2326)
.byte	(.LC2327)
.byte	(.LC2328)
.byte	(.LC2329)
.byte	(.LC2330)
.byte	(.LC2331)
.byte	(.LC2332)
.byte	(.LC2333)
.byte	(.LC2334)
.byte	(.LC2335)
.byte	(.LC2336)
.byte	(.LC2337)
.byte	(.LC2338)
.byte	(.LC2339)
.byte	(.LC2340)
.byte	(.LC2341)
.byte	(.LC2342)
.byte	(.LC2343)
.byte	(.LC2344)
.byte	(.LC2345)
.byte	(.LC2346)
.byte	(.LC2347)
.byte	(.LC2348)
.byte	(.LC2349)
.byte	(.LC2350)
.byte	(.LC2351)
.byte	(.LC2352)
.byte	(.LC2353)
.byte	(.LC2354)
.byte	(.LC2355)
.byte	(.LC2356)
.byte	(.LC2357)
.byte	(.LC2358)
.byte	(.LC2359)
.byte	(.LC2360)
.byte	(.LC2361)
.byte	(.LC2362)
.byte	(.LC2363)
.byte	(.LC2364)
.byte	(.LC2365)
.byte	(.LC2366)
.byte	(.LC2367)
.byte	(.LC2368)
.byte	(.LC2369)
.byte	(.LC2370)
.byte	(.LC2371)
.byte	(.LC2372)
.byte	(.LC2373)
.byte	(.LC2374)
.byte	(.LC2375)
.byte	(.LC2376)
.byte	(.LC2377)
.byte	(.LC2378)
.byte	(.LC2379)
.byte	(.LC2380)
.byte	(.LC2381)
.byte	(.LC2382)
.byte	(.LC2383)
.byte	(.LC2384)
.byte	(.LC2385)
.byte	(.LC2386)
.byte	(.LC2387)
.byte	(.LC2388)
.byte	(.LC2389)
.byte	(.LC2390)
.byte	(.LC2391)
.byte	(.LC2392)
.byte	(.LC2393)
.byte	(.LC2394)
.byte	(.LC2395)
.byte	(.LC2396)
.byte	(.LC2397)
.byte	(.LC2398)
.byte	(.LC2399)
.byte	(.LC2400)
.byte	(.LC2401)
.byte	(.LC2402)
.byte	(.LC2403)
.byte	(.LC2404)
.byte	(.LC2405)
.byte	(.LC2406)
.byte	(.LC2407)
.byte	(.LC2408)
.byte	(.LC2409)
.byte	(.LC2410)
.byte	(.LC2411)
.byte	(.LC2412)
.byte	(.LC2413)
.byte	(.LC2414)
.byte	(.LC2415)
.byte	(.LC2416)
.byte	(.LC2417)
.byte	(.LC2418)
.byte	(.LC2419)
.byte	(.LC2420)
.byte	(.LC2421)
.byte	(.LC2422)
.byte	(.LC2423)
.byte	(.LC2424)
.byte	(.LC2425)
.byte	(.LC2426)
.byte	(.LC2427)
.byte	(.LC2428)
.byte	(.LC2429)
.byte	(.LC2430)
.byte	(.LC2431)
.byte	(.LC2432)
.byte	(.LC2433)
.byte	(.LC2434)
.byte	(.LC2435)
.byte	(.LC2436)
.byte	(.LC2437)
.byte	(.LC2438)
.byte	(.LC2439)
.byte	(.LC2440)
.byte	(.LC2441)
.byte	(.LC2442)
.byte	(.LC2443)
.byte	(.LC2444)
.byte	(.LC2445)
.byte	(.LC2446)
.byte	(.LC2447)
.byte	(.LC2448)
.byte	(.LC2449)
.byte	(.LC2450)
.byte	(.LC2451)
.byte	(.LC2452)
.byte	(.LC2453)
.byte	(.LC2454)
.byte	(.LC2455)
.byte	(.LC2456)
.byte	(.LC2457)
.byte	(.LC2458)
.byte	(.LC2459)
.byte	(.LC2460)
.byte	(.LC2461)
.byte	(.LC2462)
.byte	(.LC2463)
.byte	(.LC2464)
.byte	(.LC2465)
.byte	(.LC2466)
.byte	(.LC2467)
.byte	(.LC2468)
.byte	(.LC2469)
.byte	(.LC2470)
.byte	(.LC2471)
.byte	(.LC2472)
.byte	(.LC2473)
.byte	(.LC2474)
.byte	(.LC2475)
.byte	(.LC2476)
.byte	(.LC2477)
.byte	(.LC2478)
.byte	(.LC2479)
.byte	(.LC2480)
.byte	(.LC2481)
.byte	(.LC2482)
.byte	(.LC2483)
.byte	(.LC2484)
.byte	(.LC2485)
.byte	(.LC2486)
.byte	(.LC2487)
.byte	(.LC2488)
.byte	(.LC2489)
.byte	(.LC2490)
.byte	(.LC2491)
.byte	(.LC2492)
.byte	(.LC2493)
.byte	(.LC2494)
.byte	(.LC2495)
.byte	(.LC2496)
.byte	(.LC2497)
.byte	(.LC2498)
.byte	(.LC2499)
.byte	(.LC2500)
.byte	(.LC2501)
.byte	(.LC2502)
.byte	(.LC2503)
.byte	(.LC2504)
.byte	(.LC2505)
.byte	(.LC2506)
.byte	(.LC2507)
.byte	(.LC2508)
.byte	(.LC2509)
.byte	(.LC2510)
.byte	(.LC2511)
.byte	(.LC2512)
.byte	(.LC2513)
.byte	(.LC2514)
.byte	(.LC2515)
.byte	(.LC2516)
.byte	(.LC2517)
.byte	(.LC2518)
.byte	(.LC2519)
.byte	(.LC2520)
.byte	(.LC2521)
.byte	(.LC2522)
.byte	(.LC2523)
.byte	(.LC2524)
.byte	(.LC2525)
.byte	(.LC2526)
.byte	(.LC2527)
.byte	(.LC2528)
.byte	(.LC2529)
.byte	(.LC2530)
.byte	(.LC2531)
.byte	(.LC2532)
.byte	(.LC2533)
.byte	(.LC2534)
.byte	(.LC2535)
.byte	(.LC2536)
.byte	(.LC2537)
.byte	(.LC2538)
.byte	(.LC2539)
.byte	(.LC2540)
.byte	(.LC2541)
.byte	(.LC2542)
.byte	(.LC2543)
.byte	(.LC2544)
.byte	(.LC2545)
.byte	(.LC2546)
.byte	(.LC2547)
.byte	(.LC2548)
.byte	(.LC2549)
.byte	(.LC2550)
.byte	(.LC2551)
.byte	(.LC2552)
.byte	(.LC2553)
.byte	(.LC2554)
.byte	(.LC2555)
.byte	(.LC2556)
.byte	(.LC2557)
.byte	(.LC2558)
.byte	(.LC2559)
.byte	(.LC2560)
.byte	(.LC2561)
.byte	(.LC2562)
.byte	(.LC2563)
.byte	(.LC2564)
.byte	(.LC2565)
.byte	(.LC2566)
.byte	(.LC2567)
.byte	(.LC2568)
.byte	(.LC2569)
.byte	(.LC2570)
.byte	(.LC2571)
.byte	(.LC2572)
.byte	(.LC2573)
.byte	(.LC2574)
.byte	(.LC2575)
.byte	(.LC2576)
.byte	(.LC2577)
.byte	(.LC2578)
.byte	(.LC2579)
.byte	(.LC2580)
.byte	(.LC2581)
.byte	(.LC2582)
.byte	(.LC2583)
.byte	(.LC2584)
.byte	(.LC2585)
.byte	(.LC2586)
.byte	(.LC2587)
.byte	(.LC2588)
.byte	(.LC2589)
.byte	(.LC2590)
.byte	(.LC2591)
.byte	(.LC2592)
.byte	(.LC2593)
.byte	(.LC2594)
.byte	(.LC2595)
.byte	(.LC2596)
.byte	(.LC2597)
.byte	(.LC2598)
.byte	(.LC2599)
.byte	(.LC2600)
.byte	(.LC2601)
.byte	(.LC2602)
.byte	(.LC2603)
.byte	(.LC2604)
.byte	(.LC2605)
.byte	(.LC2606)
.byte	(.LC2607)
.byte	(.LC2608)
.byte	(.LC2609)
.byte	(.LC2610)
.byte	(.LC2611)
.byte	(.LC2612)
.byte	(.LC2613)
.byte	(.LC2614)
.byte	(.LC2615)
.byte	(.LC2616)
.byte	(.LC2617)
.byte	(.LC2618)
.byte	(.LC2619)
.byte	(.LC2620)
.byte	(.LC2621)
.byte	(.LC2622)
.byte	(.LC2623)
.byte	(.LC2624)
.byte	(.LC2625)
.byte	(.LC2626)
.byte	(.LC2627)
.byte	(.LC2628)
.byte	(.LC2629)
.byte	(.LC2630)
.byte	(.LC2631)
.byte	(.LC2632)
.byte	(.LC2633)
.byte	(.LC2634)
.byte	(.LC2635)
.byte	(.LC2636)
.byte	(.LC2637)
.byte	(.LC2638)
.byte	(.LC2639)
.byte	(.LC2640)
.byte	(.LC2641)
.byte	(.LC2642)
.byte	(.LC2643)
.byte	(.LC2644)
.byte	(.LC2645)
.byte	(.LC2646)
.byte	(.LC2647)
.byte	(.LC2648)
.byte	(.LC2649)
.byte	(.LC2650)
.byte	(.LC2651)
.byte	(.LC2652)
.byte	(.LC2653)
.byte	(.LC2654)
.byte	(.LC2655)
.byte	(.LC2656)
.byte	(.LC2657)
.byte	(.LC2658)
.byte	(.LC2659)
.byte	(.LC2660)
.byte	(.LC2661)
.byte	(.LC2662)
.byte	(.LC2663)
.byte	(.LC2664)
.byte	(.LC2665)
.byte	(.LC2666)
.byte	(.LC2667)
.byte	(.LC2668)
.byte	(.LC2669)
.byte	(.LC2670)
.byte	(.LC2671)
.byte	(.LC2672)
.byte	(.LC2673)
.byte	(.LC2674)
.byte	(.LC2675)
.byte	(.LC2676)
.byte	(.LC2677)
.byte	(.LC2678)
.byte	(.LC2679)
.byte	(.LC2680)
.byte	(.LC2681)
.byte	(.LC2682)
.byte	(.LC2683)
.byte	(.LC2684)
.byte	(.LC2685)
.byte	(.LC2686)
.byte	(.LC2687)
.byte	(.LC2688)
.byte	(.LC2689)
.byte	(.LC2690)
.byte	(.LC2691)
.byte	(.LC2692)
.byte	(.LC2693)
.byte	(.LC2694)
.byte	(.LC2695)
.byte	(.LC2696)
.byte	(.LC2697)
.byte	(.LC2698)
.byte	(.LC2699)
.byte	(.LC2700)
.byte	(.LC2701)
.byte	(.LC2702)
.byte	(.LC2703)
.byte	(.LC2704)
.byte	(.LC2705)
.byte	(.LC2706)
.byte	(.LC2707)
.byte	(.LC2708)
.byte	(.LC2709)
.byte	(.LC2710)
.byte	(.LC2711)
.byte	(.LC2712)
.byte	(.LC2713)
.byte	(.LC2714)
.byte	(.LC2715)
.byte	(.LC2716)
.byte	(.LC2717)
.byte	(.LC2718)
.byte	(.LC2719)
.byte	(.LC2720)
.byte	(.LC2721)
.byte	(.LC2722)
.byte	(.LC2723)
.byte	(.LC2724)
.byte	(.LC2725)
.byte	(.LC2726)
.byte	(.LC2727)
.byte	(.LC2728)
.byte	(.LC2729)
.byte	(.LC2730)
.byte	(.LC2731)
.byte	(.LC2732)
.byte	(.LC2733)
.byte	(.LC2734)
.byte	(.LC2735)
.byte	(.LC2736)
.byte	(.LC2737)
.byte	(.LC2738)
.byte	(.LC2739)
.byte	(.LC2740)
.byte	(.LC2741)
.byte	(.LC2742)
.byte	(.LC2743)
.byte	(.LC2744)
.byte	(.LC2745)
.byte	(.LC2746)
.byte	(.LC2747)
.byte	(.LC2748)
.byte	(.LC2749)
.byte	(.LC2750)
.byte	(.LC2751)
.byte	(.LC2752)
.byte	(.LC2753)
.byte	(.LC2754)
.byte	(.LC2755)
.byte	(.LC2756)
.byte	(.LC2757)
.byte	(.LC2758)
.byte	(.LC2759)
.byte	(.LC2760)
.byte	(.LC2761)
.byte	(.LC2762)
.byte	(.LC2763)
.byte	(.LC2764)
.byte	(.LC2765)
.byte	(.LC2766)
.byte	(.LC2767)
.byte	(.LC2768)
.byte	(.LC2769)
.byte	(.LC2770)
.byte	(.LC2771)
.byte	(.LC2772)
.byte	(.LC2773)
.byte	(.LC2774)
.byte	(.LC2775)
.byte	(.LC2776)
.byte	(.LC2777)
.byte	(.LC2778)
.byte	(.LC2779)
.byte	(.LC2780)
.byte	(.LC2781)
.byte	(.LC2782)
.byte	(.LC2783)
.byte	(.LC2784)
.byte	(.LC2785)
.byte	(.LC2786)
.byte	(.LC2787)
.byte	(.LC2788)
.byte	(.LC2789)
.byte	(.LC2790)
.byte	(.LC2791)
.byte	(.LC2792)
.byte	(.LC2793)
.byte	(.LC2794)
.byte	(.LC2795)
.byte	(.LC2796)
.byte	(.LC2797)
.byte	(.LC2798)
.byte	(.LC2799)
.byte	(.LC2800)
.byte	(.LC2801)
.byte	(.LC2802)
.byte	(.LC2803)
.byte	(.LC2804)
.byte	(.LC2805)
.byte	(.LC2806)
.byte	(.LC2807)
.byte	(.LC2808)
.byte	(.LC2809)
.byte	(.LC2810)
.byte	(.LC2811)
.byte	(.LC2812)
.byte	(.LC2813)
.byte	(.LC2814)
.byte	(.LC2815)
.byte	(.LC2816)
.byte	(.LC2817)
.byte	(.LC2818)
.byte	(.LC2819)
.byte	(.LC2820)
.byte	(.LC2821)
.byte	(.LC2822)
.byte	(.LC2823)
.byte	(.LC2824)
.byte	(.LC2825)
.byte	(.LC2826)
.byte	(.LC2827)
.byte	(.LC2828)
.byte	(.LC2829)
.byte	(.LC2830)
.byte	(.LC2831)
.byte	(.LC2832)
.byte	(.LC2833)
.byte	(.LC2834)
.byte	(.LC2835)
.byte	(.LC2836)
.byte	(.LC2837)
.byte	(.LC2838)
.byte	(.LC2839)
.byte	(.LC2840)
.byte	(.LC2841)
.byte	(.LC2842)
.byte	(.LC2843)
.byte	(.LC2844)
.byte	(.LC2845)
.byte	(.LC2846)
.byte	(.LC2847)
.byte	(.LC2848)
.byte	(.LC2849)
.byte	(.LC2850)
.byte	(.LC2851)
.byte	(.LC2852)
.byte	(.LC2853)
.byte	(.LC2854)
.byte	(.LC2855)
.byte	(.LC2856)
.byte	(.LC2857)
.byte	(.LC2858)
.byte	(.LC2859)
.byte	(.LC2860)
.byte	(.LC2861)
.byte	(.LC2862)
.byte	(.LC2863)
.byte	(.LC2864)
.byte	(.LC2865)
.byte	(.LC2866)
.byte	(.LC2867)
.byte	(.LC2868)
.byte	(.LC2869)
.byte	(.LC2870)
.byte	(.LC2871)
.byte	(.LC2872)
.byte	(.LC2873)
.byte	(.LC2874)
.byte	(.LC2875)
.byte	(.LC2876)
.byte	(.LC2877)
.byte	(.LC2878)
.byte	(.LC2879)
.byte	(.LC2880)
.byte	(.LC2881)
.byte	(.LC2882)
.byte	(.LC2883)
.byte	(.LC2884)
.byte	(.LC2885)
.byte	(.LC2886)
.byte	(.LC2887)
.byte	(.LC2888)
.byte	(.LC2889)
.byte	(.LC2890)
.byte	(.LC2891)
.byte	(.LC2892)
.byte	(.LC2893)
.byte	(.LC2894)
.byte	(.LC2895)
.byte	(.LC2896)
.byte	(.LC2897)
.byte	(.LC2898)
.byte	(.LC2899)
.byte	(.LC2900)
.byte	(.LC2901)
.byte	(.LC2902)
.byte	(.LC2903)
.byte	(.LC2904)
.byte	(.LC2905)
.byte	(.LC2906)
.byte	(.LC2907)
.byte	(.LC2908)
.byte	(.LC2909)
.byte	(.LC2910)
.byte	(.LC2911)
.byte	(.LC2912)
.byte	(.LC2913)
.byte	(.LC2914)
.byte	(.LC2915)
.byte	(.LC2916)
.byte	(.LC2917)
.byte	(.LC2918)
.byte	(.LC2919)
.byte	(.LC2920)
.byte	(.LC2921)
.byte	(.LC2922)
.byte	(.LC2923)
.byte	(.LC2924)
.byte	(.LC2925)
.byte	(.LC2926)
.byte	(.LC2927)
.byte	(.LC2928)
.byte	(.LC2929)
.byte	(.LC2930)
.byte	(.LC2931)
.byte	(.LC2932)
.byte	(.LC2933)
.byte	(.LC2934)
.byte	(.LC2935)
.byte	(.LC2936)
.byte	(.LC2937)
.byte	(.LC2938)
.byte	(.LC2939)
.byte	(.LC2940)
.byte	(.LC2941)
.byte	(.LC2942)
.byte	(.LC2943)
.byte	(.LC2944)
.byte	(.LC2945)
.byte	(.LC2946)
.byte	(.LC2947)
.byte	(.LC2948)
.byte	(.LC2949)
.byte	(.LC2950)
.byte	(.LC2951)
.byte	(.LC2952)
.byte	(.LC2953)
.byte	(.LC2954)
.byte	(.LC2955)
.byte	(.LC2956)
.byte	(.LC2957)
.byte	(.LC2958)
.byte	(.LC2959)
.byte	(.LC2960)
.byte	(.LC2961)
.byte	(.LC2962)
.byte	(.LC2963)
.byte	(.LC2964)
.byte	(.LC2965)
.byte	(.LC2966)
.byte	(.LC2967)
.byte	(.LC2968)
.byte	(.LC2969)
.byte	(.LC2970)
.byte	(.LC2971)
.byte	(.LC2972)
.byte	(.LC2973)
.byte	(.LC2974)
.byte	(.LC2975)
.byte	(.LC2976)
.byte	(.LC2977)
.byte	(.LC2978)
.byte	(.LC2979)
.byte	(.LC2980)
.byte	(.LC2981)
.byte	(.LC2982)
.byte	(.LC2983)
.byte	(.LC2984)
.byte	(.LC2985)
.byte	(.LC2986)
.byte	(.LC2987)
.byte	(.LC2988)
.byte	(.LC2989)
.byte	(.LC2990)
.byte	(.LC2991)
.byte	(.LC2992)
.byte	(.LC2993)
.byte	(.LC2994)
.byte	(.LC2995)
.byte	(.LC2996)
.byte	(.LC2997)
.byte	(.LC2998)
.byte	(.LC2999)
.byte	(.LC3000)
.byte	(.LC3001)
.byte	(.LC3002)
.byte	(.LC3003)
.byte	(.LC3004)
.byte	(.LC3005)
.byte	(.LC3006)
.byte	(.LC3007)
.byte	(.LC3008)
.byte	(.LC3009)
.byte	(.LC3010)
.byte	(.LC3011)
.byte	(.LC3012)
.byte	(.LC3013)
.byte	(.LC3014)
.byte	(.LC3015)
.byte	(.LC3016)
.byte	(.LC3017)
.byte	(.LC3018)
.byte	(.LC3019)
.byte	(.LC3020)
.byte	(.LC3021)
.byte	(.LC3022)
.byte	(.LC3023)
.byte	(.LC3024)
.byte	(.LC3025)
.byte	(.LC3026)
.byte	(.LC3027)
.byte	(.LC3028)
.byte	(.LC3029)
.byte	(.LC3030)
.byte	(.LC3031)
.byte	(.LC3032)
.byte	(.LC3033)
.byte	(.LC3034)
.byte	(.LC3035)
.byte	(.LC3036)
.byte	(.LC3037)
.byte	(.LC3038)
.byte	(.LC3039)
.byte	(.LC3040)
.byte	(.LC3041)
.byte	(.LC3042)
.byte	(.LC3043)
.byte	(.LC3044)
.byte	(.LC3045)
.byte	(.LC3046)
.byte	(.LC3047)
.byte	(.LC3048)
.byte	(.LC3049)
.byte	(.LC3050)
.byte	(.LC3051)
.byte	(.LC3052)
.byte	(.LC3053)
.byte	(.LC3054)
.byte	(.LC3055)
.byte	(.LC3056)
.byte	(.LC3057)
.byte	(.LC3058)
.byte	(.LC3059)
.byte	(.LC3060)
.byte	(.LC3061)
.byte	(.LC3062)
.byte	(.LC3063)
.byte	(.LC3064)
.byte	(.LC3065)
.byte	(.LC3066)
.byte	(.LC3067)
.byte	(.LC3068)
.byte	(.LC3069)
.byte	(.LC3070)
.byte	(.LC3071)
.byte	(.LC3072)
.byte	(.LC3073)
.byte	(.LC3074)
.byte	(.LC3075)
.byte	(.LC3076)
.byte	(.LC3077)
.byte	(.LC3078)
.byte	(.LC3079)
.byte	(.LC3080)
.byte	(.LC3081)
.byte	(.LC3082)
.byte	(.LC3083)
.byte	(.LC3084)
.byte	(.LC3085)
.byte	(.LC3086)
.byte	(.LC3087)
.byte	(.LC3088)
.byte	(.LC3089)
.byte	(.LC3090)
.byte	(.LC3091)
.byte	(.LC3092)
.byte	(.LC3093)
.byte	(.LC3094)
.byte	(.LC3095)
.byte	(.LC3096)
.byte	(.LC3097)
.byte	(.LC3098)
.byte	(.LC3099)
.byte	(.LC3100)
.byte	(.LC3101)
.byte	(.LC3102)
.byte	(.LC3103)
.byte	(.LC3104)
.byte	(.LC3105)
.byte	(.LC3106)
.byte	(.LC3107)
.byte	(.LC3108)
.byte	(.LC3109)
.byte	(.LC3110)
.byte	(.LC3111)
.byte	(.LC3112)
.byte	(.LC3113)
.byte	(.LC3114)
.byte	(.LC3115)
.byte	(.LC3116)
.byte	(.LC3117)
.byte	(.LC3118)
.byte	(.LC3119)
.byte	(.LC3120)
.byte	(.LC3121)
.byte	(.LC3122)
.byte	(.LC3123)
.byte	(.LC3124)
.byte	(.LC3125)
.byte	(.LC3126)
.byte	(.LC3127)
.byte	(.LC3128)
.byte	(.LC3129)
.byte	(.LC3130)
.byte	(.LC3131)
.byte	(.LC3132)
.byte	(.LC3133)
.byte	(.LC3134)
.byte	(.LC3135)
.byte	(.LC3136)
.byte	(.LC3137)
.byte	(.LC3138)
.byte	(.LC3139)
.byte	(.LC3140)
.byte	(.LC3141)
.byte	(.LC3142)
.byte	(.LC3143)
.byte	(.LC3144)
.byte	(.LC3145)
.byte	(.LC3146)
.byte	(.LC3147)
.byte	(.LC3148)
.byte	(.LC3149)
.byte	(.LC3150)
.byte	(.LC3151)
.byte	(.LC3152)
.byte	(.LC3153)
.byte	(.LC3154)
.byte	(.LC3155)
.byte	(.LC3156)
.byte	(.LC3157)
.byte	(.LC3158)
.byte	(.LC3159)
.byte	(.LC3160)
.byte	(.LC3161)
.byte	(.LC3162)
.byte	(.LC3163)
.byte	(.LC3164)
.byte	(.LC3165)
.byte	(.LC3166)
.byte	(.LC3167)
.byte	(.LC3168)
.byte	(.LC3169)
.byte	(.LC3170)
.byte	(.LC3171)
.byte	(.LC3172)
.byte	(.LC3173)
.byte	(.LC3174)
.byte	(.LC3175)
.byte	(.LC3176)
.byte	(.LC3177)
.byte	(.LC3178)
.byte	(.LC3179)
.byte	(.LC3180)
.byte	(.LC3181)
.byte	(.LC3182)
.byte	(.LC3183)
.byte	(.LC3184)
.byte	(.LC3185)
.byte	(.LC3186)
.byte	(.LC3187)
.byte	(.LC3188)
.byte	(.LC3189)
.byte	(.LC3190)
.byte	(.LC3191)
.byte	(.LC3192)
.byte	(.LC3193)
.byte	(.LC3194)
.byte	(.LC3195)
.byte	(.LC3196)
.byte	(.LC3197)
.byte	(.LC3198)
.byte	(.LC3199)
.byte	(.LC3200)
.byte	(.LC3201)
.byte	(.LC3202)
.byte	(.LC3203)
.byte	(.LC3204)
.byte	(.LC3205)
.byte	(.LC3206)
.byte	(.LC3207)
.byte	(.LC3208)
.byte	(.LC3209)
.byte	(.LC3210)
.byte	(.LC3211)
.byte	(.LC3212)
.byte	(.LC3213)
.byte	(.LC3214)
.byte	(.LC3215)
.byte	(.LC3216)
.byte	(.LC3217)
.byte	(.LC3218)
.byte	(.LC3219)
.byte	(.LC3220)
.byte	(.LC3221)
.byte	(.LC3222)
.byte	(.LC3223)
.byte	(.LC3224)
.byte	(.LC3225)
.byte	(.LC3226)
.byte	(.LC3227)
.byte	(.LC3228)
.byte	(.LC3229)
.byte	(.LC3230)
.byte	(.LC3231)
.byte	(.LC3232)
.byte	(.LC3233)
.byte	(.LC3234)
.byte	(.LC3235)
.byte	(.LC3236)
.byte	(.LC3237)
.byte	(.LC3238)
.byte	(.LC3239)
.byte	(.LC3240)
.byte	(.LC3241)
.byte	(.LC3242)
.byte	(.LC3243)
.byte	(.LC3244)
.byte	(.LC3245)
.byte	(.LC3246)
.byte	(.LC3247)
.byte	(.LC3248)
.byte	(.LC3249)
.byte	(.LC3250)
.byte	(.LC3251)
.byte	(.LC3252)
.byte	(.LC3253)
.byte	(.LC3254)
.byte	(.LC3255)
.byte	(.LC3256)
.byte	(.LC3257)
.byte	(.LC3258)
.byte	(.LC3259)
.byte	(.LC3260)
.byte	(.LC3261)
.byte	(.LC3262)
.byte	(.LC3263)
.byte	(.LC3264)
.byte	(.LC3265)
.byte	(.LC3266)
.byte	(.LC3267)
.byte	(.LC3268)
.byte	(.LC3269)
.byte	(.LC3270)
.byte	(.LC3271)
.byte	(.LC3272)
.byte	(.LC3273)
.byte	(.LC3274)
.byte	(.LC3275)
.byte	(.LC3276)
.byte	(.LC3277)
.byte	(.LC3278)
.byte	(.LC3279)
.byte	(.LC3280)
.byte	(.LC3281)
.byte	(.LC3282)
.byte	(.LC3283)
.byte	(.LC3284)
.byte	(.LC3285)
.byte	(.LC3286)
.byte	(.LC3287)
.byte	(.LC3288)
.byte	(.LC3289)
.byte	(.LC3290)
.byte	(.LC3291)
.byte	(.LC3292)
.byte	(.LC3293)
.byte	(.LC3294)
.byte	(.LC3295)
.byte	(.LC3296)
.byte	(.LC3297)
.byte	(.LC3298)
.byte	(.LC3299)
.byte	(.LC3300)
.byte	(.LC3301)
.byte	(.LC3302)
.byte	(.LC3303)
.byte	(.LC3304)
.byte	(.LC3305)
.byte	(.LC3306)
.byte	(.LC3307)
.byte	(.LC3308)
.byte	(.LC3309)
.byte	(.LC3310)
.byte