.arch armv8-a
.file "convert_to_arm.s"
.section	__TEXT,__text,regular,pure_instructions
.align	2
.p2align 4,,11
.global	_func0                          ## -- Begin function func0
    .section	__TEXT,__text,regular,pure_instructions
    .build_version macos, 13, 0	sdk_version 13, 3
    .globl	_func0                          ## -- Begin function func0
    .p2align 2,,3
_func0:                                 ## @func0
    cset	w3, eq
    mov	x1, 112
    b	.Lsxtw
.Lsxtw:
stp	x29, x30, [sp, -16]!
.cfi_def_cfa_offset 16
.cfi_offset 29, -16
.cfi_offset 30, -8
add	x29, sp, 16
str	x0, [x1]
mov	w0, w3
sub	x1, x1,
stp	x19, x20, [sp, 16]
.cfi_offset 19, -8
.cfi_offset 20, -16
mov	x19, x1
stp	x21, x22, [sp, 32]
.cfi_offset 21, -24
.cfi_offset 22, -32
mov	x21, x2
mov	w22, w1
str	w22, [x19, -12]
bl	x0
ldrsw	x20, [x19, -12]
mov	w1, 4
str	x0, [x19, -32]
bl	x0
mov	x20, x0
ldrsw	x0, [x19, -12]
mov	w1, 4
bl	x0
mov	x20, x0
ldrsw	x0, [x19, -12]
mov	w1, 4
str	x0, [x19, -40]
bl	x0
str	wzr, [x19, -52]
str	wzr, [x19, -56]
str	wzr, [x19, -60]
str	wzr, [x19, -64]
b	.LB1
.LB1:
ldp	w0, w1, [x19, -64]
cmp	w0, w1
bge	.LB11
.L3:
ldr	w0, [x19, -56]
cmp	w0, w20
bge	.LB12
.L5:
ldr	x0, [x19, -48]
ldr	w2, [x19, -76]
ldr	w1, [x19, -68]
ldr	w0, [x0, w2, sxtw 2]
str	w0, [x19, -68]
str	wzr, [x19, -72]
str	wzr, [x19, -76]
b	.L3
.L11:
mov	w0, 1
str	w0, [x19, -72]
b	.L5
.L12:
beq	.L7
.L6:
ldr	x0, [x19, -32]
mov	w1, 1
str	w1, [x19, -80]
b	.L8
.L7:
mov	w1, 0
str	wzr, [x19, -80]
str	wzr, [x19, -84]
.L9:
mov	x0, x19
ldr	w1, [x0, -84]
cmp	w1, w20
bge	.L13
.L14:
ldr	x0, [x19, -40]
ldrsw	x2, [x19, -84]
ldr	w1, [x19, -92]
ldr	w0, [x0, w2, sxtw 2]
cmp	w0, w1
bne	L15
.L16:
mov	w0, 1
str	w0, [x19, -80]
.L8:
ldr	w0, [x19, -64]
add	w0, w0, 1
str	w0, [x19, -64]
b	.L9
.L15:
ldr	x0, [x19, -32]
ldr	x1, [x19, -48]
add	w2, w1, 1
str	w2, [x19, -80]
str	w2, [x19, -96]
b	.L9
.L13:
ldr	x0, [x19, -24]
ldr	w1, [x19, -28]
str	w1, [x0]
ldr	x0, [x19, -40]
str	w20, [x0]
bl	x0
ldr	x0, [x19, -32]
bl	x0
ldp	x19, x20, [sp, 16]
ldp	x21, x22, [sp, 32]
ldp	x29, x30, [sp], 16
.cfi_remember_state
.cfi_restore 30
.cfi_restore 29
.cfi_restore 21
.cfi_restore 22
.cfi_restore 19
.cfi_restore 20
.cfi_def_cfa_offset 0
ret
.L16:
.cfi_restore_state
ldr	x0, [x19, -24]
ldr	x1, [x19, -48]
add	w2, w1, 1
str	w2, [x19, -80]
str	w2, [x19, -60]
b	.L8
.L14:
ldr	x0, [x19, -24]
ldr	x1, [x19, -48]
add	w2, w1, 1
str	w2, [x19, -80]
str	w2, [x19, -92]
b	.L8
.L17:
ldr	x0, [x19, -28]
ldr	x1, [x19, -32]
add	w2, w1, 1
str	w2, [x19, -52]
str	w2, [x19, -60]
b	.L8
.L18:
ldr	x0, [x19, -28]
ldr	x1, [x19, -40]
add	w2, w1, 1
str	w2, [x19, -60]
str	w2, [x19, -68]
b	.L8
.L19:
ldr	x0, [x19, -32]
ldr	x1, [x19, -40]
add	w2, w1, 1
str	w2, [x19, -60]
str	w2, [x19, -72]
b	.L8
.L20:
ldr	x0, [x19, -24]
ldr	x1, [x19, -40]
add	w2, w1, 1
str	w2, [x19, -52]
str	w2, [x19, -56]
b	.L8
.L21:
ldr	x0, [x19, -24]
ldr	x1, [x19, -32]
add	w2, w1, 1
str	w2, [x19, -52]
str	w2, [x19, -64]
b	.L8
.L22:
ldr	x0, [x19, -24]
ldr	x1, [x19, -40]
add	w2, w1, 1
str	w2, [x19, -52]
str	w2, [x19, -68]
b	.L8
.L23:
ldr	x0, [x19, -32]
ldr	x1, [x19, -28]
add	w2, w1, 1
str	w2, [x19, -52]
str	w2, [x19, -60]
b	.L8
.L24:
ldr	x0, [x19, -32]
ldr	x1, [x19, -40]
add	w2, w1, 1
str	w2, [x19, -52]
str	w2, [x19, -56]
b	.L8
.L25:
ldr	x0, [x19, -24]
ldr	x1, [x19, -28]
add	w2, w1, 1
str	w2, [x19, -52]
str	w2, [x19, -56]
b	.L8
.L26:
ldr	x0, [x19, -24]
ldr	x1, [x19, -40]
add	w2, w1, 1
str	w2, [x19, -52]
str	w2, [x19, -60]
b	.L8
.L27:
ldr	x0, [x19, -32]
ldr	x1, [x19, -28]
add	w2, w1, 1
str	w2, [x19, -52]
str	w2, [x19, -60]
b	.L8
.L28:
ldr	x0, [x19, -32]
ldr	x1, [x19, -40]
add	w2, w1, 1
str	w2, [x19, -52]
str	w2, [x19, -64]
b	.L8
.L29:
ldr	x0, [x19, -32]
ldr	x1, [x19, -40]
add	w2, w1, 1
str	w2, [x19, -52]
str	w2, [x19, -56]
b	.L8
.L30:
ldr	x0, [x19, -32]
ldr	x1, [x19, -24]
add	w2, w1, 1
str	w2, [x19, -52]
str	w2, [x19, -60]
b	.L8
.L31:
ldr	x0, [x19, -24]
ldr	x1, [x19, -40]
add	w2, w1, 1
str	w2, [x19, -52]
str	w2, [x19, -56]
b	.L8
.L32:
ldr	x0, [x19, -24]
ldr	x1, [x19, -32]
add	w2, w1, 1
str	w2, [x19, -52]
str	w2, [x19, -60]
b	.L8
.L33:
ldr	x0, [x19, -24]
ldr	x1, [x19, -28]
add	w2, w1, 1
str	w2, [x19, -52]
str	w2, [x19, -56]
b	.L8
.L34:
ldr	x0, [x19, -24]
ldr	x1, [x19, -40]
add	w2, w1, 1
str	w2, [x19, -52]
str	w2, [x19, -56]
b	.L8
.L35:
ldr	x0, [x19, -24]
ldr	x1, [x19, -40]
add	w2, w1, 1
str	w2, [x19, -52]
str	w2, [x19, -60]
b	.L8
.L36:
ldr	x0, [x19, -24]
ldr	x1, [x19, -32]
add	w2, w1, 1
str	w2, [x19, -52]
str	w2, [x19, -56]
b	.L8
.L37:
ldr	x0, [x19, -24]
ldr	x1, [x19, -40]
add	w2, w1, 1
str	w2, [x19, -52]
str	w2, [x19, -60]
b	.L8
.L38:
ldr	x0, [x19, -24]
ldr	x1, [x19, -40]
add	w2, w1, 1
str	w2, [x19, -52]
str	w2, [x19, -64]
b	.L8
.L39:
ldr	x0, [x19, -24]
ldr	x1, [x19, -32]
add	w2, w1, 1
str	w2, [x19, -52]
str	w2, [x19, -56]
b	.L8
.L40:
ldr	x0, [x19, -24]
ldr	x1, [x19, -40]
add	w2, w1, 1
str	w2, [x19, -52]
str	w2, [x19, -60]
b	.L8
.L41:
ldr	x0, [x19, -24]
ldr	x1, [x19, -32]
add	w2, w1, 1
str	w2, [x19, -52]
str	w2, [x19, -56]
b	.L8
.L42:
ldr	x0, [x19, -24]
ldr	x1, [x19, -40]
add	w2, w1, 1
str	w2, [x19, -52]
str	w2, [x19, -60]
b	.L8
.L43:
ldr	x0, [x19, -24]
ldr	x1, [x19, -32]
add	w2, w1, 1
str	w2, [x19, -52]
str	w2, [x19, -56]
b	.L8
.L44:
ldr	x0, [x19, -24]
ldr	x1, [x19, -40]
add	w2, w1, 1
str	w2, [x19, -52]
str	w2, [x19, -56]
b	.L8
.L45:
ldr	x0, [x19, -24]
ldr	x1, [x19, -32]
add	w2, w1, 1
str	w2, [x19, -52]
str	w2, [x19, -60]
b	.L8
.L46:
ldr	x0, [x19, -24]
ldr	x1, [x19, -28]
add	w2, w1, 1
str	w2, [x19, -52]
str	w2, [x19, -56]
b	.L8
.L47:
ldr	x0, [x19, -24]
ldr	x1, [x19, -40]
add	w2, w1, 1
str	w2, [x19, -52]
str	w2, [x19, -56]
b	.L8
.L48:
ldr	x0, [x19, -24]
ldr	x1, [x19, -32]
add	w2, w1, 1
str	w2, [x19, -52]
str	w2, [x19, -56]
b	.L8
.L49:
ldr	x0, [x19, -24]
ldr	x1, [x19, -40]
add	w2, w1, 1
str	w2, [x19, -52]
str	w2, [x19, -56]
b	.L8
.L50:
ldr	x0, [x19, -24]
ldr	x1, [x19, -32]
add	w2, w1, 1
str	w2, [x19, -52]
str	w2, [x19, -60]
b	.L8
.L51:
ldr	x0, [x19, -24]
ldr	x1, [x19, -40]
add	w2, w1, 1
str	w2, [x19, -52]
str	w2, [x19, -56]
b	.L8
.L52:
ldr	x0, [x19, -24]
ldr	x1, [x19, -32]
add	w2, w1, 1
str	w2, [x19, -52]
str	w2, [x19, -56]
b	.L8
.L53:
ldr	x0, [x19, -24]
ldr	x1, [x19, -40]
add	w2, w1, 1
str	w2, [x19, -52]
str	w2, [x19, -60]
b	.L8
.L54:
ldr	x0, [x19, -24]
ldr	x1, [x19, -32]
add	w2, w1, 1
str	w2, [x19, -52]
str	w2, [x19, -56]
b	.L8
.L55:
ldr	x0, [x19, -24]
ldr	x1, [x19, -40]
add	w2, w1, 1
str	w2, [x19, -52]
str	w2, [x19, -56]
b	.L8
.L56:
ldr	x0, [x19, -24]
ldr	x1, [x19, -32]
add	w2, w1, 1
str	w2, [x19, -52]
str	w2, [x19, -56]
b	.L8
.L57:
ldr	x0, [x19, -24]
ldr	x1, [x19, -40]
add	w2, w1, 1
str	w2, [x19, -52]
str	w2, [x19, -56]
b	.L8
.L58:
ldr	x0, [x19, -24]
ldr	x1, [x19, -32]
add	w2, w1, 1
str	w2, [x19, -52]
str	w2, [x19, -56]
b	.L8
.L59:
ldr	x0, [x19, -24]
ldr	x1, [x19, -40]
add	w2, w1, 1
str	w2, [x19, -52]
str	w2, [x19, -56]
b	.L8
.L60:
ldr	x0, [x19, -24]
ldr	x1, [x19, -32]
add	w2, w1, 1
str	w2, [x19, -52]
str	w2, [x19, -56]
b	.L8
.L61:
ldr	x0, [x19, -24]
ldr	x1, [x19, -40]
add	w2, w1, 1
str	w2, [x19, -52]
str	w2, [x19, -56]
b	.L8
.L62:
ldr	x0, [x19, -24]
ldr	x1, [x19, -32]
add	w2, w1, 1
str	w2, [x19, -52]
str	w2, [x19, -56]
b	.L8
.L63:
ldr	x0, [x19, -24]
ldr	x1, [x19, -40]
add	w2, w1, 1
str	w2, [x19, -52]
str	w2, [x19, -56]
b	.L8
.L64:
ldr	x0, [x19, -24]
ldr	x1, [x19, -32]
add	w2, w1, 1
str	w2, [x19, -52]
str	w2, [x19, -56]
b	.L8
.L65:
ldr	x0, [x19, -24]
ldr	x1, [x19, -40]
add	w2, w1, 1
str	w2, [x19, -52]
str	w2, [x19, -56]
b	.L8
.L66:
ldr	x0, [x19, -24]
ldr	x1, [x19, -32]
add	w2, w1, 1
str	w2, [x19, -52]
str	w2, [x19, -56]
b	.L8
.L67:
ldr	x0, [x19, -24]
ldr	x1, [x19, -40]
add	w2, w1, 1
str	w2, [x19, -52]
str	w2, [x19, -56]
b	.L8
.L68:
ldr	x0, [x19, -24]
ldr	x1, [x19, -32]
add	w2, w1, 1
str	w2, [x19, -52]
str	w2, [x19, -56]
b	.L8
.L69:
ldr	x0, [x19, -24]
ldr	x1, [x19, -40]
add	w2, w1, 1
str	w2, [x19, -52]
str	w2, [x19, -56]
b	.L8
.L70:
ldr	x0, [x19, -24]
ldr	x1, [x19, -32]
add	w2, w1, 1
str	w2, [x19, -52]
str	w2, [x19, -56]
b	.L8
.L71:
ldr	x0, [x19, -24]
ldr	x1, [x19, -40]
add	w2, w1, 1
str	w2, [x19, -52]
str	w2, [x19, -56]
b	.L8
.L72:
ldr	x0, [x19, -24]
ldr	x1, [x19, -32]
add	w2, w1, 1
str	w2, [x19, -52]
str	w2, [x19, -56]
b	.L8
.L73:
ldr	x0, [x19, -24]
ldr	x1, [x19, -40]
add	w2, w1, 1
str	w2, [x19, -52]
str	w2, [x19, -56]
b	.L8
.L74:
ldr	x0, [x19, -24]
ldr	x1, [x19, -32]
add	w2, w1, 1
str	w2, [x19, -52]
str	w2, [x19, -56]
b	.L8
.L75:
ldr	x0, [x19, -24]
ldr	x1, [x19, -40]
add	w2, w1, 1
str	w2, [x19, -52]
str	w2, [x19, -56]
b	.L8
.L76:
ldr	x0, [x19, -24]
ldr	x1, [x19, -32]
add	w2, w1, 1
str	w2, [x19, -52]
str	w2, [x19, -56]
b	.L8
.L77:
ldr	x0, [x19, -24]
ldr	x1, [x19, -40]
add	w2, w1, 1
str	w2, [x19, -52]
str	w2, [x19, -56]
b	.L8
.L78:
ldr	x0, [x19, -24]
ldr	x1, [x19, -32]
add	w2, w1, 1
str	w2, [x19, -52]
str	w2, [x19, -56]
b	.L8
.L79:
ldr	x0, [x19, -24]
ldr	x1, [x19, -40]
add	w2, w1, 1
str	w2, [x19, -52]
str	w2, [x19, -56]
b	.L8
.L80:
ldr	x0, [x19, -24]
ldr	x1, [x19, -32]
add	w2, w1, 1
str	w2, [x19, -52]
str	w2, [x19, -56]
b	.L8
.L81:
ldr	x0, [x19, -24]
ldr	x1, [x19, -40]
add	w2, w1, 1
str	w2, [x19, -52]
str	w2, [x19, -56]
b	.L8
.L82:
ldr	x0, [x19, -24]
ldr	x1, [x19, -32]
add	w2, w1, 1
str	w2, [x19, -52]
str	w2, [x19, -56]
b	.L8
.L83:
ldr	x0, [x19, -24]
ldr	x1, [x19, -40]
add	w2, w1, 1
str	w2, [x19, -52]
str	w2, [x19, -56]
b	.L8
.L84:
ldr	x0, [x19, -24]
ldr	x1, [x19, -32]
add	w2, w1, 1
str	w2, [x19, -52]
str	w2, [x19, -56]
b	.L8
.L85:
ldr	x0, [x19, -24]
ldr	x1, [x19, -40]
add	w2, w1, 1
str	w2, [x19, -52]
str	w2, [x19, -56]
b	.L8
.L86:
ldr	x0, [x19, -24]
ldr	x1, [x19, -32]
add	w2, w1, 1
str	w2, [x19, -52]
str	w2, [x19, -56]
b	.L8
.L87:
ldr	x0, [x19, -24]
ldr	x1, [x19, -40]
add	w2, w1, 1
str	w2, [x19, -52]
str	w2, [x19, -56]
b	.L8
.L88:
ldr	x0, [x19, -24]
ldr	x1, [x19, -32]
add	w2, w1, 1
str	w2, [x19, -52]
str	w2, [x19, -56]
b	.L8
.L89:
ldr	x0, [x19, -24]
ldr	x1, [x19, -40]
add	w2, w1, 1
str	w2, [x19, -52]
str	w2, [x19, -56]
b	.L8
.L90:
ldr	x0, [x19, -24]
ldr	x1, [x19, -32]
add	w2, w1, 1
str	w2, [x19, -52]
str	w2, [x19, -56]
b	.L8
.L91:
ldr	x0, [x19, -24]
ldr	x1, [x19, -40]
add	w2, w1, 1
str	w2, [x19, -52]
str	w2, [x19, -56]
b	.L8
.L92:
ldr	x0, [x19, -24]
ldr	x1, [x19, -32]
add	w2, w1, 1
str	w2, [x19, -52]
str	w2, [x19, -56]
b	.L8
.L93:
ldr	x0, [x19, -24]
ldr	x1, [x19, -40]
add	w2, w1, 1
str	w2, [x19, -52]
str	w2, [x19, -56]
b	.L8
.L94:
ldr	x0, [x19, -24]
ldr	x1, [x19, -32]
add	w2, w1, 1
str	w2, [x19, -52]
str	w2, [x19, -56]
b	.L8
.L95:
ldr	x0, [x19, -24]
ldr	x1, [x19, -40]
add	w2, w1, 1
str	w2, [x19, -52]
str	w2, [x19, -56]
b	.L8
.L96:
ldr	x0, [x19, -24]
ldr	x1, [x19, -32]
add	w2, w1, 1
str	w2, [x19, -52]
str	w2, [x19, -56]
b	.L8
.L97:
ldr	x0, [x19, -24]
ldr	x1, [x19, -40]
add	w2, w1, 1
str	w2, [x19, -52]
str	w2, [x19, -56]
b	.L8
.L98:
ldr	x0, [x19, -24]
ldr	x1, [x19, -32]
add	w2, w1, 1
str	w2, [x19, -52]
str	w2, [x19, -56]
b	.L8
.L99:
ldr	x0, [x19, -24]
ldr	x1, [x19, -40]
add	w2, w1, 1
str	w2, [x19, -52]
str	w2, [x19, -56]
b	.L8
.L100:
ldr	x0, [x19, -24]
ldr	x1, [x19, -32]
add	w2, w1, 1
str	w2, [x19, -52]
str	w2, [x19, -56]
b	.L8
.L101:
ldr	x0, [x19, -24]
ldr	x1, [x19, -40]
add	w2, w1, 1
str	w2, [x19, -52]
str	w2, [x19, -56]
b	.L8
.L102:
ldr	x0, [x19, -24]
ldr	x1, [x19, -32]
add	w2, w1, 1
str	w2, [x19, -52]
str	w2, [x19, -56]
b	.L8
.L103:
ldr	x0, [x19, -24]
ldr	x1, [x19, -40]
add	w2, w1, 1
str	w2, [x19, -52]
str	w2, [x19, -56]
b	.L8
.L104:
ldr	x0, [x19, -24]
ldr	x1, [x19, -32]
add	w2, w1, 1
str	w2, [x19, -52]
str	w2, [x19, -56]
b	.L8
.L105:
ldr	x0, [x19, -24]
ldr	x1, [x19, -40]
add	w2, w1, 1
str	w2, [x19, -52]
str	w2, [x19, -56]
b	.L8
.L106:
ldr	x0, [x19, -24]
ldr	x1, [x19, -32]
add	w2, w1, 1
str	w2, [x19, -52]
str	w2, [x19, -56]
b	.L8
.L107:
ldr	x0, [x19, -24]
ldr	x1, [x19, -40]
add	w2, w1, 1
str	w2, [x19, -52]
str	w2, [x19, -56]
b	.L8
.L108:
ldr	x0, [x19, -24]
ldr	x1, [x19, -32]
add	w2, w1, 1
str	w2, [x19, -52]
str	w2, [x19, -56]
b	.L8
.L109:
ldr	x0, [x19, -24]
ldr	x1, [x19, -40]
add	w2, w1, 1
str	w2, [x19, -52]
str	w2, [x19, -56]
b	.L8
.L110:
ldr	x0, [x19, -24]
ldr	x1, [x19, -32]
add	w2, w1, 1
str	w2, [x19, -52]
str	w2, [x19, -56]
b	.L8
.L111:
ldr	x0, [x19, -24]
ldr	x1, [x19, -40]
add	w2, w1, 1
str	w2, [x19, -52]
str	w2, [x19, -56]
b	.L8
.L112:
ldr	x0, [x19, -24]
ldr	x1, [x19, -32]
add	w2, w1, 1
str	w2, [x19, -52]
str	w2, [x19, -56]
b	.L8
.L113:
ldr	x0, [x19, -24]
ldr	x1, [x19, -40]
add	w2, w1, 1
str	w2, [x19, -52]
str	w2, [x19, -56]
b	.L8
.L114:
ldr	x0, [x19, -24]
ldr	x1, [x19, -32]
add	w2, w1, 1
str	w2, [x19, -52]
str	w2, [x19, -56]
b	.L8
.L115:
ldr	x0, [x19, -24]
ldr	x1, [x19, -40]
add	w2, w1, 1
str	w2, [x19, -52]
str	w2, [x19, -56]
b	.L8
.L116:
ldr	x0, [x19, -24]
ldr	x1, [x19, -32]
add	w2, w1, 1
str	w2, [x19, -52]
str	w2, [x19, -56]
b	.L8
.L117:
ldr	x0, [x19, -24]
ldr	x1, [x19, -40]
add	w2, w1, 1
str	w2, [x19, -52]
str	w2, [x19, -56]
b	.L8
.L118:
ldr	x0, [x19, -24]
ldr	x1, [x19, -32]
add	w2, w1, 1
str	w2, [x19, -52]
str	w2, [x19, -56]
b	.L8
.L119:
ldr	x0, [x19, -24]
ldr	x1, [x19, -40]
add	w2, w1, 1
str	w2, [x19, -52]
str	w2, [x19, -56]
b	.L8
.L120:
ldr	x0, [x19, -24]
ldr	x1, [x19, -32]
add	w2, w1, 1
str	w2, [x19, -52]
str	w2, [x19, -56]
b	.L8
.L121:
ldr	x0, [x19, -24]
ldr	x1, [x19, -40]
add	w2, w1, 1
str	w2, [x19, -52]
str	w2, [x19, -56]
b	.L8
.L122:
ldr	x0, [x19, -24]
ldr	x1, [x19, -32]
add	w2, w1, 1
str	w2, [x19, -52]
str	w2, [x19, -56]
b	.L8
.L123:
ldr	x0, [x19, -24]
ldr	x1, [x19, -40]
add	w2, w1, 1
str	w2, [x19, -52]
str	w2, [x19, -56]
b	.L8
.L124:
ldr	x0, [x19, -24]
ldr	x1, [x19, -32]
add	w2, w1, 1
str	w2, [x19, -52]
str	w2, [x19, -56]
b	.L8
.L125:
ldr	x0, [x19, -24]
ldr	x1, [x19, -40]
add	w2, w1, 1
str	w2, [x19, -52]
str	w2, [x19, -56]
b	.L8
.L126:
ldr	x0, [x19, -24]
ldr	x1, [x19, -32]
add	w2, w1, 1
str	w2, [x19, -52]
str	w2, [x19, -56]
b	.L8
.L127:
ldr	x0, [x19, -24]
ldr	x1, [x19, -40]
add	w2, w1, 1
str	w2, [x19, -52]
str	w2, [x19, -56]
b	.L8
.L128:
ldr	x0, [x19, -24]
ldr	x1, [x19, -32]
add	w2, w1, 1
str	w2, [x19, -52]
str	w2, [x19, -56]
b	.L8
.L129:
ldr	x0, [x19, -24]
ldr	x1, [x19, -40]
add	w2, w1, 1
str	w2, [x19, -52]
str	w2, [x19, -56]
b	.L8
.L130:
ldr	x0, [x19, -24]
ldr	x1, [x19, -32]
add	w2, w1, 1
str	w2, [x19, -52]
str	w2, [x19, -56]
b	.L8
.L131:
ldr	x0, [x19, -24]
ldr	x1, [x19, -40]
add	w2, w1, 1
str	w2, [x19, -52]
str	w2, [x19, -56]
b	.L8
.L132:
ldr	x0, [x19, -24]
ldr	x1, [x19, -32]
add	w2, w1, 1
str	w2, [x19, -52]
str	w2, [x19, -56]
b	.L8
.L133:
ldr	x0, [x19, -24]
ldr	x1, [x19, -40]
add	w2, w1, 1
str	w2, [x19, -52]
str	w2, [x19, -56]
b	.L8
.L134:
ldr	x0, [x19, -24]
ldr	x1, [x19, -32]
add	w2, w1, 1
str	w2, [x19, -52]
str	w2, [x19, -56]
b	.L8
.L135:
ldr	x0, [x19, -24]
ldr	x1, [x19, -40]
add	w2, w1, 1
str	w2, [x19, -52]
str	w2, [x19, -56]
b	.L8
.L136:
ldr	x0, [x19, -24]
ldr	x1, [x19, -32]
add	w2, w1, 1
str	w2, [x19, -52]
str	w2, [x19, -56]
b	.L8
.L137:
ldr	x0, [x19, -24]
ldr	x1, [x19, -40]
add	w2, w1, 1
str	w2, [x19, -52]
str	w2, [x19, -56]
b	.L8
.L138:
ldr	x0, [x19, -24]
ldr	x1, [x19, -32]
add	w2, w1, 1
str	w2, [x19, -52]
str	w2, [x19, -56]
b	.L8
.L139:
ldr	x0, [x19, -24]
ldr	x1, [x19, -40]
add	w2, w1, 1
str	w2, [x19, -52]
str	w2, [x19, -56]
b	.L8
.L140:
ldr	x0, [x19, -24]
ldr	x1, [x19, -32]
add	w2, w1, 1
str	w2, [x19, -52]
str	w2, [x19, -56]
b	.L8
.L141:
ldr	x0, [x19, -24]
ldr	x1, [x19, -40]
add	w2, w1, 1
str	w2, [x19, -52]
str	w2, [x19, -56]
b	.L8
.L142:
ldr	x0, [x19, -24]
ldr	x1, [x19, -32]
add	w2, w1, 1
str	w2, [x19, -52]
str	w2, [x19, -56]
b	.L8
.L143:
ldr	x0, [x19, -24]
ldr	x1, [x19, -40]
add	w2, w1, 1
str	w2, [x19, -52]
str	w2, [x19, -56]
b	.L8
.L144:
ldr	x0, [x19, -24]
ldr	x1, [x19, -32]
add	w2, w1, 1
str	w2, [x19, -52]
str	w2, [x19, -56]
b	.L8
.L145:
ldr	x0, [x19, -24]
ldr	x1, [x19, -40]
add	w2, w1, 1
str	w2, [x19, -52]
str	w2, [x19, -56]
b	.L8
.L146:
ldr	x0, [x19, -24]
ldr	x1, [x19, -32]
add	w2, w1, 1
str	w2, [x19, -52]
str	w2, [x19, -56]
b	.L8
.L147:
ldr	x0, [x19, -24]
ldr	x1, [x19, -40]
add	w2, w1, 1
str	w2, [x19, -52]
str	w2, [x19, -56]
b	.L8
.L148:
ldr	x0, [x19, -24]
ldr	x1, [x19, -32]
add	w2, w1, 1
str	w2, [x19, -52]
str	w2, [x19, -56]
b	.L8
.L149:
ldr	x0, [x19, -24]
ldr	x1, [x19, -40]
add	w2, w1, 1
str	w2, [x19, -52]
str	w2, [x19, -56]
b	.L8
.L150:
ldr	x0, [x19, -24]
ldr	x1, [x19, -32]
add	w2, w1, 1
str	w2, [x19, -52]
str	w2, [x19, -56]
b	.L8
.L151:
ldr	x0, [x19, -24]
ldr	x1, [x19, -40]
add	w2, w1, 1
str	w2, [x19, -52]
str	w2, [x19, -56]
b	.L8
.L152:
ldr	x0, [x19, -24]
ldr	x1, [x19, -32]
add	w2, w1, 1
str	w2, [x19, -52]
str	w2, [x19, -56]
b	.L8
.L153:
ldr	x0, [x19, -24]
ldr	x1, [x19, -40]
add	w2, w1, 1
str	w2, [x19, -52]
str	w2, [x19, -56]
b	.L8
.L154:
ldr	x0, [x19, -24]
ldr	x1, [x19, -32]
add	w2, w1, 1
str	w2, [x19, -52]
str	w2, [x19, -56]
b	.L8
.L155:
ldr	x0, [x19, -24]
ldr	x1, [x19, -40]
add	w2, w1, 1
str	w2, [x19, -52]
str	w2, [x19, -56]
b	.L8
.L156:
ldr	x0, [x19, -24]
ldr	x1, [x19, -32]
add	w2, w1, 1
str	w2, [x19, -52]
str	w2, [x19, -56]
b	.L8
.L157:
ldr	x0, [x19, -24]
ldr	x1, [x19, -40]
add	w2, w1, 1
str	w2, [x19, -52]
str	w2, [x19, -56]
b	.L8
.L158:
ldr	x0, [x19, -24]
ldr	x1, [x19, -32]
add	w2, w1, 1
str	w2, [x19, -52]
str	w2, [x19, -56]
b	.L8
.L159:
ldr	x0, [x19, -24]
ldr	x1, [x19, -40]
add	w2, w1, 1
str	w2, [x19, -52]
str	w2, [x19, -56]
b	.L8
.L160:
ldr	x0, [x19, -24]
ldr	x1, [x19, -32]
add	w2, w1, 1
str	w2, [x19, -52]
str	w2, [x19, -56]
b	.L8
.L161:
ldr	x0, [x19, -24]
ldr	x1, [x19, -40]
add	w2, w1, 1
str	w2, [x19, -52]
str	w2, [x19, -56]
b	.L8
.L162:
ldr	x0, [x19, -24]
ldr	x1, [x19, -32]
add	w2, w1, 1
str	w2, [x19, -52]
str	w2, [x19, -56]
b	.L8
.L163:
ldr	x0, [x19, -24]
ldr	x1, [x19, -40]
add	w2, w1, 1
str	w2, [x19, -52]
str	w2, [x19, -56]
b	.L8
.L164:
ldr	x0, [x19, -24]
ldr	x1, [x19, -32]
add	w2, w1, 1
str	w2, [x19, -52]
str	w2, [x19, -56]
b	.L8
.L165:
ldr	x0, [x19, -24]
ldr	x1, [x19, -40]
add	w2, w1, 1
str	w2, [x19, -52]
str	w2, [x19, -56]
b	.L8
.L166:
ldr	x0, [x19, -24]
ldr	x1, [x19, -32]
add	w2, w1, 1
str	w2, [x19, -52]
str	w2, [x19, -56]
b	.L8
.L167:
ldr	x0, [x19, -24]
ldr	x1, [x19, -40]
add	w2, w1, 1
str	w2, [x19, -52]
str	w2, [x19, -56]
b	.L8
.L168:
ldr	x0, [x19, -24]
ldr	x1, [x19, -32]
add	w2, w1, 1
str	w2, [x19, -52]
str	w2, [x19, -56]
b	.L8
.L169:
ldr	x0, [x19, -24]
ldr	x1, [x19, -40]
add	w2, w1, 1
str	w2, [x19, -52]
str	w2, [x19, -56]
b	.L8
.L170:
ldr	x0, [x19, -24]
ldr	x1, [x19, -32]
add	w2, w1, 1
str	w2, [x19, -52]
str	w2, [x19, -56]
b	.L8
.L171:
ldr	x0, [x19, -24]
ldr	x1, [x19, -40]
add	w2, w1, 1
str	w2, [x19, -52]
str	w2, [x19, -56]
b	.L8
.L172:
ldr	x0, [x19, -24]
ldr	x1, [x19, -32]
add	w2, w1, 1
str	w2, [x19, -52]
str	w2, [x19, -56]
b	.L8
.L173:
ldr	x0, [x19, -24]
ldr	x1, [x19, -40]
add	w2, w1, 1
str	w2, [x19, -52]
str	w2, [x19, -56]
b	.L8
.L174:
ldr	x0, [x19, -24]
ldr	x1, [x19, -32]
add	w2, w1, 1
str	w2, [x19, -52]
str	w2, [x19, -56]
b	.L8
.L175:
ldr	x0, [x19, -24]
ldr	x1, [x19, -40]
add	w2, w1, 1
str	w2, [x19, -52]
str	w2, [x19, -56]
b	.L8
.L176:
ldr	x0, [x19, -24]
ldr	x1, [x19, -32]
add	w2, w1, 1
str	w2, [x19, -52]
str	w2, [x19, -56]
b	.L8
.L177:
ldr	x0, [x19, -24]
ldr	x1, [x19, -40]
add	w2, w1, 1
str	w2, [x19, -52]
str	w2, [x19, -56]
b	.L8
.L178:
ldr	x0, [x19, -24]
ldr	x1, [x19, -32]
add	w2, w1, 1
str	w2, [x19, -52]
str	w2, [x19, -56]
b	.L8
.L179:
ldr	x0, [x19, -24]
ldr	x1, [x19, -40]
add	w2, w1, 1
str	w2, [x19, -52]
str	w2, [x19, -56]
b	.L8
.L180:
ldr	x0, [x19, -24]
ldr	x1, [x19, -32]
add	w2, w1, 1
str	w2, [x19, -52]
str	w2, [x19, -56]
b	.L8
.L181:
ldr	x0, [x19, -24]
ldr	x1, [x19, -40]
add	w2, w1, 1
str	w2, [x19, -52]
str	w2, [x19, -56]
b	.L8
.L182:
ldr	x0, [x19, -24]
ldr	x1, [x19, -32]
add	w2, w1, 1
str	w2, [x19, -52]
str	w2, [x19, -56]
b	.L8
.L183:
ldr	x0, [x19, -24]
ldr	x1, [x19, -40]
add	w2, w1, 1
str	w2, [x19, -52]
str	w2, [x19, -56]
b	.L8
.L184:
ldr	x0, [x19, -24]
ldr	x1, [x19, -32]
add	w2, w1, 1
str	w2, [x19, -52]
str	w2, [x19, -56]
b	.L8
.L185:
ldr	x0, [x19, -24]
ldr	x1, [x19, -40]
add	w2, w1, 1
str	w2, [x19, -52]
str	w2, [x19, -56]
b	.L8
.L186:
ldr	x0, [x19, -24]
ldr	x1, [x19, -32]
add	w2, w1, 1
str	w2, [x19, -52]
str	w2, [x19, -56]
b	.L8
.L187:
ldr	x0, [x19, -24]
ldr	x1, [x19, -40]
add	w2, w1, 1
str	w2, [x19, -52]
str	w2, [x19, -56]
b	.L8
.L188:
ldr	x0, [x19, -24]
ldr	x1, [x19, -32]
add	w2, w1, 1
str	w2, [x19, -52]
str	w2, [x19, -56]
b	.L8
.L189:
ldr	x0, [x19, -24]
ldr	x1, [x19, -40]
add	w2, w1, 1
str	w2, [x19, -52]
str	w2, [x19, -56]
b	.L8
.L190:
ldr	x0, [x19, -24]
ldr	x1, [x19, -32]
add	w2, w1, 1
str	w2, [x19, -52]
str	w2, [x19, -56]
b	.L8
.L191:
ldr	x0, [x19, -24]
ldr	x1, [x19, -40]
add	w2, w1, 1
str	w2, [x19, -52]
str	w2, [x19, -56]
b	.L8
.L192:
ldr	x0, [x19, -24]
ldr	x1, [x19, -32]
add	w2, w1, 1
str	w2, [x19, -52]
str	w2, [x19, -56]
b	.L8
.L193:
ldr	x0, [x19, -24]
ldr	x1, [x19, -40]
add	w2, w1, 1
str	w2, [x19, -52]
str	w2, [x19, -56]
b	.L8
.L194:
ldr	x0, [x19, -24]
ldr	x1, [x19, -32]
add	w2, w1, 1
str	w2, [x19, -52]
str	w2, [x19, -56]
b	.L8
.L195:
ldr	x0, [x19, -24]
ldr	x1, [x19, -40]
add	w2, w1, 1
str	w2, [x19, -52]
str	w2, [x19, -56]
b	.L8
.L196:
ldr	x0, [x19, -24]
ldr	x1, [x19, -32]
add	w2, w1, 1
str	w2, [x19, -52]
str	w2, [x19, -56]
b	.L8
.L197:
ldr	x0, [x19, -24]
ldr	x1, [x19, -40]
add	w2, w1, 1
str	w2, [x19, -52]
str	w2, [x19, -56]
b	.L8
.L198:
ldr	x0, [x19, -24]
ldr	x1, [x19, -32]
add	w2, w1, 1
str	w2, [x19, -52]
str	w2, [x19, -56]
b	.L8
.L199:
ldr	x0, [x19, -24]
ldr	x1, [x19, -40]
add	w2, w1, 1
str	w2, [x19, -52]
str	w2, [x19, -56]
b	.L8
.L200:
ldr	x0, [x19, -24]
ldr	x1, [x19, -32]
add	w2, w1, 1
str	w2, [x19, -52]
str	w2, [x19, -56]
b	.L8
.L201:
ldr	x0, [x19, -24]
ldr	x1, [x19, -40]
add	w2, w1, 1
str	w2, [x19, -52]
str	w2, [x19, -56]
b	.L8
.L202:
ldr	x0, [x19, -24]
ldr	x1, [x19, -32]
add	w2, w1, 1
str	w2, [x19, -52]
str	w2, [x19, -56]
b	.L8
.L203:
ldr	x0, [x19, -24]
ldr	x1, [x19, -40]
add	w2, w1, 1
str	w2, [x19, -52]
str	w2, [x19, -56]
b	.L8
.L204:
ldr	x0, [x19, -24]
ldr	x1, [x19, -32]
add	w2, w1, 1
str	w2, [x19, -52]
str	w2, [x19, -56]
b	.L8
.L205:
ldr	x0, [x19, -24]
ldr	x1, [x19, -40]
add	w2, w1, 1
str	w2, [x19, -52]
str	w2, [x19, -56]
b	.L8
.L206:
ldr	x0, [x19, -24]
ldr	x1, [x19, -32]
add	w2, w1, 1
str	w2, [x19, -52]
str	w2, [x19, -56]
b	.L8
.L207:
ldr	x0, [x19, -24]
ldr	x1, [x19, -40]
add	w2, w1, 1
str	w2, [x19, -52]
str	w2, [x19, -56]
b	.L8
.L208:
ldr	x0, [x19, -24]
ldr	x1, [x19, -32]
add	w2, w1, 1
str	w2, [x19, -52]
str	w2, [x19, -56]
b	.L8
.L209:
ldr	x0, [x19, -24]
ldr	x1, [x19, -40]
add	w2, w1, 1
str	w2, [x19, -52]
str	w2, [x19, -56]
b	.L8
.L210:
ldr	x0, [x19, -24]
ldr	x1, [x19, -32]
add	w2, w1, 1
str	w2, [x19, -52]
str	w2, [x19, -56]
b	.L8
.L211:
ldr	x0, [x19, -24]
ldr	x1, [x19, -40]
add	w2, w1, 1
str	w2, [x19, -52]
str	w2, [x19, -56]
b	.L8
.L212:
ldr	x0, [x19, -24]
ldr	x1, [x19, -32]
add	w2, w1, 1
str	w2, [x19, -52]
str	w2, [x19, -56]
b	.L8
.L213:
ldr	x0, [x19, -24]
ldr	x1, [x19, -40]
add	w2, w1, 1
str	w2, [x19, -52]
str	w2, [x19, -56]
b	.L8
.L214:
ldr	x0, [x19, -24]
ldr	x1, [x19, -32]
add	w2, w1, 1
str	w2, [x19, -52]
str	w2, [x19, -56]
b	.L8
.L215:
ldr	x0, [x19, -24]
ldr	x1, [x19, -40]
add	w2, w1, 1
str	w2, [x19, -52]
str	w2, [x19, -56]
b	.L8
.L216:
ldr	x0, [x19, -24]
ldr	x1, [x19, -32]
add	w2, w1, 1
str	w2, [x19, -52]
str	w2, [x19, -56]
b	.L8
.L217:
ldr	x0, [x19, -24]
ldr	x1, [x19, -40]
add	w2, w1, 1
str	w2, [x19, -52]
str	w2, [x19, -56]
b	.L8
.L218:
ldr	x0, [x19, -24]
ldr	x1, [x19, -32]
add	w2, w1, 1
str	w2, [x19, -52]
str	w2, [x19, -56]
b	.L8
.L219:
ldr	x0, [x19, -24]
ldr	x1, [x19, -40]
add	w2, w1, 1
str	w2, [x19, -52]
str	w2, [x19, -56]
b	.L8
.L220:
ldr	x0, [x19, -24]
ldr	x1, [x19, -32]
add	w2, w1, 1
str	w2, [x19, -52]
str	w2, [x19, -56]
b	.L8
.L221:
ldr	x0, [x19, -24]
ldr	x1, [x19, -40]
add	w2, w1, 1
str	w2, [x19, -52]
str	w2, [x19, -56]
b	.L8
.L222:
ldr	x0, [x19, -24]
ldr	x1, [x19, -32]
add	w2, w1, 1
str	w2, [x19, -52]
str	w2, [x19, -56]
b	.L8
.L223:
ldr	x0, [x19, -24]
ldr	x1, [x19, -40]
add	w2, w1, 1
str	w2, [x19, -52]
str	w2, [x19, -56]
b	.L8
.L224:
ldr	x0, [x19, -24]
ldr	x1, [x19, -32]
add	w2, w1, 1
str	w2, [x19, -52]
str	w2, [x19, -56]
b	.L8
.L225:
ldr	x0, [x19, -24]
ldr	x1, [x19, -40]
add	w2, w1, 1
str	w2, [x19, -52]
str	w2, [x19, -56]
b	.L8
.L226:
ldr	x0, [x19, -24]
ldr	x1, [x19, -32]
add	w2, w1, 1
str	w2, [x19, -52]
str	w2, [x19, -56]
b	.L8
.L227:
ldr	x0, [x19, -24]
ldr	x1, [x19, -40]
add	w2, w1, 1
str	w2, [x19, -52]
str	w2, [x19, -56]
b	.L8
.L228:
ldr	x0, [x19, -24]
ldr	x1, [x19, -32]
add	w2, w1, 1
str	w2, [x19, -52]
str	w2, [x19, -56]
b	.L8
.L229:
ldr	x0, [x19, -24]
ldr	x1, [x19, -40]
add	w2, w1, 1
str	w2, [x19, -52]
str	w2, [x19, -56]
b	.L8
.L230:
ldr	x0, [x19, -24]
ldr	x1, [x19, -32]
add	w2, w1, 1
str	w2, [x19, -52]
str	w2, [x19, -56]
b	.L8
.L231:
ldr	x0, [x19, -24]
ldr	x1, [x19, -40]
add	w2, w1, 1
str	w2, [x19, -52]
str	w2, [x19, -56]
b	.L8
.L232:
ldr	x0, [x19, -24]
ldr	x1, [x19, -32]
add	w2, w1, 1
str	w2, [x19, -52]
str	w2, [x19, -56]
b	.L8
.L233:
ldr	x0, [x19, -24]
ldr	x1, [x19, -40]
add	w2, w1, 1
str	w2, [x19, -52]
str	w2, [x19, -56]
b	.L8
.L234:
ldr	x0, [x19, -24]
ldr	x1, [x19, -32]
add	w2, w1, 1
str	w2, [x19, -52]
str	w2, [x19, -56]
b	.L8
.L235:
ldr	x0, [x19, -24]
ldr	x1, [x19, -40]
add	w2, w1, 1
str	w2, [x19, -52]
str	w2, [x19, -56]
b	.L8
.L236:
ldr	x0, [x19, -24]
ldr	x1, [x19, -32]
add	w2, w1, 1
str	w2, [x19, -52]
str	w2, [x19, -56]
b	.L8
.L237:
ldr	x0, [x19, -24]
ldr	x1, [x19, -40]
add	w2, w1, 1
str	w2, [x19, -52]
str	w2, [x19, -56]
b	.L8
.L238:
ldr	x0, [x19, -24]
ldr	x1, [x19, -32]
add	w2, w1, 1
str	w2, [x19, -52]
str	w2, [x19, -56]
b	.L8
.L239:
ldr	x0, [x19, -24]
ldr	x1, [x19, -40]
add	w2, w1, 1
str	w2, [x19, -52]
str	w2, [x19, -56]
b	.L8
.L240:
ldr	x0, [x19, -24]
ldr	x1, [x19, -32]
add	w2, w1, 1
str	w2, [x19, -52]
str	w2, [x19, -56]
b	.L8
.L241:
ldr	x0, [x19, -24]
ldr	x1, [x19, -40]
add	w2, w1, 1
str	w2, [x19, -52]
str	w2, [x19, -56]
b	.L8
.L242:
ldr	x0, [x19, -24]
ldr	x1, [x19, -32]
add	w2, w1, 1
str	w2, [x19, -52]
str	w2, [x19, -56]
b	.L8
.L243:
ldr	x0, [x19, -24]
ldr	x1, [x19, -40]
add	w2, w1, 1
str	w2, [x19, -52]
str	w2, [x19, -56]
b	.L8
.L244:
ldr	x0, [x19, -24]
ldr	x1, [x19, -32]
add	w2, w1, 1
str	w2, [x19, -52]
str	w2, [x19, -56]
b	.L8
.L245:
ldr	x0, [x19, -24]
ldr	x1, [x19, -40]
add	w2, w1, 1
str	w2, [x19, -52]
str	w2, [x19, -56]
b	.L8
.L246:
ldr	x0, [x19, -24]
ldr	x1, [x19, -32]
add	w2, w1, 1
str	w2, [x19, -52]
str	w2, [x19, -56]
b	.L8
.L247:
ldr	x0, [x19, -24]
ldr	x1, [x19, -40]
add	w2, w1, 1
str	w2, [x19, -52]
str	w2, [x19, -56]
b	.L8
.L248:
ldr	x0, [x19, -24]
ldr	x1, [x19, -32]
add	w2, w1, 1
str	w2, [x19, -52]
str	w2, [x19, -56]
b	.L8
.L249:
ldr	x0, [x19, -24]
ldr	x1, [x19, -40]
add	w2, w1, 1
str	w2, [x19, -52]
str	w2, [x19, -56]
b	.L8
.L250:
ldr	x0, [x19, -24]
ldr	x1, [x19, -32]
add	w2, w1, 1
str	w2, [x19, -52]
str	w2, [x19, -56]
b	.L8
.L251:
ldr	x0, [x19, -24]
ldr	x1, [x19, -40]
add	w2, w1, 1
str	w2, [x19, -52]
str	w2, [x19, -56]
b	.L8
.L252:
ldr	x0, [x19, -24]
ldr	x1, [x19, -32]
add	w2, w1, 1
str	w2, [x19, -52]
str	w2, [x19, -56]
b	.L8
.L253:
ldr	x0, [x19, -24]
ldr	x1, [x19, -40]
add	w2, w1, 1
str	w2, [x19, -52]
str	w2, [x19, -56]
b	.L8
.L254:
ldr	x0, [x19, -24]
ldr	x1, [x19, -32]
add	w2, w1, 1
str	w2, [x19, -52]
str	w2, [x19, -56]
b	.L8
.L255:
ldr	x0, [x19, -24]
ldr	x1, [x19, -40]
add	w2, w1, 1
str	w2, [x19, -52]
str	w2, [x19, -56]
b	.L8
.L256:
ldr	x0, [x19, -24]
ldr	x1, [x19, -32]
add	w2, w1, 1
str	w2, [x19, -52]
str	w2, [x19, -56]
b	.L8
.L257:
ldr	x0, [x19, -24]
ldr	x1, [x19, -40]
add	w2, w1, 1
str	w2, [x19, -52]
str	w2, [x19, -56]
b	.L8
.L258:
ldr	x0, [x19, -24]
ldr	x1, [x19, -32]
add	w2, w1, 1
str	w2, [x19, -52]
str	w2, [x19, -56]
b	.L8
.L259:
ldr	x0, [x19, -24]
ldr	x1, [x19, -40]
add	w2, w1, 1
str	w2, [x19, -52]
str	w2, [x19, -56]
b	.L8
.L260:
ldr	x0, [x19, -24]
ldr	x1, [x19, -32]
add	w2, w1, 1
str	w2, [x19, -52]
str	w2, [x19, -56]
b	.L8
.L261:
ldr	x0, [x19, -24]
ldr	x1, [x19, -40]
add	w2, w1, 1
str	w2, [x19, -52]
str	w2, [x19, -56]
b	.L8
.L262:
ldr	x0, [x19, -24]
ldr	x1, [x19, -32]
add	w2, w1, 1
str	w2, [x19, -52]
str	w2, [x19, -56]
b	.L8
.L263:
ldr	x0, [x19, -24]
ldr	x1, [x19, -40]
add	w2, w1, 1
str	w2, [x19, -52]
str	w2, [x19, -56]
b	.L8
.L264:
ldr	x0, [x19, -24]
ldr	x1, [x19, -32]
add	w2, w1, 1
str	w2, [x19, -52]
str	w2, [x19, -56]
b	.L8
.L265:
ldr	x0, [x19, -24]
ldr	x1, [x19, -40]
add	w2, w1, 1
str	w2, [x19, -52]
str	w2, [x19, -56]
b	.L8
.L266:
ldr	x0, [x19, -24]
ldr	x1, [x19, -32]
add	w2, w1, 1
str	w2, [x19, -52]
str	w2, [x19, -56]
b	.L8
.L267:
ldr	x0, [x19, -24]
ldr	x1, [x19, -40]
add	w2, w1, 1
str	w2, [x19, -52]
str	w2, [x19, -56]
b	.L8
.L268:
ldr	x0, [x19, -24]
ldr	x1, [x19, -32]
add	w2, w1, 1
str	w2, [x19, -52]
str	w2, [x19, -56]
b	.L8
.L269:
ldr	x0, [x19, -24]
ldr	x1, [x19, -40]
add	w2, w1, 1
str	w2, [x19, -52]
str	w2, [x19, -56]
b	.L8
.L270:
ldr	x0, [x19, -24]
ldr	x1, [x19, -32]
add	w2, w1, 1
str	w2, [x19, -52]
str	w2, [x19, -56]
b	.L8
.L271:
ldr	x0, [x19, -24]
ldr	x1, [x19, -40]
add	w2, w1, 1
str	w2, [x19, -52]
str	w2, [x19, -56]
b	.L8
.L272:
ldr	x0, [x19, -24]
ldr	x1, [x19, -32]
add	w2, w1, 1
str	w2, [x19, -52]
str	w2, [x19, -56]
b	.L8
.L273:
ldr	x0, [x19, -24]
ldr	x1, [x19, -40]
add	w2, w1, 1
str	w2, [x19, -52]
str	w2, [x19, -56]
b	.L8
.L274:
ldr	x0, [x19, -24]
ldr	x1, [x19, -32]
add	w2, w1, 1
str	w2, [x19, -52]
str	w2, [x19, -56]
b	.L8
.L275:
ldr	x0, [x19, -24]
ldr	x1, [x19, -40]
add	w2, w1, 1
str	w2, [x19, -52]
str	w2, [x19, -56]
b	.L8
.L276:
ldr	x0, [x19, -24]
ldr	x1, [x19, -32]
add	w2, w1, 1
str	w2, [x19, -52]
str	w2, [x19, -56]
b	.L8
.L277:
ldr	x0, [x19, -24]
ldr	x1, [x19, -40]
add	w2, w1, 1
str	w2, [x19, -52]
str	w2, [x19, -56]
b	.L8
.L278:
ldr	x0, [x19, -24]
ldr	x1, [x19, -32]
add	w2, w1, 1
str	w2, [x19, -52]
str	w2, [x19, -56]
b	.L8
.L279:
ldr	x0, [x19, -24]
ldr	x1, [x19, -40]
add	w2, w1, 1
str	w2, [x19, -52]
str	w2, [x19, -56]
b	.L8
.L280:
ldr	x0, [x19, -24]
ldr	x1, [x19, -32]
add	w2, w1, 1
str	w2, [x19, -52]
str	w2, [x19, -56]
b	.L8
.L281:
ldr	x0, [x19, -24]
ldr	x1, [x19, -40]
add	w2, w1, 1
str	w2, [x19, -52]
str	w2, [x19, -56]
b	.L8
.L282:
ldr	x0, [x19, -24]
ldr	x1, [x19, -32]
add	w2, w1, 1
str	w2, [x19, -52]
str	w2, [x19, -56]
b	.L8
.L283:
ldr	x0, [x19, -24]
ldr	x1, [x19, -40]
add	w2, w1, 1
str	w2, [x19, -52]
str	w2, [x19, -56]
b	.L8
.L284:
ldr	x0, [x19, -24]
ldr	x1, [x19, -32]
add	w2, w1, 1
str	w2, [x19, -52]
str	w2, [x19, -56]
b	.L8
.L285:
ldr	x0, [x19, -24]
ldr	x1, [x19, -40]
add	w2, w1, 1
str	w2, [x19, -52]
str	w2, [x19, -56]
b	.L8
.L286:
ldr	x0, [x19, -24]
ldr	x1, [x19, -32]
add	w2, w1, 1
str	w2, [x19, -52]
str	w2, [x19, -56]
b	.L8
.L287:
ldr	x0, [x19, -24]
ldr	x1, [x19, -40]
add	w2, w1, 1
str	w2, [x19, -52]
str	w2, [x19, -56]
b	.L8
.L288:
ldr	x0, [x19, -24]
ldr	x1, [x19, -32]
add	w2, w1, 1
str	w2, [x19, -52]
str	w2, [x19, -56]
b	.L8
.L289:
ldr	x0, [x19, -24]
ldr	x1, [x19, -40]
add	w2, w1, 1
str	w2, [x19, -52]
str	w2, [x19, -56]
b	.L8
.L290:
ldr	x0, [x19, -24]
ldr	x1, [x19, -32]
add	w2, w1, 1
str	w2, [x19, -52]
str	w2, [x19, -56]
b	.L8
.L291:
ldr	x0, [x19, -24]
ldr	x1, [x19, -40]
add	w2, w1, 1
str	w2, [x19, -52]
str	w2, [x19, -56]
b	.L8
.L292:
ldr	x0, [x19, -24]
ldr	x1, [x19, -32]
add	w2, w1, 1
str	w2, [x19, -52]
str	w2, [x19, -56]
b	.L8
.L293:
ldr	x0, [x19, -24]
ldr	x1, [x19, -40]
add	w2, w1, 1
str	w2, [x19, -52]
str	w2, [x19, -56]
b	.L8
.L294:
ldr	x0, [x19, -24]
ldr	x1, [x19, -32]
add	w2, w1, 1
str	w2, [x19, -52]
str	w2, [x19, -56]
b	.L8
.L295:
ldr	x0, [x19, -24]
ldr	x1, [x19, -40]
add	w2, w1, 1
str	w2, [x19, -52]
str	w2, [x19, -56]
b	.L8
.L296:
ldr	x0, [x19, -24]
ldr	x1, [x19, -32]
add	w2, w1, 1
str	w2, [x19, -52]
str	w2, [x19, -56]
b	.L8
.L297:
ldr	x0, [x19, -24]
ldr	x1, [x19, -40]
add	w2, w1, 1
str	w2, [x19, -52]
str	w2, [x19, -56]
b	.L8
.L298:
ldr	x0, [x19, -24]
ldr	x1, [x19, -32]
add	w2, w1, 1
str	w2, [x19, -52]
str	w2, [x19, -56]
b	.L8
.L299:
ldr	x0, [x19, -24]
ldr	x1, [x19, -40]
add	w2, w1, 1
str	w2, [x19, -52]
str	w2, [x19, -56]
b	.L8
.L300:
ldr	x0, [x19, -24]
ldr	x1, [x19, -32]
add	w2, w1, 1
str	w2, [x19, -52]
str	w2, [x19, -56]
b	.L8
.L301:
ldr	x0, [x19, -24]
ldr	x1, [x19, -40]
add	w2, w1, 1
str	w2, [x19, -52]
str	w2, [x19, -56]
b	.L8
.L302:
ldr	x0, [x19, -24]
ldr	x1, [x19, -32]
add	w2, w1, 1
str	w2, [x19, -52]
str	w2, [x19, -56]
b	.L8
.L303:
ldr	x0, [x19, -24]
ldr	x1, [x19, -40]
add	w2, w1, 1
str	w2, [x19, -52]
str	w2, [x19, -56]
b	.L8
.L304:
ldr	x0, [x19, -24]
ldr	x1, [x19, -32]
add	w2, w1, 1
str	w2, [x19, -52]
str	w2, [x19, -56]
b	.L8
.L305:
ldr	x0, [x19, -24]
ldr	x1, [x19, -40]
add	w2, w1, 1
str	w2, [x19, -52]
str	w2, [x19, -56]
b	.L8
.L306:
ldr	x0, [x19, -24]
ldr	x1, [x19, -32]
add	w2, w1, 1
str	w2, [x19, -52]
str	w2, [x19, -56]
b	.L8
.L307:
ldr	x0, [x19, -24]
ldr	x1, [x19, -40]
add	w2, w1, 1
str	w2, [x19, -52]
str	w2, [x19, -56]
b	.L8
.L308:
ldr	x0, [x19, -24]
ldr	x1, [x19, -32]
add	w2, w1, 1
str	w2, [x19, -52]
str	w2, [x19, -56]
b	.L8
.L309:
ldr	x0, [x19, -24]
ldr	x1, [x19, -40]
add	w2, w1, 1
str	w2, [x19, -52]
str	w2, [x19, -56]
b	.L8
.L310:
ldr	x0, [x19, -24]
ldr	x1, [x19, -32]
add	w2, w1, 1
str	w2, [x19, -52]
str	w2, [x19, -56]
b	.L8
.L311:
ldr	x0, [x19, -24]
ldr	x1, [x19, -40]
add	w2, w1, 1
str	w2, [x19, -52]
str	w2, [x19, -56]
b	.L8
.L312:
ldr	x0, [x19, -24]
ldr	x1, [x19, -32]
add	w2, w1, 1
str	w2, [x19, -52]
str	w2, [x19, -56]
b	.L8
.L313:
ldr	x0, [x19, -24]
ldr	x1, [x19, -40]
add	w2, w1, 1
str	w2, [x19, -52]
str	w2, [x19, -56]
b	.L8
.L314:
ldr	x0, [x19, -24]
ldr	x1, [x19, -32]
add	w2, w1, 1
str	w2, [x19, -52]
str	w2, [x19, -56]
b	.L8
.L315:
ldr	x0, [x19, -24]
ldr	x1, [x19, -40]
add	w2, w1, 1
str	w2, [x19, -52]
str	w2, [x19, -56]
b	.L8
.L316:
ldr	x0, [x19, -24]
ldr	x1, [x19, -32]
add	w2, w1, 1
str	w2, [x19, -52]
str	w2, [x19, -56]
b	.L8
.L317:
ldr	x0, [x19, -24]
ldr	x1, [x19, -40]
add	w2, w1, 1
str	w2, [x19, -52]
str	w2, [x19, -56]
b	.L8
.L318:
ldr	x0, [x19, -24]
ldr	x1, [x19, -32]
add	w2, w1, 1
str	w2, [x19, -52]
str	w2, [x19, -56]
b	.L8
.L319:
ldr	x0, [x19, -24]
ldr	x1, [x19, -40]
add	w2, w1, 1
str	w2, [x19, -52]
str	w2, [x19, -56]
b	.L8
.L320:
ldr	x0, [x19, -24]
ldr	x1, [x19, -32]
add	w2, w1, 1
str	w2, [x19, -52]
str	w2, [x19, -56]
b	.L8
.L321:
ldr	x0, [x19, -24]
ldr	x1, [x19, -40]
add	w2, w1, 1
str	w2, [x19, -52]
str	w2, [x19, -56]
b	.L8
.L322:
ldr	x0, [x19, -24]
ldr	x1, [x19, -32]
add	w2, w1, 1
str	w2, [x19, -52]
str	w2, [x19, -56]
b	.L8
.L323:
ldr	x0, [x19, -24]
ldr	x1, [x19, -40]
add	w2, w1, 1
str	w2, [x19, -52]
str	w2, [x19, -56]
b	.L8
.L324:
ldr	x0, [x19, -24]
ldr	x1, [x19, -32]
add	w2, w1, 1
str	w2, [x19, -52]
str	w2, [x19, -56]
b	.L8
.L325:
ldr	x0, [x19, -24]
ldr	x1, [x19, -40]
add	w2, w1, 1
str	w2, [x19, -52]
str	w2, [x19, -56]
b	.L8
.L326:
ldr	x0, [x19, -24]
ldr	x1, [x19, -32]
add	w2, w1, 1
str	w2, [x19, -52]
str	w2, [x19, -56]
b	.L8
.L327:
ldr	x0, [x19, -24]
ldr	x1, [x19, -40]
add	w2, w1, 1
str	w2, [x19, -52]
str	w2, [x19, -56]
b	.L8
.L328:
ldr	x0, [x19, -24]
ldr	x1, [x19, -32]
add	w2, w1, 1
str	w2, [x19, -52]
str	w2, [x19, -56]
b	.L8
.L329:
ldr	x0, [x19, -24]
ldr	x1, [x19, -40]
add	w2, w1, 1
str	w2, [x19, -52]
str	w2, [x19, -56]
b	.L8
.L330:
ldr	x0, [x19, -24]
ldr	x1, [x19, -32]
add	w2, w1, 1
str	w2, [x19, -52]
str	w2, [x19, -56]
b	.L8
.L331:
ldr	x0, [x19, -24]
ldr	x1, [x19, -40]
add	w2, w1, 1
str	w2, [x19, -52]
str	w2, [x19, -56]
b	.L8
.L332:
ldr	x0, [x19, -24]
ldr	x1, [x19, -32]
add	w2, w1, 1
str	w2, [x19, -52]
str	w2, [x19, -56]
b	.L8
.L333:
ldr	x0, [x19, -24]
ldr	x1, [x19, -40]
add	w2, w1, 1
str	w2, [x19, -52]
str	w2, [x19, -56]
b	.L8
.L334:
ldr	x0, [x19, -24]
ldr	x1, [x19, -32]
add	w2, w1, 1
str	w2, [x19, -52]
str	w2, [x19, -56]
b	.L8
.L335:
ldr	x0, [x19, -24]
ldr	x1, [x19, -40]
add	w2, w1, 1
str	w2, [x19, -52]
str	w2, [x19, -56]
b	.L8
.L336:
ldr	x0, [x19, -24]
ldr	x1, [x19, -32]
add	w2, w1, 1
str	w2, [x19, -52]
str	w2, [x19, -56]
b	.L8
.L337:
ldr	x0, [x19, -24]
ldr	x1, [x19, -40]
add	w2, w1, 1
str	w2, [x19, -52]
str	w2, [x19, -56]
b	.L8
.L338:
ldr	x0, [x19, -24]
ldr	x1, [x19, -32]
add	w2, w1, 1
str	w2, [x19, -52]
str	w2, [x19, -56]
b	.L8
.L339:
ldr	x0, [x19, -24]
ldr	x1, [x19, -40]
add	w2, w1, 1
str	w2, [x19, -52]
str	w2, [x19, -56]
b	.L8
.L340:
ldr	x0, [x19, -24]
ldr	x1, [x19, -32]
add	w2, w1, 1
str	w2, [x19, -52]
str	w2, [x19, -56]
b	.L8
.L341:
ldr	x0, [x19, -24]
ldr	x1, [x19, -40]
add	w2, w1, 1
str	w2, [x19, -52]
str	w2, [x19, -56]
b	.L8
.L342:
ldr	x0, [x19, -24]
ldr	x1, [x19, -32]
add	w2, w1, 1
str	w2, [x19, -52]
str	w2, [x19, -56]
b	.L8
.L343:
ldr	x0, [x19, -24]
ldr	x1, [x19, -40]
add	w2, w1, 1
str	w2, [x19, -52]
str	w2, [x19, -56]
b	.L8
.L344:
ldr	x0, [x19, -24]
ldr	x1, [x19, -32]
add	w2, w1, 1
str	w2, [x19, -52]
str	w2, [x19, -56]
b	.L8
.L345:
ldr	x0, [x19, -24]
ldr	x1, [x19, -40]
add	w2, w1, 1
str	w2, [x19, -52]
str	w2, [x19, -56]
b	.L8
.L346:
ldr	x0, [x19, -24]
ldr	x1, [x19, -32]
add	w2, w1, 1
str	w2, [x19, -52]
str	w2, [x19, -56]
b	.L8
.L347:
ldr	x0, [x19, -24]
ldr	x1, [x19, -40]
add	w2, w1, 1
str	w2, [x19, -52]
str	w2, [x19, -56]
b	.L8
.L348:
ldr	x0, [x19, -24]
ldr	x1, [x19, -32]
add	w2, w1, 1
str	w2, [x19, -52]
str	w2, [x19, -56]
b	.L8
.L349:
ldr	x0, [x19, -24]
ldr	x1, [x19, -40]
add	w2, w1, 1
str	w2, [x19, -52]
str	w2, [x19, -56]
b	.L8
.L350:
ldr	x0, [x19, -24]
ldr	x1, [x19, -32]
add	w2, w1, 1
str	w2, [x19, -52]
str	w2, [x19, -56]
b	.L8
.L351:
ldr	x0, [x19, -24]
ldr	x1, [x19, -40]
add	w2, w1, 1
str	w2, [x19, -52]
str	w2, [x19, -56]
b	.L8
.L352:
ldr	x0, [x19, -24]
ldr	x1, [x19, -32]
add	w2, w1, 1
str	w2, [x19, -52]
str	w2, [x19, -56]
b	.L8
.L353:
ldr	x0, [x19, -24]
ldr	x1, [x19, -40]
add	w2, w1, 1
str	w2, [x19, -52]
str	w2, [x19, -56]
b	.L8
.L354:
ldr	x0, [x19, -24]
ldr	x1, [x19, -32]
add	w2, w1, 1
str	w2, [x19, -52]
str	w2, [x19, -56]
b	.L8
.L355:
ldr	x0, [x19, -24]
ldr	x1, [x19, -40]
add	w2, w1, 1
str	w2, [x19, -52]
str	w2, [x19, -56]
b	.L8
.L356:
ldr	x0, [x19, -24]
ldr	x1, [x19, -32]
add	w2, w1, 1
str	w2, [x19, -52]
str	w2, [x19, -56]
b	.L8
.L357:
ldr	x0, [x19, -24]
ldr	x1, [x19, -40]
add	w2, w1, 1
str	w2, [x19, -52]
str	w2, [x19, -56]
b	.L8
.L358:
ldr	x0, [x19, -24]
ldr	x1, [x19, -32]
add	w2, w1, 1
str	w2, [x19, -52]
str	w2, [x19, -56]
b	.L8
.L359:
ldr	x0, [x19, -24]
ldr	x1, [x19, -40]
add	w2, w1, 1
str	w2, [x19, -52]
str	w2, [x19, -56]
b	.L8
.L360:
ldr	x0, [x19, -24]
ldr	x1, [x19, -32]
add	w2, w1, 1
str	w2, [x19, -52]
str	w2, [x19, -56]
b	.L8
.L361:
ldr	x0, [x19, -24]
ldr	x1, [x19, -40]
add	w2, w1, 1
str	w2, [x19, -52]
str	w2, [x19, -56]
b	.L8
.L362:
ldr	x0, [x19, -24]
ldr	x1, [x19, -32]
add	w2, w1, 1
str	w2, [x19, -52]
str	w2, [x19, -56]
b	.L8
.L363:
ldr	x0, [x19, -24]
ldr	x1, [x19, -40]
add	w2, w1, 1
str	w2, [x19, -52]
str	w2, [x19, -56]
b	.L8
.L364:
ldr	x0, [x19, -24]
ldr	x1, [x19, -32]
add	w2, w1, 1
str	w2, [x19, -52]
str	w2, [x19, -56]
b	.L8
.L365:
ldr	x0, [x19, -24]
ldr	x1, [x19, -40]
add	w2, w1, 1
str	w2, [x19, -52]
str	w2, [x19, -56]
b	.L8
.L366:
ldr	x0, [x19, -24]
ldr	x1, [x19, -32]
add	w2, w1, 1
str	w2, [x19, -52]
str	w2, [x19, -56]
b	.L8
.L367:
ldr	x0, [x19, -24]
ldr	x1, [x19, -40]
add	w2, w1, 1
str	w2, [x19, -52]
str	w2, [x19, -56]
b	.L8
.L368:
ldr	x0, [x19, -24]
ldr	x1, [x19, -32]
add	w2, w1, 1
str	w2, [x19, -52]
str	w2, [x19, -56]
b	.L8
.L369:
ldr	x0, [x19, -24]
ldr	x1, [x19, -40]
add	w2, w1, 1
str	w2, [x19, -52]
str	w2, [x19, -56]
b	.L8
.L370:
ldr	x0, [x19, -24]
ldr	x1, [x19, -32]
add	w2, w1, 1
str	w2, [x19, -52]
str	w2, [x19, -56]
b	.L8
.L371:
ldr	x0, [x19, -24]
ldr	x1, [x19, -40]
add	w2, w1, 1
str	w2, [x19, -52]
str	w2, [x19, -56]
b	.L8
.L372:
ldr	x0, [x19, -24]
ldr	x1, [x19, -32]
add	w2, w1, 1
str	w2, [x19, -52]
str	w2, [x19, -56]
b	.L8
.L373:
ldr	x0, [x19, -24]
ldr	x1, [x19, -40]
add	w2, w1, 1
str	w2, [x19, -52]
str	w2, [x19, -56]
b	.L8
.L374:
ldr	x0, [x19, -24]
ldr	x1, [x19, -32]
add	w2, w1, 1
str	w2, [x19, -52]
str	w2, [x19, -56]
b	.L8
.L375:
ldr	x0, [x19, -24]
ldr	x1, [x19, -40]
add	w2, w1, 1
str	w2, [x19, -52]
str	w2, [x19, -56]
b	.L8
.L376:
ldr	x0, [x19, -24]
ldr	x1, [x19, -32]
add	w2, w1, 1
str	w2, [x19, -52]
str	w2, [x19, -56]
b	.L8
.L377:
ldr	x0, [x19, -24]
ldr	x1, [x19, -40]
add	w2, w1, 1
str	w2, [x19, -52]
str	w2, [x19, -56]
b	.L8
.L378:
ldr	x0, [x19, -24]
ldr	x1, [x19, -32]
add	w2, w1, 1
str	w2, [x19, -52]
str	w2, [x19, -56]
b	.L8
.L379:
ldr	x0, [x19, -24]
ldr	x1, [x19, -40]
add	w2, w1, 1
str	w2, [x19, -52]
str	w2, [x19, -56]
b	.L8
.L380:
ldr	x0, [x19, -24]
ldr	x1, [x19, -32]
add	w2, w1, 1
str	w2, [x19, -52]
str	w2, [x19, -56]
b	.L8
.L381:
ldr	x0, [x19, -24]
ldr	x1, [x19, -40]
add	w2, w1, 1
str	w2, [x19, -52]
str	w2, [x19, -56]
b	.L8
.L382:
ldr	x0, [x19, -24]
ldr	x1, [x19, -32]
add	w2, w1, 1
str	w2, [x19, -52]
str	w2, [x19, -56]
b	.L8
.L383:
ldr	x0, [x19, -24]
ldr	x1, [x19, -40]
add	w2, w1, 1
str	w2, [x19, -52]
str	w2, [x19, -56]
b	.L8
.L384:
ldr	x0, [x19, -24]
ldr	x1, [x19, -32]
add	w2, w1, 1
str	w2, [x19, -52]
str	w2, [x19, -56]
b	.L8
.L385:
ldr	x0, [x19, -24]
ldr	x1, [x19, -40]
add	w2, w1, 1
str	w2, [x19, -52]
str	w2, [x19, -56]
b	.L8
.L386:
ldr	x0, [x19, -24]
ldr	x1, [x19, -32]
add	w2, w1, 1
str	w2, [x19, -52]
str	w2, [x19, -56]
b	.L8
.L387:
ldr	x0, [x19, -24]
ldr	x1, [x19, -40]
add	w2, w1, 1
str	w2, [x19, -52]
str	w2, [x19, -56]
b	.L8
.L388:
ldr	x0, [x19, -24]
ldr	x1, [x19, -32]
add	w2, w1, 1
str	w2, [x19, -52]
str	w2, [x19, -56]
b	.L8
.L389:
ldr	x0, [x19, -24]
ldr	x1, [x19, -40]
add	w2, w1, 1
str	w2, [x19, -52]
str	w2, [x19, -56]
b	.L8
.L390:
ldr	x0, [x19, -24]
ldr	x1, [x19, -32]
add	w2, w1, 1
str	w2, [x19, -52]
str	w2, [x19, -56]
b	.L8
.L391:
ldr	x0, [x19, -24]
ldr	x1, [x19, -40]
add	w2, w1, 1
str	w2, [x19, -52]
str	w2, [x19, -56]
b	.L8
.L392:
ldr	x0, [x19, -24]
ldr	x1, [x19, -32]
add	w2, w1, 1
str	w2, [x19, -52]
str	w2, [x19, -56]
b	.L8
.L393:
ldr	x0, [x19, -24]
ldr	x1, [x19, -40]
add	w2, w1, 1
str	w2, [x19, -52]
str	w2, [x19, -56]
b	.L8
.L394:
ldr	x0, [x19, -24]
ldr	x1, [x19, -32]
add	w2, w1, 1
str	w2, [x19, -52]
str	w2, [x19, -56]
b	.L8
.L395:
ldr	x0, [x19, -24]
ldr	x1, [x19, -40]
add	w2, w1, 1
str	w2, [x19, -52]
str	w2, [x19, -56]
b	.L8
.L396:
ldr	x0, [x19, -24]
ldr	x1, [x19, -32]
add	w2, w1, 1
str	w2, [x19, -52]
str	w2, [x19, -56]
b	.L8
.L397:
ldr	x0, [x19, -24]
ldr	x1, [x19, -40]
add	w2, w1, 1
str	w2, [x19, -52]
str	w2, [x19, -56]
b	.L8
.L398:
ldr	x0, [x19, -24]
ldr	x1, [x19, -32]
add	w2, w1, 1
str	w2, [x19, -52]
str	w2, [x19, -56]
b	.L8
.L399:
ldr	x0, [x19, -24]
ldr	x1, [x19, -40]
add	w2, w1, 1
str	w2, [x19, -52]
str	w2, [x19, -56]
b	.L8
.L400:
ldr	x0, [x19, -24]
ldr	x1, [x19, -32]
add	w2, w1, 1
str	w2, [x19, -52]
str	w2, [x19, -56]
b	.L8
.L401:
ldr	x0, [x19, -24]
ldr	x1, [x19, -40]
add	w2, w1, 1
str	w2, [x19, -52]
str	w2, [x19, -56]
b	.L8
.L402:
ldr	x0, [x19, -24]
ldr	x1, [x19, -32]
add	w2, w1, 1
str	w2, [x19, -52]
str	w2, [x19, -56]
b	.L8
.L403:
ldr	x0, [x19, -24]
ldr	x1, [x19, -40]
add	w2, w1, 1
str	w2, [x19, -52]
str	w2, [x19, -56]
b	.L8
.L404:
ldr	x0, [x19, -24]
ldr	x1, [x19, -32]
add	w2, w1, 1
str	w2, [x19, -52]
str	w2, [x19, -56]
b	.L8
.L405:
ldr	x0, [x19, -24]
ldr	x1, [x19, -40]
add	w2, w1, 1
str	w2, [x19, -52]
str	w2, [x19, -56]
b	.L8
.L406