.arch armv8-a
.file	__TEXT,__text,regular,pure_instructions
.align	2
.p2align	4,,11
.func0:                                   ## @func0
	.cfi_startproc
stp	x29, x30, [sp, -32]!
.cfi_def_cfa_offset 32
.cfi_offset 29, -32
.cfi_offset 30, -24
mov	x29, sp
.cfi_def_cfa_register 29
str	x19, [sp, 16]
sub	sp, sp,
str	d8, [sp, 24]
.cfi_offset 19, -16
.cfi_offset 72, -8
ldr	x19, [x29, -32]
str	x0, [x29, -16]
bl	xatof
fmov	d8, d0
fcmp	d0,
bmi	.L2
adrp	x0, .LANCHOR0
ldr	d0, [x29, -16]
ldr	d1, [x0,
fadd	d0, d0, d1
fcvtzs	w0, d0
ldr	x19, [sp, 16]
ldp	x29, x30, [sp], 32
.cfi_remember_state
.cfi_restore 30
.cfi_restore 29
.cfi_restore 19
.cfi_restore 72
.cfi_def_cfa_offset 0
ret
.p2align	2,,3
.L2:
.cfi_restore_state
adrp	x0, .LANCHOR0
ldr	d0, [x29, -16]
ldr	d1, [x0,
fsub	d0, d0, d1
fcvtzs	w0, d0
ldr	x19, [sp, 16]
ldp	x29, x30, [sp], 32
.cfi_restore 30
.cfi_restore 29
.cfi_restore 19
.cfi_restore 72
.cfi_def_cfa_offset 0
ret
	.cfi_endproc
	file_format.__TEXT,__text,regular,pure_instructions
.sect	__TEXT,__text,regular,pure_instructions
.global	_func0
.align	2
.set	.LANCHOR0,. + 0
.LC0:
.xword	0x3fe0000000000000
.bss
.align	3
.data
.LR0:.LC0:
.word	.LC0
.data
.align	3
.volatile	d8:
.xword	.LR0
.volatile	d0:
.xword	.LC0
	volatile	d1:
.xword	.LC0
	volatile	d2:
.xword	.LC0
	volatile	d3:
.xword	.LC0
	q0:
.xword	.LC0
	q1:
.xword	.LC0
	q2:
.xword	.LC0
	q3:
.xword	.LC0
	q4:
.xword	.LC0
	q5:
.xword	.LC0
	q6:
.xword	.LC0
	q7:
.xword	.LC0
end
.end
.subsections_via_symbols
.section	__TEXT,__text,regular,pure_instructions
.global	_func0
.bss
.align	3
.set	.LANCHOR0,. + 0
.LC0:
.xword	0x3fe0000000000000
b	.LC
.text
.align	2
.set	.LANCHOR0,. + 0
.LC:
.xword	.LC0
.xword	.LC0
.xword	.LC0
.xword	.LC0
.xword	.LC0
.xword	.LC0
.xword	.LC0
.xword	.LC0
.xword	.LC0
.xword	.LC0
.xword	.LC0
.xword	.LC0
.xword	.LC0
.xword	.LC0
.xword	.LC0
.xword	.LC0
.xword	.LC0
.xword	.LC0
.xword	.LC0
.xword	.LC0
.xword	.LC0
.xword	.LC0
.xword	.LC0
.xword	.LC0
.xword	.LC0
.xword	.LC0
.xword	.LC0
.xword	.LC0
.xword	.LC0
.xword	.LC0
.xword	.LC0
.xword	.LC0
.xword	.LC0
.xword	.LC0
.xword	.LC0
.xword	.LC0
.xword	.LC0
.xword	.LC0
.xword	.LC0
.xword	.LC0
.xword	.LC0
.xword	.LC0
.xword	.LC0
.xword	.LC0
.xword	.LC0
.xword	.LC0
.xword	.LC0
.xword	.LC0
.xword	.LC0
.xword	.LC0
.xword	.LC0
.xword	.LC0
.xword	.LC0
.xword	.LC0
.xword	.LC0
.xword	.LC0
.xword	.LC0
.xword	.LC0
.xword	.LC0
.xword	.LC0
.xword	.LC0
.xword	.LC0
.xword	.LC0
.xword	.LC0
.xword	.LC0
.xword	.LC0
.xword	.LC0
.xword	.LC0
.xword	.LC0
.xword	.LC0
.xword	.LC0
.xword	.LC0
.xword	.LC0
.xword	.LC0
.xword	.LC0
.xword	.LC0
.xword	.LC0
.xword	.LC0
.xword	.LC0
.xword	.LC0
.xword	.LC0
.xword	.LC0
.xword	.LC0
.xword	.LC0
.xword	.LC0
.xword	.LC0
.xword	.LC0
.xword	.LC0
.xword	.LC0
.xword	.LC0
.xword	.LC0
.xword	.LC0
.xword	.LC0
.xword	.LC0
.xword	.LC0
.xword	.LC0
.xword	.LC0
.xword	.LC0
.xword	.LC0
.xword	.LC0
.xword	.LC0
.xword	.LC0
.xword	.LC0
.xword	.LC0
.xword	.LC0
.xword	.LC0
.xword	.LC0
.xword	.LC0
.xword	.LC0
.xword	.LC0
.xword	.LC0
.xword	.LC0
.xword	.LC0
.xword	.LC0
.xword	.LC0
.xword	.LC0
.xword	.LC0
.xword	.LC0
.xword	.LC0
.xword	.LC0
.xword	.LC0
.xword	.LC0
.xword	.LC0
.xword	.LC0
.xword	.LC0
.xword	.LC0
.xword	.LC0
.xword	.LC0
.xword	.LC0
.xword	.LC0
.xword	.LC0
.xword	.LC0
.xword	.LC0
.xword	.LC0
.xword	.LC0
.xword	.LC0
.xword	.LC0
.xword	.LC0
.xword	.LC0
.xword	.LC0
.xword	.LC0
.xword	.LC0
.xword	.LC0
.xword	.LC0
.xword	.LC0
.xword	.LC0
.xword	.LC0
.xword	.LC0
.xword	.LC0
.xword	.LC0
.xword	.LC0
.xword	.LC0
.xword	.LC0
.xword	.LC0
.xword	.LC0
.xword	.LC0
.xword	.LC0
.xword	.LC0
.xword	.LC0
.xword	.LC0
.xword	.LC0
.xword	.LC0
.xword	.LC0
.xword	.LC0
.xword	.LC0
.xword	.LC0
.xword	.LC0
.xword	.LC0
.xword	.LC0
.xword	.LC0
.xword	.LC0
.xword	.LC0
.xword	.LC0
.xword	.LC0
.xword	.LC0
.xword	.LC0
.xword	.LC0
.xword	.LC0
.xword	.LC0
.xword	.LC0
.xword	.LC0
.xword	.LC0
.xword	.LC0
.xword	.LC0
.xword	.LC0
.xword	.LC0
.xword	.LC0
.xword	.LC0
.xword	.LC0
.xword	.LC0
.xword	.LC0
.xword	.LC0
.xword	.LC0
.xword	.LC0
.xword	.LC0
.xword	.LC0
.xword	.LC0
.xword	.LC0
.xword	.LC0
.xword	.LC0
.xword	.LC0
.xword	.LC0
.xword	.LC0
.xword	.LC0
.xword	.LC0
.xword	.LC0
.xword	.LC0
.xword	.LC0
.xword	.LC0
.xword	.LC0
.xword	.LC0
.xword	.LC0
.xword	.LC0
.xword	.LC0
.xword	.LC0
.xword	.LC0
.xword	.LC0
.xword	.LC0
.xword	.LC0
.xword	.LC0
.xword	.LC0
.xword	.LC0
.xword	.LC0
.xword	.LC0
.xword	.LC0
.xword	.LC0
.xword	.LC0
.xword	.LC0
.xword	.LC0
.xword	.LC0
.xword	.LC0
.xword	.LC0
.xword	.LC0
.xword	.LC0
.xword	.LC0
.xword	.LC0
.xword	.LC0
.xword	.LC0
.xword	.LC0
.xword	.LC0
.xword	.LC0
.xword	.LC0
.xword	.LC0
.xword	.LC0
.xword	.LC0
.xword	.LC0
.xword	.LC0
.xword	.LC0
.xword	.LC0
.xword	.LC0
.xword	.LC0
.xword	.LC0
.xword	.LC0
.xword	.LC0
.xword	.LC0
.xword	.LC0
.xword	.LC0
.xword	.LC0
.xword	.LC0
.xword	.LC0
.xword	.LC0
.xword	.LC0
.xword	.LC0
.xword	.LC0
.xword	.LC0
.xword	.LC0
.xword	.LC0
.xword	.LC0
.xword	.LC0
.xword	.LC0
.xword	.LC0
.xword	.LC0
.xword	.LC0
.xword	.LC0
.xword	.LC0
.xword	.LC0
.xword	.LC0
.xword	.LC0
.xword	.LC0
.xword	.LC0
.xword	.LC0
.xword	.LC0
.xword	.LC0
.xword	.LC0
.xword	.LC0
.xword	.LC0
.xword	.LC0
.xword	.LC0
.xword	.LC0
.xword	.LC0
.xword	.LC0
.xword	.LC0
.xword	.LC0
.xword	.LC0
.xword	.LC0
.xword	.LC0
.xword	.LC0
.xword	.LC0
.xword	.LC0
.xword	.LC0
.xword	.LC0
.xword	.LC0
.xword	.LC0
.xword	.LC0
.xword	.LC0
.xword	.LC0
.xword	.LC0
.xword	.LC0
.xword	.LC0
.xword	.LC0
.xword	.LC0
.xword	.LC0
.xword	.LC0
.xword	.LC0
.xword	.LC0
.xword	.LC0
.xword	.LC0
.xword	.LC0
.xword	.LC0
.xword	.LC0
.xword	.LC0
.xword	.LC0
.xword	.LC0
.xword	.LC0
.xword	.LC0
.xword	.LC0
.xword	.LC0
.xword	.LC0
.xword	.LC0
.xword	.LC0
.xword	.LC0
.xword	.LC0
.xword	.LC0
.xword	.LC0
.xword	.LC0
.xword	.LC0
.xword	.LC0
.xword	.LC0
.xword	.LC0
.xword	.LC0
.xword	.LC0
.xword	.LC0
.xword	.LC0
.xword	.LC0
.xword	.LC0
.xword	.LC0
.xword	.LC0
.xword	.LC0
.xword	.LC0
.xword	.LC0
.xword	.LC0
.xword	.LC0
.xword	.LC0
.xword	.LC0
.xword	.LC0
.xword	.LC0
.xword	.LC0
.xword	.LC0
.xword	.LC0
.xword	.LC0
.xword	.LC0
.xword	.LC0
.xword	.LC0
.xword	.LC0
.xword	.LC0
.xword	.LC0
.xword	.LC0
.xword	.LC0
.xword	.LC0
.xword	.LC0
.xword	.LC0
.xword	.LC0
.xword	.LC0
.xword	.LC0
.xword	.LC0
.xword	.LC0
.xword	.LC0
.xword	.LC0
.xword	.LC0
.xword	.LC0
.xword	.LC0
.xword	.LC0
.xword	.LC0
.xword	.LC0
.xword	.LC0
.xword	.LC0
.xword	.LC0
.xword	.LC0
.xword	.LC0
.xword	.LC0
.xword	.LC0
.xword	.LC0
.xword	.LC0
.xword	.LC0
.xword	.LC0
.xword	.LC0
.xword	.LC0
.xword	.LC0
.xword	.LC0
.xword	.LC0
.xword	.LC0
.xword	.LC0
.xword	.LC0
.xword	.LC0
.xword	.LC0
.xword	.LC0
.xword	.LC0
.xword	.LC0
.xword	.LC0
.xword	.LC0
.xword	.LC0
.xword	.LC0
.xword	.LC0
.xword	.LC0
.xword	.LC0
.xword	.LC0
.xword	.LC0
.xword	.LC0
.xword	.LC0
.xword	.LC0
.xword	.LC0
.xword	.LC0
.xword	.LC0
.xword	.LC0
.xword	.LC0
.xword	.LC0
.xword	.LC0
.xword	.LC0
.xword	.LC0
.xword	.LC0
.xword	.LC0
.xword	.LC0
.xword	.LC0
.xword	.LC0
.xword	.LC0
.xword	.LC0
.xword	.LC0
.xword	.LC0
.xword	.LC0
.xword	.LC0
.xword	.LC0
.xword	.LC0
.xword	.LC0
.xword	.LC0
.xword	.LC0
.xword	.LC0
.xword	.LC0
.xword	.LC0
.xword	.LC0
.xword	.LC0
.xword	.LC0
.xword	.LC0
.xword	.LC0
.xword	.LC0
.xword	.LC0
.xword	.LC0
.xword	.LC0
.xword	.LC0
.xword	.LC0
.xword	.LC0
.xword	.LC0
.xword	.LC0
.xword	.LC0
.xword	.LC0
.xword	.LC0
.xword	.LC0
.xword	.LC0
.xword	.LC0
.xword	.LC0
.xword	.LC0
.xword	.LC0
.xword	.LC0
.xword	.LC0
.xword	.LC0
.xword	.LC0
.xword	.LC0
.xword	.LC0
.xword	.LC0
.xword	.LC0
.xword	.LC0
.xword	.LC0
.xword	.LC0
.xword	.LC0
.xword	.LC0
.xword	.LC0
.xword	.LC0
.xword	.LC0
.xword	.LC0
.xword	.LC0
.xword	.LC0
.xword	.LC0
.xword	.LC0
.xword	.LC0
.xword	.LC0
.xword	.LC0
.xword	.LC0
.xword	.LC0
.xword	.LC0
.xword	.LC0
.xword	.LC0
.xword	.LC0
.xword	.LC0
.xword	.LC0
.xword	.LC0
.xword	.LC0
.xword	.LC0
.xword	.LC0
.xword	.LC0
.xword	.LC0
.xword	.LC0
.xword	.LC0
.xword	.LC0
.xword	.LC0
.xword	.LC0
.xword	.LC0
.xword	.LC0
.xword	.LC0
.xword	.LC0
.xword	.LC0
.xword	.LC0
.xword	.LC0
.xword	.LC0
.xword	.LC0
.xword	.LC0
.xword	.LC0
.xword	.LC0
.xword	.LC0
.xword	.LC0
.xword	.LC0
.xword	.LC0
.xword	.LC0
.xword	.LC0
.xword	.LC0
.xword	.LC0
.xword	.LC0
.xword	.LC0
.xword	.LC0
.xword	.LC0
.xword	.LC0
.xword	.LC0
.xword	.LC0
.xword	.LC0
.xword	.LC0
.xword	.LC0
.xword	.LC0
.xword	.LC0
.xword	.LC0
.xword	.LC0
.xword	.LC0
.xword	.LC0
.xword	.LC0
.xword	.LC0
.xword	.LC0
.xword	.LC0
.xword	.LC0
.xword	.LC0
.xword	.LC0
.xword	.LC0
.xword	.LC0
.xword	.LC0
.xword	.LC0
.xword	.LC0
.xword	.LC0
.xword	.LC0
.xword	.LC0
.xword	.LC0
.xword	.LC0
.xword	.LC0
.xword	.LC0
.xword	.LC0
.xword	.LC0
.xword	.LC0
.xword	.LC0
.xword	.LC0
.xword	.LC0
.xword	.LC0
.xword	.LC0
.xword	.LC0
.xword	.LC0
.xword	.LC0
.xword	.LC0
.xword	.LC0
.xword	.LC0
.xword	.LC0
.xword	.LC0
.xword	.LC0
.xword	.LC0
.xword	.LC0
.xword	.LC0
.xword	.LC0
.xword	.LC0
.xword	.LC0
.xword	.LC0
.xword	.LC0
.xword	.LC0
.xword	.LC0
.xword	.LC0
.xword	.LC0
.xword	.LC0
.xword	.LC0
.xword	.LC0
.xword	.LC0
.xword	.LC0
.xword	.LC0
.xword	.LC0
.xword	.LC0
.xword	.LC0
.xword	.LC0
.xword	.LC0
.xword	.LC0
.xword	.LC0
.xword	.LC0
.xword	.LC0
.xword	.LC0
.xword	.LC0
.xword	.LC0
.xword	.LC0
.xword	.LC0
.xword	.LC0
.xword	.LC0
.xword	.LC0
.xword	.LC0
.xword	.LC0
.xword	.LC0
.xword	.LC0
.xword	.LC0
.xword	.LC0
.xword	.LC0
.xword	.LC0
.xword	.LC0
.xword	.LC0
.xword	.LC0
.xword	.LC0
.xword	.LC0
.xword	.LC0
.xword	.LC0
.xword	.LC0
.xword	.LC0
.xword	.LC0
.xword	.LC0
.xword	.LC0
.xword	.LC0
.xword	.LC0
.xword	.LC0
.xword	.LC0
.xword	.LC0
.xword	.LC0
.xword	.LC0
.xword	.LC0
.xword	.LC0
.xword	.LC0
.xword	.LC0
.xword	.LC0
.xword	.LC0
.xword	.LC0
.xword	.LC0
.xword	.LC0
.xword	.LC0
.xword	.LC0
.xword	.LC0
.xword	.LC0
.xword	.LC0
.xword	.LC0
.xword	.LC0
.xword	.LC0
.xword	.LC0
.xword	.LC0
.xword	.LC0
.xword	.LC0
.xword	.LC0
.xword	.LC0
.xword	.LC0
.xword	.LC0
.xword	.LC0
.xword	.LC0
.xword	.LC0
.xword	.LC0
.xword	.LC0
.xword	.LC0
.xword	.LC0
.xword	.LC0
.xword	.LC0
.xword	.LC0
.xword	.LC0
.xword	.LC0
.xword	.LC0
.xword	.LC0
.xword	.LC0
.xword	.LC0
.xword	.LC0
.xword	.LC0
.xword	.LC0
.xword	.LC0
.xword	.LC0
.xword	.LC0
.xword	.LC0
.xword	.LC0
.xword	.LC0
.xword	.LC0
.xword	.LC0
.xword	.LC0
.xword	.LC0
.xword	.LC0
.xword	.LC0
.xword	.LC0
.xword	.LC0
.xword	.LC0
.xword	.LC0
.xword	.LC0
.xword	.LC0
.xword	.LC0
.xword	.LC0
.xword	.LC0
.xword	.LC0
.xword	.LC0
.xword	.LC0
.xword	.LC0
.xword	.LC0
.xword	.LC0
.xword	.LC0
.xword	.LC0
.xword	.LC0
.xword	.LC0
.xword	.LC0
.xword	.LC0
.xword	.LC0
.xword	.LC0
.xword	.LC0
.xword	.LC0
.xword	.LC0
.xword	.LC0
.xword	.LC0
.xword	.LC0
.xword	.LC0
.xword	.LC0
.xword	.LC0
.xword	.LC0
.xword	.LC0
.xword	.LC0
.xword	.LC0
.xword	.LC0
.xword	.LC0
.xword	.LC0
.xword	.LC0
.xword	.LC0
.xword	.LC0
.xword	.LC0
.xword	.LC0
.xword	.LC0
.xword	.LC0
.xword	.LC0
.xword	.LC0
.xword	.LC0
.xword	.LC0
.xword	.LC0
.xword	.LC0
.xword	.LC0
.xword	.LC0
.xword	.LC0
.xword	.LC0
.xword	.LC0
.xword	.LC0
.xword	.LC0
.xword	.LC0
.xword	.LC0
.xword	.LC0
.xword	.LC0
.xword	.LC0
.xword	.LC0
.xword	.LC0
.xword	.LC0
.xword	.LC0
.xword	.LC0
.xword	.LC0
.xword	.LC0
.xword	.LC0
.xword	.LC0
.xword	.LC0
.xword	.LC0
.xword	.LC0
.xword	.LC0
.xword	.LC0
.xword	.LC0
.xword	.LC0
.xword	.LC0
.xword	.LC0
.xword	.LC0
.xword	.LC0
.xword	.LC0
.xword	.LC0
.xword	.LC0
.xword	.LC0
.xword	.LC0
.xword	.LC0
.xword	.LC0
.xword	.LC0
.xword	.LC0
.xword	.LC0
.xword	.LC0
.xword	.LC0
.xword	.LC0
.xword	.LC0
.xword	.LC0
.xword	.LC0
.xword	.LC0
.xword	.LC0
.xword	.LC0
.xword	.LC0
.xword	.LC0
.xword	.LC0
.xword	.LC0
.xword	.LC0
.xword	.LC0
.xword	.LC0
.xword	.LC0
.xword	.LC0
.xword	.LC0
.xword	.LC0
.xword	.LC0
.xword	.LC0
.xword	.LC0
.xword	.LC0
.xword	.LC0
.xword	.LC0
.xword	.LC0
.xword	.LC0
.xword	.LC0
.xword	.LC0
.xword	.LC0
.xword	.LC0
.xword	.LC0
.xword	.LC0
.xword	.LC0
.xword	.LC0
.xword	.LC0
.xword	.LC0
.xword	.LC0
.xword	.LC0
.xword	.LC0
.xword	.LC0
.xword	.LC0
.xword	.LC0
.xword	.LC0
.xword	.LC0
.xword	.LC0
.xword	.LC0
.xword	.LC0
.xword	.LC0
.xword	.LC0
.xword	.LC0
.xword	.LC0
.xword	.LC0
.xword	.LC0
.xword	.LC0
.xword	.LC0
.xword	.LC0
.xword	.LC0
.xword	.LC0
.xword	.LC0
.xword	.LC0
.xword	.LC0
.xword	.LC0
.xword	.LC0
.xword	.LC0
.xword	.LC0
.xword	.LC0
.xword	.LC0
.xword	.LC0
.xword	.LC0
.xword	.LC0
.xword	.LC0
.xword	.LC0
.xword	.LC0
.xword	.LC0
.xword	.LC0
.xword	.LC0
.xword	.LC0
.xword	.LC0
.xword	.LC0
.xword	.LC0
.xword	.LC0
.xword	.LC0
.xword	.LC0
.xword	.LC0
.xword	.LC0
.xword	.LC0
.xword	.LC0
.xword	.LC0
.xword	.LC0
.xword	.LC0
.xword	.LC0
.xword	.LC0
.xword	.LC0
.xword	.LC0
.xword	.LC0
.xword	.LC0
.xword	.LC0
.xword	.LC0
.xword	.LC0
.xword	.LC0
.xword	.LC0
.xword	.LC0
.xword	.LC0
.xword	.LC0
.xword	.LC0
.xword	.LC0
.xword	.LC0
.xword	.LC0
.xword	.LC0
.xword	.LC0
.xword	.LC0
.xword	.LC0
.xword	.LC0
.xword	.LC0
.xword	.LC0
.xword	.LC0
.xword	.LC0
.xword	.LC0
.xword	.LC0
.xword	.LC0
.xword	.LC0
.xword	.LC0
.xword	.LC0
.xword	.LC0
.xword	.LC0
.xword	.LC0
.xword	.LC0
.xword	.LC0
.xword	.LC0
.xword	.LC0
.xword	.LC0
.xword	.LC0
.xword	.LC0
.xword	.LC0
.xword	.LC0
.xword	.LC0
.xword	.LC0
.xword	.LC0
.xword	.LC0
.xword	.LC0
.xword	.LC0
.xword	.LC0
.xword	.LC0
.xword	.LC0
.xword	.LC0
.xword	.LC0
.xword	.LC0
.xword	.LC0
.xword	.LC0
.xword	.LC0
.xword	.LC0
.xword	.LC0
.xword	.LC0
.xword	.LC0
.xword	.LC0
.xword	.LC0
.xword	.LC0
.xword	.LC0
.xword	.LC0
.xword	.LC0
.xword	.LC0
.xword	.LC0
.xword	.LC0
.xword	.LC0
.xword	.LC0
.xword	.LC0
.xword	.LC0
.xword	.LC0
.xword	.LC0
.xword	.LC0
.xword	.LC0
.xword	.LC0
.xword	.LC0
.xword	.LC0
.xword	.LC0
.xword	.LC0
.xword	.LC0
.xword	.LC0
.xword	.LC0
.xword	.LC0
.xword	.LC0
.xword	.LC0
.xword	.LC0
.xword	.LC0
.xword	.LC0
.xword	.LC0
.xword	.LC0
.xword	.LC0
.xword	.LC0
.xword	.LC0
.xword	.LC0
.xword	.LC0
.xword	.LC0
.xword	.LC0
.xword	.LC0
.xword	.LC0
.xword	.LC0
.xword	.LC0
.xword	.LC0
.xword	.LC0
.xword	.LC0
.xword	.LC0
.xword	.LC0
.xword	.LC0
.xword	.LC0
.xword	.LC0
.xword	.LC0
.xword	.LC0
.xword	.LC0
.xword	.LC0
.xword	.LC0
.xword	.LC0
.xword	.LC0
.xword	.LC0
.xword	.LC0
.xword	.LC0
.xword	.LC0
.xword	.LC0
.xword	.LC0
.xword	.LC0
.xword	.LC0
.xword	.LC0
.xword	.LC0
.xword	.LC0
.xword	.LC0
.xword	.LC0
.xword	.LC0
.xword	.LC0
.xword	.LC0
.xword	.LC0
.xword	.LC0
.xword	.LC0
.xword	.LC0
.xword	.LC0
.xword	.LC0
.xword	.LC0
.xword	.LC0
.xword	.LC0
.xword	.LC0
.xword	.LC0
.xword	.LC0
.xword	.LC0
.xword	.LC0
.xword	.LC0
.xword	.LC0
.xword	.LC0
.xword	.LC0
.xword	.LC0
.xword	.LC0
.xword	.LC0
.xword	.LC0
.xword	.LC0
.xword	.LC0
.xword	.LC0
.xword	.LC0
.xword	.LC0
.xword	.LC0
.xword	.LC0
.xword	.LC0
.xword	.LC0
.xword	.LC0
.xword	.LC0
.xword	.LC0
.xword	.LC0
.xword	.LC0
.xword	.LC0
.xword	.LC0
.xword	.LC0
.xword	.LC0
.xword	.LC0
.xword	.LC0
.xword	.LC0
.xword	.LC0
.xword	.LC0
.xword	.LC0
.xword	.LC0
.xword	.LC0
.xword	.LC0
.xword	.LC0
.xword	.LC0
.xword	.LC0
.xword	.LC0
.xword	.LC0
.xword	.LC0
.xword	.LC0
.xword	.LC0
.xword	.LC0
.xword	.LC0
.xword	.LC0
.xword	.LC0
.xword	.LC0
.xword	.LC0
.xword	.LC0
.xword	.LC0
.xword	.LC0
.xword	.LC0
.xword	.LC0
.xword	.LC0
.xword	.LC0
.xword	.LC0
.xword	.LC0
.xword	.LC0
.xword	.LC0
.xword	.LC0
.xword	.LC0
.xword	.LC0
.xword	.LC0
.xword	.LC0
.xword	.LC0
.xword	.LC0
.xword	.LC0
.xword	.LC0
.xword	.LC0
.xword	.LC0
.xword	.LC0
.xword	.LC0
.xword	.LC0
.xword	.LC0
.xword	.LC0
.xword	.LC0
.xword	.LC0
.xword	.LC0
.xword	.LC0
.xword	.LC0
.xword	.LC0
.xword	.LC0
.xword	.LC0
.xword	.LC0
.xword	.LC0
.xword	.LC0
.xword	.LC0
.xword	.LC0
.xword	.LC0
.xword	.LC0
.xword	.LC0
.xword	.LC0
.xword	.LC0
.xword	.LC0
.xword	.LC0
.xword	.LC0
.xword	.LC0
.xword	.LC0
.xword	.LC0
.xword	.LC0
.xword	.LC0
.xword	.LC0
.xword	.LC0
.xword	.LC0
.xword	.LC0
.xword	.LC0
.xword	.LC0
.xword	.LC0
.xword	.LC0
.xword	.LC0
.xword	.LC0
.xword	.LC0
.xword	.LC0
.xword	.LC0
.xword	.LC0
.xword	.LC0
.xword	.LC0
.xword	.LC0
.xword	.LC0
.xword	.LC0
.xword	.LC0
.xword	.LC0
.xword	.LC0
.xword	.LC0
.xword	.LC0
.xword	.LC0
.xword	.LC0
.xword	.LC0
.xword	.LC0
.xword	.LC0
.xword	.LC0
.xword	.LC0
.xword	.LC0
.xword	.LC0
.xword	.LC0
.xword	.LC0
.xword	.LC0
.xword	.LC0
.xword	.LC0
.xword	.LC0
.xword	.LC0
.xword	.LC0
.xword	.LC0
.xword	.LC0
.xword	.LC0
.xword	.LC0
.xword	.LC0
.xword	.LC0
.xword	.LC0
.xword	.LC0
.xword	.LC0
.xword	.LC0
.xword	.LC0
.xword	.LC0
.xword	.LC0
.xword	.LC0
.xword	.LC0
.xword	.LC0
.xword	.LC0
.xword	.LC0
.xword	.LC0
.xword	.LC0
.xword	.LC0
.xword	.LC0
.xword	.LC0
.xword	.LC0
.xword	.LC0
.xword	.LC0
.xword	.LC0
.xword	.LC0
.xword	.LC0
.xword	.LC0
.xword	.LC0
.xword	.LC0
.xword	.LC0
.xword	.LC0
.xword	.LC0
.xword	.LC0
.xword	.LC0
.xword	.LC0
.xword	.LC0
.xword	.LC0
.xword	.LC0
.xword	.LC0
.xword	.LC0
.xword	.LC0
.xword	.LC0
.xword	.LC0
.xword	.LC0
.xword	.LC0
.xword	.LC0
.xword	.LC0
.xword	.LC0
.xword	.LC0
.xword	.LC0
.xword	.LC0
.xword	.LC0
.xword	.LC0
.xword	.LC0
.xword	.LC0
.xword	.LC0
.xword	.LC0
.xword	.LC0
.xword	.LC0
.xword	.LC0
.xword	.LC0
.xword	.LC0
.xword	.LC0
.xword	.LC0
.xword	.LC0
.xword	.LC0
.xword	.LC0
.xword	.LC0
.xword	.LC0
.xword	.LC0
.xword	.LC0
.xword	.LC0
.xword	.LC0
.xword	.LC0
.xword	.LC0
.xword	.LC0
.xword	.LC0
.xword	.LC0
.xword	.LC0
.xword	.LC0
.xword	.LC0
.xword	.LC0
.xword	.LC0
.xword	.LC0
.xword	.LC0
.xword	.LC0
.xword	.LC0
.xword	.LC0
.xword	.LC0
.xword	.LC0
.xword	.LC0
.xword	.LC0
.xword	.LC0
.xword	.LC0
.xword	.LC0
.xword	.LC0
.xword	.LC0
.xword	.LC0
.xword	.LC0
.xword	.LC0
.xword	.LC0
.xword	.LC0
.xword	.LC0
.xword	.LC0
.xword	.LC0
.xword	.LC0
.xword	.LC0
.xword	.LC0
.xword	.LC0
.xword	.LC0
.xword	.LC0
.xword	.LC0
.xword	.LC0
.xword	.LC0
.xword	.LC0
.xword	.LC0
.xword	.LC0
.xword	.LC0
.xword	.LC0
.xword	.LC0
.xword	.LC0
.xword	.LC0
.xword	.LC0
.xword	.LC0
.xword	.LC0
.xword	.LC0
.xword	.LC0
.xword	.LC0
.xword	.LC0
.xword	.LC0
.xword	.LC0
.xword	.LC0
.xword	.LC0
.xword	.LC0
.xword	.LC0
.xword	.LC0
.xword	.LC0
.xword	.LC0
.xword	.LC0
.xword	.LC0
.xword	.LC0
.xword	.LC0
.xword	.LC0
.xword	.LC0
.xword	.LC0
.xword	.LC0
.xword	.LC0
.xword	.LC0
.xword	.LC0
.xword	.LC0
.xword	.LC0
.xword	.LC0
.xword	.LC0
.xword	.LC0
.xword	.LC0
.xword	.LC0
.xword	.LC0
.xword	.LC0
.xword	.LC0
.xword	.LC0
.xword	.LC0
.xword	.LC0
.xword	.LC0
.xword	.LC0
.xword	.LC0
.xword	.LC0
.xword	.LC0
.xword	.LC0
.xword	.LC0
.xword	.LC0
.xword	.LC0
.xword	.LC0
.xword	.LC0
.xword	.LC0
.xword	.LC0
.xword	.LC0
.xword	.LC0
.xword	.LC0
.xword	.LC0
.xword	.LC0
.xword	.LC0
.xword	.LC0
.xword	.LC0
.xword	.LC0
.xword	.LC0
.xword	.LC0
.xword	.LC0
.xword	.LC0
.xword	.LC0
.xword	.LC0
.xword	.LC0
.xword	.LC0
.xword	.LC0
.xword	.LC0
.xword	.LC0
.xword	.LC0
.xword	.LC0
.xword	.LC0
.xword	.LC0
.xword	.LC0
.xword	.LC0
.xword	.LC0
.xword	.LC0
.xword	.LC0
.xword	.LC0
.xword	.LC0
.xword	.LC0
.xword	.LC0
.xword	.LC0
.xword	.LC0
.xword	.LC0
.xword	.LC0
.xword	.LC0
.xword	.LC0
.xword	.LC0
.xword	.LC0
.xword	.LC0
.xword	.LC0
.xword	.LC0
.xword	.LC0
.xword	.LC0
.xword	.LC0
.xword	.LC0
.xword	.LC0
.xword	.LC0
.xword	.LC0
.xword	.LC0
.xword	.LC0
.xword	.LC0
.xword	.LC0
.xword	.LC0
.xword	.LC0
.xword	.LC0
.xword	.LC0
.xword	.LC0
.xword	.LC0
.xword	.LC0
.xword	.LC0
.xword	.LC0
.xword	.LC0
.xword	.LC0
.xword	.LC0
.xword	.LC0
.xword	.LC0
.xword	.LC0
.xword	.LC0
.xword	.LC0
.xword	.LC0
.xword	.LC0
.xword	.LC0
.xword	.LC0
.xword	.LC0
.xword	.LC0
.xword	.LC0
.xword	.LC0
.xword	.LC0
.xword	.LC0
.xword	.LC0
.xword	.LC0
.xword	.LC0
.xword	.LC0
.xword	.LC0
.xword	.LC0
.xword	.LC0
.xword	.LC0
.xword	.LC0
.xword	.LC0
.xword	.LC0
.xword	.LC0
.xword	.LC0
.xword	.LC0
.xword	.LC0
.xword	.LC0
.xword	.LC0
.xword	.LC0
.xword	.LC0
.xword	.LC0
.xword	.LC0
.xword	.LC0
.xword	.LC0
.xword	.LC0
.xword	.LC0
.xword	.LC0
.xword	.LC0
.xword	.LC0
.xword	.LC0
.xword	.LC0
.xword	.LC0
.xword	.LC0
.xword	.LC0
.xword	.LC0
.xword	.LC0
.xword	.LC0
.xword	.LC0
.xword	.LC0
.xword	.LC0
.xword	.LC0
.xword	.LC0
.xword	.LC0
.xword	.LC0
.xword	.LC0
.xword	.LC0
.xword	.LC0
.xword	.LC0
.xword	.LC0
.xword	.LC0
.xword	.LC0
.xword	.LC0
.xword	.LC0
.xword	.LC0
.xword	.LC0
.xword	.LC0
.xword	.LC0
.xword	.LC0
.xword	.LC0
.xword	.LC0
.xword	.LC0
.xword	.LC0
.xword	.LC0
.xword	.LC0
.xword	.LC0
.xword	.LC0
.xword	.LC0
.xword	.LC0
.xword	.LC0
.xword	.LC0
.xword	.LC0
.xword	.LC0
.xword	.LC0
.xword	.LC0
.xword	.LC0
.xword	.LC0
.xword	.LC0
.xword	.LC0
.xword	.LC0
.xword	.LC0
.xword	.LC0
.xword	.LC0
.xword	.LC0
.xword	.LC0
.xword	.LC0
.xword	.LC0
.xword	.LC0
.xword	.LC0
.xword	.LC0
.xword	.LC0
.xword	.LC0
.xword	.LC0
.xword	.LC0
.xword	.LC0
.xword	.LC0
.xword	.LC0
.xword	.LC0
.xword	.LC0
.xword	.LC0
.xword	.LC0
.xword	.LC0
.xword	.LC0
.xword	.LC0
.xword	.LC0
.xword	.LC0
.xword	.LC0
.xword	.LC0
.xword	.LC0
.xword	.LC0
.xword	.LC0
.xword	.LC0
.xword	.LC0
.xword	.LC0
.xword	.LC0
.xword	.LC0
.xword	.LC0
.xword	.LC0
.xword	.LC0
.xword	.LC0
.xword	.LC0
.xword	.LC0
.xword	.LC0
.xword	.LC0
.xword	.LC0
.xword	.LC0
.xword	.LC0
.xword	.LC0
.xword	.LC0
.xword	.LC0
.xword	.LC0
.xword	.LC0
.xword	.LC0
.xword	.LC0
.xword	.LC0
.xword	.LC0
.xword	.LC0
.xword	.LC0
.xword	.LC0
.xword	.LC0
.xword	.LC0
.xword	.LC0
.xword	.LC0
.xword	.LC0
.xword	.LC0
.xword	.LC0
.xword	.LC0
.xword	.LC0
.xword	.LC0
.xword	.LC0
.xword	.LC0
.xword	.LC0
.xword	.LC0
.xword	.LC0
.xword	.LC0
.xword	.LC0
.xword	.LC0
.xword	.LC0
.xword	.LC0
.xword	.LC0
.xword	.LC0
.xword	.LC0
.xword	.LC0
.xword	.LC0
.xword	.LC0
.xword	.LC0
.xword	.LC0
.xword	.LC0
.xword	.LC0
.xword	.LC0
.xword	.LC0
.xword	.LC0
.xword	.LC0
.xword	.LC0
.xword	.LC0
.xword	.LC0
.xword	.LC0
.xword	.LC0
.xword	.LC0
.xword	.LC0
.xword	.LC0
.xword	.LC0
.xword	.LC0
.xword	.LC0
.xword	.LC0
.xword	.LC0
.xword	.LC0
.xword	.LC0
.xword	.LC0
.xword	.LC0
.xword	.LC0
.xword	.LC0
.xword	.LC0
.xword	.LC0
.xword	.LC0
.xword	.LC0
.xword	.LC0
.xword	.LC0
.xword	.LC0
.xword	.LC0
.xword	.LC0
.xword	.LC0
.xword	.LC0
.xword	.LC0
.xword	.LC0
.xword	.LC0
.xword	.LC0
.xword	.LC0
.xword	.LC0
.xword	.LC0
.xword	.LC0
.xword	.LC0
.xword	.LC0
.xword	.LC0
.xword	.LC0
.xword	.LC0
.xword	.LC0
.xword	.LC0
.xword	.LC0
.xword	.LC0
.xword	.LC0
.xword	.LC0
.xword	.LC0
.xword	.LC0
.xword	.LC0
.xword	.LC0
.xword	.LC0
.xword	.LC0
.xword	.LC0
.xword	.LC0
.xword	.LC0
.xword	.LC0
.xword	.LC0
.xword	.LC0
.xword	.LC0
.xword	.LC0
.xword	.LC0
.xword	.LC0
.xword	.LC0
.xword	.LC0
.xword	.LC0
.xword	.LC0
.xword	.LC0
.xword	.LC0
.xword	.LC0
.xword	.LC0
.xword	.LC0
.xword	.LC0
.xword	.LC0
.xword	.LC0
.xword	.LC0
.xword	.LC0
.xword	.LC0
.xword	.LC0
.xword	.LC0
.xword	.LC0
.xword	.LC0
.xword	.LC0
.xword	.LC0
.xword	.LC0
.xword	.LC0
.xword	.LC0
.xword	.LC0
.xword	.LC0
.xword	.LC0
.xword	.LC0
.xword	.LC0
.xword	.LC0
.xword	.LC0
.xword	.LC0
.xword	.LC0
.xword	.LC0
.xword	.LC0
.xword	.LC0
.xword	.LC0
.xword	.LC0
.xword	.LC0
.xword	.LC0
.xword	.LC0
.xword	.LC0
.xword	.LC0
.xword	.LC0
.xword	.LC0
.xword	.LC0
.xword	.LC0
.xword	.LC0
.xword	.LC0
.xword	.LC0
.xword	.LC0
.xword	.LC0
.xword	.LC0
.xword	.LC0
.xword	.LC0
.xword	.LC0
.xword	.LC0
.xword	.LC0
.xword	.LC0
.xword	.LC0
.xword	.LC0
.xword	.LC0
.xword	.LC0
.xword	.LC0
.xword	.LC0
.xword	.LC0
.xword	.LC0
.xword	.LC0
.xword	.LC0
.xword	.LC0
.xword	.LC0
.xword	.LC0
.xword	.LC0
.xword	.LC0
.xword	.LC0
.xword	.LC0
.xword	.LC0
.xword	.LC0
.xword	.LC0
.xword	.LC0
.xword	.LC0
.xword	.LC0
.xword	.LC0
.xword	.LC0
.xword	.LC0
.xword	.LC0
.xword	.LC0
.xword	.LC0
.xword	.LC0
.xword	.LC0
.xword	.LC0
.xword	.LC0
.xword	.LC0
.xword	.LC0
.xword	.LC0
.xword	.LC0
.xword	.LC0
.xword	.LC0
.xword	.LC0
.xword	.LC0
.xword	.LC0
.xword	.LC0
.xword	.LC0
.xword	.LC0
.xword	.LC0
.xword	.LC0
.xword	.LC0
.xword	.LC0
.xword	.LC0
.xword	.LC0
.xword	.LC0
.xword	.LC0
.xword	.LC0
.xword	.LC0
.xword	.LC0
.xword	.LC0
.xword	.LC0
.xword	.LC0
.xword	.LC0
.xword	.LC0
.xword	.LC0
.xword	.LC0
.xword	.LC0
.xword	.LC0
.xword	.LC0
.xword	.LC0
.xword	.LC0
.xword	.LC0
.xword	.LC0
.xword	.LC0
.xword	.LC0
.xword	.LC0
.xword	.LC0
.xword	.LC0
.xword	.LC0
.xword	.LC0
.xword	.LC0
.xword	.LC0
.xword	.LC0
.xword	.LC0
.xword	.LC0
.xword	.LC0
.xword	.LC0
.xword	.LC0
.xword	.LC0
.xword	.LC0
.xword	.LC0
.xword	.LC0
.xword	.LC0
.xword	.LC0
.xword	.LC0
.xword	.LC0
.xword	.LC0
.xword	.LC0
.xword	.LC0
.xword	.LC0
.xword	.LC0
.xword	.LC0
.xword	.LC0
.xword	.LC0
.xword	.LC0
.xword	.LC0
.xword	.LC0
.xword	.LC0
.xword	.LC0
.xword	.LC0
.xword	.LC0
.xword	.LC0
.xword	.LC0
.xword	.LC0
.xword	.LC0
.xword	.LC0
.xword	.LC0
.xword	.LC0
.xword	.LC0
.xword	.LC0
.xword	.LC0
.xword	.LC0
.xword	.LC0
.xword	.LC0
.xword	.LC0
.xword	.LC0
.xword	.LC0
.xword	.LC0
.xword	.LC0
.xword	.LC0
.xword	.LC0
.xword	.LC0
.xword	.LC0
.xword	.LC0
.xword	.LC0
.xword	.LC0
.xword	.LC0
.xword	.LC0
.xword	.LC0
.xword	.LC0
.xword	.LC0
.xword	.LC0
.xword	.LC0
.xword	.LC0
.xword	.LC0
.xword	.LC0
.xword	.LC0
.xword	.LC0
.xword	.LC0
.xword	.LC0
.xword	.LC0
.xword	.LC0
.xword	.LC0
.xword	.LC0
.xword	.LC0
.xword	.LC0
.xword	.LC0
.xword	.LC0
.xword	.LC0
.xword	.LC0
.xword	.LC0
.xword	.LC0
.xword	.LC0
.xword	.LC0
.xword	.LC0
.xword	.LC0
.xword	.LC0
.xword	.LC0
.xword	.LC0
.xword	.LC0
.xword	.LC0
.xword	.LC0
.xword	.LC0
.xword	.LC0
.xword	.LC0
.xword	.LC0
.xword	.LC0
.xword	.LC0
.xword	.LC0
.xword	.LC0
.xword	.LC0
.xword	.LC0
.xword	.LC0
.xword	.LC0
.xword	.LC0
.xword	.LC0
.xword	.LC0
.xword	.LC0
.xword	.LC0
.xword	.LC0
.xword	.LC0
.xword	.LC0
.xword	.LC0
.xword	.LC0
.xword	.LC0
.xword	.LC0
.xword	.LC0
.xword	.LC0
.xword	.LC0
.xword	.LC0
.xword	.LC0
.xword	.LC0
.xword	.LC0
.xword	.LC0
.xword	.LC0
.xword	.LC0
.xword	.LC0
.xword	.LC0
.xword	.LC0
.xword	.LC0
.xword	.LC0
.xword	.LC0
.xword	.LC0
.xword	.LC0
.xword	.LC0
.xword	.LC0
.xword	.LC0
.xword	.LC0
.xword	.LC0
.xword	.LC0
.xword	.LC0
.xword	.LC0
.xword	.LC0
.xword	.LC0
.xword	.LC0
.xword	.LC0
.xword	.LC0
.xword	.LC0
.xword	.LC0
.xword	.LC0
.xword	.LC0
.xword	.LC0
.xword	.LC0
.xword	.LC0
.xword	.LC0
.xword	.LC0
.xword	.LC0
.xword	.LC0
.xword	.LC0
.xword	.LC0
.xword	.LC0
.xword	.LC0
.xword	.LC0
.xword	.LC0
.xword	.LC0
.xword	.LC0
.xword	.LC0
.xword	.LC0
.xword	.LC0
.xword	.LC0
.xword	.LC0
.xword	.LC0
.xword	.LC0
.xword	.LC0
.xword	.LC0
.xword	.LC0
.xword	.LC0
.xword	.LC0
.xword	.LC0
.xword	.LC0
.xword	.LC0
.xword	.LC0
.xword	.LC0
.xword	.LC0
.xword	.LC0
.xword	.LC0
.xword	.LC0
.xword	.LC0
.xword	.LC0
.xword	.LC0
.xword	.LC0
.xword	.LC0
.xword	.LC0
.xword	.LC0
.xword	.LC0
.xword	.LC0
.xword	.LC0
.xword	.LC0
.xword	.LC0
.xword	.LC0
.xword	.LC0
.xword	.LC0
.xword	.LC0
.xword	.LC0
.xword	.LC0
.xword	.LC0
.xword	.LC0
.xword	.LC0
.xword	.LC0
.xword	.LC0
.xword	.LC0
.xword	.LC0
.xword	.LC0
.xword	.LC0
.xword	.LC0
.xword	.LC0
.xword	.LC0
.xword	.LC0
.xword	.LC0
.xword	.LC0
.xword	.LC0
.xword	.LC0
.xword	.LC0
.xword	.LC0
.xword	.LC0
.xword	.LC0
.xword	.LC0
.xword	.LC0
.xword	.LC0
.xword	.LC0
.xword	.LC0
.xword	.LC0
.xword	.LC0
.xword	.LC0
.xword	.LC0
.xword	.LC0
.xword	.LC0
.xword	.LC0
.xword	.LC0
.xword	.LC0
.xword	.LC0
.xword	.LC0
.xword	.LC0
.xword	.LC0
.xword	.LC0
.xword	.LC0
.xword	.LC0
.xword	.LC0
.xword	.LC0
.xword	.LC0
.xword	.LC0
.xword	.LC0
.xword	.LC0
.xword	.LC0
.xword	.LC0
.xword	.LC0
.xword	.LC0
.xword	.LC0
.xword	.LC0
.xword	.LC0
.xword	.LC0
.xword	.LC0
.xword	.LC0
.xword	.LC0
.xword	.LC0
.xword	.LC0
.xword	.LC0
.xword	.LC0
.xword	.LC0
.xword	.LC0
.xword	.LC0
.xword	.LC0
.xword	.LC0
.xword	.LC0
.xword	.LC0
.xword	.LC0
.xword	.LC0
.xword	.LC0
.xword	.LC0
.xword	.LC0
.xword	.LC0
.xword	.LC0
.xword	.LC0
.xword	.LC0
.xword	.LC0
.xword	.LC0
.xword	.LC0
.xword	.LC0
.xword	.LC0
.xword	.LC0
.xword	.LC0
.xword	.LC0
.xword	.LC0
.xword	.LC0
.xword	.LC0
.xword	.LC0
.xword	.LC0
.xword	.LC0
.xword	.LC0
.xword	.LC0
.xword	.LC0
.xword	.LC0
.xword	.LC0
.xword	.LC0
.xword	.LC0
.xword	.LC0
.xword	.LC0
.xword	.LC0
.xword	.LC0
.xword	.LC0
.xword	.LC0
.xword	.LC0
.xword	.LC0
.xword	.LC0
.xword	.LC0
.xword	.LC0
.xword	.LC0
.xword	.LC0
.xword	.LC0
.xword	.LC0
.xword	.LC0
.xword	.LC0
.xword	.LC0
.xword	.LC0
.xword	.LC0
.xword	.LC0
.xword	.LC0
.xword	.LC0
.xword	.LC0
.xword	.LC0
.xword	.LC0
.xword	.LC0
.xword	.LC0
.xword	.LC0
.xword	.LC0
.xword	.LC0
.xword	.LC0
.xword	.LC0
.xword	.LC0
.xword	.LC0
.xword	.LC0
.xword	.LC0
.xword	.LC0
.xword	.LC0
.xword	.LC0
.xword	.LC0
.xword	.LC0
.xword	.LC0
.xword	.LC0
.xword	.LC0
.xword	.LC0
.xword	.LC0
.xword	.LC0
.xword	.LC0
.xword	.LC0
.xword	.LC0
.xword	.LC0
.xword	.LC0
.xword	.LC0
.xword	.LC0
.xword	.LC0
.xword	.LC0
.xword	.LC0
.xword	.LC0
.xword	.LC0
.xword	.LC0
.xword	.LC0
.xword	.LC0
.xword	.LC0
.xword	.LC0
.xword	.LC0
.xword	.LC0
.xword	.LC0
.xword	.LC0
.xword	.LC0
.xword	.LC0
.xword	.LC0
.xword	.LC0
.xword	.LC0
.xword	.LC0
.xword	.LC0
.xword	.LC0
.xword	.LC0
.xword	.LC0
.xword	.LC0
.xword	.LC0
.xword	.LC0
.xword	.LC0
.xword	.LC0
.xword	.LC0
.xword	.LC0
.xword	.LC0
.xword	.LC0
.xword	.LC0
.xword	.LC0
.xword	.LC0
.xword	.LC0
.xword	.LC0
.xword	.LC0
.xword	.LC0
.xword	.LC0
.xword	.LC0
.xword	.LC0
.xword	.LC0
.xword	.LC0
.xword	.LC0
.xword	.LC0
.xword	.LC0
.xword	.LC0
.xword	.LC0
.xword	.LC0
.xword	.LC0
.xword	.LC0
.xword	.LC0
.xword	.LC0
.xword	.LC0
.xword	.LC0
.xword	.LC0
.xword	.LC0
.xword	.LC0
.xword	.LC0
.xword	.LC0
.xword	.LC0
.xword	.LC0
.xword	.LC0
.xword	.LC0
.xword	.LC0
.xword	.LC0
.xword	.LC0
.xword	.LC0
.xword	.LC0
.xword	.LC0
.xword	.LC0
.xword	.LC0
.xword	.LC0
.xword	.LC0
.xword	.LC0
.xword	.LC0
.xword	.LC0
.xword	.LC0
.xword	.LC0
.xword	.LC0
.xword	.LC0
.xword	.LC0
.xword	.LC0
.xword	.LC0
.xword	.LC0
.xword	.LC0
.xword	.LC0
.xword	.LC0
.xword	.LC0
.xword	.LC0
.xword	.LC0
.xword	.LC0
.xword	.LC0
.xword	.LC0
.xword	.LC0
.xword	.LC0
.xword	.LC0
.xword	.LC0
.xword	.LC0
.xword	.LC0
.xword	.LC0
.xword	.LC0
.xword	.LC0
.xword	.LC0
.xword	.LC0
.xword	.LC0
.xword	.LC0
.xword	.LC0
.xword	.LC0
.xword	.LC0
.xword	.LC0
.xword	.LC0
.xword	.LC0
.xword	.LC0
.xword	.LC0
.xword	.LC0
.xword	.LC0
.xword	.LC0
.xword	.LC0
.xword	.LC0
.xword	.LC0
.xword	.LC0
.xword	.LC0
.xword	.LC0
.xword	.LC0
.xword	.LC0
.xword	.LC0
.xword	.LC0
.xword	.LC0
.xword	.LC0
.xword	.LC0
.xword	.LC0
.xword	.LC0
.xword	.LC0
.xword	.LC0
.xword	.LC0
.xword	.LC0
.xword	.LC0
.xword	.LC0
.xword	.LC0
.xword	.LC0
.xword	.LC0
.xword	.LC0
.xword	.LC0
.xword	.LC0
.xword	.LC0
.xword	.LC0
.xword	.LC0
.xword	.LC0
.xword	.LC0
.xword	.LC0
.xword	.LC0
.xword	.LC0
.xword	.LC0
.xword	.LC0
.xword	.LC0
.xword	.LC0
.xword	.LC0
.xword	.LC0
.xword	.LC0
.xword	.LC0
.xword	.LC0
.xword	.LC0
.xword	.LC0
.xword	.LC0
.xword	.LC0
.xword	.LC0
.xword	.LC0
.xword	.LC0
.xword	.LC0
.xword	.LC0
.xword	.LC0
.xword	.LC0
.xword	.LC0
.xword	.LC0
.xword	.LC0
.xword	.LC0
.xword	.LC0
.xword	.LC0
.xword	.LC0
.xword	.LC0
.xword	.LC0
.xword	.LC0
.xword	.LC0
.xword	.LC0
.xword	.LC0
.xword	.LC0
.xword	.LC0
.xword	.LC0
.xword	.LC0
.xword	.LC0
.xword	.LC0
.xword	.LC0
.xword	.LC0
.xword	.LC0
.xword	.LC0
.xword	.LC0
.xword	.LC0
.xword	.LC0
.xword	.LC0
.xword	.LC0
.xword	.LC0
.xword	.LC0
.xword	.LC0
.xword	.LC0
.xword	.LC0
.xword	.LC0
.xword	.LC0
.xword	.LC0
.xword	.LC0
.xword	.LC0
.xword	.LC0
.xword	.LC0
.xword	.LC0
.xword	.LC0
.xword	.LC0
.xword	.LC0
.xword	.LC0
.xword	.LC0
.xword	.LC0
.xword	.LC0
.xword	.LC0
.xword	.LC0
.xword	.LC0
.xword	.LC0
.xword	.LC0
.xword	.LC0
.xword	.LC0
.xword	.LC0
.xword	.LC0
.xword	.LC0
.xword	.LC0
.xword	.LC0
.xword	.LC0
.xword	.LC0
.xword	.LC0
.xword	.LC0
.xword	.LC0
.xword	.LC0
.xword	.LC0
.xword	.LC0
.xword	.LC0
.xword	.LC0
.xword	.LC0
.xword	.LC0
.xword	.LC0
.xword	.LC0
.xword	.LC0
.xword	.LC0
.xword	.LC0
.xword	.LC0
.xword	.LC0
.xword	.LC0
.xword	.LC0
.xword	.LC0
.xword	.LC0
.xword	.LC0
.xword	.LC0
.xword	.LC0
.xword	.LC0
.xword	.LC0
.xword	.LC0
.xword	.LC0
.xword	.LC0
.xword	.LC0
.xword	.LC0
.xword	.LC0
.xword	.LC0
.xword	.LC0
.xword	.LC0
.xword	.LC0
.xword	.LC0
.xword	.LC0
.xword	.LC0
.xword	.LC0
.xword	.LC0
.xword	.LC0
.xword	.LC0
.xword	.LC0
.xword	.LC0
.xword	.LC0
.xword	.LC0
.xword	.LC0
.xword	.LC0
.xword	.LC0
.xword	.LC0
.xword	.LC0
.xword	.LC0
.xword	.LC0
.xword	.LC0
.xword	.LC0
.xword	.LC0
.xword	.LC0
.xword	.LC0
.xword	.LC0
.xword	.LC0
.xword	.LC0
.xword	.LC0
.xword	.LC0
.xword	.LC0
.xword	.LC0
.xword	.LC0
.xword	.LC0
.xword	.LC0
.xword	.LC0
.xword	.LC0
.xword	.LC0
.xword	.LC0
.xword	.LC0
.xword	.LC0
.xword	.LC0
.xword	.LC0
.xword	.LC0
.xword	.LC0
.xword	.LC0
.xword	.LC0
.xword	.LC0
.xword	.LC0
.xword	.LC0
.xword	.LC0
.xword	.LC0
.xword	.LC0
.xword	.LC0
.xword	.LC0
.xword	.LC0
.xword	.LC0
.xword	.LC0
.xword	.LC0
.xword	.LC0
.xword	.LC0
.xword	.LC0
.xword	.LC0
.xword	.LC0
.xword	.LC0
.xword	.LC0
.xword	.LC0
.xword	.LC0
.xword	.LC0
.xword	.LC0
.xword	.LC0
.xword	.LC0
.xword	.LC0
.xword	.LC0
.xword	.LC0
.xword	.LC0
.xword	.LC0
.xword	.LC0
.xword	.LC0
.xword	.LC0
.xword	.LC0
.xword	.LC0
.xword	.LC0
.xword	.LC0
.xword	.LC0
.xword	.LC0
.xword	.LC0
.xword	.LC0
.xword	.LC0
.xword	.LC0
.xword	.LC0
.xword	.LC0
.xword	.LC0
.xword	.LC0
.xword	.LC0
.xword	.LC0
.xword	.LC0
.xword	.LC0
.xword	.LC0
.xword	.LC0
.xword	.LC0
.xword	.LC0
.xword	.LC0
.xword	.LC0
.xword	.LC0
.xword	.LC0
.xword	.LC0
.xword	.LC0
.xword	.LC0
.xword	.LC0
.xword	.LC0
.xword	.LC0
.xword	.LC0
.xword	.LC0
.xword	.LC0
.xword	.LC0
.xword	.LC0
.xword	.LC0
.xword	.LC0
.xword	.LC0
.xword	.LC0
.xword	.LC0
.xword	.LC0
.xword	.LC0
.xword	.LC0
.xword	.LC0
.xword	.LC0
.xword	.LC0
.xword	.LC0
.xword	.LC0
.xword	.LC0
.xword	.LC0
.xword	.LC0
.xword	.LC0
.xword	.LC0
.xword	.LC0
.xword	.LC0
.xword	.LC0
.xword	.LC0
.xword	.LC0
.xword	.LC0
.xword	.LC0
.xword	.LC0
.xword	.LC0
.xword	.LC0
.xword	.LC0
.xword	.LC0
.xword	.LC0
.xword	.LC0
.xword	.LC0
.xword	.LC0
.xword	.LC0
.xword	.LC0
.xword	.LC0
.xword	.LC0
.xword	.LC0
.xword	.LC0
.xword	.LC0
.xword	.LC0
.xword	.LC0
.xword	.LC0
.xword	.LC0
.xword	.LC0
.xword	.LC0
.xword	.LC0
.xword	.LC0
.xword	.LC0
.xword	.LC0
.xword	.LC0
.xword	.LC0
.xword	.LC0
.xword	.LC0
.xword	.LC0
.xword	.LC0
.xword	.LC0
.xword	.LC0
.xword	.LC0
.xword	.LC0
.xword	.LC0
.xword	.LC0
.xword	.LC0
.xword	.LC0
.xword	.LC0
.xword	.LC0
.xword	.LC0
.xword	.LC0
.xword	.LC0
.xword	.LC0
.xword	.LC0
.xword	.LC0
.xword	.LC0
.xword	.LC0
.xword	.LC0
.xword	.LC0
.xword	.LC0
.xword	.LC0
.xword	.LC0
.xword	.LC0
.xword	.LC0
.xword	.LC0
.xword	.LC0
.xword	.LC0
.xword	.LC0
.xword	.LC0
.xword	.LC0
.xword	.LC0
.xword	.LC0
.xword	.LC0
.xword	.LC0
.xword	.LC0
.xword	.LC0
.xword	.LC0
.xword	.LC0
.xword	.LC0
.xword	.LC0
.xword	.LC0
.xword	.LC0
.xword	.LC0
.xword	.LC0
.xword	.LC0
.xword	.LC0
.xword	.LC0
.xword	.LC0
.xword	.LC0
.xword	.LC0
.xword	.LC0
.xword	.LC0
.xword	.LC0
.xword	.LC0
.xword	.LC0
.xword	.LC0
.xword	.LC0
.xword	.LC0
.xword	.LC0
.xword	.LC0
.xword	.LC0
.xword	.LC0
.xword	.LC0
.xword	.LC0
.xword	.LC0
.xword	.LC0
.xword	.LC0
.xword	.LC0
.xword	.LC0
.xword	.LC0
.xword	.LC0
.xword	.LC0
.xword	.LC0
.xword	.LC0
.xword	.LC0
.xword	.LC0
.xword	.LC0
.xword	.LC0
.xword	.LC0
.xword	.LC0
.xword	.LC0
.xword	.LC0
.xword	.LC0
.xword	.LC0
.xword	.LC0
.xword	.LC0
.xword	.LC0
.xword	.LC0
.xword	.LC0
.xword	.LC0
.xword	.LC0
.xword	.LC0
.xword	.LC0
.xword	.LC0
.xword	.LC0
.xword	.LC0
.xword	.LC0
.xword	.LC0
.xword	.LC0
.xword	.LC0
.xword	.LC0
.xword	.LC0
.xword	.LC0
.xword	.LC0
.xword	.LC0
.xword	.LC0
.xword	.LC0
.xword	.LC0
.xword	.LC0
.xword	.LC0
.xword	.LC0
.xword	.LC0
.xword	.LC0
.xword	.LC0
.xword	.LC0
.xword	.LC0
.xword	.LC0
.xword	.LC0
.xword	.LC0
.xword	.LC0
.xword	.LC0
.xword	.LC0
.xword	.LC0
.xword	.LC0
.xword	.LC0
.xword	.LC0
.xword	.LC0
.xword	.LC0
.xword	.LC0
.xword	.LC0
.xword	.LC0
.xword	.LC0
.xword	.LC0
.xword	.LC0
.xword	.LC0
.xword	.LC0
.xword	.LC0
.xword	.LC0
.xword	.LC0
.xword	.LC0
.xword	.LC0
.xword	.LC0
.xword	.LC0
.xword	.LC0
.xword	.LC0
.xword	.LC0
.xword	.LC0
.xword	.LC0
.xword	.LC0
.xword	.LC0
.xword	.LC0
.xword	.LC0
.xword	.LC0
.xword	.LC0
.xword	.LC0
.xword	.LC0
.xword	.LC0
.xword	.LC0
.xword	.LC0
.xword	.LC0
.xword	.LC0
.xword	.LC0
.xword	.LC0
.xword	.LC0
.xword	.LC0
.xword	.LC0
.xword	.LC0
.xword	.LC0
.xword	.LC0
.xword	.LC0
.xword	.LC0
.xword	.LC0
.xword	.LC0
.xword	.LC0
.xword	.LC0
.xword	.LC0
.xword	.LC0
.xword	.LC0
.xword	.LC0
.xword	.LC0
.xword	.LC0
.xword	.LC0
.xword	.LC0
.xword	.LC0
.xword	.LC0
.xword	.LC0
.xword	.LC0
.xword	.LC0
.xword	.LC0
.xword	.LC0
.xword	.LC0
.xword	.LC0
.xword	.LC0
.xword	.LC0
.xword	.LC0
.xword	.LC0
.xword	.LC0
.xword	.LC0
.xword	.LC0
.xword	.LC0
.xword	.LC0
.xword	.LC0
.xword	.LC0
.xword	.LC0
.xword	.LC0
.xword	.LC0
.xword	.LC0
.xword	.LC0
.xword	.LC0
.xword	.LC0
.xword	.LC0
.xword	.LC0
.xword	.LC0
.xword	.LC0
.xword	.LC0
.xword	.LC0
.xword	.LC0
.xword	.LC0
.xword	.LC0
.xword	.LC0
.xword	.LC0
.xword	.LC0
.xword	.LC0
.xword	.LC0
.xword	.LC0
.xword	.LC0
.xword	.LC0
.xword	.LC0
.xword	.LC0
.xword	.LC0
.xword	.LC0
.xword	.LC0
.xword	.LC0
.xword	.LC0
.xword	.LC0
.xword	.LC0
.xword	.LC0
.xword	.LC0
.xword	.LC0
.xword	.LC0
.xword	.LC0
.xword	.LC0
.xword	.LC0
.xword	.LC0
.xword	.LC0
.xword	.LC0
.xword	.LC0
.xword	.LC0
.xword	.LC0
.xword	.LC0
.xword	.LC0
.xword	.LC0
.xword	.LC0
.xword	.LC0
.xword	.LC0
.xword	.LC0
.xword	.LC0
.xword	.LC0
.xword	.LC0
.xword	.LC0
.xword	.LC0
.xword	.LC0
.xword	.LC0
.xword	.LC0
.xword	.LC0
.xword	.LC0
.xword	.LC0
.xword	.LC0
.xword	.LC0
.xword	.LC0
.xword	.LC0
.xword	.LC0
.xword	.LC0
.xword	.LC0
.xword	.LC0
.xword	.LC0
.xword	.LC0
.xword	.LC0
.xword	.LC0
.xword	.LC0
.xword	.LC0
.xword	.LC0
.xword	.LC0
.xword	.LC0
.xword	.LC0
.xword	.LC0
.xword	.LC0
.xword	.LC0
.xword	.LC0
.xword	.LC0
.xword	.LC0
.xword	.LC0
.xword	.LC0
.xword	.LC0
.xword	.LC0
.xword	.LC0
.xword	.LC0
.xword	.LC0
.xword	.LC0
.xword	.LC0
.xword	.LC0
.xword	.LC0
.xword	.LC0
.xword	.LC0
.xword	.LC0
.xword	.LC0
.xword	.LC0
.xword	.LC0
.xword	.LC0
.xword	.LC0
.xword	.LC0
.xword	.LC0
.xword	.LC0
.xword	.LC0
.xword	.LC0
.xword	.LC0
.xword	.LC0
.xword	.LC0
.xword	.LC0
.xword	.LC0
.xword	.LC0
.xword	.LC0
.xword	.LC0
.xword	.LC0
.xword	.LC0
.xword	.LC0
.xword	.LC0
.xword	.LC0
.xword	.LC0
.xword	.LC0
.xword	.LC0
.xword	.LC0
.xword	.LC0
.xword	.LC0
.xword	.LC0
.xword	.LC0
.xword	.LC0
.xword	.LC0
.xword	.LC0
.xword	.LC0
.xword	.LC0
.xword	.LC0
.xword	.LC0
.xword	.LC0
.xword	.LC0
.xword	.LC0
.xword	.LC0
.xword	.LC0
.xword	.LC0
.xword	.LC0
.xword	.LC0
.xword	.LC0
.xword	.LC0
.xword	.LC0
.xword	.LC0
.xword	.LC0
.xword	.LC0
.xword	.LC0
.xword	.LC0
.xword	.LC0
.xword	.LC0
.xword	.LC0
.xword	.LC0
.xword	.LC0
.xword	.LC0
.xword	.LC0
.xword	.LC0
.xword	.LC0
.xword	.LC0
.xword	.LC0
.xword	.LC0
.xword	.LC0
.xword	.LC0
.xword	.LC0
.xword	.LC0
.xword	.LC0
.xword	.LC0
.xword	.LC0
.xword	.LC0
.xword	.LC0
.xword	.LC0
.xword	.LC0
.xword	.LC0
.xword	.LC0
.xword	.LC0
.xword	.LC0
.xword	.LC0
.xword	.LC0
.xword	.LC0
.xword	.LC0
.xword	.LC0
.xword	.LC0
.xword	.LC0
.xword	.LC0
.xword	.LC0
.xword	.LC0
.xword	.LC0
.xword	.LC0
.xword	.LC0
.xword	.LC0
.xword	.LC0
.xword	.LC0
.xword	.LC0
.xword	.LC0
.xword	.LC0
.xword	.LC0
.xword	.LC0
.xword	.LC0
.xword	.LC0
.xword	.LC0
.xword	.LC0
.xword	.LC0
.xword	.LC0
.xword	.LC0
.xword	.LC0
.xword	.LC0
.xword	.LC0
.xword	.LC0
.xword	.LC0
.xword	.LC0
.xword	.LC0
.xword	.LC0
.xword	.LC0
.xword	.LC0
.xword	.LC0
.xword	.LC0
.xword	.LC0
.xword	.LC0
.xword	.LC0
.xword	.LC0
.xword	.LC0
.xword	.LC0
.xword	.LC0
.xword	.LC0
.xword	.LC0
.xword	.LC0
.xword	.LC0
.xword	.LC0
.xword	.LC0
.xword	.LC0
.xword	.LC0
.xword	.LC0
.xword	.LC0
.xword	.LC0
.xword	.LC0
.xword	.LC0
.xword	.LC0
.xword	.LC0
.xword	.LC0
.xword	.LC0
.xword	.LC0
.xword	.LC0
.xword	.LC0
.xword	.LC0
.xword	.LC0
.xword	.LC0
.xword	.LC0
.xword	.LC0
.xword	.LC0
.xword	.LC0
.xword	.LC0
.xword	.LC0
.xword	.LC0
.xword	.LC0
.xword	.LC0
.xword	.LC0
.xword	.LC0
.xword	.LC0
.xword	.LC0
.xword	.LC0
.xword	.LC0
.xword	.LC0
.xword	.LC0
.xword	.LC0
.xword	.LC0
.xword	.LC0
.xword	.LC0
.xword	.LC0
.xword	.LC0
.xword	.LC0
.xword	.LC0
.xword	.LC0
.xword	.LC0
.xword	.LC0
.xword	.LC0
.xword	.LC0
.xword	.LC0
.xword	.LC0
.xword	.LC0
.xword	.LC0
.xword	.LC0
.xword	.LC0
.xword	.LC0
.xword	.LC0
.xword	.LC0
.xword	.LC0
.xword	.LC0
.xword	.LC0
.xword	.LC0
.xword	.LC0
.xword	.LC0
.xword	.LC0
.xword	.LC0
.xword	.LC0
.xword	.LC0
.xword	.LC0
.xword	.LC0
.xword	.LC0
.xword	.LC0
.xword	.LC0
.xword	.LC0
.xword	.LC0
.xword	.LC0
.xword	.LC0
.xword	.LC0
.xword	.LC0
.xword	.LC0
.xword	.LC0
.xword	.LC0
.xword	.LC0
.xword	.LC0
.xword	.LC0
.xword	.LC0
.xword	.LC0
.xword	.LC0
.xword	.LC0
.xword	.LC0
.xword	.LC0
.xword	.LC0
.xword	.LC0
.xword	.LC0
.xword	.LC0
.xword	.LC0
.xword	.LC0
.xword	.LC0
.xword	.LC0
.xword	.LC0
.xword	.LC0
.xword	.LC0
.xword	.LC0
.xword	.LC0
.xword	.LC0
.xword	.LC0
.xword	.LC0
.xword	.LC0
.xword	.LC0
.xword	.LC0
.xword	.LC0
.xword	.LC0
.xword	.LC0
.xword	.LC0
.xword	.LC0
.xword	.LC0
.xword	.LC0
.xword	.LC0
.xword	.LC0
.xword	.LC0
.xword	.LC0
.xword	.LC0
.xword	.LC0
.xword	.LC0
.xword	.LC0
.xword	.LC0
.xword	.LC0
.xword	.LC0
.xword	.LC0
.xword	.LC0
.xword	.LC0
.xword	.LC0
.xword	.LC0
.xword	.LC0
.xword	.LC0
.xword	.LC0
.xword	.LC0
.xword	.LC0
.xword	.LC0
.xword	.LC0
.xword	.LC0
.xword	.LC0
.xword	.LC0
.xword	.LC0
.xword	.LC0
.xword	.LC0
.xword	.LC0
.xword	.LC0
.xword	.LC0
.xword	.LC0
.xword	.LC0
.xword	.LC0
.xword	.LC0
.xword	.LC0
.xword	.LC0
.xword	.LC0
.xword	.LC0
.xword	.LC0
.xword	.LC0
.xword	.LC0
.xword	.LC0
.xword	.LC0
.xword	.LC0
.xword	.LC0
.xword	.LC0
.xword	.LC0
.xword	.LC0
.xword	.LC0
.xword	.LC0
.xword	.LC0
.xword	.LC0
.xword	.LC0
.xword	.LC0
.xword	.LC0
.xword	.LC0
.xword	.LC0
.xword	.LC0
.xword	.LC0
.xword	.LC0
.xword	.LC0
.xword	.LC0
.xword	.LC0
.xword	.LC0
.xword	.LC0
.xword	.LC0
.xword	.LC0
.xword	.LC0
.xword	.LC0
.xword	.LC0
.xword	.LC0
.xword	.LC0
.xword	.LC0
.xword	.LC0
.xword	.LC0
.xword	.LC0
.xword	.LC0
.xword	.LC0
.xword	.LC0
.xword	.LC0
.xword	.LC0
.xword	.LC0
.xword	.LC0
.xword	.LC0
.xword	.LC0
.xword	.LC0
.xword	.LC0
.xword	.LC0
.xword	.LC0
.xword	.LC0
.xword	.LC0
.xword	.LC0
.xword	.LC0
.xword	.LC0
.xword	.LC0
.xword	.LC0
.xword	.LC0
.xword	.LC0
.xword	.LC0
.xword	.LC0
.xword	.LC0
.xword	.LC0
.xword	.LC0
.xword	.LC0
.xword	.LC0
.xword	.LC0
.xword	.LC0
.xword	.LC0
.xword	.LC0
.xword	.LC0
.xword	.LC0
.xword	.LC0
.xword	.LC0
.xword	.LC0
.xword	.LC0
.xword	.LC0
.xword	.LC0
.xword	.LC0
.xword	.LC0
.xword	.LC0
.xword	.LC0
.xword	.LC0
.xword	.LC0
.xword	.LC0
.xword	.LC0
.xword	.LC0
.xword	.LC0
.xword	.LC0
.xword	.LC0
.xword	.LC0
.xword	.LC0
.xword	.LC0
.xword	.LC0
.xword	.LC0
.xword	.LC0
.xword	.LC0
.xword	.LC0
.xword	.LC0
.xword	.LC0
.xword	.LC0
.xword	.LC0
.xword	.LC0
.xword	.LC0
.xword	.LC0
.xword	.LC0
.xword	.LC0
.xword	.LC0
.xword	.LC0
.xword	.LC0
.xword	.LC0
.xword	.LC0
.xword	.LC0
.xword	.LC0
.xword	.LC0
.xword	.LC0
.xword	.LC0
.xword	.LC0
.xword	.LC0
.xword	.LC0
.xword	.LC0
.xword	.LC0
.xword	.LC0
.xword	.LC0
.xword	.LC0
.xword	.LC0
.xword	.LC0
.xword	.LC0
.xword	.LC0
.xword	.LC0
.xword	.LC0
.xword	.LC0
.xword	.LC0
.xword	.LC0
.xword	.LC0
.xword	.LC0
.xword	.LC0
.xword	.LC0
.xword	.LC0
.xword	.LC0
.xword	.LC0
.xword	.LC0
.xword	.LC0
.xword	.LC0
.xword	.LC0
.xword	.LC0
.xword	.LC0
.xword	.LC0
.xword	.LC0
.xword	.LC0
.xword	.LC0
.xword	.LC0
.xword	.LC0
.xword	.LC0
.xword	.LC0
.xword	.LC0
.xword	.LC0
.xword	.LC0
.xword	.LC0
.xword	.LC0
.xword	.LC0
.xword	.LC0
.xword	.LC0
.xword	.LC0
.xword	.LC0
.xword	.LC0
.xword	.LC0
.xword	.LC0
.xword	.LC0
.xword	.LC0
.xword	.LC0
.xword	.LC0
.xword	.LC0
.xword	.LC0
.xword	.LC0
.xword	.LC0
.xword	.LC0
.xword	.LC0
.xword	.LC0
.xword	.LC0
.xword	.LC0
.xword	.LC0
.xword	.LC0
.xword	.LC0
.xword	.LC0
.xword	.LC0
.xword	.LC0
.xword	.LC0
.xword	.LC0
.xword	.LC0
.xword	.LC0
.xword	.LC0
.xword	.LC0
.xword	.LC0
.xword	.LC0
.xword	.LC0
.xword	.LC0
.xword	.LC0
.xword	.LC0
.xword	.LC0
.xword	.LC0
.xword	.LC0
.xword	.LC0
.xword	.LC0
.xword	.LC0
.xword	.LC0
.xword	.LC0
.xword	.LC0
.xword	.LC0
.xword	.LC0
.xword	.LC0
.xword	.LC0
.xword	.LC0
.xword	.LC0
.xword	.LC0
.xword	.LC0
.xword	.LC0
.xword	.LC0
.xword	.LC0
.xword	.LC0
.xword	.LC0
.xword	.LC0
.xword	.LC0
.xword	.LC0
.xword	.LC0
.xword	.LC0
.xword	.LC0
.xword	.LC0
.xword	.LC0
.xword	.LC0
.xword	.LC0
.xword	.LC0
.xword	.LC0
.xword	.LC0
.xword	.LC0
.xword	.LC0
.xword	.LC0
.xword	.LC0
.xword	.LC0
.xword	.LC0
.xword	.LC0
.xword	.LC0
.xword	.LC0
.xword	.LC0
.xword	.LC0
.xword	.LC0
.xword	.LC0
.xword	.LC0
.xword	.LC0
.xword	.LC0
.xword	.LC0
.xword	.LC0
.xword	.LC0
.xword	.LC0
.xword	.LC0
.xword	.LC0
.xword	.LC0
.xword	.LC0
.xword	.LC0
.xword	.LC0
.xword	.LC0
.xword	.LC0
.xword	.LC0
.xword	.LC0
.xword	.LC0
.xword	.LC0
.xword	.LC0
.xword	.LC0
.xword	.LC0
.xword	.LC0
.xword	.LC0
.xword	.LC0
.xword	.LC0
.xword	.LC0
.xword	.LC0
.xword	.LC0
.xword	.LC0
.xword	.LC0
.xword	.LC0
.xword	.LC0
.xword	.LC0
.xword	.LC0
.xword	.LC0
.xword	.LC0
.xword	.LC0
.xword	.LC0
.xword	.LC0
.xword	.LC0
.xword	.LC0
.xword	.LC0
.xword	.LC0
.xword	.LC0
.xword	.LC0
.xword	.LC0
.xword	.LC0
.xword	.LC0
.xword	.LC0
.xword	.LC0
.xword	.LC0
.xword	.LC0
.xword	.LC0
.xword	.LC0
.xword	.LC0
.xword	.LC0
.xword	.LC0
.xword	.LC0
.xword	.LC0
.xword	.LC0
.xword	.LC0
.xword	.LC0
.xword	.LC0
.xword	.LC0
.xword	.LC0
.xword	.LC0
.xword	.LC0
.xword	.LC0
.xword	.LC0
.xword	.LC0
.xword	.LC0
.xword	.LC0
.xword	.LC0
.xword	.LC0
.xword	.LC0
.xword	.LC0
.xword	.LC0
.xword	.LC0
.xword	.LC0
.xword	.LC0
.xword	.LC0
.xword	.LC0
.xword	.LC0
.xword	.LC0
.xword	.LC0
.xword	.LC0
.xword	.LC0
.xword	.LC0
.xword	.LC0
.xword	.LC0
.xword	.LC0
.xword	.LC0
.xword	.LC0
.xword	.LC0
.xword	.LC0
.xword	.LC0
.xword	.LC0
.xword	.LC0
.xword	.LC0
.xword	.LC0
.xword	.LC0
.xword	.LC0
.xword	.LC0
.xword	.LC0
.xword	.LC0
.xword	.LC0
.xword	.LC0
.xword	.LC0
.xword	.LC0
.xword	.LC0
.xword	.LC0
.xword	.LC0
.xword	.LC0
.xword	.LC0
.xword	.LC0
.xword	.LC0
.xword	.LC0
.xword	.LC0
.xword	.LC0
.xword	.LC0
.xword	.LC0
.xword	.LC0
.xword	.LC0
.xword	.LC0
.xword	.LC0
.xword	.LC0
.xword	.LC0
.xword	.LC0
.xword	.LC0
.xword	.LC0
.xword	.LC0
.xword	.LC0
.xword	.LC0
.xword	.LC0
.xword	.LC0
.xword	.LC0
.xword	.LC0
.xword	.LC0
.xword	.LC0
.xword	.LC0
.xword	.LC0
.xword	.LC0
.xword	.LC0
.xword	.LC0
.xword	.LC0
.xword	.LC0
.xword	.LC0
.xword	.LC0
.xword	.LC0
.xword	.LC0
.xword	.LC0
.xword	.LC0
.xword	.LC0
.xword	.LC0
.xword	.LC0
.xword	.LC0
.xword	.LC0
.xword	.LC0
.xword	.LC0
.xword	.LC0
.xword	.LC0
.xword	.LC0
.xword	.LC0
.xword	.LC0
.xword	.LC0
.xword	.LC0
.xword	.LC0
.xword	.LC0
.xword	.LC0
.xword	.LC0
.xword	.LC0
.xword	.LC0
.xword	.LC0
.xword	.LC0
.xword	.LC0
.xword	.LC0
.xword	.LC0
.xword	.LC0
.xword	.LC0
.xword	.LC0
.xword	.LC0
.xword	.LC0
.xword	.LC0
.xword	.LC0
.xword	.LC0
.xword	.LC0
.xword	.LC0
.xword	.LC0
.xword	.LC0
.xword	.LC0
.xword	.LC0
.xword	.LC0
.xword	.LC0
.xword	.LC0
.xword	.LC0
.xword	.LC0
.xword	.LC0
.xword	.LC0
.xword	.LC0
.xword	.LC0
.xword	.LC0
.xword	.LC0
.xword	.LC0
.xword	.LC0
.xword	.LC0
.xword	.LC0
.xword	.LC0
.xword	.LC0
.xword	.LC0
.xword	.LC0
.xword	.LC0
.xword	.LC0
.xword	.LC0
.xword	.LC0
.xword	.LC0
.xword	.LC0
.xword	.LC0
.xword	.LC0
.xword	.LC0
.xword	.LC0
.xword	.LC0
.xword	.LC0
.xword	.LC0
.xword	.LC0
.xword	.LC0
.xword	.LC0
.xword	.LC0
.xword	.LC0
.xword	.LC0
.xword	.LC0
.xword	.LC0
.xword	.LC0
.xword	.LC0
.xword	.LC0
.xword	.LC0
.xword	.LC0
.xword	.LC0
.xword	.LC0
.xword	.LC0
.xword	.LC0
.xword	.LC0
.xword	.LC0
.xword	.LC0
.xword	.LC0
.xword	.LC0
.xword	.LC0
.xword	.LC0
.xword	.LC0
.xword	.LC0
.xword	.LC0
.xword	.LC0
.xword	.LC0
.xword	.LC0
.xword	.LC0
.xword	.LC0
.xword	.LC0
.xword	.LC0
.xword	.LC0
.xword	.LC0
.xword	.LC0
.xword	.LC0
.xword	.LC0
.xword	.LC0
.xword	.LC0
.xword	.LC0
.xword	.LC0
.xword	.LC0
.xword	.LC0
.xword	.LC0
.xword	.LC0
.xword	.LC0
.xword	.LC0
.xword	.LC0
.xword	.LC0
.xword	.LC0
.xword	.LC0
.xword	.LC0
.xword	.LC0
.xword	.LC0
.xword	.LC0
.xword	.LC0
.xword	.LC0
.xword	.LC0
.xword	.LC0
.xword	.LC0
.xword	.LC0
.xword	.LC0
.xword	.LC0
.xword	.LC0
.xword	.LC0
.xword	.LC0
.xword	.LC0
.xword	.LC0
.xword	.LC0
.xword	.LC0
.xword	.LC0
.xword	.LC0
.xword	.LC0
.xword	.LC0
.xword	.LC0
.xword	.LC0
.xword	.LC0
.xword	.LC0
.xword	.LC0
.xword	.LC0
.xword	.LC0
.xword	.LC0
.xword	.LC0
.xword	.LC0
.xword	.LC0
.xword	.LC0
.xword	.LC0
.xword	.LC0
.xword	.LC0
.xword	.LC0
.xword	.LC0
.xword	.LC0
.xword	.LC0
.xword	.LC0
.xword	.LC0
.xword	.LC0
.xword	.LC0
.xword	.LC0
.xword	.LC0
.xword	.LC0
.xword	.LC0
.xword	.LC0
.xword	.LC0
.xword	.LC0
.xword	.LC0
.xword	.LC0
.xword	.LC0
.xword	.LC0
.xword	.LC0
.xword	.LC0
.xword	.LC0
.xword	.LC0
.xword	.LC0
.xword	.LC0
.xword	.LC0
.xword	.LC0
.xword	.LC0
.xword	.LC0
.xword	.LC0
.xword	.LC0
.xword	.LC0
.xword	.LC0
.xword	.LC0
.xword	.LC0
.xword	.LC0
.xword	.LC0
.xword	.LC0
.xword	.LC0
.xword	.LC0
.xword	.LC0
.xword	.LC0
.xword	.LC0
.xword	.LC0
.xword	.LC0
.xword	.LC0
.xword	.LC0
.xword	.LC0
.xword	.LC0
.xword	.LC0
.xword	.LC0
.xword	.LC0
.xword	.LC0
.xword	.LC0
.xword	.LC0
.xword	.LC0
.xword	.LC0
.xword	.LC0
.xword	.LC0
.xword	.LC0
.xword	.LC0
.xword	.LC0
.xword	.LC0
.xword	.LC0
.xword	.LC0
.xword	.LC0
.xword	.LC0
.xword	.LC0
.xword	.LC0
.xword	.LC0
.xword	.LC0
.xword	.LC0
.xword	.LC0
.xword	.LC0
.xword	.LC0
.xword	.LC0
.xword	.LC0
.xword	.LC0
.xword	.LC0
.xword	.LC0
.xword	.LC0
.xword	.LC0
.xword	.LC0
.xword	.LC0
.xword	.LC0
.xword	.LC0
.xword	.LC0
.xword	.LC0
.xword	.LC0
.xword	.LC0
.xword	.LC0
.xword	.LC0
.xword	.LC0
.xword	.LC0
.xword	.LC0
.xword	.LC0
.xword	.LC0
.xword	.LC0
.xword	.LC0
.xword	.LC0
.xword	.LC0
.xword	.LC0
.xword	.LC0
.xword	.LC0
.xword	.LC0
.xword	.LC0
.xword	.LC0
.xword	.LC0
.xword	.LC0
.xword	.LC0
.xword	.LC0
.xword	.LC0
.xword	.LC0
.xword	.LC0
.xword	.LC0
.xword	.LC0
.xword	.LC0
.xword	.LC0
.xword	.LC0
.xword	.LC0
.xword	.LC0
.xword	.LC0
.xword	.LC0
.xword	.LC0
.xword	.LC0
.xword	.LC0
.xword	.LC0
.xword	.LC0
.xword	.LC0
.xword	.LC0
.xword	.LC0
.xword	.LC0
.xword	.LC0
.xword	.LC0
.xword	.LC0
.xword	.LC0
.xword	.LC0
.xword	.LC0
.xword	.LC0
.xword	.LC0
.xword	.LC0
.xword	.LC0
.xword	.LC0
.xword	.LC0
.xword	.LC0
.xword	.LC0
.xword	.LC0
.xword	.LC0
.xword	.LC0
.xword	.LC0
.xword	.LC0
.xword	.LC0
.xword	.LC0
.xword	.LC0
.xword	.LC0
.xword	.LC0
.xword	.LC0
.xword	.LC0
.xword	.LC0
.xword	.LC0
.xword	.LC0
.xword	.LC0
.xword	.LC0
.xword	.LC0
.xword	.LC0
.xword	.LC0
.xword	.LC0
.xword	.LC0
.xword	.LC0
.xword	.LC0
.xword	.LC0
.xword	.LC0
.xword	.LC0
.xword	.LC0
.xword	.LC0
.xword	.LC0
.xword	.LC0
.xword	.LC0
.xword	.LC0
.xword	.LC0
.xword	.LC0
.xword	.LC0
.xword	.LC0
.xword	.LC0
.xword	.LC0
.xword	.LC0
.xword	.LC0
.xword	.LC0
.xword	.LC0
.xword	.LC0
.xword	.LC0
.xword	.LC0
.xword	.LC0
.xword	.LC0
.xword	.LC0
.xword	.LC0
.xword	.LC0
.xword	.LC0
.xword	.LC0
.xword	.LC0
.xword	.LC0
.xword	.LC0
.xword	.LC0
.xword	.LC0
.xword	.LC0
.xword	.LC0
.xword	.LC0
.xword	.LC0
.xword	.LC0
.xword	.LC0
.xword	.LC0
.xword	.LC0
.xword	.LC0
.xword	.LC0
.xword	.LC0
.xword	.LC0
.xword	.LC0
.xword	.LC0
.xword	.LC0
.xword	.LC0
.xword	.LC0
.xword	.LC0
.xword	.LC0
.xword	.LC0
.xword	.LC0
.xword	.LC0
.xword	.LC0
.xword	.LC0
.xword	.LC0
.xword	.LC0
.xword	.LC0
.xword	.LC0
.xword	.LC0
.xword	.LC0
.xword	.LC0
.xword	.LC0
.xword	.LC0
.xword	.LC0
.xword	.LC0
.xword	.LC0
.xword	.LC0
.xword	.LC0
.xword	.LC0
.xword	.LC0
.xword	.LC0
.xword	.LC0
.xword	.LC0
.xword	.LC0
.xword	.LC0
.xword	.LC0
.xword	.LC0
.xword	.LC0
.xword	.LC0
.xword	.LC0
.xword	.LC0
.xword	.LC0
.xword	.LC0
.xword	.LC0
.xword	.LC0
.xword	.LC0
.xword	.LC0
.xword	.LC0
.xword	.LC0
.xword	.LC0
.xword	.LC0
.xword	.LC0
.xword	.LC0
.xword	.LC0
.xword	.LC0
.xword	.LC0
.xword	.LC0
.xword	.LC0
.xword	.LC0
.xword	.LC0
.xword	.LC0
.xword	.LC0
.xword	.LC0
.xword	.LC0
.xword	.LC0
.xword	.LC0
.xword	.LC0
.xword	.LC0
.xword	.LC0
.xword	.LC0
.xword	.LC0
.xword	.LC0
.xword	.LC0
.xword	.LC0
.xword	.LC0
.xword	.LC0
.xword	.LC0
.xword	.LC0
.xword	.LC0
.xword	.LC0
.xword	.LC0
.xword	.LC0
.xword	.LC0
.xword	.LC0
.xword	.LC0
.xword	.LC0
.xword	.LC0
.xword	.LC0
.xword	.LC0
.xword	.LC0
.xword	.LC0
.xword	.LC0
.xword	.LC0
.xword	.LC0
.xword	.LC0
.xword	.LC0
.xword	.LC0
.xword	.LC0
.xword	.LC0
.xword	.LC0
.xword	.LC0
.xword	.LC0
.xword	.LC0
.xword	.LC0
.xword	.LC0
.xword	.LC0
.xword	.LC0
.xword	.LC0
.xword	.LC0
.xword	.LC0
.xword	.LC0
.xword	.LC0
.xword	.LC0
.xword	.LC0
.xword	.LC0
.xword	.LC0
.xword	.LC0
.xword	.LC0
.xword	.LC0
.xword	.LC0
.xword	.LC0
.xword	.LC0
.xword	.LC0
.xword	.LC0
.xword	.LC0
.xword	.LC0
.xword	.LC0
.xword	.LC0
.xword	.LC0
.xword	.LC0
.xword	.LC0
.xword	.LC0
.xword	.LC0
.xword	.LC0
.xword	.LC0
.xword	.LC0
.xword	.LC0
.xword	.LC0
.xword	.LC0
.xword	.LC0
.xword	.LC0
.xword	.LC0
.xword	.LC0
.xword	.LC0
.xword	.LC0
.xword	.LC0
.xword	.LC0
.xword	.LC0
.xword	.LC0
.xword	.LC0
.xword	.LC0
.xword	.LC0
.xword	.LC0
.xword	.LC0
.xword	.LC0
.xword	.LC0
.xword	.LC0
.xword	.LC0
.xword	.LC0
.xword	.LC0
.xword	.LC0
.xword	.LC0
.xword	.LC0
.xword	.LC0
.xword	.LC0
.xword	.LC0
.xword	.LC0
.xword	.LC0
.xword	.LC0
.xword	.LC0
.xword	.LC0
.xword	.LC0
.xword	.LC0
.xword	.LC0
.xword	.LC0
.xword	.LC0
.xword	.LC0
.xword	.LC0
.xword	.LC0
.xword	.LC0
.xword	.LC0
.xword	.LC0
.xword	.LC0
.xword	.LC0
.xword	.LC0
.xword	.LC0
.xword	.LC0
.xword	.LC0
.xword	.LC0
.xword	.LC0
.xword	.LC0
.xword	.LC0
.xword	.LC0
.xword	.LC0
.xword	.LC0
.xword	.LC0
.xword	.LC0
.xword	.LC0
.xword	.LC0
.xword	.LC0
.xword	.LC0
.xword	.LC0
.xword	.LC0
.xword	.LC0
.xword	.LC0
.xword	.LC0
.xword	.LC0
.xword	.LC0
.xword	.LC0
.xword	.LC0
.xword	.LC0
.xword	.LC0
.xword	.LC0
.xword	.LC0
.xword	.LC0
.xword	.LC0
.xword	.LC0
.xword	.LC0
.xword	.LC0
.xword	.LC0
.xword	.LC0
.xword	.LC0
.xword	.LC0
.xword	.LC0
.xword	.LC0
.xword	.LC0
.xword	.LC0
.xword	.LC0
.xword	.LC0
.xword	.LC0
.xword	.LC0
.xword	.LC0
.xword	.LC0
.xword	.LC0
.xword	.LC0
.xword	.LC0
.xword	.LC0
.xword	.LC0
.xword	.LC0
.xword	.LC0
.xword	.LC0
.xword	.LC0
.xword	.LC0
.xword	.LC0
.xword	.LC0
.xword	.LC0
.xword	.LC0
.xword	.LC0
.xword	.LC0
.xword	.LC0
.xword	.LC0
.xword	.LC0
.xword	.LC0
.xword	.LC0
.xword	.LC0
.xword	.LC0
.xword	.LC0
.xword	.LC0
.xword	.LC0
.xword	.LC0
.xword	.LC0
.xword	.LC0
.xword	.LC0
.xword	.LC0
.xword	.LC0
.xword	.LC0
.xword	.LC0
.xword	.LC0
.xword	.LC0
.xword	.LC0
.xword	.LC0
.xword	.LC0
.xword	.LC0
.xword	.LC0
.xword	.LC0
.xword	.LC0
.xword	.LC0
.xword	.LC0
.xword	.LC0
.xword	.LC0
.xword	.LC0
.xword	.LC0
.xword	.LC0
.xword	.LC0
.xword	.LC0
.xword	.LC0
.xword	.LC0
.xword	.LC0
.xword	.LC0
.xword	.LC0
.xword	.LC0
.xword	.LC0
.xword	.LC0
.xword	.LC0
.xword	.LC0
.xword	.LC0
.xword	.LC0
.xword	.LC0
.xword	.LC0
.xword	.LC0
.xword	.LC0
.xword	.LC0
.xword	.LC0
.xword	.LC0
.xword	.LC0
.xword	.LC0
.xword	.LC0
.xword	.LC0
.xword	.LC0
.xword	.LC0
.xword	.LC0
.xword	.LC0
.xword	.LC0
.xword	.LC0
.xword	.LC0
.xword	.LC0
.xword	.LC0
.xword	.LC0
.xword	.LC0
.xword	.LC0
.xword	.LC0
.xword	.LC0
.xword	.LC0
.xword	.LC0
.xword	.LC0
.xword	.LC0
.xword	.LC0
.xword	.LC0
.xword	.LC0
.xword	.LC0
.xword	.LC0
.xword	.LC0
.xword	.LC0
.xword	.LC0
.xword	.LC0
.xword	.LC0
.xword	.LC0
.xword	.LC0
.xword	.LC0
.xword	.LC0
.xword	.LC0
.xword	.LC0
.xword	.LC0
.xword	.LC0
.xword	.LC0
.xword	.LC0
.xword	.LC0
.xword	.LC0
.xword	.LC0
.xword	.LC0
.xword	.LC0
.xword	.LC0
.xword	.LC0
.xword	.LC0
.xword	.LC0
.xword	.LC0
.xword	.LC0
.xword	.LC0
.xword	.LC0
.xword	.LC0
.xword	.LC0
.xword	.LC0
.x