.arch armv8-a
.file	__TEXT,__text,regular,pure_instructions
.align	2
.bsf	.section, 0, 3, 4
.global	_func0                          ## -- Begin function func0
.section	__TEXT,__text,regular,pure_instructions
.align	2
.p2align	4,,11
_func0:                                 ## @func0
    .cfi_startproc
stp	x29, x30, [sp, -32]!
.cfi_def_cfa_offset 32
.cfi_offset 29, -32
.cfi_offset 30, -24
mov	w4, w0
adrp	x3, .LANCHOR0
mov	x29, sp
.cfi_def_cfa_register 29
sub	x0, x29,
add	x3, x3, :lo12:.LANCHOR0
mov	w2, 6
str	w4, [x29, -4]
mov	w1, 0
str	x19, [sp, 16]
.cfi_offset 19, -16
bl	___sprintf_chk
str	wzr, [x29, -16]
str	wzr, [x29, -20]
.LB0:
ldrsw	x0, [x29, -20]
add	x19, x29, -20
add	x0, x19, x0
ldrb	w1, [x29, -10]
cmp	w1, 0
csel	x1, x0, x19, eq
cbnz	w1, .L2
mov	w0, 33
bl	xmalloc
str	x0, [x29, -32]
str	wzr, [x29, -36]
cbnz	w19, .L6
ldr	w1, [x29, -16]
add	w1, w1, 1
str	w1, [x29, -36]
.L4:
sxtw	x0, w1
ldr	x1, [x29, -32]
strb	w1, [x1, x0]
add	w0, w1, 1
str	w0, [x29, -36]
b	.L11
.p2align 2,,3
.L2:
ldr	w1, [x29, -20]
add	w1, w1, w1, lsr 1
str	w1, [x29, -20]
.L11:
ldrsw	x0, [x29, -16]
add	w0, w0, 1
str	w0, [x29, -16]
b	.L4
.L6:
ldr	w1, [x29, -16]
str	w1, [x29, -36]
b	.L4
L12:
ldr	x0, [x29, -32]
.L1:
ldr	x19, [sp, 16]
ldp	x29, x30, [sp], 32
.cfi_restore 30
.cfi_restore 29
.cfi_restore 19
.cfi_def_cfa_offset 0
ret
.L13:
mov	x0, x1
b	.L1
.L14:
ldr	x0, [x29, -32]
b	.L1
.L15:
ldr	w1, [x29, -36]
strb	wzr, [x0, w1, sxtw]
ldr	x0, [x29, -32]
ldr	w1, [x29, -36]
sub	w1, w1,
ldr	x2, [x29, -32]
sub	w1, w1,
ldr	w3, [x29, -36]
sub	w1, w1,
ldr	x2, [x29, -32]
ldrsw	x3, [x29, -36]
sxtw	x1, w1
sdiv	w1, w3, w1
strb	w1, [x2, x3]
ldr	x0, [x29, -32]
ldr	w1, [x29, -36]
sdiv	w1, w1, w0
strb	w1, [x0, x3]
ldr	x0, [x29, -32]
ldr	w1, [x29, -36]
sdiv	w1, w1, w0
strb	w1, [x0, x3]
b	.L1
.L16:
ldr	x1, [x29, -32]
ldr	w0, [x29, -40]
strb	wzr, [x1, w0, sxtw]
ldr	x1, [x29, -32]
ldr	w0, [x29, -40]
sub	w0, w0,
ldr	x2, [x29, -32]
sub	w0, w0,
ldr	x2, [x29, -32]
sub	w0, w0,
ldr	x2, [x29, -32]
ldrsw	x0, [x29, -40]
sxtw	x0, w0
sdiv	w0, w0, w2
strb	w0, [x1, x0]
ldr	x1, [x29, -32]
ldr	w0, [x29, -40]
sdiv	w0, w0, w2
strb	w0, [x1, x0]
ldr	x0, [x29, -32]
ldr	w0, [x29, -40]
sub	w0, w0,
ldr	x2, [x29, -32]
sub	w0, w0,
ldr	x2, [x29, -32]
sub	w0, w0,
ldr	x2, [x29, -32]
ldrsw	x0, [x29, -40]
sxtw	x0, w0
sdiv	w0, w0, w2
strb	w0, [x1, x0]
ldr	x0, [x29, -32]
ldr	w0, [x29, -40]
sub	w0, w0,
ldr	x1, [x29, -32]
sub	w0, w0,
ldr	x2, [x29, -32]
sub	w0, w0,
ldr	x2, [x29, -32]
strb	w0, [x1, x0]
b	.L1
.L17:
ldr	x0, [x29, -32]
b	.L1
.L18:
ldr	x0, [x29, -32]
b	.L1
.L19:
ldr	x0, [x29, -32]
b	.L1
.L20:
ldr	x0, [x29, -32]
b	.L1
.L21:
ldr	x0, [x29, -32]
b	.L1
.L22:
ldr	x0, [x29, -32]
b	.L1
.L23:
ldr	x0, [x29, -32]
b	.L1
.L24:
ldr	x0, [x29, -32]
b	.L1
.L25:
ldr	x0, [x29, -32]
b	.L1
.L26:
ldr	x0, [x29, -32]
b	.L1
.L27:
ldr	x0, [x29, -32]
b	.L1
.L28:
ldr	x0, [x29, -32]
b	.L1
.L29:
ldr	x0, [x29, -32]
b	.L1
.L30:
ldr	x0, [x29, -32]
b	.L1
.L31:
ldr	x0, [x29, -32]
b	.L1
.L32:
ldr	x0, [x29, -32]
b	.L1
.L33:
ldr	x0, [x29, -32]
b	.L1
.L34:
ldr	x0, [x29, -32]
b	.L1
.L35:
ldr	x0, [x29, -32]
b	.L1
.L36:
ldr	x0, [x29, -32]
b	.L1
.L37:
ldr	x0, [x29, -32]
b	.L1
.L38:
ldr	x0, [x29, -32]
b	.L1
.L39:
ldr	x0, [x29, -32]
b	.L1
.L40:
ldr	x0, [x29, -32]
b	.L1
.L41:
ldr	x0, [x29, -32]
b	.L1
.L42:
ldr	x0, [x29, -32]
b	.L1
.L43:
ldr	x0, [x29, -32]
b	.L1
.L44:
ldr	x0, [x29, -32]
b	.L1
.L45:
ldr	x0, [x29, -32]
b	.L1
.L46:
ldr	x0, [x29, -32]
b	.L1
.L47:
ldr	x0, [x29, -32]
b	.L1
.L48:
ldr	x0, [x29, -32]
b	.L1
.L49:
ldr	x0, [x29, -32]
b	.L1
.L50:
ldr	x0, [x29, -32]
b	.L1
.L51:
ldr	x0, [x29, -32]
b	.L1
.L52:
ldr	x0, [x29, -32]
b	.L1
.L53:
ldr	x0, [x29, -32]
b	.L1
.L54:
ldr	x0, [x29, -32]
b	.L1
.L55:
ldr	x0, [x29, -32]
b	.L1
.L56:
ldr	x0, [x29, -32]
b	.L1
.L57:
ldr	x0, [x29, -32]
b	.L1
.L58:
ldr	x0, [x29, -32]
b	.L1
.L59:
ldr	x0, [x29, -32]
b	.L1
.L60:
ldr	x0, [x29, -32]
b	.L1
.L61:
ldr	x0, [x29, -32]
b	.L1
.L62:
ldr	x0, [x29, -32]
b	.L1
.L63:
ldr	x0, [x29, -32]
b	.L1
.L64:
ldr	x0, [x29, -32]
b	.L1
.L65:
ldr	x0, [x29, -32]
b	.L1
.L66:
ldr	x0, [x29, -32]
b	.L1
.L67:
ldr	x0, [x29, -32]
b	.L1
.L68:
ldr	x0, [x29, -32]
b	.L1
.L69:
ldr	x0, [x29, -32]
b	.L1
.L70:
ldr	x0, [x29, -32]
b	.L1
.L71:
ldr	x0, [x29, -32]
b	.L1
.L72:
ldr	x0, [x29, -32]
b	.L1
.L73:
ldr	x0, [x29, -32]
b	.L1
.L74:
ldr	x0, [x29, -32]
b	.L1
.L75:
ldr	x0, [x29, -32]
b	.L1
.L76:
ldr	x0, [x29, -32]
b	.L1
.L77:
ldr	x0, [x29, -32]
b	.L1
.L78:
ldr	x0, [x29, -32]
b	.L1
.L79:
ldr	x0, [x29, -32]
b	.L1
.L80:
ldr	x0, [x29, -32]
b	.L1
.L81:
ldr	x0, [x29, -32]
b	.L1
.L82:
ldr	x0, [x29, -32]
b	.L1
.L83:
ldr	x0, [x29, -32]
b	.L1
.L84:
ldr	x0, [x29, -32]
b	.L1
.L85:
ldr	x0, [x29, -32]
b	.L1
.L86:
ldr	x0, [x29, -32]
b	.L1
.L87:
ldr	x0, [x29, -32]
b	.L1
.L88:
ldr	x0, [x29, -32]
b	.L1
.L89:
ldr	x0, [x29, -32]
b	.L1
.L90:
ldr	x0, [x29, -32]
b	.L1
.L91:
ldr	x0, [x29, -32]
b	.L1
.L92:
ldr	x0, [x29, -32]
b	.L1
.L93:
ldr	x0, [x29, -32]
b	.L1
.L94:
ldr	x0, [x29, -32]
b	.L1
.L95:
ldr	x0, [x29, -32]
b	.L1
.L96:
ldr	x0, [x29, -32]
b	.L1
.L97:
ldr	x0, [x29, -32]
b	.L1
.L98:
ldr	x0, [x29, -32]
b	.L1
.L99:
ldr	x0, [x29, -32]
b	.L1
.L100:
ldr	x0, [x29, -32]
b	.L1
.L101:
ldr	x0, [x29, -32]
b	.L1
.L102:
ldr	x0, [x29, -32]
b	.L1
.L103:
ldr	x0, [x29, -32]
b	.L1
.L104:
ldr	x0, [x29, -32]
b	.L1
.L105:
ldr	x0, [x29, -32]
b	.L1
.L106:
ldr	x0, [x29, -32]
b	.L1
.L107:
ldr	x0, [x29, -32]
b	.L1
.L108:
ldr	x0, [x29, -32]
b	.L1
.L109:
ldr	x0, [x29, -32]
b	.L1
.L110:
ldr	x0, [x29, -32]
b	.L1
.L111:
ldr	x0, [x29, -32]
b	.L1
.L112:
ldr	x0, [x29, -32]
b	.L1
.L113:
ldr	x0, [x29, -32]
b	.L1
.L114:
ldr	x0, [x29, -32]
b	.L1
.L115:
ldr	x0, [x29, -32]
b	.L1
.L116:
ldr	x0, [x29, -32]
b	.L1
.L117:
ldr	x0, [x29, -32]
b	.L1
.L118:
ldr	x0, [x29, -32]
b	.L1
.L119:
ldr	x0, [x29, -32]
b	.L1
.L120:
ldr	x0, [x29, -32]
b	.L1
.L121:
ldr	x0, [x29, -32]
b	.L1
.L122:
ldr	x0, [x29, -32]
b	.L1
.L123:
ldr	x0, [x29, -32]
b	.L1
.L124:
ldr	x0, [x29, -32]
b	.L1
.L125:
ldr	x0, [x29, -32]
b	.L1
.L126:
ldr	x0, [x29, -32]
b	.L1
.L127:
ldr	x0, [x29, -32]
b	.L1
.L128:
ldr	x0, [x29, -32]
b	.L1
.L129:
ldr	x0, [x29, -32]
b	.L1
.L130:
ldr	x0, [x29, -32]
b	.L1
.L131:
ldr	x0, [x29, -32]
b	.L1
.L132:
ldr	x0, [x29, -32]
b	.L1
.L133:
ldr	x0, [x29, -32]
b	.L1
.L134:
ldr	x0, [x29, -32]
b	.L1
.L135:
ldr	x0, [x29, -32]
b	.L1
.L136:
ldr	x0, [x29, -32]
b	.L1
.L137:
ldr	x0, [x29, -32]
b	.L1
.L138:
ldr	x0, [x29, -32]
b	.L1
.L139:
ldr	x0, [x29, -32]
b	.L1
.L140:
ldr	x0, [x29, -32]
b	.L1
.L141:
ldr	x0, [x29, -32]
b	.L1
.L142:
ldr	x0, [x29, -32]
b	.L1
.L143:
ldr	x0, [x29, -32]
b	.L1
.L144:
ldr	x0, [x29, -32]
b	.L1
.L145:
ldr	x0, [x29, -32]
b	.L1
.L146:
ldr	x0, [x29, -32]
b	.L1
.L147:
ldr	x0, [x29, -32]
b	.L1
.L148:
ldr	x0, [x29, -32]
b	.L1
.L149:
ldr	x0, [x29, -32]
b	.L1
.L150:
ldr	x0, [x29, -32]
b	.L1
.L151:
ldr	x0, [x29, -32]
b	.L1
.L152:
ldr	x0, [x29, -32]
b	.L1
.L153:
ldr	x0, [x29, -32]
b	.L1
.L154:
ldr	x0, [x29, -32]
b	.L1
.L155:
ldr	x0, [x29, -32]
b	.L1
.L156:
ldr	x0, [x29, -32]
b	.L1
.L157:
ldr	x0, [x29, -32]
b	.L1
.L158:
ldr	x0, [x29, -32]
b	.L1
.L159:
ldr	x0, [x29, -32]
b	.L1
.L160:
ldr	x0, [x29, -32]
b	.L1
.L161:
ldr	x0, [x29, -32]
b	.L1
.L162:
ldr	x0, [x29, -32]
b	.L1
.L163:
ldr	x0, [x29, -32]
b	.L1
.L164:
ldr	x0, [x29, -32]
b	.L1
.L165:
ldr	x0, [x29, -32]
b	.L1
.L166:
ldr	x0, [x29, -32]
b	.L1
.L167:
ldr	x0, [x29, -32]
b	.L1
.L168:
ldr	x0, [x29, -32]
b	.L1
.L169:
ldr	x0, [x29, -32]
b	.L1
.L170:
ldr	x0, [x29, -32]
b	.L1
.L171:
ldr	x0, [x29, -32]
b	.L1
.L172:
ldr	x0, [x29, -32]
b	.L1
.L173:
ldr	x0, [x29, -32]
b	.L1
.L174:
ldr	x0, [x29, -32]
b	.L1
.L175:
ldr	x0, [x29, -32]
b	.L1
.L176:
ldr	x0, [x29, -32]
b	.L1
.L177:
ldr	x0, [x29, -32]
b	.L1
.L178:
ldr	x0, [x29, -32]
b	.L1
.L179:
ldr	x0, [x29, -32]
b	.L1
.L180:
ldr	x0, [x29, -32]
b	.L1
.L181:
ldr	x0, [x29, -32]
b	.L1
.L182:
ldr	x0, [x29, -32]
b	.L1
.L183:
ldr	x0, [x29, -32]
b	.L1
.L184:
ldr	x0, [x29, -32]
b	.L1
.L185:
ldr	x0, [x29, -32]
b	.L1
.L186:
ldr	x0, [x29, -32]
b	.L1
.L187:
ldr	x0, [x29, -32]
b	.L1
.L188:
ldr	x0, [x29, -32]
b	.L1
.L189:
ldr	x0, [x29, -32]
b	.L1
.L190:
ldr	x0, [x29, -32]
b	.L1
.L191:
ldr	x0, [x29, -32]
b	.L1
.L192:
ldr	x0, [x29, -32]
b	.L1
.L193:
ldr	x0, [x29, -32]
b	.L1
.L194:
ldr	x0, [x29, -32]
b	.L1
.L195:
ldr	x0, [x29, -32]
b	.L1
.L196:
ldr	x0, [x29, -32]
b	.L1
.L197:
ldr	x0, [x29, -32]
b	.L1
.L198:
ldr	x0, [x29, -32]
b	.L1
.L199:
ldr	x0, [x29, -32]
b	.L1
.L200:
ldr	x0, [x29, -32]
b	.L1
.L201:
ldr	x0, [x29, -32]
b	.L1
.L202:
ldr	x0, [x29, -32]
b	.L1
.L203:
ldr	x0, [x29, -32]
b	.L1
.L204:
ldr	x0, [x29, -32]
b	.L1
.L205:
ldr	x0, [x29, -32]
b	.L1
.L206:
ldr	x0, [x29, -32]
b	.L1
.L207:
ldr	x0, [x29, -32]
b	.L1
.L208:
ldr	x0, [x29, -32]
b	.L1
.L209:
ldr	x0, [x29, -32]
b	.L1
.L210:
ldr	x0, [x29, -32]
b	.L1
.L211:
ldr	x0, [x29, -32]
b	.L1
.L212:
ldr	x0, [x29, -32]
b	.L1
.L213:
ldr	x0, [x29, -32]
b	.L1
.L214:
ldr	x0, [x29, -32]
b	.L1
.L215:
ldr	x0, [x29, -32]
b	.L1
.L216:
ldr	x0, [x29, -32]
b	.L1
.L217:
ldr	x0, [x29, -32]
b	.L1
.L218:
ldr	x0, [x29, -32]
b	.L1
.L219:
ldr	x0, [x29, -32]
b	.L1
.L220:
ldr	x0, [x29, -32]
b	.L1
.L221:
ldr	x0, [x29, -32]
b	.L1
.L222:
ldr	x0, [x29, -32]
b	.L1
.L223:
ldr	x0, [x29, -32]
b	.L1
.L224:
ldr	x0, [x29, -32]
b	.L1
.L225:
ldr	x0, [x29, -32]
b	.L1
.L226:
ldr	x0, [x29, -32]
b	.L1
.L227:
ldr	x0, [x29, -32]
b	.L1
.L228:
ldr	x0, [x29, -32]
b	.L1
.L229:
ldr	x0, [x29, -32]
b	.L1
.L230:
ldr	x0, [x29, -32]
b	.L1
.L231:
ldr	x0, [x29, -32]
b	.L1
.L232:
ldr	x0, [x29, -32]
b	.L1
.L233:
ldr	x0, [x29, -32]
b	.L1
.L234:
ldr	x0, [x29, -32]
b	.L1
.L235:
ldr	x0, [x29, -32]
b	.L1
.L236:
ldr	x0, [x29, -32]
b	.L1
.L237:
ldr	x0, [x29, -32]
b	.L1
.L238:
ldr	x0, [x29, -32]
b	.L1
.L239:
ldr	x0, [x29, -32]
b	.L1
.L240:
ldr	x0, [x29, -32]
b	.L1
.L241:
ldr	x0, [x29, -32]
b	.L1
.L242:
ldr	x0, [x29, -32]
b	.L1
.L243:
ldr	x0, [x29, -32]
b	.L1
.L244:
ldr	x0, [x29, -32]
b	.L1
.L245:
ldr	x0, [x29, -32]
b	.L1
.L246:
ldr	x0, [x29, -32]
b	.L1
.L247:
ldr	x0, [x29, -32]
b	.L1
.L248:
ldr	x0, [x29, -32]
b	.L1
.L249:
ldr	x0, [x29, -32]
b	.L1
.L250:
ldr	x0, [x29, -32]
b	.L1
.L251:
ldr	x0, [x29, -32]
b	.L1
.L252:
ldr	x0, [x29, -32]
b	.L1
.L253:
ldr	x0, [x29, -32]
b	.L1
.L254:
ldr	x0, [x29, -32]
b	.L1
.L255:
ldr	x0, [x29, -32]
b	.L1
.L256:
ldr	x0, [x29, -32]
b	.L1
.L257:
ldr	x0, [x29, -32]
b	.L1
.L258:
ldr	x0, [x29, -32]
b	.L1
.L259:
ldr	x0, [x29, -32]
b	.L1
.L260:
ldr	x0, [x29, -32]
b	.L1
.L261:
ldr	x0, [x29, -32]
b	.L1
.L262:
ldr	x0, [x29, -32]
b	.L1
.L263:
ldr	x0, [x29, -32]
b	.L1
.L264:
ldr	x0, [x29, -32]
b	.L1
.L265:
ldr	x0, [x29, -32]
b	.L1
.L266:
ldr	x0, [x29, -32]
b	.L1
.L267:
ldr	x0, [x29, -32]
b	.L1
.L268:
ldr	x0, [x29, -32]
b	.L1
.L269:
ldr	x0, [x29, -32]
b	.L1
.L270:
ldr	x0, [x29, -32]
b	.L1
.L271:
ldr	x0, [x29, -32]
b	.L1
.L272:
ldr	x0, [x29, -32]
b	.L1
.L273:
ldr	x0, [x29, -32]
b	.L1
.L274:
ldr	x0, [x29, -32]
b	.L1
.L275:
ldr	x0, [x29, -32]
b	.L1
.L276:
ldr	x0, [x29, -32]
b	.L1
.L277:
ldr	x0, [x29, -32]
b	.L1
.L278:
ldr	x0, [x29, -32]
b	.L1
.L279:
ldr	x0, [x29, -32]
b	.L1
.L280:
ldr	x0, [x29, -32]
b	.L1
.L281:
ldr	x0, [x29, -32]
b	.L1
.L282:
ldr	x0, [x29, -32]
b	.L1
.L283:
ldr	x0, [x29, -32]
b	.L1
.L284:
ldr	x0, [x29, -32]
b	.L1
.L285:
ldr	x0, [x29, -32]
b	.L1
.L286:
ldr	x0, [x29, -32]
b	.L1
.L287:
ldr	x0, [x29, -32]
b	.L1
.L288:
ldr	x0, [x29, -32]
b	.L1
.L289:
ldr	x0, [x29, -32]
b	.L1
.L290:
ldr	x0, [x29, -32]
b	.L1
.L291:
ldr	x0, [x29, -32]
b	.L1
.L292:
ldr	x0, [x29, -32]
b	.L1
.L293:
ldr	x0, [x29, -32]
b	.L1
.L294:
ldr	x0, [x29, -32]
b	.L1
.L295:
ldr	x0, [x29, -32]
b	.L1
.L296:
ldr	x0, [x29, -32]
b	.L1
.L297:
ldr	x0, [x29, -32]
b	.L1
.L298:
ldr	x0, [x29, -32]
b	.L1
.L299:
ldr	x0, [x29, -32]
b	.L1
.L300:
ldr	x0, [x29, -32]
b	.L1
.L301:
ldr	x0, [x29, -32]
b	.L1
.L302:
ldr	x0, [x29, -32]
b	.L1
.L303:
ldr	x0, [x29, -32]
b	.L1
.L304:
ldr	x0, [x29, -32]
b	.L1
.L305:
ldr	x0, [x29, -32]
b	.L1
.L306:
ldr	x0, [x29, -32]
b	.L1
.L307:
ldr	x0, [x29, -32]
b	.L1
.L308:
ldr	x0, [x29, -32]
b	.L1
.L309:
ldr	x0, [x29, -32]
b	.L1
.L310:
ldr	x0, [x29, -32]
b	.L1
.L311:
ldr	x0, [x29, -32]
b	.L1
.L312:
ldr	x0, [x29, -32]
b	.L1
.L313:
ldr	x0, [x29, -32]
b	.L1
.L314:
ldr	x0, [x29, -32]
b	.L1
.L315:
ldr	x0, [x29, -32]
b	.L1
.L316:
ldr	x0, [x29, -32]
b	.L1
.L317:
ldr	x0, [x29, -32]
b	.L1
.L318:
ldr	x0, [x29, -32]
b	.L1
.L319:
ldr	x0, [x29, -32]
b	.L1
.L320:
ldr	x0, [x29, -32]
b	.L1
.L321:
ldr	x0, [x29, -32]
b	.L1
.L322:
ldr	x0, [x29, -32]
b	.L1
.L323:
ldr	x0, [x29, -32]
b	.L1
.L324:
ldr	x0, [x29, -32]
b	.L1
.L325:
ldr	x0, [x29, -32]
b	.L1
.L326:
ldr	x0, [x29, -32]
b	.L1
.L327:
ldr	x0, [x29, -32]
b	.L1
.L328:
ldr	x0, [x29, -32]
b	.L1
.L329:
ldr	x0, [x29, -32]
b	.L1
.L330:
ldr	x0, [x29, -32]
b	.L1
.L331:
ldr	x0, [x29, -32]
b	.L1
.L332:
ldr	x0, [x29, -32]
b	.L1
.L333:
ldr	x0, [x29, -32]
b	.L1
.L334:
ldr	x0, [x29, -32]
b	.L1
.L335:
ldr	x0, [x29, -32]
b	.L1
.L336:
ldr	x0, [x29, -32]
b	.L1
.L337:
ldr	x0, [x29, -32]
b	.L1
.L338:
ldr	x0, [x29, -32]
b	.L1
.L339:
ldr	x0, [x29, -32]
b	.L1
.L340:
ldr	x0, [x29, -32]
b	.L1
.L341:
ldr	x0, [x29, -32]
b	.L1
.L342:
ldr	x0, [x29, -32]
b	.L1
.L343:
ldr	x0, [x29, -32]
b	.L1
.L344:
ldr	x0, [x29, -32]
b	.L1
.L345:
ldr	x0, [x29, -32]
b	.L1
.L346:
ldr	x0, [x29, -32]
b	.L1
.L347:
ldr	x0, [x29, -32]
b	.L1
.L348:
ldr	x0, [x29, -32]
b	.L1
.L349:
ldr	x0, [x29, -32]
b	.L1
.L350:
ldr	x0, [x29, -32]
b	.L1
.L351:
ldr	x0, [x29, -32]
b	.L1
.L352:
ldr	x0, [x29, -32]
b	.L1
.L353:
ldr	x0, [x29, -32]
b	.L1
.L354:
ldr	x0, [x29, -32]
b	.L1
.L355:
ldr	x0, [x29, -32]
b	.L1
.L356:
ldr	x0, [x29, -32]
b	.L1
.L357:
ldr	x0, [x29, -32]
b	.L1
.L358:
ldr	x0, [x29, -32]
b	.L1
.L359:
ldr	x0, [x29, -32]
b	.L1
.L360:
ldr	x0, [x29, -32]
b	.L1
.L361:
ldr	x0, [x29, -32]
b	.L1
.L362:
ldr	x0, [x29, -32]
b	.L1
.L363:
ldr	x0, [x29, -32]
b	.L1
.L364:
ldr	x0, [x29, -32]
b	.L1
.L365:
ldr	x0, [x29, -32]
b	.L1
.L366:
ldr	x0, [x29, -32]
b	.L1
.L367:
ldr	x0, [x29, -32]
b	.L1
.L368:
ldr	x0, [x29, -32]
b	.L1
.L369:
ldr	x0, [x29, -32]
b	.L1
.L370:
ldr	x0, [x29, -32]
b	.L1
.L371:
ldr	x0, [x29, -32]
b	.L1
.L372:
ldr	x0, [x29, -32]
b	.L1
.L373:
ldr	x0, [x29, -32]
b	.L1
.L374:
ldr	x0, [x29, -32]
b	.L1
.L375:
ldr	x0, [x29, -32]
b	.L1
.L376:
ldr	x0, [x29, -32]
b	.L1
.L377:
ldr	x0, [x29, -32]
b	.L1
.L378:
ldr	x0, [x29, -32]
b	.L1
.L379:
ldr	x0, [x29, -32]
b	.L1
.L380:
ldr	x0, [x29, -32]
b	.L1
.L381:
ldr	x0, [x29, -32]
b	.L1
.L382:
ldr	x0, [x29, -32]
b	.L1
.L383:
ldr	x0, [x29, -32]
b	.L1
.L384:
ldr	x0, [x29, -32]
b	.L1
.L385:
ldr	x0, [x29, -32]
b	.L1
.L386:
ldr	x0, [x29, -32]
b	.L1
.L387:
ldr	x0, [x29, -32]
b	.L1
.L388:
ldr	x0, [x29, -32]
b	.L1
.L389:
ldr	x0, [x29, -32]
b	.L1
.L390:
ldr	x0, [x29, -32]
b	.L1
.L391:
ldr	x0, [x29, -32]
b	.L1
.L392:
ldr	x0, [x29, -32]
b	.L1
.L393:
ldr	x0, [x29, -32]
b	.L1
.L394:
ldr	x0, [x29, -32]
b	.L1
.L395:
ldr	x0, [x29, -32]
b	.L1
.L396:
ldr	x0, [x29, -32]
b	.L1
.L397:
ldr	x0, [x29, -32]
b	.L1
.L398:
ldr	x0, [x29, -32]
b	.L1
.L399:
ldr	x0, [x29, -32]
b	.L1
.L400:
ldr	x0, [x29, -32]
b	.L1
.L401:
ldr	x0, [x29, -32]
b	.L1
.L402:
ldr	x0, [x29, -32]
b	.L1
.L403:
ldr	x0, [x29, -32]
b	.L1
.L404:
ldr	x0, [x29, -32]
b	.L1
.L405:
ldr	x0, [x29, -32]
b	.L1
.L406:
ldr	x0, [x29, -32]
b	.L1
.L407:
ldr	x0, [x29, -32]
b	.L1
.L408:
ldr	x0, [x29, -32]
b	.L1
.L409:
ldr	x0, [x29, -32]
b	.L1
.L410:
ldr	x0, [x29, -32]
b	.L1
.L411:
ldr	x0, [x29, -32]
b	.L1
.L412:
ldr	x0, [x29, -32]
b	.L1
.L413:
ldr	x0, [x29, -32]
b	.L1
.L414:
ldr	x0, [x29, -32]
b	.L1
.L415:
ldr	x0, [x29, -32]
b	.L1
.L416:
ldr	x0, [x29, -32]
b	.L1
.L417:
ldr	x0, [x29, -32]
b	.L1
.L418:
ldr	x0, [x29, -32]
b	.L1
.L419:
ldr	x0, [x29, -32]
b	.L1
.L420:
ldr	x0, [x29, -32]
b	.L1
.L421:
ldr	x0, [x29, -32]
b	.L1
.L422:
ldr	x0, [x29, -32]
b	.L1
.L423:
ldr	x0, [x29, -32]
b	.L1
.L424:
ldr	x0, [x29, -32]
b	.L1
.L425:
ldr	x0, [x29, -32]
b	.L1
.L426:
ldr	x0, [x29, -32]
b	.L1
.L427:
ldr	x0, [x29, -32]
b	.L1
.L428:
ldr	x0, [x29, -32]
b	.L1
.L429:
ldr	x0, [x29, -32]
b	.L1
.L430:
ldr	x0, [x29, -32]
b	.L1
.L431:
ldr	x0, [x29, -32]
b	.L1
.L432:
ldr	x0, [x29, -32]
b	.L1
.L433:
ldr	x0, [x29, -32]
b	.L1
.L434:
ldr	x0, [x29, -32]
b	.L1
.L435:
ldr	x0, [x29, -32]
b	.L1
.L436:
ldr	x0, [x29, -32]
b	.L1
.L437:
ldr	x0, [x29, -32]
b	.L1
.L438:
ldr	x0, [x29, -32]
b	.L1
.L439:
ldr	x0, [x29, -32]
b	.L1
.L440:
ldr	x0, [x29, -32]
b	.L1
.L441:
ldr	x0, [x29, -32]
b	.L1
.L442:
ldr	x0, [x29, -32]
b	.L1
.L443:
ldr	x0, [x29, -32]
b	.L1
.L444:
ldr	x0, [x29, -32]
b	.L1
.L445:
ldr	x0, [x29, -32]
b	.L1
.L446:
ldr	x0, [x29, -32]
b	.L1
.L447:
ldr	x0, [x29, -32]
b	.L1
.L448:
ldr	x0, [x29, -32]
b	.L1
.L449:
ldr	x0, [x29, -32]
b	.L1
.L450:
ldr	x0, [x29, -32]
b	.L1
.L451:
ldr	x0, [x29, -32]
b	.L1
.L452:
ldr	x0, [x29, -32]
b	.L1
.L453:
ldr	x0, [x29, -32]
b	.L1
.L454:
ldr	x0, [x29, -32]
b	.L1
.L455:
ldr	x0, [x29, -32]
b	.L1
.L456:
ldr	x0, [x29, -32]
b	.L1
.L457:
ldr	x0, [x29, -32]
b	.L1
.L458:
ldr	x0, [x29, -32]
b	.L1
.L459:
ldr	x0, [x29, -32]
b	.L1
.L460:
ldr	x0, [x29, -32]
b	.L1
.L461:
ldr	x0, [x29, -32]
b	.L1
.L462:
ldr	x0, [x29, -32]
b	.L1
.L463:
ldr	x0, [x29, -32]
b	.L1
.L464:
ldr	x0, [x29, -32]
b	.L1
.L465:
ldr	x0, [x29, -32]
b	.L1
.L466:
ldr	x0, [x29, -32]
b	.L1
.L467:
ldr	x0, [x29, -32]
b	.L1
.L468:
ldr	x0, [x29, -32]
b	.L1
.L469:
ldr	x0, [x29, -32]
b	.L1
.L470:
ldr	x0, [x29, -32]
b	.L1
.L471:
ldr	x0, [x29, -32]
b	.L1
.L472:
ldr	x0, [x29, -32]
b	.L1
.L473:
ldr	x0, [x29, -32]
b	.L1
.L474:
ldr	x0, [x29, -32]
b	.L1
.L475:
ldr	x0, [x29, -32]
b	.L1
.L476:
ldr	x0, [x29, -32]
b	.L1
.L477:
ldr	x0, [x29, -32]
b	.L1
.L478:
ldr	x0, [x29, -32]
b	.L1
.L479:
ldr	x0, [x29, -32]
b	.L1
.L480:
ldr	x0, [x29, -32]
b	.L1
.L481:
ldr	x0, [x29, -32]
b	.L1
.L482:
ldr	x0, [x29, -32]
b	.L1
.L483:
ldr	x0, [x29, -32]
b	.L1
.L484:
ldr	x0, [x29, -32]
b	.L1
.L485:
ldr	x0, [x29, -32]
b	.L1
.L486:
ldr	x0, [x29, -32]
b	.L1
.L487:
ldr	x0, [x29, -32]
b	.L1
.L488:
ldr	x0, [x29, -32]
b	.L1
.L489:
ldr	x0, [x29, -32]
b	.L1
.L490:
ldr	x0, [x29, -32]
b	.L1
.L491:
ldr	x0, [x29, -32]
b	.L1
.L492:
ldr	x0, [x29, -32]
b	.L1
.L493:
ldr	x0, [x29, -32]
b	.L1
.L494:
ldr	x0, [x29, -32]
b	.L1
.L495:
ldr	x0, [x29, -32]
b	.L1
.L496:
ldr	x0, [x29, -32]
b	.L1
.L497:
ldr	x0, [x29, -32]
b	.L1
.L498:
ldr	x0, [x29, -32]
b	.L1
.L499:
ldr	x0, [x29, -32]
b	.L1
.L500:
ldr	x0, [x29, -32]
b	.L1
.L501:
ldr	x0, [x29, -32]
b	.L1
.L502:
ldr	x0, [x29, -32]
b	.L1
.L503:
ldr	x0, [x29, -32]
b	.L1
.L504:
ldr	x0, [x29, -32]
b	.L1
.L505:
ldr	x0, [x29, -32]
b	.L1
.L506:
ldr	x0, [x29, -32]
b	.L1
.L507:
ldr	x0, [x29, -32]
b	.L1
.L508:
ldr	x0, [x29, -32]
b	.L1
.L509:
ldr	x0, [x29, -32]
b	.L1
.L510:
ldr	x0, [x29, -32]
b	.L1
.L511:
ldr	x0, [x29, -32]
b	.L1
.L512:
ldr	x0, [x29, -32]
b	.L1
.L513:
ldr	x0, [x29, -32]
b	.L1
.L514:
ldr	x0, [x29, -32]
b	.L1
.L515:
ldr	x0, [x29, -32]
b	.L1
.L516:
ldr	x0, [x29, -32]
b	.L1
.L517:
ldr	x0, [x29, -32]
b	.L1
.L518:
ldr	x0, [x29, -32]
b	.L1
.L519:
ldr	x0, [x29, -32]
b	.L1
.L520:
ldr	x0, [x29, -32]
b	.L1
.L521:
ldr	x0, [x29, -32]
b	.L1
.L522:
ldr	x0, [x29, -32]
b	.L1
.L523:
ldr	x0, [x29, -32]
b	.L1
.L524:
ldr	x0, [x29, -32]
b	.L1
.L525:
ldr	x0, [x29, -32]
b	.L1
.L526:
ldr	x0, [x29, -32]
b	.L1
.L527:
ldr	x0, [x29, -32]
b	.L1
.L528:
ldr	x0, [x29, -32]
b	.L1
.L529:
ldr	x0, [x29, -32]
b	.L1
.L530:
ldr	x0, [x29, -32]
b	.L1
.L531:
ldr	x0, [x29, -32]
b	.L1
.L532:
ldr	x0, [x29, -32]
b	.L1
.L533:
ldr	x0, [x29, -32]
b	.L1
.L534:
ldr	x0, [x29, -32]
b	.L1
.L535:
ldr	x0, [x29, -32]
b	.L1
.L536:
ldr	x0, [x29, -32]
b	.L1
.L537:
ldr	x0, [x29, -32]
b	.L1
.L538:
ldr	x0, [x29, -32]
b	.L1
.L539:
ldr	x0, [x29, -32]
b	.L1
.L540:
ldr	x0, [x29, -32]
b	.L1
.L541:
ldr	x0, [x29, -32]
b	.L1
.L542:
ldr	x0, [x29, -32]
b	.L1
.L543:
ldr	x0, [x29, -32]
b	.L1
.L544:
ldr	x0, [x29, -32]
b	.L1
.L545:
ldr	x0, [x29, -32]
b	.L1
.L546:
ldr	x0, [x29, -32]
b	.L1
.L547:
ldr	x0, [x29, -32]
b	.L1
.L548:
ldr	x0, [x29, -32]
b	.L1
.L549:
ldr	x0, [x29, -32]
b	.L1
.L550:
ldr	x0, [x29, -32]
b	.L1
.L551:
ldr	x0, [x29, -32]
b	.L1
.L552:
ldr	x0, [x29, -32]
b	.L1
.L553:
ldr	x0, [x29, -32]
b	.L1
.L554:
ldr	x0, [x29, -32]
b	.L1
.L555:
ldr	x0, [x29, -32]
b	.L1
.L556:
ldr	x0, [x29, -32]
b	.L1
.L557:
ldr	x0, [x29, -32]
b	.L1
.L558:
ldr	x0, [x29, -32]
b	.L1
.L559:
ldr	x0, [x29, -32]
b	.L1
.L560:
ldr	x0, [x29, -32]
b	.L1
.L561:
ldr	x0, [x29, -32]
b	.L1
.L562:
ldr	x0, [x29, -32]
b	.L1
.L563:
ldr	x0, [x29, -32]
b	.L1
.L564:
ldr	x0, [x29, -32]
b	.L1
.L565:
ldr	x0, [x29, -32]
b	.L1
.L566:
ldr	x0, [x29, -32]
b	.L1
.L567:
ldr	x0, [x29, -32]
b	.L1
.L568:
ldr	x0, [x29, -32]
b	.L1
.L569:
ldr	x0, [x29, -32]
b	.L1
.L570:
ldr	x0, [x29, -32]
b	.L1
.L571:
ldr	x0, [x29, -32]
b	.L1
.L572:
ldr	x0, [x29, -32]
b	.L1
.L573:
ldr	x0, [x29, -32]
b	.L1
.L574:
ldr	x0, [x29, -32]
b	.L1
.L575:
ldr	x0, [x29, -32]
b	.L1
.L576:
ldr	x0, [x29, -32]
b	.L1
.L577:
ldr	x0, [x29, -32]
b	.L1
.L578:
ldr	x0, [x29, -32]
b	.L1
.L579:
ldr	x0, [x29, -32]
b	.L1
.L580:
ldr	x0, [x29, -32]
b	.L1
.L581:
ldr	x0, [x29, -32]
b	.L1
.L582:
ldr	x0, [x29, -32]
b	.L1
.L583:
ldr	x0, [x29, -32]
b	.L1
.L584:
ldr	x0, [x29, -32]
b	.L1
.L585:
ldr	x0, [x29, -32]
b	.L1
.L586:
ldr	x0, [x29, -32]
b	.L1
.L587:
ldr	x0, [x29, -32]
b	.L1
.L588:
ldr	x0, [x29, -32]
b	.L1
.L589:
ldr	x0, [x29, -32]
b	.L1
.L590:
ldr	x0, [x29, -32]
b	.L1
.L591:
ldr	x0, [x29, -32]
b	.L1
.L592:
ldr	x0, [x29, -32]
b	.L1
.L593:
ldr	x0, [x29, -32]
b	.L1
.L594:
ldr	x0, [x29, -32]
b	.L1
.L595:
ldr	x0, [x29, -32]
b	.L1
.L596:
ldr	x0, [x29, -32]
b	.L1
.L597:
ldr	x0, [x29, -32]
b	.L1
.L598:
ldr	x0, [x29, -32]
b	.L1
.L599:
ldr	x0, [x29, -32]
b	.L1
.L600:
ldr	x0, [x29, -32]
b	.L1
.L601:
ldr	x0, [x29, -32]
b	.L1
.L602:
ldr	x0, [x29, -32]
b	.L1
.L603:
ldr	x0, [x29, -32]
b	.L1
.L604:
ldr	x0, [x29, -32]
b	.L1
.L605:
ldr	x0, [x29, -32]
b	.L1
.L606:
ldr	x0, [x29, -32]
b	.L1
.L607:
ldr	x0, [x29, -32]
b	.L1
.L608:
ldr	x0, [x29, -32]
b	.L1
.L609:
ldr	x0, [x29, -32]
b	.L1
.L610:
ldr	x0, [x29, -32]
b	.L1
.L611:
ldr	x0, [x29, -32]
b	.L1
.L612:
ldr	x0, [x29, -32]
b	.L1
.L613:
ldr	x0, [x29, -32]
b	.L1
.L614:
ldr	x0, [x29, -32]
b	.L1
.L615:
ldr	x0, [x29, -32]
b	.L1
.L616:
ldr	x0, [x29, -32]
b	.L1
.L617:
ldr	x0, [x29, -32]
b	.L1
.L618:
ldr	x0, [x29, -32]
b	.L1
.L619:
ldr	x0, [x29, -32]
b	.L1
.L620:
ldr	x0, [x29, -32]
b	.L1
.L621:
ldr	x0, [x29, -32]
b	.L1
.L622:
ldr	x0, [x29, -32]
b	.L1
.L623:
ldr	x0, [x29, -32]
b	.L1
.L624:
ldr	x0, [x29, -32]
b	.L1
.L625:
ldr	x0, [x29, -32]
b	.L1
.L626:
ldr	x0, [x29, -32]
b	.L1
.L627:
ldr	x0, [x29, -32]
b	.L1
.L628:
ldr	x0, [x29, -32]
b	.L1
.L629:
ldr	x0, [x29, -32]
b	.L1
.L630:
ldr	x0, [x29, -32]
b	.L1
.L631:
ldr	x0, [x29, -32]
b	.L1
.L632:
ldr	x0, [x29, -32]
b	.L1
.L633:
ldr	x0, [x29, -32]
b	.L1
.L634:
ldr	x0, [x29, -32]
b	.L1
.L635:
ldr	x0, [x29, -32]
b	.L1
.L636:
ldr	x0, [x29, -32]
b	.L1
.L637:
ldr	x0, [x29, -32]
b	.L1
.L638:
ldr	x0, [x29, -32]
b	.L1
.L639:
ldr	x0, [x29, -32]
b	.L1
.L640:
ldr	x0, [x29, -32]
b	.L1
.L641:
ldr	x0, [x29, -32]
b	.L1
.L642:
ldr	x0, [x29, -32]
b	.L1
.L643:
ldr	x0, [x29, -32]
b	.L1
.L644:
ldr	x0, [x29, -32]
b	.L1
.L645:
ldr	x0, [x29, -32]
b	.L1
.L646:
ldr	x0, [x29, -32]
b	.L1
.L647:
ldr	x0, [x29, -32]
b	.L1
.L648:
ldr	x0, [x29, -32]
b	.L1
.L649:
ldr	x0, [x29, -32]
b	.L1
.L650:
ldr	x0, [x29, -32]
b	.L1
.L651:
ldr	x0, [x29, -32]
b	.L1
.L652:
ldr	x0, [x29, -32]
b	.L1
.L653:
ldr	x0, [x29, -32]
b	.L1
.L654:
ldr	x0, [x29, -32]
b	.L1
.L655:
ldr	x0, [x29, -32]
b	.L1
.L656:
ldr	x0, [x29, -32]
b	.L1
.L657:
ldr	x0, [x29, -32]
b	.L1
.L658:
ldr	x0, [x29, -32]
b	.L1
.L659:
ldr	x0, [x29, -32]
b	.L1
.L660:
ldr	x0, [x29, -32]
b	.L1
.L661:
ldr	x0, [x29, -32]
b	.L1
.L662:
ldr	x0, [x29, -32]
b	.L1
.L663:
ldr	x0, [x29, -32]
b	.L1
.L664:
ldr	x0, [x29, -32]
b	.L1
.L665:
ldr	x0, [x29, -32]
b	.L1
.L666:
ldr	x0, [x29, -32]
b	.L1
.L667:
ldr	x0, [x29, -32]
b	.L1
.L668:
ldr	x0, [x29, -32]
b	.L1
.L669:
ldr	x0, [x29, -32]
b	.L1
.L670:
ldr	x0, [x29, -32]
b	.L1
.L671:
ldr	x0, [x29, -32]
b	.L1
.L672:
ldr	x0, [x29, -32]
b	.L1
.L673:
ldr	x0, [x29, -32]
b	.L1
.L674:
ldr	x0, [x29, -32]
b	.L1
.L675:
ldr	x0, [x29, -32]
b	.L1
.L676:
ldr	x0, [x29, -32]
b	.L1
.L677:
ldr	x0, [x29, -32]
b	.L1
.L678:
ldr	x0, [x29, -32]
b	.L1
.L679:
ldr	x0, [x29, -32]
b	.L1
.L680:
ldr	x0, [x29, -32]
b	.L1
.L681:
ldr	x0, [x29, -32]
b	.L1
.L682:
ldr	x0, [x29, -32]
b	.L1
.L683:
ldr	x0, [x29, -32]
b	.L1
.L684:
ldr	x0, [x29, -32]
b	.L1
.L685:
ldr	x0, [x29, -32]
b	.L1
.L686:
ldr	x0, [x29, -32]
b	.L1
.L687:
ldr	x0, [x29, -32]
b	.L1
.L688:
ldr	x0, [x29, -32]
b	.L1
.L689:
ldr	x0, [x29, -32]
b	.L1
.L690:
ldr	x0, [x29, -32]
b	.L1
.L691:
ldr	x0, [x29, -32]
b	.L1
.L692:
ldr	x0, [x29, -32]
b	.L1
.L693:
ldr	x0, [x29, -32]
b	.L1
.L694:
ldr	x0, [x29, -32]
b	.L1
.L695:
ldr	x0, [x29, -32]
b	.L1
.L696:
ldr	x0, [x29, -32]
b	.L1
.L697:
ldr	x0, [x29, -32]
b	.L1
.L698:
ldr	x0, [x29, -32]
b	.L1
.L699:
ldr	x0, [x29, -32]
b	.L1
.L700:
ldr	x0, [x29, -32]
b	.L1
.L701:
ldr	x0, [x29, -32]
b	.L1
.L702:
ldr	x0, [x29, -32]
b	.L1
.L703:
ldr	x0, [x29, -32]
b	.L1
.L704:
ldr	x0, [x29, -32]
b	.L1
.L705:
ldr	x0, [x29, -32]
b	.L1
.L706:
ldr	x0, [x29, -32]
b	.L1
.L707:
ldr	x0, [x29, -32]
b	.L1
.L708:
ldr	x0, [x29, -32]
b	.L1
.L709:
ldr	x0, [x29, -32]
b	.L1
.L710:
ldr	x0, [x29, -32]
b	.L1
.L711:
ldr	x0, [x29, -32]
b	.L1
.L712:
ldr	x0, [x29, -32]
b	.L1
.L713:
ldr	x0, [x29, -32]
b	.L1
.L714:
ldr	x0, [x29, -32]
b	.L1
.L715:
ldr	x0, [x29, -32]
b	.L1
.L716:
ldr	x0, [x29, -32]
b	.L1
.L717:
ldr	x0, [x29, -32]
b	.L1
.L718:
ldr	x0, [x29, -32]
b	.L1
.L719:
ldr	x0, [x29, -32]
b	.L1
.L720:
ldr	x0, [x29, -32]
b	.L1
.L721:
ldr	x0, [x29, -32]
b	.L1
.L722:
ldr	x0, [x29, -32]
b	.L1
.L723:
ldr	x0, [x29, -32]
b	.L1
.L724:
ldr	x0, [x29, -32]
b	.L1
.L725:
ldr	x0, [x29, -32]
b	.L1
.L726:
ldr	x0, [x29, -32]
b	.L1
.L727:
ldr	x0, [x29, -32]
b	.L1
.L728:
ldr	x0, [x29, -32]
b	.L1
.L729:
ldr	x0, [x29, -32]
b	.L1
.L730:
ldr	x0, [x29, -32]
b	.L1
.L731:
ldr	x0, [x29, -32]
b	.L1
.L732:
ldr	x0, [x29, -32]
b	.L1
.L733:
ldr	x0, [x29, -32]
b	.L1
.L734:
ldr	x0, [x29, -32]
b	.L1
.L735:
ldr	x0, [x29, -32]
b	.L1
.L736:
ldr	x0, [x29, -32]
b	.L1
.L737:
ldr	x0, [x29, -32]
b	.L1
.L738:
ldr	x0, [x29, -32]
b	.L1
.L739:
ldr	x0, [x29, -32]
b	.L1
.L740:
ldr	x0, [x29, -32]
b	.L1
.L741:
ldr	x0, [x29, -32]
b	.L1
.L742:
ldr	x0, [x29, -32]
b	.L1
.L743:
ldr	x0, [x29, -32]
b	.L1
.L744:
ldr	x0, [x29, -32]
b	.L1
.L745:
ldr	x0, [x29, -32]
b	.L1
.L746:
ldr	x0, [x29, -32]
b	.L1
.L747:
ldr	x0, [x29, -32]
b	.L1
.L748:
ldr	x0, [x29, -32]
b	.L1
.L749:
ldr	x0, [x29, -32]
b	.L1
.L750:
ldr	x0, [x29, -32]
b	.L1
.L751:
ldr	x0, [x29, -32]
b	.L1
.L752:
ldr	x0, [x29, -32]
b	.L1
.L753:
ldr	x0, [x29, -32]
b	.L1
.L754:
ldr	x0, [x29, -32]
b	.L1
.L755:
ldr	x0, [x29, -32]
b	.L1
.L756:
ldr	x0, [x29, -32]
b	.L1
.L757:
ldr	x0, [x29, -32]
b	.L1
.L758:
ldr	x0, [x29, -32]
b	.L1
.L759:
ldr	x0, [x29, -32]
b	.L1
.L760:
ldr	x0, [x29, -32]
b	.L1
.L761:
ldr	x0, [x29, -32]
b	.L1
.L762:
ldr	x0, [x29, -32]
b	.L1
.L763:
ldr	x0, [x29, -32]
b	.L1
.L764:
ldr	x0, [x29, -32]
b	.L1
.L765:
ldr	x0, [x29, -32]
b	.L1
.L766:
ldr	x0, [x29, -32]
b	.L1
.L767:
ldr	x0, [x29, -32]
b	.L1
.L768:
ldr	x0, [x29, -32]
b	.L1
.L769:
ldr	x0, [x29, -32]
b	.L1
.L770:
ldr	x0, [x29, -32]
b	.L1
.L771:
ldr	x0, [x29, -32]
b	.L1
.L772:
ldr	x0, [x29, -32]
b	.L1
.L773:
ldr	x0, [x29, -32]
b	.L1
.L774:
ldr	x0, [x29, -32]
b	.L1
.L775:
ldr	x0, [x29, -32]
b	.L1
.L776:
ldr	x0, [x29, -32]
b	.L1
.L777:
ldr	x0, [x29, -32]
b	.L1
.L778:
ldr	x0, [x29, -32]
b	.L1
.L779:
ldr	x0, [x29, -32]
b	.L1
.L780:
ldr	x0, [x29, -32]
b	.L1
.L781:
ldr	x0, [x29, -32]
b	.L1
.L782:
ldr	x0, [x29, -32]
b	.L1
.L783:
ldr	x0, [x29, -32]
b	.L1
.L784:
ldr	x0, [x29, -32]
b	.L1
.L785:
ldr	x0, [x29, -32]
b	.L1
.L786:
ldr	x0, [x29, -32]
b	.L1
.L787:
ldr	x0, [x29, -32]
b	.L1
.L788:
ldr	x0, [x29, -32]
b	.L1
.L789:
ldr	x0, [x29, -32]
b	.L1
.L790:
ldr	x0, [x29, -32]
b	.L1
.L791:
ldr	x0, [x29, -32]
b	.L1
.L792:
ldr	x0, [x29, -32]
b	.L1
.L793:
ldr	x0, [x29, -32]
b	.L1
.L794:
ldr	x0, [x29, -32]
b	.L1
.L795:
ldr	x0, [x29, -32]
b	.L1
.L796:
ldr	x0, [x29, -32]
b	.L1
.L797:
ldr	x0, [x29, -32]
b	.L1
.L798:
ldr	x0, [x29, -32]
b	.L1
.L799:
ldr	x0, [x29, -32]
b	.L1
.L800:
ldr	x0, [x29, -32]
b	.L1
.L801:
ldr	x0, [x29, -32]
b	.L1
.L802:
ldr	x0, [x29, -32]
b	.L1
.L803:
ldr	x0, [x29, -32]
b	.L1
.L804:
ldr	x0, [x29, -32]
b	.L1
.L805:
ldr	x0, [x29, -32]
b	.L1
.L806:
ldr	x0, [x29, -32]
b	.L1
.L807:
ldr	x0, [x29, -32]
b	.L1
.L808:
ldr	x0, [x29, -32]
b	.L1
.L809:
ldr	x0, [x29, -32]
b	.L1
.L810:
ldr	x0, [x29, -32]
b	.L1
.L811:
ldr	x0, [x29, -32]
b	.L1
.L812:
ldr	x0, [x29, -32]
b	.L1
.L813:
ldr	x0, [x29, -32]
b	.L1
.L814:
ldr	x0, [x29, -32]
b	.L1
.L815:
ldr	x0, [x29, -32]
b	.L1
.L816:
ldr	x0, [x29, -32]
b	.L1
.L817:
ldr	x0, [x29, -32]
b	.L1
.L818:
ldr	x0, [x29, -32]
b	.L1
.L819:
ldr	x0, [x29, -32]
b	.L1
.L820:
ldr	x0, [x29, -32]
b	.L1
.L821:
ldr	x0, [x29, -32]
b	.L1
.L822:
ldr	x0, [x29, -32]
b	.L1
.L823:
ldr	x0, [x29, -32]
b	.L1
.L824:
ldr	x0, [x29, -32]
b	.L1
.L825:
ldr	x0, [x29, -32]
b	.L1
.L826:
ldr	x0, [x29, -32]
b	.L1
.L827:
ldr	x0, [x29, -32]
b	.L1
.L828:
ldr	x0, [x29, -32]
b	.L1
.L829:
ldr	x0, [x29, -32]
b	.L1
.L830:
ldr	x0, [x29, -32]
b	.L1
.L831:
ldr	x0, [x29, -32]
b	.L1
.L832:
ldr	x0, [x29, -32]
b	.L1
.L833:
ldr	x0, [x29, -32]
b	.L1
.L834:
ldr	x0, [x29, -32]
b	.L1
.L835:
ldr	x0, [x29, -32]
b	.L1
.L836:
ldr	x0, [x29, -32]
b	.L1
.L837:
ldr	x0, [x29, -32]
b	.L1
.L838:
ldr	x0, [x29, -32]
b	.L1
.L839:
ldr	x0, [x29, -32]
b	.L1
.L840:
ldr	x0, [x29, -32]
b	.L1
.L841:
ldr	x0, [x29, -32]
b	.L1
.L842:
ldr	x0, [x29, -32]
b	.L1
.L843:
ldr	x0, [x29, -32]
b	.L1
.L844:
ldr	x0, [x29, -32]
b	.L1
.L845:
ldr	x0, [x29, -32]
b	.L1
.L846:
ldr	x0, [x29, -32]
b	.L1
.L847:
ldr	x0, [x29, -32]
b	.L1
.L848:
ldr	x0, [x29, -32]
b	.L1
.L849:
ldr	x0, [x29, -32]
b	.L1
.L850:
ldr	x0, [x29, -32]
b	.L1
.L851:
ldr	x0, [x29, -32]
b	.L1
.L852:
ldr	x0, [x29, -32]
b	.L1
.L853:
ldr	x0, [x29, -32]
b	.L1
.L854:
ldr	x0, [x29, -32]
b	.L1
.L855:
ldr	x0, [x29, -32]
b	.L1
.L856:
ldr	x0, [x29, -32]
b	.L1
.L857:
ldr	x0, [x29, -32]
b	.L1
.L858:
ldr	x0, [x29, -32]
b	.L1
.L859:
ldr	x0, [x29, -32]
b	.L1
.L860:
ldr	x0, [x29, -32]
b	.L1
.L861:
ldr	x0, [x29, -32]
b	.L1
.L862:
ldr	x0, [x29, -32]
b	.L1
.L863:
ldr	x0, [x29, -32]
b	.L1
.L864:
ldr	x0, [x29, -32]
b	.L1
.L865:
ldr	x0, [x29, -32]
b	.L1
.L866:
ldr	x0, [x29, -32]
b	.L1
.L867:
ldr	x0, [x29, -32]
b	.L1
.L868:
ldr	x0, [x29, -32]
b	.L1
.L869:
ldr	x0, [x29, -32]
b	.L1
.L870:
ldr	x0, [x29, -32]
b	.L1
.L871:
ldr	x0, [x29, -32]
b	.L1
.L872:
ldr	x0, [x29, -32]
b	.L1
.L873:
ldr	x0, [x29, -32]
b	.L1
.L874:
ldr	x0, [x29, -32]
b	.L1
.L875:
ldr	x0, [x29, -32]
b	.L1
.L876:
ldr	x0, [x29, -32]
b	.L1
.L877:
ldr	x0, [x29, -32]
b	.L1
.L878:
ldr	x0, [x29, -32]
b	.L1
.L879:
ldr	x0, [x29, -32]
b	.L1
.L880:
ldr	x0, [x29, -32]
b	.L1
.L881:
ldr	x0, [x29, -32]
b	.L1
.L882:
ldr	x0, [x29, -32]
b	.L1
.L883:
ldr	x0, [x29, -32]
b	.L1
.L884:
ldr	x0, [x29, -32]
b	.L1
.L885:
ldr	x0, [x29, -32]
b	.L1
.L886:
ldr	x0, [x29, -32]
b	.L1
.L887:
ldr	x0, [x29, -32]
b	.L1
.L888:
ldr	x0, [x29, -32]
b	.L1
.L889:
ldr	x0, [x29, -32]
b	.L1
.L890:
ldr	x0, [x29, -32]
b	.L1
.L891:
ldr	x0, [x29, -32]
b	.L1
.L892:
ldr	x0, [x29, -32]
b	.L1
.L893:
ldr	x0, [x29, -32]
b	.L1
.L894:
ldr	x0, [x29, -32]
b	.L1
.L895:
ldr	x0, [x29, -32]
b	.L1
.L896:
ldr	x0, [x29, -32]
b	.L1
.L897:
ldr	x0, [x29, -32]
b	.L1
.L898:
ldr	x0, [x29, -32]
b	.L1
.L899:
ldr	x0, [x29, -32]
b	.L1
.L900:
ldr	x0, [x29, -32]
b	.L1
.L901:
ldr	x0, [x29, -32]
b	.L1
.L902:
ldr	x0, [x29, -32]
b	.L1
.L903:
ldr	x0, [x29, -32]
b	.L1
.L904:
ldr	x0, [x29, -32]
b	.L1
.L905:
ldr	x0, [x29, -32]
b	.L1
.L906:
ldr	x0, [x29, -32]
b	.L1
.L907:
ldr	x0, [x29, -32]
b	.L1
.L908:
ldr	x0, [x29, -32]
b	.L1
.L909:
ldr	x0, [x29, -32]
b	.L1
.L910:
ldr	x0, [x29, -32]
b	.L1
.L911:
ldr	x0, [x29, -32]
b	.L1
.L912:
ldr	x0, [x29, -32]
b	.L1
.L913:
ldr	x0, [x29, -32]
b	.L1
.L914:
ldr	x0, [x29, -32]
b	.L1
.L915:
ldr	x0, [x29, -32]
b	.L1
.L916:
ldr	x0, [x29, -32]
b	.L1
.L917:
ldr	x0, [x29, -32]
b	.L1
.L918:
ldr	x0, [x29, -32]
b	.L1
.L919:
ldr	x0, [x29, -32]
b	.L1
.L920:
ldr	x0, [x29, -32]
b	.L1
.L921:
ldr	x0, [x29, -32]
b	.L1
.L922:
ldr	x0, [x29, -32]
b	.L1
.L923:
ldr	x0, [x29, -32]
b	.L1
.L924:
ldr	x0, [x29, -32]
b	.L1
.L925:
ldr	x0, [x29, -32]
b	.L1
.L926:
ldr	x0, [x29, -32]
b	.L1
.L927:
ldr	x0, [x29, -32]
b	.L1
.L928:
ldr	x0, [x29, -32]
b	.L1
.L929:
ldr	x0, [x29, -32]
b	.L1
.L930:
ldr	x0, [x29, -32]
b	.L1
.L931:
ldr	x0, [x29, -32]
b	.L1
.L932:
ldr	x0, [x29, -32]
b	.L1
.L933:
ldr	x0, [x29, -32]
b	.L1
.L934:
ldr	x0, [x29, -32]
b	.L1
.L935:
ldr	x0, [x29, -32]
b	.L1
.L936:
ldr	x0, [x29, -32]
b	.L1
.L937:
ldr	x0, [x29, -32]
b	.L1
.L938:
ldr	x0, [x29, -32]
b	.L1
.L939:
ldr	x0, [x29, -32]
b	.L1
.L940:
ldr	x0, [x29, -32]
b	.L1
.L941:
ldr	x0, [x29, -32]
b	.L1
.L942:
ldr	x0, [x29, -32]
b	.L1
.L943:
ldr	x0, [x29, -32]
b	.L1
.L944:
ldr	x0, [x29, -32]
b	.L1
.L945:
ldr	x0, [x29, -32]
b	.L1
.L946:
ldr	x0, [x29, -32]
b	.L1
.L947:
ldr	x0, [x29, -32]
b	.L1
.L948:
ldr	x0, [x29, -32]
b	.L1
.L949:
ldr	x0, [x29, -32]
b	.L1
.L950:
ldr	x0, [x29, -32]
b	.L1
.L951:
ldr	x0, [x29, -32]
b	.L1
.L952:
ldr	x0, [x29, -32]
b	.L1
.L953:
ldr	x0, [x29, -32]
b	.L1
.L954:
ldr	x0, [x29, -32]
b	.L1
.L955:
ldr	x0, [x29, -32]
b	.L1
.L956:
ldr	x0, [x29, -32]
b	.L1
.L957:
ldr	x0, [x29, -32]
b	.L1
.L958:
ldr	x0, [x29, -32]
b	.L1
.L959:
ldr	x0, [x29, -32]
b	.L1
.L960:
ldr	x0, [x29, -32]
b	.L1
.L961:
ldr	x0, [x29, -32]
b	.L1
.L962:
ldr	x0, [x29, -32]
b	.L1
.L963:
ldr	x0, [x29, -32]
b	.L1
.L964:
ldr	x0, [x29, -32]
b	.L1
.L965:
ldr	x0, [x29, -32]
b	.L1
.L966:
ldr	x0, [x29, -32]
b	.L1
.L967:
ldr	x0, [x29, -32]
b	.L1
.L968:
ldr	x0, [x29, -32]
b	.L1
.L969:
ldr	x0, [x29, -32]
b	.L1
.L970:
ldr	x0, [x29, -32]
b	.L1
.L971:
ldr	x0, [x29, -32]
b	.L1
.L972:
ldr	x0, [x29, -32]
b	.L1
.L973:
ldr	x0, [x29, -32]
b	.L1
.L974:
ldr	x0, [x29, -32]
b	.L1
.L975:
ldr	x0, [x29, -32]
b	.L1
.L976:
ldr	x0, [x29, -32]
b	.L1
.L977:
ldr	x0, [x29, -32]
b	.L1
.L978:
ldr	x0, [x29, -32]
b	.L1
.L979:
ldr	x0, [x29, -32]
b	.L1
.L980:
ldr	x0, [x29, -32]
b	.L1
.L981:
ldr	x0, [x29, -32]
b	.L1
.L982:
ldr	x0, [x29, -32]
b	.L1
.L983:
ldr	x0, [x29, -32]
b	.L1
.L984:
ldr	x0, [x29, -32]
b	.L1
.L985:
ldr	x0, [x29, -32]
b	.L1
.L986:
ldr	x0, [x29, -32]
b	.L1
.L987:
ldr	x0, [x29, -32]
b	.L1
.L988:
ldr	x0, [x29, -32]
b	.L1
.L989:
ldr	x0, [x29, -32]
b	.L1
.L990:
ldr	x0, [x29, -32]
b	.L1
.L991:
ldr	x0, [x29, -32]
b	.L1
.L992:
ldr	x0, [x29, -32]
b	.L1
.L993:
ldr	x0, [x29, -32]
b	.L1
.L994:
ldr	x0, [x29, -32]
b	.L1
.L995:
ldr	x0, [x29, -32]
b	.L1
.L996:
ldr	x0, [x29, -32]
b	.L1
.L997:
ldr	x0, [x29, -32]
b	.L1
.L998:
ldr	x0, [x29, -32]
b	.L1
.L999:
ldr	x0, [x29, -32]
b	.L1
.L1000:
ldr	x0, [x29, -32]
b	.L1
.L1001:
ldr	x0, [x29, -32]
b	.L1
.L1002:
ldr	x0, [x29, -32]
b	.L1
.L1003:
ldr	x0, [x29, -32]
b	.L1
.L1004:
ldr	x0, [x29, -32]
b	.L1
.L1005:
ldr	x0, [x29, -32]
b	.L1
.L1006:
ldr	x0, [x29, -32]
b	.L1
.L1007:
ldr	x0, [x29, -32]
b	.L1
.L1008:
ldr	x0, [x29, -32]
b	.L1
.L1009:
ldr	x0, [x29, -32]
b	.L1
.L1010:
ldr	x0, [x29, -32]
b	.L1
.L1011:
ldr	x0, [x29, -32]
b	.L1
.L1012:
ldr	x0, [x29, -32]
b	.L1
.L1013:
ldr	x0, [x29, -32]
b	.L1
.L1014:
ldr	x0, [x29, -32]
b	.L1
.L1015:
ldr	x0, [x29, -32]
b	.L1
.L1016:
ldr	x0, [x29, -32]
b	.L1
.L1017:
ldr	x0, [x29, -32]
b	.L1
.L1018:
ldr	x0, [x29, -32]
b	.L1
.L1019:
ldr	x0, [x29, -32]
b	.L1
.L1020:
ldr	x0, [x29, -32]
b	.L1
.L1021:
ldr	x0, [x29, -32]
b	.L1
.L1022:
ldr	x0, [x29, -32]
b	.L1
.L1023:
ldr	x0, [x29, -32]
b	.L1
.L1024:
ldr	x0, [x29, -32]
b	.L1
.L1025:
ldr	x0, [x29, -32]
b	.L1
.L1026:
ldr	x0, [x29, -32]
b	.L1
.L1027:
ldr	x0, [x29, -32]
b	.L1
.L1028:
ldr	x0, [x29, -32]
b	.L1
.L1029:
ldr	x0, [x29, -32]
b	.L1
.L1030:
ldr	x0, [x29, -32]
b	.L1
.L1031:
ldr	x0, [x29, -32]
b	.L1
.L1032:
ldr	x0, [x29, -32]
b	.L1
.L1033:
ldr	x0, [x29, -32]
b	.L1
.L1034:
ldr	x0, [x29, -32]
b	.L1
.L1035:
ldr	x0, [x29, -32]
b	.L1
.L1036:
ldr	x0, [x29, -32]
b	.L1
.L1037:
ldr	x0, [x29, -32]
b	.L1
.L1038:
ldr	x0, [x29, -32]
b	.L1
.L1039:
ldr	x0, [x29, -32]
b	.L1
.L1040:
ldr	x0, [x29, -32]
b	.L1
.L1041:
ldr	x0, [x29, -32]
b	.L1
.L1042:
ldr	x0, [x29, -32]
b	.L1
.L1043:
ldr	x0, [x29, -32]
b	.L1
.L1044:
ldr	x0, [x29, -32]
b	.L1
.L1045:
ldr	x0, [x29, -32]
b	.L1
.L1046:
ldr	x0, [x29, -32]
b	.L1
.L1047:
ldr	x0, [x29, -32]
b	.L1
.L1048:
ldr	x0, [x29, -32]
b	.L1
.L1049:
ldr	x0, [x29, -32]
b	.L1
.L1050:
ldr	x0, [x29, -32]
b	.L1
.L1051:
ldr	x0, [x29, -32]
b	.L1
.L1052:
ldr	x0, [x29, -32]
b	.L1
.L1053:
ldr	x0, [x29, -32]
b	.L1
.L1054:
ldr	x0, [x29, -32]
b	.L1
.L1055:
ldr	x0, [x29, -32]
b	.L1
.L1056:
ldr	x0, [x29, -32]
b	.L1
.L1057:
ldr	x0, [x29, -32]
b	.L1
.L1058:
ldr	x0, [x29, -32]
b	.L1
.L1059:
ldr	x0, [x29, -32]
b	.L1
.L1060:
ldr	x0, [x29, -32]
b	.L1
.L1061:
ldr	x0, [x29, -32]
b	.L1
.L1062:
ldr	x0, [x29, -32]
b	.L1
.L1063:
ldr	x0, [x29, -32]
b	.L1
.L1064:
ldr	x0, [x29, -32]
b	.L1
.L1065:
ldr	x0, [x29, -32]
b	.L1
.L1066:
ldr	x0, [x29, -32]
b	.L1
.L1067:
ldr	x0, [x29, -32]
b	.L1
.L1068:
ldr	x0, [x29, -32]
b	.L1
.L1069:
ldr	x0, [x29, -32]
b	.L1
.L1070:
ldr	x0, [x29, -32]
b	.L1
.L1071:
ldr	x0, [x29, -32]
b	.L1
.L1072:
ldr	x0, [x29, -32]
b	.L1
.L1073:
ldr	x0, [x29, -32]
b	.L1
.L1074:
ldr	x0, [x29, -32]
b	.L1
.L1075:
ldr	x0, [x29, -32]
b	.L1
.L1076:
ldr	x0, [x29, -32]
b	.L1
.L1077:
ldr	x0, [x29, -32]
b	.L1
.L1078:
ldr	x0, [x29, -32]
b	.L1
.L1079:
ldr	x0, [x29, -32]
b	.L1
.L1080:
ldr	x0, [x29, -32]
b	.L1
.L1081:
ldr	x0, [x29, -32]
b	.L1
.L1082:
ldr	x0, [x29, -32]
b	.L1
.L1083:
ldr	x0, [x29, -32]
b	.L1
.L1084:
ldr	x0, [x29, -32]
b	.L1
.L1085:
ldr	x0, [x29, -32]
b	.L1
.L1086:
ldr	x0, [x29, -32]
b	.L1
.L1087:
ldr	x0, [x29, -32]
b	.L1
.L1088:
ldr	x0, [x29, -32]
b	.L1
.L1089:
ldr	x0, [x29, -32]
b	.L1
.L1090:
ldr	x0, [x29, -32]
b	.L1
.L1091:
ldr	x0, [x29, -32]
b	.L1
.L1092:
ldr	x0, [x29, -32]
b	.L1
.L1093:
ldr	x0, [x29, -32]
b	.L1
.L1094:
ldr	x0, [x29, -32]
b	.L1
.L1095:
ldr	x0, [x29, -32]
b	.L1
.L1096:
ldr	x0, [x29, -32]
b	.L1
.L1097:
ldr	x0, [x29, -32]
b	.L1
.L1098:
ldr	x0, [x29, -32]
b	.L1
.L1099:
ldr	x0, [x29, -32]
b	.L1
.L1100:
ldr	x0, [x29, -32]
b	.L1
.L1101:
ldr	x0, [x29, -32]
b	.L1
.L1102:
ldr	x0, [x29, -32]
b	.L1
.L1103:
ldr	x0, [x29, -32]
b	.L1
.L1104:
ldr	x0, [x29, -32]
b	.L1
.L1105:
ldr	x0, [x29, -32]
b	.L1
.L1106:
ldr	x0, [x29, -32]
b	.L1
.L1107:
ldr	x0, [x29, -32]
b	.L1
.L1108:
ldr	x0, [x29, -32]
b	.L1
.L1109:
ldr	x0, [x29, -32]
b	.L1
.L1110:
ldr	x0, [x29, -32]
b	.L1
.L1111:
ldr	x0, [x29, -32]
b	.L1
.L1112:
ldr	x0, [x29, -32]
b	.L1
.L1113:
ldr	x0, [x29, -32]
b	.L1
.L1114:
ldr	x0, [x29, -32]
b	.L1
.L1115:
ldr	x0, [x29, -32]
b	.L1
.L1116:
ldr	x0, [x29, -32]
b	.L1
.L1117:
ldr	x0, [x29, -32]
b	.L1
.L1118:
ldr	x0, [x29, -32]
b	.L1
.L1119:
ldr	x0, [x29, -32]
b	.L1
.L1120:
ldr	x0, [x29, -32]
b	.L1
.L1121:
ldr	x0, [x29, -32]
b	.L1
.L1122:
ldr	x0, [x29, -32]
b	.L1
.L1123:
ldr	x0, [x29, -32]
b	.L1
.L1124:
ldr	x0, [x29, -32]
b	.L1
.L1125:
ldr	x0, [x29, -32]
b	.L1
.L1126:
ldr	x0, [x29, -32]
b	.L1
.L1127:
ldr	x0, [x29, -32]
b	.L1
.L1128:
ldr	x0, [x29, -32]
b	.L1
.L1129:
ldr	x0, [x29, -32]
b	.L1
.L1130:
ldr	x0, [x29, -32]
b	.L1
.L1131:
ldr	x0, [x29, -32]
b	.L1
.L1132:
ldr	x0, [x29, -32]
b	.L1
.L1133:
ldr	x0, [x29, -32]
b	.L1
.L1134:
ldr	x0, [x29, -32]
b	.L1
.L1135:
ldr	x0, [x29, -32]
b	.L1
.L1136:
ldr	x0, [x29, -32]
b	.L1
.L1137:
ldr	x0, [x29, -32]
b	.L1
.L1138:
ldr	x0, [x29, -32]
b	.L1
.L1139:
ldr	x0, [x29, -32]
b	.L1
.L1140:
ldr	x0, [x29, -32]
b	.L1
.L1141:
ldr	x0, [x29, -32]
b	.L1
.L1142:
ldr	x0, [x29, -32]
b	.L1
.L1143:
ldr	x0, [x29, -32]
b	.L1
.L1144:
ldr	x0, [x29, -32]
b	.L1
.L1145:
ldr	x0, [x29, -32]
b	.L1
.L1146:
ldr	x0, [x29, -32]
b	.L1
.L1147:
ldr	x0, [x29, -32]
b	.L1
.L1148:
ldr	x0, [x29, -32]
b	.L1
.L1149:
ldr	x0, [x29, -32]
b	.L1
.L1150:
ldr	x0, [x29, -32]
b	.L1
.L1151:
ldr	x0, [x29, -32]
b	.L1
.L1152:
ldr	x0, [x29, -32]
b	.L1
.L1153:
ldr	x0, [x29, -32]
b	.L1
.L1154:
ldr	x0, [x29, -32]
b	.L1
.L1155:
ldr	x0, [x29, -32]
b	.L1
.L1156:
ldr	x0, [x29, -32]
b	.L1
.L1157:
ldr	x0, [x29, -32]
b	.L1
.L1158:
ldr	x0, [x29, -32]
b	.L1
.L1159:
ldr	x0, [x29, -32]
b	.L1
.L1160:
ldr	x0, [x29, -32]
b	.L1
.L1161:
ldr	x0, [x29, -32]
b	.L1
.L1162:
ldr	x0, [x29, -32]
b	.L1
.L1163:
ldr	x0, [x29, -32]
b	.L1
.L1164:
ldr	x0, [x29, -32]
b	.L1
.L1165:
ldr	x0, [x29, -32]
b	.L1
.L1166:
ldr	x0, [x29, -32]
b	.L1
.L1167:
ldr	x0, [x29, -32]
b	.L1
.L1168:
ldr	x0, [x29, -32]
b	.L1
.L1169:
ldr	x0, [x29, -32]
b	.L1
.L1170:
ldr	x0, [x29, -32]
b	.L1
.L1171:
ldr	x0, [x29, -32]
b	.L1
.L1172:
ldr	x0, [x29, -32]
b	.L1
.L1173:
ldr	x0, [x29, -32]
b	.L1
.L1174:
ldr	x0, [x29, -32]
b	.L1
.L1175:
ldr	x0, [x29, -32]
b	.L1
.L1176:
ldr	x0, [x29, -32]
b	.L1
.L1177:
ldr	x0, [x29, -32]
b	.L1
.L1178:
ldr	x0, [x29, -32]
b	.L1
.L1179:
ldr	x0, [x29, -32]
b	.L1
.L1180:
ldr	x0, [x29, -32]
b	.L1
.L1181:
ldr	x0, [x29, -32]
b	.L1
.L1182:
ldr	x0, [x29, -32]
b	.L1
.L1183:
ldr	x0, [x29, -32]
b	.L1
.L1184:
ldr	x0, [x29, -32]
b	.L1
.L1185:
ldr	x0, [x29, -32]
b	.L1
.L1186:
ldr	x0, [x29, -32]
b	.L1
.L1187:
ldr	x0, [x29, -32]
b	.L1
.L1188:
ldr	x0, [x29, -32]
b	.L1
.L1189:
ldr	x0, [x29, -32]
b	.L1
.L1190:
ldr	x0, [x29, -32]
b	.L1
.L1191:
ldr	x0, [x29, -32]
b	.L1
.L1192:
ldr	x0, [x29, -32]
b	.L1
.L1193:
ldr	x0, [x29, -32]
b	.L1
.L1194:
ldr	x0, [x29, -32]
b	.L1
.L1195:
ldr	x0, [x29, -32]
b	.L1
.L1196:
ldr	x0, [x29, -32]
b	.L1
.L1197:
ldr	x0, [x29, -32]
b	.L1
.L1198:
ldr	x0, [x29, -32]
b	.L1
.L1199:
ldr	x0, [x29, -32]
b	.L1
.L1200:
ldr	x0, [x29, -32]
b	.L1
.L1201:
ldr	x0, [x29, -32]
b	.L1
.L1202:
ldr	x0, [x29, -32]
b	.L1
.L1203:
ldr	x0, [x29, -32]
b	.L1
.L1204:
ldr	x0, [x29, -32]
b	.L1
.L1205:
ldr	x0, [x29, -32]
b	.L1
.L1206:
ldr	x0, [x29, -32]
b	.L1
.L1207:
ldr	x0, [x29, -32]
b	.L1
.L1208:
ldr	x0, [x29, -32]
b	.L1
.L1209:
ldr	x0, [x29, -32]
b	.L1
.L1210:
ldr	x0, [x29, -32]
b	.L1
.L1211:
ldr	x0, [x29, -32]
b	.L1
.L1212:
ldr	x0, [x29, -32]
b	.L1
.L1213:
ldr	x0, [x29, -32]
b	.L1
.L1214:
ldr	x0, [x29, -32]
b	.L1
.L1215:
ldr	x0, [x29, -32]
b	.L1
.L1216:
ldr	x0, [x29, -32]
b	.L1
.L1217:
ldr	x0, [x29, -32]
b	.L1
.L1218:
ldr	x0, [x29, -32]
b	.L1
.L1219:
ldr	x0, [x29, -32]
b	.L1
.L1220:
ldr	x0, [x29, -32]
b	.L1
.L1221:
ldr	x0, [x29, -32]
b	.L1
.L1222:
ldr	x0, [x29, -32]
b	.L1
.L1223:
ldr	x0, [x29, -32]
b	.L1
.L1224:
ldr	x0, [x29, -32]
b	.L1
.L1225:
ldr	x0, [x29, -32]
b	.L1
.L1226:
ldr	x0, [x29, -32]
b	.L1
.L1227:
ldr	x0, [x29, -32]
b	.L1
.L1228:
ldr	x0, [x29, -32]
b	.L1
.L1229:
ldr	x0, [x29, -32]
b	.L1
.L1230:
ldr	x0, [x29, -32]
b	.L1
.L1231:
ldr	x0, [x29, -32]
b	.L1
.L1232:
ldr	x0, [x29, -32]
b	.L1
.L1233:
ldr	x0, [x29, -32]
b	.L1
.L1234:
ldr	x0, [x29, -32]
b	.L1
.L1235:
ldr	x0, [x29, -32]
b	.L1
.L1236:
ldr	x0, [x29, -32]
b	.L1
.L1237:
ldr	x0, [x29, -32]
b	.L1
.L1238:
ldr	x0, [x29, -32]
b	.L1
.L1239:
ldr	x0, [x29, -32]
b	.L1
.L1240:
ldr	x0, [x29, -32]
b	.L1
.L1241:
ldr	x0, [x29, -32]
b	.L1
.L1242:
ldr	x0, [x29, -32]
b	.L1
.L1243:
ldr	x0, [x29, -32]
b	.L1
.L1244:
ldr	x0, [x29, -32]
b	.L1
.L1245:
ldr	x0, [x29, -32]
b	.L1
.L1246:
ldr	x0, [x29, -32]
b	.L1
.L1247:
ldr	x0, [x29, -32]
b	.L1
.L1248:
ldr	x0, [x29, -32]
b	.L1
.L1249:
ldr	x0, [x29, -32]
b	.L1
.L1250:
ldr	x0, [x29, -32]
b	.L1
.L1251:
ldr	x0, [x29, -32]
b	.L1
.L1252:
ldr	x0, [x29, -32]
b	.L1
.L1253:
ldr	x0, [x29, -32]
b	.L1
.L1254:
ldr	x0, [x29, -32]
b	.L1
.L1255:
ldr	x0, [x29, -32]
b	.L1
.L1256:
ldr	x0, [x29, -32]
b	.L1
.L1257:
ldr	x0, [x29, -32]
b	.L1
.L1258:
ldr	x0, [x29, -32]
b	.L1
.L1259:
ldr	x0, [x29, -32]
b	.L1
.L1260:
ldr	x0, [x29, -32]
b	.L1
.L1261:
ldr	x0, [x29, -32]
b	.L1
.L1262:
ldr	x0, [x29, -32]
b	.L1
.L1263:
ldr	x0, [x