.arch armv8-a
.file	__TEXT,__text,regular,pure_instructions
.align	2
.sp	48
.global	_func0
.section	__TEXT,__text,regular,pure_instructions
    .build_version macos, 13, 0	sdk_version 13, 3
    .globl	_func0
    .section	__TEXT,__text,regular,pure_instructions
    .align	2
.func	_func0
    .cfi_startproc
stp	x29, x30, [sp, -64]!
.cfi_def_cfa_offset 64
.cfi_offset 29, -64
.cfi_offset 30, -56
adrp	x2, .LANCHOR0
mov	x29, sp
.cfi_def_cfa_register 29
str	x19, [sp, 16]
sub	w19, w0,
add	x2, x2, :lo12:.LANCHOR0
.cfi_offset 19, -48
str	wzr, [x29, -8]
ldr	x3, [x29, -16]
str	x2, [x29, -24]
str	x3, [x29, -32]
ldrsw	x2, [x29, -8]
str	x0, [x29, -40]
ldrb	w3, [x3, w19, sxtw]
cmp	w3, 0
csel	w19, w19, wzr, ne
cbnz	w19, .L2
.L5:
ldr	x3, [x29, -16]
ldrb	w3, [x3, w19, sxtw]
strb	w3, [x29, -28]
.L3:
add	x2, x29, 24
ldrb	w2, [x2, w19, sxtw]
cmp	w2, 0
ccmp	w2, w3, 4, ne
beq	.L5
.L2:
ldr	x0, [x29, -40]
ldrb	w2, [x0, w19, sxtw]
strb	w2, [x29, -26]
b	.L3
.L4:
ldr	x0, [x29, -40]
ldrb	w2, [x0, w19, sxtw]
strb	w2, [x29, -26]
cbz	w2, .L4
.L10:
ldr	x1, [x29, -32]
ldrb	w2, [x29, -28]
ldrb	w3, [x29, -26]
add	w2, w1, 1
strb	w2, [x29, -28]
ldr	x0, [x29, -16]
ldrb	w3, [x0, w1, sxtw]
cmp	w2, w3
beq	.L10
b	.L3
.L11:
ldr	x0, [x29, -32]
add	w1, w1, 1
strb	w1, [x29, -28]
ldr	x2, [x29, -24]
ldr	x0, [x29, -32]
ldrb	w1, [x29, -26]
ldrb	w2, [x2, w1, sxtw]
cmp	w1, w2
bgt	.L3
.L12:
ldr	w1, [x29, -28]
add	w1, w1, 1
str	w1, [x29, -28]
b	.L10
.L8:
ldr	x0, [x29, -40]
ldrb	w0, [x0, w19, sxtw]
strb	w0, [x29, -28]
cbz	w0, .L8
.L13:
ldr	x0, [x29, -32]
add	w1, w1, 1
strb	w1, [x29, -28]
ldr	x2, [x29, -24]
ldr	x0, [x29, -32]
ldrb	w1, [x2, w1, sxtw]
cmp	w1, w0
bcc	.L13
.L3:
ldr	x0, [x29, -24]
str	wzr, [x29, -28]
.L9:
ldrsw	x1, [x29, -28]
ldrb	w1, [x0, x1]
cbz	w1, .L16
ldr	x2, [x29, -32]
ldr	x0, [x29, -24]
ldrb	w1, [x2, w1, sxtw]
cmp	w1, w0
beq	.L3
.L14:
ldr	x0, [x29, -32]
add	w1, w1, 2
strb	w1, [x29, -28]
ldr	x2, [x29, -24]
ldr	x0, [x29, -32]
ldrb	w1, [x2, w1, sxtw]
cmp	w1, w0
bne	.L3
.L15:
ldr	x0, [x29, -24]
ldr	x2, [x29, -32]
ldrb	w1, [x29, -28]
ldrb	w2, [x0, x1]
strb	w2, [x2, x1]
b	.L9
.L16:
ldr	x0, [x29, -16]
str	wzr, [x0, w19, sxtw]
ldr	x19, [sp, 16]
ldp	x29, x30, [sp], 64
.cfi_restore 30
.cfi_restore 29
.cfi_restore 19
.cfi_def_cfa_offset 0
ret
.L17:
mov	x0, x2
b	.L9
.L18:
mov	x0, x1
b	.L14
.L19:
mov	x0, x2
b	.L15
.L7:
mov	x0, x1
b	.L16
.L6:
mov	x0, x2
b	.L3
.L20:
mov	x0, x1
b	.L13
.L21:
mov	x0, x2
b	.L10
.L22:
mov	x0, x1
b	.L11
.L23:
mov	x0, x2
b	.L12
.L24:
mov	x0, x1
b	.L10
.L25:
mov	x0, x2
b	.L11
.L26:
mov	x0, x1
b	.L12
.L27:
mov	x0, x2
b	.L13
.L28:
mov	x0, x1
b	.L14
.L29:
mov	x0, x2
b	.L15
.L30:
mov	x0, x1
b	.L3
.L31:
mov	x0, x2
b	.L10
.L32:
mov	x0, x1
b	.L11
.L33:
mov	x0, x2
b	.L12
.L34:
mov	x0, x1
b	.L13
.L35:
mov	x0, x2
b	.L14
.L36:
mov	x0, x1
b	.L10
.L37:
mov	x0, x2
b	.L11
.L38:
mov	x0, x1
b	.L12
.L39:
mov	x0, x2
b	.L13
.L40:
mov	x0, x1
b	.L14
.L41:
mov	x0, x2
b	.L10
.L42:
mov	x0, x1
b	.L11
.L43:
mov	x0, x2
b	.L12
.L44:
mov	x0, x1
b	.L13
.L45:
mov	x0, x2
b	.L14
.L46:
mov	x0, x1
b	.L10
.L47:
mov	x0, x2
b	.L11
.L48:
mov	x0, x1
b	.L12
.L49:
mov	x0, x2
b	.L13
.L50:
mov	x0, x1
b	.L14
.L51:
mov	x0, x2
b	.L10
.L52:
mov	x0, x1
b	.L11
.L53:
mov	x0, x2
b	.L12
.L54:
mov	x0, x1
b	.L13
.L55:
mov	x0, x2
b	.L14
.L56:
mov	x0, x1
b	.L10
.L57:
mov	x0, x2
b	.L11
.L58:
mov	x0, x2
b	.L12
.L59:
mov	x0, x1
b	.L13
.L60:
mov	x0, x2
b	.L14
.L61:
mov	x0, x1
b	.L10
.L62:
mov	x0, x2
b	.L11
.L63:
mov	x0, x2
b	.L12
.L64:
mov	x0, x1
b	.L13
.L65:
mov	x0, x2
b	.L14
.L66:
mov	x0, x1
b	.L10
.L67:
mov	x0, x2
b	.L11
.L68:
mov	x0, x2
b	.L12
.L69:
mov	x0, x1
b	.L13
.L70:
mov	x0, x2
b	.L14
.L71:
mov	x0, x1
b	.L10
.L72:
mov	x0, x2
b	.L11
.L73:
mov	x0, x2
b	.L12
.L74:
mov	x0, x1
b	.L13
.L75:
mov	x0, x2
b	.L14
.L76:
mov	x0, x1
b	.L10
.L77:
mov	x0, x2
b	.L11
.L78:
mov	x0, x2
b	.L12
.L79:
mov	x0, x1
b	.L13
.L80:
mov	x0, x2
b	.L14
.L81:
mov	x0, x1
b	.L10
.L82:
mov	x0, x2
b	.L11
.L83:
mov	x0, x2
b	.L12
.L84:
mov	x0, x1
b	.L13
.L85:
mov	x0, x2
b	.L14
.L86:
mov	x0, x1
b	.L10
.L87:
mov	x0, x2
b	.L11
.L88:
mov	x0, x2
b	.L12
.L89:
mov	x0, x1
b	.L13
.L90:
mov	x0, x2
b	.L14
.L91:
mov	x0, x1
b	.L10
.L92:
mov	x0, x2
b	.L11
.L93:
mov	x0, x2
b	.L12
.L94:
mov	x0, x1
b	.L13
.L95:
mov	x0, x2
b	.L14
.L96:
mov	x0, x1
b	.L10
.L97:
mov	x0, x2
b	.L11
.L98:
mov	x0, x2
b	.L12
.L99:
mov	x0, x1
b	.L13
.L100:
mov	x0, x2
b	.L14
.L101:
mov	x0, x1
b	.L10
.L102:
mov	x0, x2
b	.L11
.L103:
mov	x0, x2
b	.L12
.L104:
mov	x0, x1
b	.L13
.L105:
mov	x0, x2
b	.L14
.L106:
mov	x0, x1
b	.L10
.L107:
mov	x0, x2
b	.L11
.L108:
mov	x0, x2
b	.L12
.L109:
mov	x0, x1
b	.L13
.L110:
mov	x0, x2
b	.L14
.L111:
mov	x0, x1
b	.L10
.L112:
mov	x0, x2
b	.L11
.L113:
mov	x0, x2
b	.L12
.L114:
mov	x0, x1
b	.L13
.L115:
mov	x0, x2
b	.L14
.L116:
mov	x0, x1
b	.L10
.L117:
mov	x0, x2
b	.L11
.L118:
mov	x0, x2
b	.L12
.L119:
mov	x0, x1
b	.L13
.L120:
mov	x0, x2
b	.L14
.L121:
mov	x0, x1
b	.L10
.L122:
mov	x0, x2
b	.L11
.L123:
mov	x0, x2
b	.L12
.L124:
mov	x0, x1
b	.L13
.L125:
mov	x0, x2
b	.L14
.L126:
mov	x0, x1
b	.L10
.L127:
mov	x0, x2
b	.L11
.L128:
mov	x0, x2
b	.L12
.L129:
mov	x0, x1
b	.L13
.L130:
mov	x0, x2
b	.L14
.L131:
mov	x0, x1
b	.L10
.L132:
mov	x0, x2
b	.L11
.L133:
mov	x0, x2
b	.L12
.L134:
mov	x0, x1
b	.L13
.L135:
mov	x0, x2
b	.L14
.L136:
mov	x0, x1
b	.L10
.L137:
mov	x0, x2
b	.L11
.L138:
mov	x0, x2
b	.L12
.L139:
mov	x0, x1
b	.L13
.L140:
mov	x0, x2
b	.L14
.L141:
mov	x0, x1
b	.L10
.L142:
mov	x0, x2
b	.L11
.L143:
mov	x0, x2
b	.L12
.L144:
mov	x0, x1
b	.L13
.L145:
mov	x0, x2
b	.L14
.L146:
mov	x0, x1
b	.L10
.L147:
mov	x0, x2
b	.L11
.L148:
mov	x0, x2
b	.L12
.L149:
mov	x0, x1
b	.L13
.L150:
mov	x0, x2
b	.L14
.L151:
mov	x0, x1
b	.L10
.L152:
mov	x0, x2
b	.L11
.L153:
mov	x0, x2
b	.L12
.L154:
mov	x0, x1
b	.L13
.L155:
mov	x0, x2
b	.L14
.L156:
mov	x0, x1
b	.L10
.L157:
mov	x0, x2
b	.L11
.L158:
mov	x0, x2
b	.L12
.L159:
mov	x0, x1
b	.L13
.L160:
mov	x0, x2
b	.L14
.L161:
mov	x0, x1
b	.L10
.L162:
mov	x0, x2
b	.L11
.L163:
mov	x0, x2
b	.L12
.L164:
mov	x0, x1
b	.L13
.L165:
mov	x0, x2
b	.L14
.L166:
mov	x0, x1
b	.L10
.L167:
mov	x0, x2
b	.L11
.L168:
mov	x0, x2
b	.L12
.L169:
mov	x0, x1
b	.L13
.L170:
mov	x0, x2
b	.L14
.L171:
mov	x0, x1
b	.L10
.L172:
mov	x0, x2
b	.L11
.L173:
mov	x0, x2
b	.L12
.L174:
mov	x0, x1
b	.L13
.L175:
mov	x0, x2
b	.L14
.L176:
mov	x0, x1
b	.L10
.L177:
mov	x0, x2
b	.L11
.L178:
mov	x0, x2
b	.L12
.L179:
mov	x0, x1
b	.L13
.L180:
mov	x0, x2
b	.L14
.L181:
mov	x0, x1
b	.L10
.L182:
mov	x0, x2
b	.L11
.L183:
mov	x0, x2
b	.L12
.L184:
mov	x0, x1
b	.L13
.L185:
mov	x0, x2
b	.L14
.L186:
mov	x0, x1
b	.L10
.L187:
mov	x0, x2
b	.L11
.L188:
mov	x0, x2
b	.L12
.L189:
mov	x0, x1
b	.L13
.L190:
mov	x0, x2
b	.L14
.L191:
mov	x0, x1
b	.L10
.L192:
mov	x0, x2
b	.L11
.L193:
mov	x0, x2
b	.L12
.L194:
mov	x0, x1
b	.L13
.L195:
mov	x0, x2
b	.L14
.L196:
mov	x0, x1
b	.L10
.L197:
mov	x0, x2
b	.L11
.L198:
mov	x0, x2
b	.L12
.L199:
mov	x0, x1
b	.L13
.L200:
mov	x0, x2
b	.L14
.L201:
mov	x0, x1
b	.L10
.L202:
mov	x0, x2
b	.L11
.L203:
mov	x0, x2
b	.L12
.L204:
mov	x0, x1
b	.L13
.L205:
mov	x0, x2
b	.L14
.L206:
mov	x0, x1
b	.L10
.L207:
mov	x0, x2
b	.L11
.L208:
mov	x0, x2
b	.L12
.L209:
mov	x0, x1
b	.L13
.L210:
mov	x0, x2
b	.L14
.L211:
mov	x0, x1
b	.L10
.L212:
mov	x0, x2
b	.L11
.L213:
mov	x0, x2
b	.L12
.L214:
mov	x0, x1
b	.L13
.L215:
mov	x0, x2
b	.L14
.L216:
mov	x0, x1
b	.L10
.L217:
mov	x0, x2
b	.L11
.L218:
mov	x0, x2
b	.L12
.L219:
mov	x0, x1
b	.L13
.L220:
mov	x0, x2
b	.L14
.L221:
mov	x0, x1
b	.L10
.L222:
mov	x0, x2
b	.L11
.L223:
mov	x0, x2
b	.L12
.L224:
mov	x0, x1
b	.L13
.L225:
mov	x0, x2
b	.L14
.L226:
mov	x0, x1
b	.L10
.L227:
mov	x0, x2
b	.L11
.L228:
mov	x0, x2
b	.L12
.L229:
mov	x0, x1
b	.L13
.L230:
mov	x0, x2
b	.L14
.L231:
mov	x0, x1
b	.L10
.L232:
mov	x0, x2
b	.L11
.L233:
mov	x0, x2
b	.L12
.L234:
mov	x0, x1
b	.L13
.L235:
mov	x0, x2
b	.L14
.L236:
mov	x0, x1
b	.L10
.L237:
mov	x0, x2
b	.L11
.L238:
mov	x0, x2
b	.L12
.L239:
mov	x0, x1
b	.L13
.L240:
mov	x0, x2
b	.L14
.L241:
mov	x0, x1
b	.L10
.L242:
mov	x0, x2
b	.L11
.L243:
mov	x0, x2
b	.L12
.L244:
mov	x0, x1
b	.L13
.L245:
mov	x0, x2
b	.L14
.L246:
mov	x0, x1
b	.L10
.L247:
mov	x0, x2
b	.L11
.L248:
mov	x0, x2
b	.L12
.L249:
mov	x0, x1
b	.L13
.L250:
mov	x0, x2
b	.L14
.L251:
mov	x0, x1
b	.L10
.L252:
mov	x0, x2
b	.L11
.L253:
mov	x0, x2
b	.L12
.L254:
mov	x0, x1
b	.L13
.L255:
mov	x0, x2
b	.L14
.L256:
mov	x0, x1
b	.L10
.L257:
mov	x0, x2
b	.L11
.L258:
mov	x0, x2
b	.L12
.L259:
mov	x0, x1
b	.L13
.L260:
mov	x0, x2
b	.L14
.L261:
mov	x0, x1
b	.L10
.L262:
mov	x0, x2
b	.L11
.L263:
mov	x0, x2
b	.L12
.L264:
mov	x0, x1
b	.L13
.L265:
mov	x0, x2
b	.L14
.L266:
mov	x0, x1
b	.L10
.L267:
mov	x0, x2
b	.L11
.L268:
mov	x0, x2
b	.L12
.L269:
mov	x0, x1
b	.L13
.L270:
mov	x0, x2
b	.L14
.L271:
mov	x0, x1
b	.L10
.L272:
mov	x0, x2
b	.L11
.L273:
mov	x0, x2
b	.L12
.L274:
mov	x0, x1
b	.L13
.L275:
mov	x0, x2
b	.L14
.L276:
mov	x0, x1
b	.L10
.L277:
mov	x0, x2
b	.L11
.L278:
mov	x0, x2
b	.L12
.L279:
mov	x0, x1
b	.L13
.L280:
mov	x0, x2
b	.L14
.L281:
mov	x0, x1
b	.L10
.L282:
mov	x0, x2
b	.L11
.L283:
mov	x0, x2
b	.L12
.L284:
mov	x0, x1
b	.L13
.L285:
mov	x0, x2
b	.L14
.L286:
mov	x0, x1
b	.L10
.L287:
mov	x0, x2
b	.L11
.L288:
mov	x0, x2
b	.L12
.L289:
mov	x0, x1
b	.L13
.L290:
mov	x0, x2
b	.L14
.L291:
mov	x0, x1
b	.L10
.L292:
mov	x0, x2
b	.L11
.L293:
mov	x0, x2
b	.L12
.L294:
mov	x0, x1
b	.L13
.L295:
mov	x0, x2
b	.L14
.L296:
mov	x0, x1
b	.L10
.L297:
mov	x0, x2
b	.L11
.L298:
mov	x0, x2
b	.L12
.L299:
mov	x0, x1
b	.L13
.L300:
mov	x0, x2
b	.L14
.L301:
mov	x0, x1
b	.L10
.L302:
mov	x0, x2
b	.L11
.L303:
mov	x0, x2
b	.L12
.L304:
mov	x0, x1
b	.L13
.L305:
mov	x0, x2
b	.L14
.L306:
mov	x0, x1
b	.L10
.L307:
mov	x0, x2
b	.L11
.L308:
mov	x0, x2
b	.L12
.L309:
mov	x0, x1
b	.L13
.L310:
mov	x0, x2
b	.L14
.L311:
mov	x0, x1
b	.L10
.L312:
mov	x0, x2
b	.L11
.L313:
mov	x0, x2
b	.L12
.L314:
mov	x0, x1
b	.L13
.L315:
mov	x0, x2
b	.L14
.L316:
mov	x0, x1
b	.L10
.L317:
mov	x0, x2
b	.L11
.L318:
mov	x0, x2
b	.L12
.L319:
mov	x0, x1
b	.L13
.L320:
mov	x0, x2
b	.L14
.L321:
mov	x0, x1
b	.L10
.L322:
mov	x0, x2
b	.L11
.L323:
mov	x0, x2
b	.L12
.L324:
mov	x0, x1
b	.L13
.L325:
mov	x0, x2
b	.L14
.L326:
mov	x0, x1
b	.L10
.L327:
mov	x0, x2
b	.L11
.L328:
mov	x0, x2
b	.L12
.L329:
mov	x0, x1
b	.L13
.L330:
mov	x0, x2
b	.L14
.L331:
mov	x0, x1
b	.L10
.L332:
mov	x0, x2
b	.L11
.L333:
mov	x0, x2
b	.L12
.L334:
mov	x0, x1
b	.L13
.L335:
mov	x0, x2
b	.L14
.L336:
mov	x0, x1
b	.L10
.L337:
mov	x0, x2
b	.L11
.L338:
mov	x0, x2
b	.L12
.L339:
mov	x0, x1
b	.L13
.L340:
mov	x0, x2
b	.L14
.L341:
mov	x0, x1
b	.L10
.L342:
mov	x0, x2
b	.L11
.L343:
mov	x0, x2
b	.L12
.L344:
mov	x0, x1
b	.L13
.L345:
mov	x0, x2
b	.L14
.L346:
mov	x0, x1
b	.L10
.L347:
mov	x0, x2
b	.L11
.L348:
mov	x0, x2
b	.L12
.L349:
mov	x0, x1
b	.L13
.L350:
mov	x0, x2
b	.L14
.L351:
mov	x0, x1
b	.L10
.L352:
mov	x0, x2
b	.L11
.L353:
mov	x0, x2
b	.L12
.L354:
mov	x0, x1
b	.L13
.L355:
mov	x0, x2
b	.L14
.L356:
mov	x0, x1
b	.L10
.L357:
mov	x0, x2
b	.L11
.L358:
mov	x0, x2
b	.L12
.L359:
mov	x0, x1
b	.L13
.L360:
mov	x0, x2
b	.L14
.L361:
mov	x0, x1
b	.L10
.L362:
mov	x0, x2
b	.L11
.L363:
mov	x0, x2
b	.L12
.L364:
mov	x0, x1
b	.L13
.L365:
mov	x0, x2
b	.L14
.L366:
mov	x0, x1
b	.L10
.L367:
mov	x0, x2
b	.L11
.L368:
mov	x0, x2
b	.L12
.L369:
mov	x0, x1
b	.L13
.L370:
mov	x0, x2
b	.L14
.L371:
mov	x0, x1
b	.L10
.L372:
mov	x0, x2
b	.L11
.L373:
mov	x0, x2
b	.L12
.L374:
mov	x0, x1
b	.L13
.L375:
mov	x0, x2
b	.L14
.L376:
mov	x0, x1
b	.L10
.L377:
mov	x0, x2
b	.L11
.L378:
mov	x0, x2
b	.L12
.L379:
mov	x0, x1
b	.L13
.L380:
mov	x0, x2
b	.L14
.L381:
mov	x0, x1
b	.L10
.L382:
mov	x0, x2
b	.L11
.L383:
mov	x0, x2
b	.L12
.L384:
mov	x0, x1
b	.L13
.L385:
mov	x0, x2
b	.L14
.L386:
mov	x0, x1
b	.L10
.L387:
mov	x0, x2
b	.L11
.L388:
mov	x0, x2
b	.L12
.L389:
mov	x0, x1
b	.L13
.L390:
mov	x0, x2
b	.L14
.L391:
mov	x0, x1
b	.L10
.L392:
mov	x0, x2
b	.L11
.L393:
mov	x0, x2
b	.L12
.L394:
mov	x0, x1
b	.L13
.L395:
mov	x0, x2
b	.L14
.L396:
mov	x0, x1
b	.L10
.L397:
mov	x0, x2
b	.L11
.L398:
mov	x0, x2
b	.L12
.L399:
mov	x0, x1
b	.L13
.L400:
mov	x0, x2
b	.L14
.L401:
mov	x0, x1
b	.L10
.L402:
mov	x0, x2
b	.L11
.L403:
mov	x0, x2
b	.L12
.L404:
mov	x0, x1
b	.L13
.L405:
mov	x0, x2
b	.L14
.L406:
mov	x0, x1
b	.L10
.L407:
mov	x0, x2
b	.L11
.L408:
mov	x0, x2
b	.L12
.L409:
mov	x0, x1
b	.L13
.L410:
mov	x0, x2
b	.L14
.L411:
mov	x0, x1
b	.L10
.L412:
mov	x0, x2
b	.L11
.L413:
mov	x0, x2
b	.L12
.L414:
mov	x0, x1
b	.L13
.L415:
mov	x0, x2
b	.L14
.L416:
mov	x0, x1
b	.L10
.L417:
mov	x0, x2
b	.L11
.L418:
mov	x0, x2
b	.L12
.L419:
mov	x0, x1
b	.L13
.L420:
mov	x0, x2
b	.L14
.L421:
mov	x0, x1
b	.L10
.L422:
mov	x0, x2
b	.L11
.L423:
mov	x0, x2
b	.L12
.L424:
mov	x0, x1
b	.L13
.L425:
mov	x0, x2
b	.L14
.L426:
mov	x0, x1
b	.L10
.L427:
mov	x0, x2
b	.L11
.L428:
mov	x0, x2
b	.L12
.L429:
mov	x0, x1
b	.L13
.L430:
mov	x0, x2
b	.L14
.L431:
mov	x0, x1
b	.L10
.L432:
mov	x0, x2
b	.L11
.L433:
mov	x0, x2
b	.L12
.L434:
mov	x0, x1
b	.L13
.L435:
mov	x0, x2
b	.L14
.L436:
mov	x0, x1
b	.L10
.L437:
mov	x0, x2
b	.L11
.L438:
mov	x0, x2
b	.L12
.L439:
mov	x0, x1
b	.L13
.L440:
mov	x0, x2
b	.L14
.L441:
mov	x0, x1
b	.L10
.L442:
mov	x0, x2
b	.L11
.L443:
mov	x0, x2
b	.L12
.L444:
mov	x0, x1
b	.L13
.L445:
mov	x0, x2
b	.L14
.L446:
mov	x0, x1
b	.L10
.L447:
mov	x0, x2
b	.L11
.L448:
mov	x0, x2
b	.L12
.L449:
mov	x0, x1
b	.L13
.L450:
mov	x0, x2
b	.L14
.L451:
mov	x0, x1
b	.L10
.L452:
mov	x0, x2
b	.L11
.L453:
mov	x0, x2
b	.L12
.L454:
mov	x0, x1
b	.L13
.L455:
mov	x0, x2
b	.L14
.L456:
mov	x0, x1
b	.L10
.L457:
mov	x0, x2
b	.L11
.L458:
mov	x0, x2
b	.L12
.L459:
mov	x0, x1
b	.L13
.L460:
mov	x0, x2
b	.L14
.L461:
mov	x0, x1
b	.L10
.L462:
mov	x0, x2
b	.L11
.L463:
mov	x0, x2
b	.L12
.L464:
mov	x0, x1
b	.L13
.L465:
mov	x0, x2
b	.L14
.L466:
mov	x0, x1
b	.L10
.L467:
mov	x0, x2
b	.L11
.L468:
mov	x0, x2
b	.L12
.L469:
mov	x0, x1
b	.L13
.L470:
mov	x0, x2
b	.L14
.L471:
mov	x0, x1
b	.L10
.L472:
mov	x0, x2
b	.L11
.L473:
mov	x0, x2
b	.L12
.L474:
mov	x0, x1
b	.L13
.L475:
mov	x0, x2
b	.L14
.L476:
mov	x0, x1
b	.L10
.L477:
mov	x0, x2
b	.L11
.L478:
mov	x0, x2
b	.L12
.L479:
mov	x0, x1
b	.L13
.L480:
mov	x0, x2
b	.L14
.L481:
mov	x0, x1
b	.L10
.L482:
mov	x0, x2
b	.L11
.L483:
mov	x0, x2
b	.L12
.L484:
mov	x0, x1
b	.L13
.L485:
mov	x0, x2
b	.L14
.L486:
mov	x0, x1
b	.L10
.L487:
mov	x0, x2
b	.L11
.L488:
mov	x0, x2
b	.L12
.L489:
mov	x0, x1
b	.L13
.L490:
mov	x0, x2
b	.L14
.L491:
mov	x0, x1
b	.L10
.L492:
mov	x0, x2
b	.L11
.L493:
mov	x0, x2
b	.L12
.L494:
mov	x0, x1
b	.L13
.L495:
mov	x0, x2
b	.L14
.L496:
mov	x0, x1
b	.L10
.L497:
mov	x0, x2
b	.L11
.L498:
mov	x0, x2
b	.L12
.L499:
mov	x0, x1
b	.L13
.L500:
mov	x0, x2
b	.L14
.L501:
mov	x0, x1
b	.L10
.L502:
mov	x0, x2
b	.L11
.L503:
mov	x0, x2
b	.L12
.L504:
mov	x0, x1
b	.L13
.L505:
mov	x0, x2
b	.L14
.L506:
mov	x0, x1
b	.L10
.L507:
mov	x0, x2
b	.L11
.L508:
mov	x0, x2
b	.L12
.L509:
mov	x0, x1
b	.L13
.L510:
mov	x0, x2
b	.L14
.L511:
mov	x0, x1
b	.L10
.L512:
mov	x0, x2
b	.L11
.L513:
mov	x0, x2
b	.L12
.L514:
mov	x0, x1
b	.L13
.L515:
mov	x0, x2
b	.L14
.L516:
mov	x0, x1
b	.L10
.L517:
mov	x0, x2
b	.L11
.L518:
mov	x0, x2
b	.L12
.L519:
mov	x0, x1
b	.L13
.L520:
mov	x0, x2
b	.L14
.L521:
mov	x0, x1
b	.L10
.L522:
mov	x0, x2
b	.L11
.L523:
mov	x0, x2
b	.L12
.L524:
mov	x0, x1
b	.L13
.L525:
mov	x0, x2
b	.L14
.L526:
mov	x0, x1
b	.L10
.L527:
mov	x0, x2
b	.L11
.L528:
mov	x0, x2
b	.L12
.L529:
mov	x0, x1
b	.L13
.L530:
mov	x0, x2
b	.L14
.L531:
mov	x0, x1
b	.L10
.L532:
mov	x0, x2
b	.L11
.L533:
mov	x0, x2
b	.L12
.L534:
mov	x0, x1
b	.L13
.L535:
mov	x0, x2
b	.L14
.L536:
mov	x0, x1
b	.L10
.L537:
mov	x0, x2
b	.L11
.L538:
mov	x0, x2
b	.L12
.L539:
mov	x0, x1
b	.L13
.L540:
mov	x0, x2
b	.L14
.L541:
mov	x0, x1
b	.L10
.L542:
mov	x0, x2
b	.L11
.L543:
mov	x0, x2
b	.L12
.L544:
mov	x0, x1
b	.L13
.L545:
mov	x0, x2
b	.L14
.L546:
mov	x0, x1
b	.L10
.L547:
mov	x0, x2
b	.L11
.L548:
mov	x0, x2
b	.L12
.L549:
mov	x0, x1
b	.L13
.L550:
mov	x0, x2
b	.L14
.L551:
mov	x0, x1
b	.L10
.L552:
mov	x0, x2
b	.L11
.L553:
mov	x0, x2
b	.L12
.L554:
mov	x0, x1
b	.L13
.L555:
mov	x0, x2
b	.L14
.L556:
mov	x0, x1
b	.L10
.L557:
mov	x0, x2
b	.L11
.L558:
mov	x0, x2
b	.L12
.L559:
mov	x0, x1
b	.L13
.L560:
mov	x0, x2
b	.L14
.L561:
mov	x0, x1
b	.L10
.L562:
mov	x0, x2
b	.L11
.L563:
mov	x0, x2
b	.L12
.L564:
mov	x0, x1
b	.L13
.L565:
mov	x0, x2
b	.L14
.L566:
mov	x0, x1
b	.L10
.L567:
mov	x0, x2
b	.L11
.L568:
mov	x0, x2
b	.L12
.L569:
mov	x0, x1
b	.L13
.L570:
mov	x0, x2
b	.L14
.L571:
mov	x0, x1
b	.L10
.L572:
mov	x0, x2
b	.L11
.L573:
mov	x0, x2
b	.L12
.L574:
mov	x0, x1
b	.L13
.L575:
mov	x0, x2
b	.L14
.L576:
mov	x0, x1
b	.L10
.L577:
mov	x0, x2
b	.L11
.L578:
mov	x0, x2
b	.L12
.L579:
mov	x0, x1
b	.L13
.L580:
mov	x0, x2
b	.L14
.L581:
mov	x0, x1
b	.L10
.L582:
mov	x0, x2
b	.L11
.L583:
mov	x0, x2
b	.L12
.L584:
mov	x0, x1
b	.L13
.L585:
mov	x0, x2
b	.L14
.L586:
mov	x0, x1
b	.L10
.L587:
mov	x0, x2
b	.L11
.L588:
mov	x0, x2
b	.L12
.L589:
mov	x0, x1
b	.L13
.L590:
mov	x0, x2
b	.L14
.L591:
mov	x0, x1
b	.L10
.L592:
mov	x0, x2
b	.L11
.L593:
mov	x0, x2
b	.L12
.L594:
mov	x0, x1
b	.L13
.L595:
mov	x0, x2
b	.L14
.L596:
mov	x0, x1
b	.L10
.L597:
mov	x0, x2
b	.L11
.L598:
mov	x0, x2
b	.L12
.L599:
mov	x0, x1
b	.L13
.L600:
mov	x0, x2
b	.L14
.L601:
mov	x0, x1
b	.L10
.L602:
mov	x0, x2
b	.L11
.L603:
mov	x0, x2
b	.L12
.L604:
mov	x0, x1
b	.L13
.L605:
mov	x0, x2
b	.L14
.L606:
mov	x0, x1
b	.L10
.L607:
mov	x0, x2
b	.L11
.L608:
mov	x0, x2
b	.L12
.L609:
mov	x0, x1
b	.L13
.L610:
mov	x0, x2
b	.L14
.L611:
mov	x0, x1
b	.L10
.L612:
mov	x0, x2
b	.L11
.L613:
mov	x0, x2
b	.L12
.L614:
mov	x0, x1
b	.L13
.L615:
mov	x0, x2
b	.L14
.L616:
mov	x0, x1
b	.L10
.L617:
mov	x0, x2
b	.L11
.L618:
mov	x0, x2
b	.L12
.L619:
mov	x0, x1
b	.L13
.L620:
mov	x0, x2
b	.L14
.L621:
mov	x0, x1
b	.L10
.L622:
mov	x0, x2
b	.L11
.L623:
mov	x0, x2
b	.L12
.L624:
mov	x0, x1
b	.L13
.L625:
mov	x0, x2
b	.L14
.L626:
mov	x0, x1
b	.L10
.L627:
mov	x0, x2
b	.L11
.L628:
mov	x0, x2
b	.L12
.L629:
mov	x0, x1
b	.L13
.L630:
mov	x0, x2
b	.L14
.L631:
mov	x0, x1
b	.L10
.L632:
mov	x0, x2
b	.L11
.L633:
mov	x0, x2
b	.L12
.L634:
mov	x0, x1
b	.L13
.L635:
mov	x0, x2
b	.L14
.L636:
mov	x0, x1
b	.L10
.L637:
mov	x0, x2
b	.L11
.L638:
mov	x0, x2
b	.L12
.L639:
mov	x0, x1
b	.L13
.L640:
mov	x0, x2
b	.L14
.L641:
mov	x0, x1
b	.L10
.L642:
mov	x0, x2
b	.L11
.L643:
mov	x0, x2
b	.L12
.L644:
mov	x0, x1
b	.L13
.L645:
mov	x0, x2
b	.L14
.L646:
mov	x0, x1
b	.L10
.L647:
mov	x0, x2
b	.L11
.L648:
mov	x0, x2
b	.L12
.L649:
mov	x0, x1
b	.L13
.L650:
mov	x0, x2
b	.L14
.L651:
mov	x0, x1
b	.L10
.L652:
mov	x0, x2
b	.L11
.L653:
mov	x0, x2
b	.L12
.L654:
mov	x0, x1
b	.L13
.L655:
mov	x0, x2
b	.L14
.L656:
mov	x0, x1
b	.L10
.L657:
mov	x0, x2
b	.L11
.L658:
mov	x0, x2
b	.L12
.L659:
mov	x0, x1
b	.L13
.L660:
mov	x0, x2
b	.L14
.L661:
mov	x0, x1
b	.L10
.L662:
mov	x0, x2
b	.L11
.L663:
mov	x0, x2
b	.L12
.L664:
mov	x0, x1
b	.L13
.L665:
mov	x0, x2
b	.L14
.L666:
mov	x0, x1
b	.L10
.L667:
mov	x0, x2
b	.L11
.L668:
mov	x0, x2
b	.L12
.L669:
mov	x0, x1
b	.L13
.L670:
mov	x0, x2
b	.L14
.L671:
mov	x0, x1
b	.L10
.L672:
mov	x0, x2
b	.L11
.L673:
mov	x0, x2
b	.L12
.L674:
mov	x0, x1
b	.L13
.L675:
mov	x0, x2
b	.L14
.L676:
mov	x0, x1
b	.L10
.L677:
mov	x0, x2
b	.L11
.L678:
mov	x0, x2
b	.L12
.L679:
mov	x0, x1
b	.L13
.L680:
mov	x0, x2
b	.L14
.L681:
mov	x0, x1
b	.L10
.L682:
mov	x0, x2
b	.L11
.L683:
mov	x0, x2
b	.L12
.L684:
mov	x0, x1
b	.L13
.L685:
mov	x0, x2
b	.L14
.L686:
mov	x0, x1
b	.L10
.L687:
mov	x0, x2
b	.L11
.L688:
mov	x0, x2
b	.L12
.L689:
mov	x0, x1
b	.L13
.L690:
mov	x0, x2
b	.L14
.L691:
mov	x0, x1
b	.L10
.L692:
mov	x0, x2
b	.L11
.L693:
mov	x0, x2
b	.L12
.L694:
mov	x0, x1
b	.L13
.L695:
mov	x0, x2
b	.L14
.L696:
mov	x0, x1
b	.L10
.L697:
mov	x0, x2
b	.L11
.L698:
mov	x0, x2
b	.L12
.L699:
mov	x0, x1
b	.L13
.L700:
mov	x0, x2
b	.L14
.L701:
mov	x0, x1
b	.L10
.L702:
mov	x0, x2
b	.L11
.L703:
mov	x0, x2
b	.L12
.L704:
mov	x0, x1
b	.L13
.L705:
mov	x0, x2
b	.L14
.L706:
mov	x0, x1
b	.L10
.L707:
mov	x0, x2
b	.L11
.L708:
mov	x0, x2
b	.L12
.L709:
mov	x0, x1
b	.L13
.L710:
mov	x0, x2
b	.L14
.L711:
mov	x0, x1
b	.L10
.L712:
mov	x0, x2
b	.L11
.L713:
mov	x0, x2
b	.L12
.L714:
mov	x0, x1
b	.L13
.L715:
mov	x0, x2
b	.L14
.L716:
mov	x0, x1
b	.L10
.L717:
mov	x0, x2
b	.L11
.L718:
mov	x0, x2
b	.L12
.L719:
mov	x0, x1
b	.L13
.L720:
mov	x0, x2
b	.L14
.L721:
mov	x0, x1
b	.L10
.L722:
mov	x0, x2
b	.L11
.L723:
mov	x0, x2
b	.L12
.L724:
mov	x0, x1
b	.L13
.L725:
mov	x0, x2
b	.L14
.L726:
mov	x0, x1
b	.L10
.L727:
mov	x0, x2
b	.L11
.L728:
mov	x0, x2
b	.L12
.L729:
mov	x0, x1
b	.L13
.L730:
mov	x0, x2
b	.L14
.L731:
mov	x0, x1
b	.L10
.L732:
mov	x0, x2
b	.L11
.L733:
mov	x0, x2
b	.L12
.L734:
mov	x0, x1
b	.L13
.L735:
mov	x0, x2
b	.L14
.L736:
mov	x0, x1
b	.L10
.L737:
mov	x0, x2
b	.L11
.L738:
mov	x0, x2
b	.L12
.L739:
mov	x0, x1
b	.L13
.L740:
mov	x0, x2
b	.L14
.L741:
mov	x0, x1
b	.L10
.L742:
mov	x0, x2
b	.L11
.L743:
mov	x0, x2
b	.L12
.L744:
mov	x0, x1
b	.L13
.L745:
mov	x0, x2
b	.L14
.L746:
mov	x0, x1
b	.L10
.L747:
mov	x0, x2
b	.L11
.L748:
mov	x0, x2
b	.L12
.L749:
mov	x0, x1
b	.L13
.L750:
mov	x0, x2
b	.L14
.L751:
mov	x0, x1
b	.L10
.L752:
mov	x0, x2
b	.L11
.L753:
mov	x0, x2
b	.L12
.L754:
mov	x0, x1
b	.L13
.L755:
mov	x0, x2
b	.L14
.L756:
mov	x0, x1
b	.L10
.L757:
mov	x0, x2
b	.L11
.L758:
mov	x0, x2
b	.L12
.L759:
mov	x0, x1
b	.L13
.L760:
mov	x0, x2
b	.L14
.L761:
mov	x0, x1
b	.L10
.L762:
mov	x0, x2
b	.L11
.L763:
mov	x0, x2
b	.L12
.L764:
mov	x0, x1
b	.L13
.L765:
mov	x0, x2
b	.L14
.L766:
mov	x0, x1
b	.L10
.L767:
mov	x0, x2
b	.L11
.L768:
mov	x0, x2
b	.L12
.L769:
mov	x0, x1
b	.L13
.L770:
mov	x0, x2
b	.L14
.L771:
mov	x0, x1
b	.L10
.L772:
mov	x0, x2
b	.L11
.L773:
mov	x0, x2
b	.L12
.L774:
mov	x0, x1
b	.L13
.L775:
mov	x0, x2
b	.L14
.L776:
mov	x0, x1
b	.L10
.L777:
mov	x0, x2
b	.L11
.L778:
mov	x0, x2
b	.L12
.L779:
mov	x0, x1
b	.L13
.L780:
mov	x0, x2
b	.L14
.L781:
mov	x0, x1
b	.L10
.L782:
mov	x0, x2
b	.L11
.L783:
mov	x0, x2
b	.L12
.L784:
mov	x0, x1
b	.L13
.L785:
mov	x0, x2
b	.L14
.L786:
mov	x0, x1
b	.L10
.L787:
mov	x0, x2
b	.L11
.L788:
mov	x0, x2
b	.L12
.L789:
mov	x0, x1
b	.L13
.L790:
mov	x0, x2
b	.L14
.L791:
mov	x0, x1
b	.L10
.L792:
mov	x0, x2
b	.L11
.L793:
mov	x0, x2
b	.L12
.L794:
mov	x0, x1
b	.L13
.L795:
mov	x0, x2
b	.L14
.L796:
mov	x0, x1
b	.L10
.L797:
mov	x0, x2
b	.L11
.L798:
mov	x0, x2
b	.L12
.L799:
mov	x0, x1
b	.L13
.L800:
mov	x0, x2
b	.L14
.L801:
mov	x0, x1
b	.L10
.L802:
mov	x0, x2
b	.L11
.L803:
mov	x0, x2
b	.L12
.L804:
mov	x0, x1
b	.L13
.L805:
mov	x0, x2
b	.L14
.L806:
mov	x0, x1
b	.L10
.L807:
mov	x0, x2
b	.L11
.L808:
mov	x0, x2
b	.L12
.L809:
mov	x0, x1
b	.L13
.L810:
mov	x0, x2
b	.L14
.L811:
mov	x0, x1
b	.L10
.L812:
mov	x0, x2
b	.L11
.L813:
mov	x0, x2
b	.L12
.L814:
mov	x0, x1
b	.L13
.L815:
mov	x0, x2
b	.L14
.L816:
mov	x0, x1
b	.L10
.L817:
mov	x0, x2
b	.L11
.L818:
mov	x0, x2
b	.L12
.L819:
mov	x0, x1
b	.L13
.L820:
mov	x0, x2
b	.L14
.L821:
mov	x0, x1
b	.L10
.L822:
mov	x0, x2
b	.L11
.L823:
mov	x0, x2
b	.L12
.L824:
mov	x0, x1
b	.L13
.L825:
mov	x0, x2
b	.L14
.L826:
mov	x0, x1
b	.L10
.L827:
mov	x0, x2
b	.L11
.L828:
mov	x0, x2
b	.L12
.L829:
mov	x0, x1
b	.L13
.L830:
mov	x0, x2
b	.L14
.L831:
mov	x0, x1
b	.L10
.L832:
mov	x0, x2
b	.L11
.L833:
mov	x0, x2
b	.L12
.L834:
mov	x0, x1
b	.L13
.L835:
mov	x0, x2
b	.L14
.L836:
mov	x0, x1
b	.L10
.L837:
mov	x0, x2
b	.L11
.L838:
mov	x0, x2
b	.L12
.L839:
mov	x0, x1
b	.L13
.L840:
mov	x0, x2
b	.L14
.L841:
mov	x0, x1
b	.L10
.L842:
mov	x0, x2
b	.L11
.L843:
mov	x0, x2
b	.L12
.L844:
mov	x0, x1
b	.L13
.L845:
mov	x0, x2
b	.L14
.L846:
mov	x0, x1
b	.L10
.L847:
mov	x0, x2
b	.L11
.L848:
mov	x0, x2
b	.L12
.L849:
mov	x0, x1
b	.L13
.L850:
mov	x0, x2
b	.L14
.L851:
mov	x0, x1
b	.L10
.L852:
mov	x0, x2
b	.L11
.L853:
mov	x0, x2
b	.L12
.L854:
mov	x0, x1
b	.L13
.L855:
mov	x0, x2
b	.L14
.L856:
mov	x0, x1
b	.L10
.L857:
mov	x0, x2
b	.L11
.L858:
mov	x0, x2
b	.L12
.L859:
mov	x0, x1
b	.L13
.L860:
mov	x0, x2
b	.L14
.L861:
mov	x0, x1
b	.L10
.L862:
mov	x0, x2
b	.L11
.L863:
mov	x0, x2
b	.L12
.L864:
mov	x0, x1
b	.L13
.L865:
mov	x0, x2
b	.L14
.L866:
mov	x0, x1
b	.L10
.L867:
mov	x0, x2
b	.L11
.L868:
mov	x0, x2
b	.L12
.L869:
mov	x0, x1
b	.L13
.L870:
mov	x0, x2
b	.L14
.L871:
mov	x0, x1
b	.L10
.L872:
mov	x0, x2
b	.L11
.L873:
mov	x0, x2
b	.L12
.L874:
mov	x0, x1
b	.L13
.L875:
mov	x0, x2
b	.L14
.L876:
mov	x0, x1
b	.L10
.L877:
mov	x0, x2
b	.L11
.L878:
mov	x0, x2
b	.L12
.L879:
mov	x0, x1
b	.L13
.L880:
mov	x0, x2
b	.L14
.L881:
mov	x0, x1
b	.L10
.L882:
mov	x0, x2
b	.L11
.L883:
mov	x0, x2
b	.L12
.L884:
mov	x0, x1
b	.L13
.L885:
mov	x0, x2
b	.L14
.L886:
mov	x0, x1
b	.L10
.L887:
mov	x0, x2
b	.L11
.L888:
mov	x0, x2
b	.L12
.L889:
mov	x0, x1
b	.L13
.L890:
mov	x0, x2
b	.L14
.L891:
mov	x0, x1
b	.L10
.L892:
mov	x0, x2
b	.L11
.L893:
mov	x0, x2
b	.L12
.L894:
mov	x0, x1
b	.L13
.L895:
mov	x0, x2
b	.L14
.L896:
mov	x0, x1
b	.L10
.L897:
mov	x0, x2
b	.L11
.L898:
mov	x0, x2
b	.L12
.L899:
mov	x0, x1
b	.L13
.L900:
mov	x0, x2
b	.L14
.L901:
mov	x0, x1
b	.L10
.L902:
mov	x0, x2
b	.L11
.L903:
mov	x0, x2
b	.L12
.L904:
mov	x0, x1
b	.L13
.L905:
mov	x0, x2
b	.L14
.L906:
mov	x0, x1
b	.L10
.L907:
mov	x0, x2
b	.L11
.L908:
mov	x0, x2
b	.L12
.L909:
mov	x0, x1
b	.L13
.L910:
mov	x0, x2
b	.L14
.L911:
mov	x0, x1
b	.L10
.L912:
mov	x0, x2
b	.L11
.L913:
mov	x0, x2
b	.L12
.L914:
mov	x0, x1
b	.L13
.L915:
mov	x0, x2
b	.L14
.L916:
mov	x0, x1
b	.L10
.L917:
mov	x0, x2
b	.L11
.L918:
mov	x0, x2
b	.L12
.L919:
mov	x0, x1
b	.L13
.L920:
mov	x0, x2
b	.L14
.L921:
mov	x0, x1
b	.L10
.L922:
mov	x0, x2
b	.L11
.L923:
mov	x0, x2
b	.L12
.L924:
mov	x0, x1
b	.L13
.L925:
mov	x0, x2
b	.L14
.L926:
mov	x0, x1
b	.L10
.L927:
mov	x0, x2
b	.L11
.L928:
mov	x0, x2
b	.L12
.L929:
mov	x0, x1
b	.L13
.L930:
mov	x0, x2
b	.L14
.L931:
mov	x0, x1
b	.L10
.L932:
mov	x0, x2
b	.L11
.L933:
mov	x0, x2
b	.L12
.L934:
mov	x0, x1
b	.L13
.L935:
mov	x0, x2
b	.L14
.L936:
mov	x0, x1
b	.L10
.L937:
mov	x0, x2
b	.L11
.L938:
mov	x0, x2
b	.L12
.L939:
mov	x0, x1
b	.L13
.L940:
mov	x0, x2
b	.L14
.L941:
mov	x0, x1
b	.L10
.L942:
mov	x0, x2
b	.L11
.L943:
mov	x0, x2
b	.L12
.L944:
mov	x0, x1
b	.L13
.L945:
mov	x0, x2
b	.L14
.L946:
mov	x0, x1
b	.L10
.L947:
mov	x0, x2
b	.L11
.L948:
mov	x0, x2
b	.L12
.L949:
mov	x0, x1
b	.L13
.L950:
mov	x0, x2
b	.L14
.L951:
mov	x0, x1
b	.L10
.L952:
mov	x0, x2
b	.L11
.L953:
mov	x0, x2
b	.L12
.L954:
mov	x0, x1
b	.L13
.L955:
mov	x0, x2
b	.L14
.L956:
mov	x0, x1
b	.L10
.L957:
mov	x0, x2
b	.L11
.L958:
mov	x0, x2
b	.L12
.L959:
mov	x0, x1
b	.L13
.L960:
mov	x0, x2
b	.L14
.L961:
mov	x0, x1
b	.L10
.L962:
mov	x0, x2
b	.L11
.L963:
mov	x0, x2
b	.L12
.L964:
mov	x0, x1
b	.L13
.L965:
mov	x0, x2
b	.L14
.L966:
mov	x0, x1
b	.L10
.L967:
mov	x0, x2
b	.L11
.L968:
mov	x0, x2
b	.L12
.L969:
mov	x0, x1
b	.L13
.L970:
mov	x0, x2
b	.L14
.L971:
mov	x0, x1
b	.L10
.L972:
mov	x0, x2
b	.L11
.L973:
mov	x0, x2
b	.L12
.L974:
mov	x0, x1
b	.L13
.L975:
mov	x0, x2
b	.L14
.L976:
mov	x0, x1
b	.L10
.L977:
mov	x0, x2
b	.L11
.L978:
mov	x0, x2
b	.L12
.L979:
mov	x0, x1
b	.L13
.L980:
mov	x0, x2
b	.L14
.L981:
mov	x0, x1
b	.L10
.L982:
mov	x0, x2
b	.L11
.L983:
mov	x0, x2
b	.L12
.L984:
mov	x0, x1
b	.L13
.L985:
mov	x0, x2
b	.L14
.L986:
mov	x0, x1
b	.L10
.L987:
mov	x0, x2
b	.L11
.L988:
mov	x0, x2
b	.L12
.L989:
mov	x0, x1
b	.L13
.L990:
mov	x0, x2
b	.L14
.L991:
mov	x0, x1
b	.L10
.L992:
mov	x0, x2
b	.L11
.L993:
mov	x0, x2
b	.L12
.L994:
mov	x0, x1
b	.L13
.L995:
mov	x0, x2
b	.L14
.L996:
mov	x0, x1
b	.L10
.L997:
mov	x0, x2
b	.L11
.L998:
mov	x0, x2
b	.L12
.L999:
mov	x0, x1
b	.L13
.L1000:
mov	x0, x2
b	.L14
.L1001:
mov	x0, x1
b	.L10
.L1002:
mov	x0, x2
b	.L11
.L1003:
mov	x0, x2
b	.L12
.L1004:
mov	x0, x1
b	.L13
.L1005:
mov	x0, x2
b	.L14
.L1006:
mov	x0, x1
b	.L10
.L1007:
mov	x0, x2
b	.L11
.L1008:
mov	x0, x2
b	.L12
.L1009:
mov	x0, x1
b	.L13
.L1010:
mov	x0, x2
b	.L14
.L1011:
mov	x0, x1
b	.L10
.L1012:
mov	x0, x2
b	.L11
.L1013:
mov	x0, x2
b	.L12
.L1014:
mov	x0, x1
b	.L13
.L1015:
mov	x0, x2
b	.L14
.L1016:
mov	x0, x1
b	.L10
.L1017:
mov	x0, x2
b	.L11
.L1018:
mov	x0, x2
b	.L12
.L1019:
mov	x0, x1
b	.L13
.L1020:
mov	x0, x2
b	.L14
.L1021:
mov	x0, x1
b	.L10
.L1022:
mov	x0, x2
b	.L11
.L1023:
mov	x0, x2
b	.L12
.L1024:
mov	x0, x1
b	.L13
.L1025:
mov	x0, x2
b	.L14
.L1026:
mov	x0, x1
b	.L10
.L1027:
mov	x0, x2
b	.L11
.L1028:
mov	x0, x2
b	.L12
.L1029:
mov	x0, x1
b	.L13
.L1030:
mov	x0, x2
b	.L14
.L1031:
mov	x0, x1
b	.L10
.L1032:
mov	x0, x2
b	.L11
.L1033:
mov	x0, x2
b	.L12
.L1034:
mov	x0, x1
b	.L13
.L1035:
mov	x0, x2
b	.L14
.L1036:
mov	x0, x1
b	.L10
.L1037:
mov	x0, x2
b	.L11
.L1038:
mov	x0, x2
b	.L12
.L1039:
mov	x0, x1
b	.L13
.L1040:
mov	x0, x2
b	.L14
.L1041:
mov	x0, x1
b	.L10
.L1042:
mov	x0, x2
b	.L11
.L1043:
mov	x0, x2
b	.L12
.L1044:
mov	x0, x1
b	.L13
.L1045:
mov	x0, x2
b	.L14
.L1046:
mov	x0, x1
b	.L10
.L1047:
mov	x0, x2
b	.L11
.L1048:
mov	x0, x2
b	.L12
.L1049:
mov	x0, x1
b	.L13
.L1050:
mov	x0, x2
b	.L14
.L1051:
mov	x0, x1
b	.L10
.L1052:
mov	x0, x2
b	.L11
.L1053:
mov	x0, x2
b	.L12
.L1054:
mov	x0, x1
b	.L13
.L1055:
mov	x0, x2
b	.L14
.L1056:
mov	x0, x1
b	.L10
.L1057:
mov	x0, x2
b	.L11
.L1058:
mov	x0, x2
b	.L12
.L1059:
mov	x0, x1
b	.L13
.L1060:
mov	x0, x2
b	.L14
.L1061:
mov	x0, x1
b	.L10
.L1062:
mov	x0, x2
b	.L11
.L1063:
mov	x0, x2
b	.L12
.L1064:
mov	x0, x1
b	.L13
.L1065:
mov	x0, x2
b	.L14
.L1066:
mov	x0, x1
b	.L10
.L1067:
mov	x0, x2
b	.L11
.L1068:
mov	x0, x2
b	.L12
.L1069:
mov	x0, x1
b	.L13
.L1070:
mov	x0, x2
b	.L14
.L1071:
mov	x0, x1
b	.L10
.L1072:
mov	x0, x2
b	.L11
.L1073:
mov	x0, x2
b	.L12
.L1074:
mov	x0, x1
b	.L13
.L1075:
mov	x0, x2
b	.L14
.L1076:
mov	x0, x1
b	.L10
.L1077:
mov	x0, x2
b	.L11
.L1078:
mov	x0, x2
b	.L12
.L1079:
mov	x0, x1
b	.L13
.L1080:
mov	x0, x2
b	.L14
.L1081:
mov	x0, x1
b	.L10
.L1082:
mov	x0, x2
b	.L11
.L1083:
mov	x0, x2
b	.L12
.L1084:
mov	x0, x1
b	.L13
.L1085:
mov	x0, x2
b	.L14
.L1086:
mov	x0, x1
b	.L10
.L1087:
mov	x0, x2
b	.L11
.L1088:
mov	x0, x2
b	.L12
.L1089:
mov	x0, x1
b	.L13
.L1090:
mov	x0, x2
b	.L14
.L1091:
mov	x0, x1
b	.L10
.L1092:
mov	x0, x2
b	.L11
.L1093:
mov	x0, x2
b	.L12
.L1094:
mov	x0, x1
b	.L13
.L1095:
mov	x0, x2
b	.L14
.L1096:
mov	x0, x1
b	.L10
.L1097:
mov	x0, x2
b	.L11
.L1098:
mov	x0, x2
b	.L12
.L1099:
mov	x0, x1
b	.L13
.L1100:
mov	x0, x2
b	.L14
.L1101:
mov	x0, x1
b	.L10
.L1102:
mov	x0, x2
b	.L11
.L1103:
mov	x0, x2
b	.L12
.L1104:
mov	x0, x1
b	.L13
.L1105:
mov	x0, x2
b	.L14
.L1106:
mov	x0, x1
b	.L10
.L1107:
mov	x0, x2
b	.L11
.L1108:
mov	x0, x2
b	.L12
.L1109:
mov	x0, x1
b	.L13
.L1110:
mov	x0, x2
b	.L14
.L1111:
mov	x0, x1
b	.L10
.L1112:
mov	x0, x2
b	.L11
.L1113:
mov	x0, x2
b	.L12
.L1114:
mov	x0, x1
b	.L13
.L1115:
mov	x0, x2
b	.L14
.L1116:
mov	x0, x1
b	.L10
.L1117:
mov	x0, x2
b	.L11
.L1118:
mov	x0, x2
b	.L12
.L1119:
mov	x0, x1
b	.L13
.L1120:
mov	x0, x2
b	.L14
.L1121:
mov	x0, x1
b	.L10
.L1122:
mov	x0, x2
b	.L11
.L1123:
mov	x0, x2
b	.L12
.L1124:
mov	x0, x1
b	.L13
.L1125:
mov	x0, x2
b	.L14
.L1126:
mov	x0, x1
b	.L10
.L1127:
mov	x0, x2
b	.L11
.L1128:
mov	x0, x2
b	.L12
.L1129:
mov	x0, x1
b	.L13
.L1130:
mov	x0, x2
b	.L14
.L1131:
mov	x0, x1
b	.L10
.L1132:
mov	x0, x2
b	.L11
.L1133:
mov	x0, x2
b	.L12
.L1134:
mov	x0, x1
b	.L13
.L1135:
mov	x0, x2
b	.L14
.L1136:
mov	x0, x1
b	.L10
.L1137:
mov	x0, x2
b	.L11
.L1138:
mov	x0, x2
b	.L12
.L1139:
mov	x0, x1
b	.L13
.L1140:
mov	x0, x2
b	.L14
.L1141:
mov	x0, x1
b	.L10
.L1142:
mov	x0, x2
b	.L11
.L1143:
mov	x0, x2
b	.L12
.L1144:
mov	x0, x1
b	.L13
.L1145:
mov	x0, x2
b	.L14
.L1146:
mov	x0, x1
b	.L10
.L1147:
mov	x0, x2
b	.L11
.L1148:
mov	x0, x2
b	.L12
.L1149:
mov	x0, x1
b	.L13
.L1150:
mov	x0, x2
b	.L14
.L1151:
mov	x0, x1
b	.L10
.L1152:
mov	x0, x2
b	.L11
.L1153:
mov	x0, x2
b	.L12
.L1154:
mov	x0, x1
b	.L13
.L1155:
mov	x0, x2
b	.L14
.L1156:
mov	x0, x1
b	.L10
.L1157:
mov	x0, x2
b	.L11
.L1158:
mov	x0, x2
b	.L12
.L1159:
mov	x0, x1
b	.L13
.L1160:
mov	x0, x2
b	.L14
.L1161:
mov	x0, x1
b	.L10
.L1162:
mov	x0, x2
b	.L11
.L1163:
mov	x0, x2
b	.L12
.L1164:
mov	x0, x1
b	.L13
.L1165:
mov	x0, x2
b	.L14
.L1166:
mov	x0, x1
b	.L10
.L1167:
mov	x0, x2
b	.L11
.L1168:
mov	x0, x2
b	.L12
.L1169:
mov	x0, x1
b	.L13
.L1170:
mov	x0, x2
b	.L14
.L1171:
mov	x0, x1
b	.L10
.L1172:
mov	x0, x2
b	.L11
.L1173:
mov	x0, x2
b	.L12
.L1174:
mov	x0, x1
b	.L13
.L1175:
mov	x0, x2
b	.L14
.L1176:
mov	x0, x1
b	.L10
.L1177:
mov	x0, x2
b	.L11
.L1178:
mov	x0, x2
b	.L12
.L1179:
mov	x0, x1
b	.L13
.L1180:
mov	x0, x2
b	.L14
.L1181:
mov	x0, x1
b	.L10
.L1182:
mov	x0, x2
b	.L11
.L1183:
mov	x0, x2
b	.L12
.L1184:
mov	x0, x1
b	.L13
.L1185:
mov	x0, x2
b	.L14
.L1186:
mov	x0, x1
b	.L10
.L1187:
mov	x0, x2
b	.L11
.L1188:
mov	x0, x2
b	.L12
.L1189:
mov	x0, x1
b	.L13
.L1190:
mov	x0, x2
b	.L14
.L1191:
mov	x0, x1
b	.L10
.L1192:
mov	x0, x2
b	.L11
.L1193:
mov	x0, x2
b	.L12
.L1194:
mov	x0, x1
b	.L13
.L1195:
mov	x0, x2
b	.L14
.L1196:
mov	x0, x1
b	.L10
.L1197:
mov	x0, x2
b	.L11
.L1198:
mov	x0, x2
b	.L12
.L1199:
mov	x0, x1
b	.L13
.L1200:
mov	x0, x2
b	.L14
.L1201:
mov	x0, x1
b	.L10
.L1202:
mov	x0, x2
b	.L11
.L1203:
mov	x0, x2
b	.L12
.L1204:
mov	x0, x1
b	.L13
.L1205:
mov	x0, x2
b	.L14
.L1206:
mov	x0, x1
b	.L10
.L1207:
mov	x0, x2
b	.L11
.L1208:
mov	x0, x2
b	.L12
.L1209:
mov	x0, x1
b	.L13
.L1210:
mov	x0, x2
b	.L14
.L1211:
mov	x0, x1
b	.L10
.L1212:
mov	x0, x2
b	.L11
.L1213:
mov	x0, x2
b	.L12
.L1214:
mov	x0, x1
b	.L13
.L1215:
mov	x0, x2
b	.L14
.L1216:
mov	x0, x1
b	.L10
.L1217:
mov	x0, x2
b	.L11
.L1218:
mov	x0, x2
b	.L12
.L1219:
mov	x0, x1
b	.L13
.L1220:
mov	x0, x2
b	.L14
.L1221:
mov	x0, x1
b	.L10
.L1222:
mov	x0, x2
b	.L11
.L1223:
mov	x0, x2
b	.L12
.L1224:
mov	x0, x1
b	.L13
.L1225:
mov	x0, x2
b	.L14
.L1226:
mov	x0, x1
b	.L10
.L1227:
mov	x0, x2
b	.L11
.L1228:
mov	x0, x2
b	.L12
.L1229:
mov	x0, x1
b	.L13
.L1230:
mov	x0, x2
b	.L14
.L1231:
mov	x0, x1
b	.L10
.L1232:
mov	x0, x2
b	.L11
.L1233:
mov	x0, x2
b	.L12
.L1234:
mov	x0, x1
b	.L13
.L1235:
mov	x0, x2
b	.L14
.L1236:
mov	x0, x1
b	.L10
.L1237:
mov	x0, x2
b	.L11
.L1238:
mov	x0, x2
b	.L12
.L1239:
mov	x0, x1
b	.L13
.L1240:
mov	x0, x2
b	.L14
.L1241:
mov	x0, x1
b	.L10
.L1242:
mov	x0, x2
b	.L11
.L1243:
mov	x0, x2
b	.L12
.L1244:
mov	x0, x1
b	.L13
.L1245:
mov	x0, x2
b	.L14
.L1246:
mov	x0, x1
b	.L10
.L1247:
mov	x0, x2
b	.L11
.L1248:
mov	x0, x2
b	.L12
.L1249:
mov	x0, x1
b	.L13
.L1250:
mov	x0, x2
b	.L14
.L1251:
mov	x0, x1
b	.L10
.L1252:
mov	x0, x2
b	.L11
.L1253:
mov	x0, x2
b	.L12
.L1254:
mov	x0, x1
b	.L13
.L1255:
mov	x0, x2
b	.L14
.L1256:
mov	x0, x1
b	.L10
.L1257:
mov	x0, x2
b	.L11
.L1258:
mov	x0, x2
b	.L12
.L1259:
mov	x0, x1
b	.L13
.L1260:
mov	x0, x2
b	.L14
.L1261:
mov	x0, x1
b	.L10
.L1262:
mov	x0, x2
b	.L11
.L1263:
mov	x0, x2
b	.L12
.L1264:
mov	x0, x1
b	.L13
.L1265:
mov	x0, x2
b	.L14
.L1266:
mov	x0, x1
b	.L10
.L1267:
mov	x0, x2
b	.L11
.L1268:
mov	x0, x2
b	.L12
.L1269:
mov	x0, x1
b	.L13
.L1270:
mov	x0, x2
b	.L14
.L1271:
mov	x0, x1
b	.L10
.L1272:
mov	x0, x2
b	.L11
.L1273:
mov	x0, x2
b	.L12
.L1274:
mov	x0, x1
b	.L13
.L1275:
mov	x0, x2
b	.L14
.L1276:
mov	x0, x1
b	.L10
.L1277:
mov	x0, x2
b	.L11
.L1278:
mov	x0, x2
b	.L12
.L1279:
mov	x0, x1
b	.L13
.L1280:
mov	x0, x2
b	.L14
.L1281:
mov	x0, x1
b	.L10
.L1282:
mov	x0, x2
b	.L11
.L1283:
mov	x0, x2
b	.L12
.L1284:
mov	x0, x1
b	.L13
.L1285:
mov	x0, x2
b	.L14
.L1286:
mov	x0, x1
b	.L10
.L1287:
mov	x0, x2
b	.L11
.L1288:
mov	x0, x2
b	.L12
.L1289:
mov	x0, x1
b	.L13
.L1290:
mov	x0, x2
b	.L14
.L1291:
mov	x0, x1
b	.L10
.L1292:
mov	x0, x2
b	.L11
.L1293:
mov	x0, x2
b	.L12
.L1294:
mov	x0, x1
b	.L13
.L1295:
mov	x0, x2
b	.L14
.L1296:
mov	x0, x1
b	.L10
.L1297:
mov	x0, x2
b	.L11
.L1298:
mov	x0, x2
b	.L12
.L1299:
mov	x0, x1
b	.L13
.L1300:
mov	x0, x2
b	.L14
.L1301:
mov	x0, x1
b	.L10
.L1302:
mov	x0, x2
b	.L11
.L1303:
mov	x0, x2
b	.L12
.L1304:
mov	x0, x1
b	.L13
.L1305:
mov	x0, x2
b	.L14
.L1306:
mov	x0, x1
b	.L10
.L1307:
mov	x0, x2
b	.L11
.L1308:
mov	x0, x2
b	.L12
.L1309:
mov	x0, x1
b	.L13
.L1310:
mov	x0, x2
b	.L14
.L1311:
mov	x0, x1
b	.L10
.L1312:
mov	x0, x2
b	.L11
.L1313:
mov	x0, x2
b	.L12
.L1314:
mov	x0, x1
b	.L13
.L1315:
mov	x0, x2
b	.L14
.L1316:
mov	x0, x1
b	.L10
.L1317:
mov	x0, x2
b	.L11
.L1318:
mov	x0, x2
b	.L12
.L1319:
mov	x0, x1
b	.L13
.L1320:
mov	x0, x2
b	.L14
.L1321:
mov	x0, x1
b	.L10
.L1322:
mov	x0, x2
b	.L11
.L1323:
mov	x0, x2
b	.L12
.L1324:
mov	x0, x1
b	.L13
.L1325:
mov	x0, x2
b	.L14
.L1326:
mov	x0, x1
b	.L10
.L1327:
mov	x0, x2
b	.L11
.L1328:
mov	x0, x2
b	.L12
.L1329:
mov	x0, x1
b	.L13
.L1330:
mov	x0, x2
b	.L14
.L1331:
mov	x0, x1
b	.L10
.L1332:
mov	x0, x2
b	.L11
.L1333:
mov	x0, x2
b	.L12
.L1334:
mov	x0, x1
b	.L13
.L1335:
mov	x0, x2
b	.L14
.L1336:
mov	x0, x1
b	.L10
.L1337:
mov	x0, x2
b	.L11
.L1338:
mov	x0, x2
b	.L12
.L1339:
mov	x0, x1
b	.L13
.L1340:
mov	x0, x2
b	.L14
.L1341:
mov	x0, x1
b	.L10
.L1342:
mov	x0, x2
b	.L11
.L1343:
mov	x0, x2
b	.L12
.L1344:
mov	x0, x1
b	.L13
.L1345:
mov	x0, x2
b	.L14
.L1346:
mov	x0, x1
b	.L10
.L1347:
mov	x0, x2
b	.L11
.L1348:
mov	x0, x2
b	.L12
.L1349:
mov	x0, x1
b	.L13
.L1350:
mov	x0, x2
b	.L14
.L1351:
mov	x0, x1
b	.L10
.L1352:
mov	x0, x2
b	.L11
.L1353:
mov	x0, x2
b	.L12
.L1354:
mov	x0, x1
b	.L13
.L1355:
mov	x0, x2
b	.L14
.L1356:
mov	x0, x1
b	.L10
.L1357:
mov	x0, x2
b	.L11
.L1358:
mov	x0, x2
b	.L12
.L1359:
mov	x0, x1
b	.L13
.L1360:
mov	x0, x2
b	.L14
.L1361:
mov	x0, x1
b	.L10
.L1362:
mov	x0, x2
b	.L11
.L1363:
mov	x0, x2
b	.L12
.L1364:
mov	x0, x1
b	.L13
.L1365:
mov	x0, x2
b	.L14
.L1366:
mov	x0, x1
b	.L10
.L1367:
mov	x0, x2
b	.L11
.L1368:
mov	x0, x2
b	.L12
.L1369:
mov	x0, x1
b	.L13
.L1370:
mov	x0, x2
b	.L14
.L1371:
mov	x0, x1
b	.L10
.L1372:
mov	x0, x2
b	.L11
.L1373:
mov	x0, x2
b	.L12
.L1374:
mov	x0, x1
b	.L13
.L1375:
mov	x0, x2
b	.L14
.L1376:
mov	x0, x1
b	.L10
.L1377:
mov	x0, x2
b	.L11
.L1378:
mov	x0, x2
b	.L12
.L1379:
mov	x0, x1
b	.L13
.L1380:
mov	x0, x2
b	.L14
.L1381:
mov	x0, x1
b	.L10
.L1382:
mov	x0, x2
b	.L11
.L1383:
mov	x0, x2
b	.L12
.L1384:
mov	x0, x1
b	.L13
.L1385:
mov	x0, x2
b	.L14
.L1386:
mov	x0, x1
b	.L10
.L1387:
mov	x0, x2
b	.L11
.L1388:
mov	x0, x2
b	.L12
.L1389:
mov	x0, x1
b	.L13
.L1390:
mov	x0, x2
b	.L14
.L1391:
mov	x0, x1
b	.L10
.L1392:
mov	x0, x2
b	.L11
.L1393:
mov	x0, x2
b	.L12
.L1394:
mov	x0, x1
b	.L13
.L1395:
mov	x0, x2
b	.L14
.L1396:
mov	x0, x1
b	.L10
.L1397:
mov	x0, x2
b	.L11
.L1398:
mov	x0, x2
b	.L12
.L1399:
mov	x0, x1
b	.L13
.L1400:
mov	x0, x2
b	.L14
.L1401:
mov	x0, x1
b	.L10
.L1402:
mov	x0, x2
b	.L11
.L1403:
mov	x0, x2
b	.L12
.L1404:
mov	x0, x1
b	.L13
.L1405:
mov	x0, x2
b	.L14
.L1406:
mov	x0, x1
b	.L10
.L1407:
mov	x0, x2
b	.L11
.L1408:
mov	x0, x2
b	.L12
.L1409:
mov	x0, x1
b	.L13
.L1410:
mov	x0, x2
b	.L14
.L1411:
mov	x0, x1
b	.L10
.L1412:
mov	x0, x2
b	.L11
.L1413:
mov	x0, x2
b	.L12
.L1414:
mov	x0, x1
b	.L13
.L1415:
mov	x0, x2
b	.L14
.L1416:
mov	x0, x1
b	.L10
.L1417:
mov	x0, x2
b	.L11
.L1418:
mov	x0, x2
b	.L12
.L1419:
mov	x0, x1
b	.L13
.L1420:
mov	x0, x2
b	.L14
.L1421:
mov	x0, x1
b	.L10
.L1422:
mov	x0, x2
b	.L11
.L1423:
mov	x0, x2
b	.L12
.L1424:
mov	x0, x1
b	.L13
.L1425:
mov	x0, x2
b	.L14
.L1426:
mov	x0, x1
b	.L10
.L1427:
mov	x0, x2
b	.L11
.L1428:
mov	x0, x2
b	.L12
.L1429:
mov	x0, x1
b	.L13
.L1430:
mov	x0, x2
b	.L14
.L1431:
mov	x0, x1
b	.L10
.L1432:
mov	x0, x2
b	.L11
.L1433:
mov	x0, x2
b	.L12
.L1434:
mov	x0, x1
b	.L13
.L1435:
mov	x0, x2
b	.L14
.L1436:
mov	x0, x1
b	.L10
.L1437:
mov	x0, x2
b	.L11
.L1438:
mov	x0, x2
b	.L12
.L1439:
mov	x0, x1
b	.L13
.L1440:
mov	x0, x2
b	.L14
.L1441:
mov	x0, x1
b	.L10
.L1442:
mov	x0, x2
b	.L11
.L1443:
mov	x0, x2
b	.L12
.L1444:
mov	x0, x1
b	.L13
.L1445:
mov	x0, x2
b	.L14
.L1446:
mov	x0, x1
b	.L10
.L1447:
mov	x0, x2
b	.L11
.L1448:
mov	x0, x2
b	.L12
.L1449:
mov	x0, x1
b	.L13
.L1450:
mov	x0, x2
b	.L14
.L1451:
mov	x0, x1
b	.L10
.L1452:
mov	x0, x2
b	.L11
.L1453:
mov	x0, x2
b	.L12
.L1454:
mov	x0, x1
b	.L13
.L1455:
mov	x0, x2
b	.L14
.L1456:
mov	x0, x1
b	.L10
.L1457:
mov	x0, x2
b	.L11
.L1458:
mov	x0, x2
b	.L12
.L1459:
mov	x0, x1
b	.L13
.L1460:
mov	x0, x2
b	.L14
.L1461:
mov	x0, x1
b	.L10
.L1462:
mov	x0, x2
b	.L11
.L1463:
mov	x0, x2
b	.L12
.L1464:
mov	x0, x1
b	.L13
.L1465:
mov	x0, x2
b	.L14
.L1466:
mov	x0, x1
b	.L10
.L1467:
mov	x0, x2
b	.L11
.L1468:
mov	x0, x2
b	.L12
.L1469:
mov	x0, x1
b	.L13
.L1470:
mov	x0, x2
b	.L14
.L1471:
mov	x0, x1
b	.L10
.L1472:
mov	x0, x2
b	.L11
.L1473:
mov	x0, x2
b	.L12
.L1474:
mov	x0, x1
b	.L13
.L1475:
mov	x0, x2
b	.L14
.L1476:
mov	x0, x1
b	.L10
.L1477:
mov	x0, x2
b	.L11
.L1478:
mov	x0, x2
b	.L12
.L1479:
mov	x0, x1
b	.L13
.L1480:
mov	x0, x2
b	.L14
.L1481:
mov	x0, x1
b	.L10
.L1482:
mov	x0, x2
b	.L11
.L1483:
mov	x0, x2
b	.L12
.L1484:
mov	x0, x1
b	.L13
.L1485:
mov	x0, x2
b	.L14
.L1486:
mov	x0, x1
b	.L10
.L1487:
mov	x0, x2
b	.L11
.L1488:
mov	x0, x2
b	.L12
.L1489:
mov	x0, x1
b	.L13
.L1490:
mov	x0, x2
b	.L14
.L1491:
mov	x0, x1
b	.L10
.L1492:
mov	x0, x2
b	.L11
.L1493:
mov	x0, x2
b	.L12
.L1494:
mov	x0, x1
b	.L13
.L1495:
mov	x0, x2
b	.L14
.L1496:
mov	x0, x1
b	.L10
.L1497:
mov	x0, x2
b	.L11
.L1498:
mov	x0, x2
b	.L12
.L1499:
mov	x0, x1
b	.L13
.L1500:
mov	x0, x2
b	.L14
.L1501:
mov	x0, x1
b	.L10
.L1502:
mov	x0, x2
b	.L11
.L1503:
mov	x0, x2
b	.L12
.L1504:
mov	x0, x1
b	.L13
.L1505:
mov	x0, x2
b	.L14
.L1506:
mov	x0, x1
b	.L10
.L1507:
mov	x0, x2
b	.L11
.L1508:
mov	x0, x2
b	.L12
.L1509:
mov	x0, x1
b	.L13
.L1510:
mov	x0, x2
b	.L14
.L1511:
mov	x0, x1
b	.L10
.L1512:
mov	x0, x2
b	.L11
.L1513:
mov	x0, x2
b	.L12
.L1514:
mov	x0, x1
b	.L13
.L1515:
mov	x0, x2
b	.L14
.L1516:
mov	x0, x1
b	.L10
.L1517:
mov	x0, x2
b	.L11
.L1518:
mov	x0, x2
b	.L12
.L1519:
mov	x0, x1
b	.L13
.L1520:
mov	x0, x2
b	.L14
.L1521:
mov	x0, x1
b	.L10
.L1522:
mov	x0, x2
b	.L11
.L1523:
mov	x0, x2
b	.L12
.L1524:
mov	x0, x1
b	.L13
.L1525:
mov	x0, x2
b	.L14
.L1526:
mov	x0, x1
b	.L10
.L1527:
mov	x0, x2
b	.L11
.L1528:
mov	x0, x2
b	.L12
.L1529:
mov	x0, x1
b	.L13
.L1530:
mov	x0, x2
b	.L14
.L1531:
mov	x0, x1
b	.L10
.L1532:
mov	x0, x2
b	.L11
.L1533:
mov	x0, x2
b	.L12
.L1534:
mov	x0, x1
b	.L13
.L1535:
mov	x0, x2
b	.L14
.L1536:
mov	x0, x1
b	.L10
.L1537:
mov	x0, x2
b	.L11
.L1538:
mov	x0, x2
b	.L12
.L1539:
mov	x0, x1
b	.L13
.L1540:
mov	x0, x2
b	.L14
.L1541:
mov	x0, x1
b	.L10
.L1542:
mov	x0, x2
b	.L11
.L1543:
mov	x0, x2
b	.L12
.L1544:
mov	x0, x1
b	.L13
.L1545:
mov	x0, x2
b	.L14
.L1546:
mov	x0, x1
b	.L10
.L1547:
mov	x0, x2
b	.L11
.L1548:
mov	x0, x2
b	.L12
.L1549:
mov	x0, x1
b	.L13
.L1550:
mov	x0, x2
b	.L14
.L1551:
mov	x0, x1
b	.L10
.L1552:
mov	x0, x2
b	.L11
.L1553:
mov	x0, x2
b	.L12
.L1554:
mov	x0, x1
b	.L13
.L1555:
mov	x0, x2
b	.L14
.L1556:
mov	x0, x1
b	.L10
.L1557:
mov	x0, x2
b	.L11
.L1558:
mov	x0, x2
b	.L12
.L1559:
mov	x0, x1
b	.L13
.L1560:
mov	x0, x2
b	.L14
.L1561:
mov	x0, x1
b	.L10
.L1562:
mov	x0, x2
b	.L11
.L1563:
mov	x0, x2
b	.L12
.L1564:
mov	x0, x1
b	.L13
.L1565:
mov	x0, x2
b	.L14
.L1566:
mov	x0, x1
b	.L10
.L1567:
mov	x0, x2
b	.L11
.L1568:
mov	x0, x2
b	.L12
.L1569:
mov	x0, x1
b	.L13
.L1570:
mov	x0, x2
b	.L14
.L1571:
mov	x0, x1
b	.L10
.L1572:
mov	x0, x2
b	.L11
.L1573:
mov	x0, x2
b	.L12
.L1574:
mov	x0, x1
b	.L13
.L1575:
mov	x0, x2
b	.L14
.L1576:
mov	x0, x1
b	.L10
.L1577:
mov	x0, x2
b	.L11
.L1578:
mov	x0, x2
b	.L12
.L1579:
mov	x0, x1
b	.L13
.L1580:
mov	x0, x2
b	.L14
.L1581:
mov	x0, x1
b	.L10
.L1582:
mov	x0, x2
b	.L11
.L1583:
mov	x0, x2
b	.L12
.L1584:
mov	x0, x1
b	.L13
.L1585:
mov	x0, x2
b	.L14
.L1586:
mov	x0, x1
b	.L10
.L1587:
mov	x0, x2
b	.L11
.L1588:
mov	x0, x2
b	.L12
.L1589:
mov	x0, x1
b	.L13
.L1590:
mov	x0, x2
b	.L14
.L1591:
mov	x0, x1
b	.L10
.L1592:
mov	x0, x2
b	.L11
.L1593:
mov	x0, x2
b	.L12
.L1594:
mov	x0, x1
b	.L13
.L1595:
mov	x0, x2
b	.L14
.L1596:
mov	x0, x1
b	.L10
.L1597:
mov	x0, x2
b	.L11
.L1598:
mov	x0, x2
b	.L12
.L1599:
mov	x0, x1
b	.L13
.L1600:
mov	x0, x2
b	.L14
.L1601:
mov	x0, x1
b	.L10
.L1602:
mov	x0, x2
b	.L11
.L1603:
mov	x0, x2
b	.L12
.L1604:
mov	x0, x1