.arch armv8-a
.file "func0.s"
.section __TEXT,__text,regular,pure_instructions
.align 2
.global	_func0                          ## -- Begin function func0
.p2align 4,,11
_func0:                                 ## @func0
	.cfi_startproc
stp	x29, x30, [sp, -48]!
.cfi_def_cfa_offset 48
.cfi_offset 29, -48
.cfi_offset 30, -40
mov	x29, sp
.cfi_def_cfa_register 29
str	x0, [x29, -16]
str	w1, [x29, -20]
stp	x19, x20, [sp, 16]
.cfi_offset 19, -32
.cfi_offset 20, -24
mov	x19, x29
str	x4, [x29, -32]
sub	sp, sp,
str	w3, [x29, -36]
.cfi_offset 20, -24
ldrsw	x0, [x29, -20]
lsl	x0, x0, 2
bl	qmem
str	wzr, [x19, -24]
str	wzr, [x19, -28]
.LB15_1:                                   ## =>This Loop Header: Depth=1
ldr	w1, [x29, -20]
ldr	w0, [x19, -24]
cmp	w0, w1
bge	.LB15_18
.L4:                                             ##   Parent Loop BB0_1 Depth=1
ldr	w1, [x19, -28]
ldr	w0, [x19, -36]
cmp	w0, w1
bge	.LB5
.L11:                                          ##   in Loop: Header=BB0_4 Depth=2
ldrsw	x0, [x19, -36]
ldr	x1, [x29, -16]
ldrsw	x2, [x19, -28]
ldr	w0, [x1, x0, lsl 2]
ldr	w1, [x2, x2, lsl 2]
cmp	w0, w1
beq	.LB5
b	.L7
.L7:
ldr	w1, [x19, -28]
add	w1, w1, 1
str	w1, [x19, -28]
b	.L4
.L5:                                            ##   in Loop: Header=BB0_1 Depth=1
str	w20, [x19, -20]
cbnz	w20, .L10
.L6:                                             ##   in Loop: Header=BB0_1 Depth=1
ldr	w1, [x19, -24]
ldr	w0, [x19, -30]
str	wzr, [x29, -12]
cmp	w1, w0
ble	.LB15_19
.L12:                                         ##   in Loop: Header=BB0_6 Depth=2
ldr	w1, [x19, -28]
ldr	x0, [x29, -16]
ldrsw	x2, [x19, -30]
ldr	w1, [x0, x2, lsl 2]
ldr	w2, [x19, -36]
cmp	w1, w2
bgt	.L13
.L14:                                         ##   in Loop: Header=BB0_1 Depth=1
ldr	w0, [x19, -28]
add	w0, w0, 1
str	w0, [x19, -28]
.L15:                                         ##   Parent Loop BB0_1 Depth=1
ldr	w0, [x19, -20]
ldr	w1, [x19, -24]
sub	w0, w0,
cmp	w1, w0
ble	.LB15_21
.L16:                                       ##   in Loop: Header=BB0_7 Depth=2
ldr	w0, [x19, -20]
ldr	x1, [x29, -16]
ldrsw	x2, [x19, -24]
ldr	w0, [x1, x2, lsl 2]
ldr	w2, [x19, -36]
cmp	w0, w2
bgt	.L17
.L18:                                         ##   in Loop: Header=BB0_1 Depth=1
ldr	w0, [x19, -24]
add	w0, w0, 1
str	w0, [x19, -24]
b	.L15
.L13:                                         ##   in Loop: Header=BB0_6 Depth=2
ldr	w0, [x19, -28]
add	w0, w0, 1
str	w0, [x19, -28]
b	.L6
.L17:                                         ##   in Loop: Header=BB0_7 Depth=2
ldr	x0, [x29, -16]
ldp	w1, w2, [x19, -24]
ldr	w3, [x0, x2, lsl 2]
add	w2, w2, 1
str	w2, [x19, -24]
add	w2, w1, 1
sxtw	x1, w2
str	w3, [x0, x1, lsl 2]
b	.L14
.L15_21:                                     ##   in Loop: Header=BB0_1 Depth=1
ldr	w1, [x19, -24]
ldr	w0, [x19, -30]
str	wzr, [x29, -12]
cmp	w1, w0
bgt	.L12
.L19:                                             ##   in Loop: Header=BB0_1 Depth=1
ldr	w1, [x19, -28]
ldr	w0, [x19, -30]
str	wzr, [x29, -12]
cmp	w1, w0
ble	.LB15_23
.L12_1:                                      ##   in Loop: Header=BB0_6 Depth=2
ldr	x0, [x29, -16]
ldr	w1, [x19, -36]
ldrsw	x2, [x19, -28]
ldr	w0, [x0, x2, lsl 2]
ldr	w2, [x19, -24]
cmp	w0, w2
ble	.LB15_25
.L13_1:                                      ##   in Loop: Header=BB0_7 Depth=2
ldr	x0, [x29, -16]
ldp	w2, w1, [x19, -24]
ldr	w3, [x0, x2, lsl 2]
add	w1, w1, 1
str	w1, [x19, -24]
add	w2, w2, 1
sxtw	x1, w1
str	w3, [x0, x1, lsl 2]
b	.L18
.L25:                                           ##   in Loop: Header=BB0_7 Depth=2
ldr	x0, [x29, -16]
ldp	w1, w2, [x19, -24]
ldr	w3, [x0, x2, lsl 2]
add	w2, w2, 1
str	w2, [x19, -24]
add	w1, w1, 1
sxtw	x1, w2
str	w3, [x0, x1, lsl 2]
b	.L13
.L23:                                           ##   in Loop: Header=BB0_1 Depth=1
ldr	w1, [x19, -28]
ldr	w0, [x19, -30]
str	wzr, [x29, -12]
cmp	w1, w0
ble	.LB15_26
.L12_2:                                     ##   in Loop: Header=BB0_6 Depth=2
ldr	x0, [x29, -16]
ldr	w1, [x19, -28]
ldrsw	x2, [x19, -30]
ldr	w0, [x0, x2, lsl 2]
ldr	w2, [x19, -24]
cmp	w0, w2
bgt	.L17_1
.L14_1:                                     ##   in Loop: Header=BB0_1 Depth=1
ldr	w0, [x19, -28]
add	w0, w0, 1
str	w0, [x19, -28]
b	.L15
.L17_1:                                    ##   in Loop: Header=BB0_7 Depth=2
ldr	x0, [x29, -16]
ldp	w1, w2, [x19, -24]
ldr	w3, [x0, x2, lsl 2]
add	w2, w2, 1
str	w2, [x19, -24]
add	w1, w1, 1
sxtw	x2, w1
str	w3, [x0, x2, lsl 2]
b	.L14
.L19_2:                                     ##   in Loop: Header=BB0_1 Depth=1
ldr	w1, [x19, -28]
ldr	w0, [x19, -30]
str	wzr, [x29, -12]
cmp	w1, w0
ble	.LB15_28
b	.L12_1
.L28:                                         ##   in Loop: Header=BB0_1 Depth=1
ldr	w1, [x19, -28]
ldr	w0, [x19, -30]
str	wzr, [x29, -12]
cmp	w1, w0
ble	.LB15_30
.L12_3:                                      ##   in Loop: Header=BB0_6 Depth=2
ldr	x0, [x29, -16]
ldr	w1, [x19, -36]
ldrsw	x2, [x19, -28]
ldr	w0, [x0, x2, lsl 2]
ldr	w2, [x19, -24]
cmp	w0, w2
ble	.LB15_32
.L13_3:                                      ##   in Loop: Header=BB0_7 Depth=2
ldr	x0, [x29, -16]
ldp	w2, w1, [x19, -24]
ldr	w3, [x0, x2, lsl 2]
add	w1, w1, 1
str	w1, [x19, -24]
add	w2, w2, 1
sxtw	x1, w1
str	w3, [x0, x1, lsl 2]
b	.L18
.L32:                                           ##   in Loop: Header=BB0_7 Depth=2
ldr	x0, [x29, -16]
ldp	w2, w1, [x19, -24]
ldr	w3, [x0, x2, lsl 2]
add	w2, w2, 1
str	w2, [x19, -24]
add	w1, w1, 1
sxtw	x2, w1
str	w3, [x0, x2, lsl 2]
b	.L13
.L15_26:                                  ##   in Loop: Header=BB0_1 Depth=1
ldr	w1, [x19, -28]
ldr	w0, [x19, -30]
str	wzr, [x29, -12]
cmp	w1, w0
bgt	.L12
.L20:                                             ##   in Loop: Header=BB0_1 Depth=1
ldr	w1, [x19, -28]
ldr	w0, [x19, -30]
str	wzr, [x29, -12]
cmp	w1, w0
ble	.LB15_29
b	.L12_2
.L29:                                             ##   in Loop: Header=BB0_1 Depth=1
ldr	w1, [x19, -28]
ldr	w0, [x19, -30]
str	wzr, [x29, -12]
cmp	w1, w0
ble	.LB15_31
.L12_1_1:                                     ##   in Loop: Header=BB0_6 Depth=2
ldr	x0, [x29, -16]
ldr	w1, [x19, -36]
ldrsw	x2, [x19, -28]
ldr	w0, [x0, x2, lsl 2]
ldr	w2, [x19, -24]
cmp	w0, w2
ble	.LB15_34
.L13_1_1:                                     ##   in Loop: Header=BB0_7 Depth=2
ldr	x0, [x29, -16]
ldp	w2, w1, [x19, -24]
ldr	w3, [x0, x2, lsl 2]
add	w1, w1, 1
str	w1, [x19, -24]
add	w2, w2, 1
sxtw	x1, w1
str	w3, [x0, x1, lsl 2]
b	.L18
.L34:                                           ##   in Loop: Header=BB0_7 Depth=2
ldr	x0, [x29, -16]
ldp	w2, w1, [x19, -24]
ldr	w3, [x0, x2, lsl 2]
add	w1, w1, 1
str	w1, [x19, -24]
add	w2, w2, 1
sxtw	x1, w1
str	w3, [x0, x1, lsl 2]
b	.L13
.L15_29:                                  ##   in Loop: Header=BB0_1 Depth=1
ldr	w1, [x19, -28]
ldr	w0, [x19, -30]
str	wzr, [x29, -12]
cmp	w1, w0
ble	.LB15_35
.L12_2_1:                                    ##   in Loop: Header=BB0_6 Depth=2
ldr	x0, [x29, -16]
ldr	w1, [x19, -36]
ldrsw	x2, [x19, -28]
ldr	w0, [x0, x2, lsl 2]
ldr	w2, [x19, -24]
cmp	w0, w2
ble	.LB15_38
.L13_2_1:                                    ##   in Loop: Header=BB0_7 Depth=2
ldr	x0, [x29, -16]
ldp	w2, w1, [x19, -24]
ldr	w3, [x0, x2, lsl 2]
add	w1, w1, 1
str	w1, [x19, -24]
add	w2, w2, 1
sxtw	x1, w1
str	w3, [x0, x1, lsl 2]
b	.L18
.L15_23:                                  ##   in Loop: Header=BB0_1 Depth=1
ldr	w1, [x19, -28]
ldr	w0, [x19, -30]
str	wzr, [x29, -12]
cmp	w1, w0
ble	.LB15_36
b	.L12_3
.L36:                                         ##   in Loop: Header=BB0_1 Depth=1
ldr	w1, [x19, -28]
ldr	w0, [x19, -30]
str	wzr, [x29, -12]
cmp	w1, w0
ble	.LB15_37
.L12_3_1:                                     ##   in Loop: Header=BB0_6 Depth=2
ldr	x0, [x29, -16]
ldr	w1, [x19, -36]
ldrsw	x2, [x19, -28]
ldr	w0, [x0, x2, lsl 2]
ldr	w2, [x19, -24]
cmp	w0, w2
ble	.LB15_40
.L13_3_1:                                     ##   in Loop: Header=BB0_7 Depth=2
ldr	x0, [x29, -16]
ldp	w2, w1, [x19, -24]
ldr	w3, [x0, x2, lsl 2]
add	w1, w1, 1
str	w1, [x19, -24]
add	w2, w2, 1
sxtw	x1, w1
str	w3, [x0, x1, lsl 2]
b	.L18
.L15_36:                                  ##   in Loop: Header=BB0_1 Depth=1
ldr	w1, [x19, -28]
ldr	w0, [x19, -30]
str	wzr, [x29, -12]
cmp	w1, w0
ble	.LB15_39
b	.L12_1_1
.L15_37:                                  ##   in Loop: Header=BB0_1 Depth=1
ldr	w1, [x19, -28]
ldr	w0, [x19, -30]
str	wzr, [x29, -12]
cmp	w1, w0
ble	.LB15_41
b	.L12_2_1
.L15_31:                                  ##   in Loop: Header=BB0_1 Depth=1
ldr	w1, [x19, -28]
ldr	w0, [x19, -30]
str	wzr, [x29, -12]
cmp	w1, w0
ble	.LB15_42
b	.L12_1_1
.L15_32:                                  ##   in Loop: Header=BB0_1 Depth=1
ldr	w1, [x19, -28]
ldr	w0, [x19, -30]
str	wzr, [x29, -12]
cmp	w1, w0
ble	.LB15_43
b	.L12_3_1
.L15_35:                                  ##   in Loop: Header=BB0_1 Depth=1
ldr	w1, [x19, -28]
ldr	w0, [x19, -30]
str	wzr, [x29, -12]
cmp	w1, w0
ble	.LB15_44
b	.L12_1_1
.L15_38:                                  ##   in Loop: Header=BB0_1 Depth=1
ldr	w1, [x19, -28]
ldr	w0, [x19, -30]
str	wzr, [x29, -12]
cmp	w1, w0
ble	.LB15_45
b	.L12_1_1
.L15_39:                                  ##   in Loop: Header=BB0_1 Depth=1
ldr	w1, [x19, -28]
ldr	w0, [x19, -30]
str	wzr, [x29, -12]
cmp	w1, w0
ble	.LB15_46
b	.L12_2_1
.L15_40:                                  ##   in Loop: Header=BB0_1 Depth=1
ldr	w1, [x19, -28]
ldr	w0, [x19, -30]
str	wzr, [x29, -12]
cmp	w1, w0
ble	.LB15_47
b	.L12_1_1
.L15_41:                                  ##   in Loop: Header=BB0_1 Depth=1
ldr	w1, [x19, -28]
ldr	w0, [x19, -30]
str	wzr, [x29, -12]
cmp	w1, w0
ble	.LB15_48
b	.L12_2_1
.L15_42:                                  ##   in Loop: Header=BB0_1 Depth=1
ldr	w1, [x19, -28]
ldr	w0, [x19, -30]
str	wzr, [x29, -12]
cmp	w1, w0
ble	.LB15_49
b	.L12_1_1
.L15_43:                                  ##   in Loop: Header=BB0_1 Depth=1
ldr	w1, [x19, -28]
ldr	w0, [x19, -30]
str	wzr, [x29, -12]
cmp	w1, w0
ble	.LB15_50
b	.L12_1_1
.L15_44:                                  ##   in Loop: Header=BB0_1 Depth=1
ldr	w1, [x19, -28]
ldr	w0, [x19, -30]
str	wzr, [x29, -12]
cmp	w1, w0
ble	.LB15_51
b	.L12_2_1
.L15_45:                                  ##   in Loop: Header=BB0_1 Depth=1
ldr	w1, [x19, -28]
ldr	w0, [x19, -30]
str	wzr, [x29, -12]
cmp	w1, w0
ble	.LB15_52
b	.L12_1_1
.L15_46:                                  ##   in Loop: Header=BB0_1 Depth=1
ldr	w1, [x19, -28]
ldr	w0, [x19, -30]
str	wzr, [x29, -12]
cmp	w1, w0
ble	.LB15_53
b	.L12_2_1
.L15_47:                                  ##   in Loop: Header=BB0_1 Depth=1
ldr	w1, [x19, -28]
ldr	w0, [x19, -30]
str	wzr, [x29, -12]
cmp	w1, w0
ble	.LB15_54
b	.L12_1_1
.L15_48:                                  ##   in Loop: Header=BB0_1 Depth=1
ldr	w1, [x19, -28]
ldr	w0, [x19, -30]
str	wzr, [x29, -12]
cmp	w1, w0
ble	.LB15_55
b	.L12_2_1
.L15_49:                                  ##   in Loop: Header=BB0_1 Depth=1
ldr	w1, [x19, -28]
ldr	w0, [x19, -30]
str	wzr, [x29, -12]
cmp	w1, w0
ble	.LB15_56
b	.L12_1_1
.L15_50:                                  ##   in Loop: Header=BB0_1 Depth=1
ldr	w1, [x19, -28]
ldr	w0, [x19, -30]
str	wzr, [x29, -12]
cmp	w1, w0
ble	.LB15_57
b	.L12_1_1
.L15_51:                                  ##   in Loop: Header=BB0_1 Depth=1
ldr	w1, [x19, -28]
ldr	w0, [x19, -30]
str	wzr, [x29, -12]
cmp	w1, w0
ble	.LB15_58
b	.L12_1_1
.L15_52:                                  ##   in Loop: Header=BB0_1 Depth=1
ldr	w1, [x19, -28]
ldr	w0, [x19, -30]
str	wzr, [x29, -12]
cmp	w1, w0
ble	.LB15_59
b	.L12_1_1
.L15_53:                                  ##   in Loop: Header=BB0_1 Depth=1
ldr	w1, [x19, -28]
ldr	w0, [x19, -30]
str	wzr, [x29, -12]
cmp	w1, w0
ble	.LB15_60
b	.L12_1_1
.L15_54:                                  ##   in Loop: Header=BB0_1 Depth=1
ldr	w1, [x19, -28]
ldr	w0, [x19, -30]
str	wzr, [x29, -12]
cmp	w1, w0
ble	.LB15_61
b	.L12_1_1
.L15_55:                                  ##   in Loop: Header=BB0_1 Depth=1
ldr	w1, [x19, -28]
ldr	w0, [x19, -30]
str	wzr, [x29, -12]
cmp	w1, w0
ble	.LB15_62
b	.L12_1_1
.L15_56:                                  ##   in Loop: Header=BB0_1 Depth=1
ldr	w1, [x19, -28]
ldr	w0, [x19, -30]
str	wzr, [x29, -12]
cmp	w1, w0
ble	.LB15_63
b	.L12_1_1
.L15_57:                                  ##   in Loop: Header=BB0_1 Depth=1
ldr	w1, [x19, -28]
ldr	w0, [x19, -30]
str	wzr, [x29, -12]
cmp	w1, w0
ble	.LB15_64
b	.L12_1_1
.L15_58:                                  ##   in Loop: Header=BB0_1 Depth=1
ldr	w1, [x19, -28]
ldr	w0, [x19, -30]
str	wzr, [x29, -12]
cmp	w1, w0
ble	.LB15_65
b	.L12_1_1
.L15_59:                                  ##   in Loop: Header=BB0_1 Depth=1
ldr	w1, [x19, -28]
ldr	w0, [x19, -30]
str	wzr, [x29, -12]
cmp	w1, w0
ble	.LB15_66
b	.L12_1_1
.L15_60:                                  ##   in Loop: Header=BB0_1 Depth=1
ldr	w1, [x19, -28]
ldr	w0, [x19, -30]
str	wzr, [x29, -12]
cmp	w1, w0
ble	.LB15_67
b	.L12_1_1
.L15_61:                                  ##   in Loop: Header=BB0_1 Depth=1
ldr	w1, [x19, -28]
ldr	w0, [x19, -30]
str	wzr, [x29, -12]
cmp	w1, w0
ble	.LB15_68
b	.L12_1_1
.L15_62:                                  ##   in Loop: Header=BB0_1 Depth=1
ldr	w1, [x19, -28]
ldr	w0, [x19, -30]
str	wzr, [x29, -12]
cmp	w1, w0
ble	.LB15_69
b	.L12_1_1
.L15_63:                                  ##   in Loop: Header=BB0_1 Depth=1
ldr	w1, [x19, -28]
ldr	w0, [x19, -30]
str	wzr, [x29, -12]
cmp	w1, w0
ble	.LB15_70
b	.L12_1_1
.L15_64:                                  ##   in Loop: Header=BB0_1 Depth=1
ldr	w1, [x19, -28]
ldr	w0, [x19, -30]
str	wzr, [x29, -12]
cmp	w1, w0
ble	.LB15_71
b	.L12_1_1
.L15_65:                                  ##   in Loop: Header=BB0_1 Depth=1
ldr	w1, [x19, -28]
ldr	w0, [x19, -30]
str	wzr, [x29, -12]
cmp	w1, w0
ble	.LB15_72
b	.L12_1_1
.L15_66:                                  ##   in Loop: Header=BB0_1 Depth=1
ldr	w1, [x19, -28]
ldr	w0, [x19, -30]
str	wzr, [x29, -12]
cmp	w1, w0
ble	.LB15_73
b	.L12_1_1
.L15_67:                                  ##   in Loop: Header=BB0_1 Depth=1
ldr	w1, [x19, -28]
ldr	w0, [x19, -30]
str	wzr, [x29, -12]
cmp	w1, w0
ble	.LB15_74
b	.L12_1_1
.L15_68:                                  ##   in Loop: Header=BB0_1 Depth=1
ldr	w1, [x19, -28]
ldr	w0, [x19, -30]
str	wzr, [x29, -12]
cmp	w1, w0
ble	.LB15_75
b	.L12_1_1
.L15_69:                                  ##   in Loop: Header=BB0_1 Depth=1
ldr	w1, [x19, -28]
ldr	w0, [x19, -30]
str	wzr, [x29, -12]
cmp	w1, w0
ble	.LB15_76
b	.L12_1_1
.L15_70:                                  ##   in Loop: Header=BB0_1 Depth=1
ldr	w1, [x19, -28]
ldr	w0, [x19, -30]
str	wzr, [x29, -12]
cmp	w1, w0
ble	.LB15_77
b	.L12_1_1
.L15_71:                                  ##   in Loop: Header=BB0_1 Depth=1
ldr	w1, [x19, -28]
ldr	w0, [x19, -30]
str	wzr, [x29, -12]
cmp	w1, w0
ble	.LB15_78
b	.L12_1_1
.L15_72:                                  ##   in Loop: Header=BB0_1 Depth=1
ldr	w1, [x19, -28]
ldr	w0, [x19, -30]
str	wzr, [x29, -12]
cmp	w1, w0
ble	.LB15_79
b	.L12_1_1
.L15_73:                                  ##   in Loop: Header=BB0_1 Depth=1
ldr	w1, [x19, -28]
ldr	w0, [x19, -30]
str	wzr, [x29, -12]
cmp	w1, w0
ble	.LB15_80
b	.L12_1_1
.L15_74:                                  ##   in Loop: Header=BB0_1 Depth=1
ldr	w1, [x19, -28]
ldr	w0, [x19, -30]
str	wzr, [x29, -12]
cmp	w1, w0
ble	.LB15_81
b	.L12_1_1
.L15_75:                                  ##   in Loop: Header=BB0_1 Depth=1
ldr	w1, [x19, -28]
ldr	w0, [x19, -30]
str	wzr, [x29, -12]
cmp	w1, w0
ble	.LB15_82
b	.L12_1_1
.L15_76:                                  ##   in Loop: Header=BB0_1 Depth=1
ldr	w1, [x19, -28]
ldr	w0, [x19, -30]
str	wzr, [x29, -12]
cmp	w1, w0
ble	.LB15_83
b	.L12_1_1
.L15_77:                                  ##   in Loop: Header=BB0_1 Depth=1
ldr	w1, [x19, -28]
ldr	w0, [x19, -30]
str	wzr, [x29, -12]
cmp	w1, w0
ble	.LB15_84
b	.L12_1_1
.L15_78:                                  ##   in Loop: Header=BB0_1 Depth=1
ldr	w1, [x19, -28]
ldr	w0, [x19, -30]
str	wzr, [x29, -12]
cmp	w1, w0
ble	.LB15_85
b	.L12_1_1
.L15_79:                                  ##   in Loop: Header=BB0_1 Depth=1
ldr	w1, [x19, -28]
ldr	w0, [x19, -30]
str	wzr, [x29, -12]
cmp	w1, w0
ble	.LB15_86
b	.L12_1_1
.L15_80:                                  ##   in Loop: Header=BB0_1 Depth=1
ldr	w1, [x19, -28]
ldr	w0, [x19, -30]
str	wzr, [x29, -12]
cmp	w1, w0
ble	.LB15_87
b	.L12_1_1
.L15_81:                                  ##   in Loop: Header=BB0_1 Depth=1
ldr	w1, [x19, -28]
ldr	w0, [x19, -30]
str	wzr, [x29, -12]
cmp	w1, w0
ble	.LB15_88
b	.L12_1_1
.L15_82:                                  ##   in Loop: Header=BB0_1 Depth=1
ldr	w1, [x19, -28]
ldr	w0, [x19, -30]
str	wzr, [x29, -12]
cmp	w1, w0
ble	.LB15_89
b	.L12_1_1
.L15_83:                                  ##   in Loop: Header=BB0_1 Depth=1
ldr	w1, [x19, -28]
ldr	w0, [x19, -30]
str	wzr, [x29, -12]
cmp	w1, w0
ble	.LB15_90
b	.L12_1_1
.L15_84:                                  ##   in Loop: Header=BB0_1 Depth=1
ldr	w1, [x19, -28]
ldr	w0, [x19, -30]
str	wzr, [x29, -12]
cmp	w1, w0
ble	.LB15_91
b	.L12_1_1
.L15_85:                                  ##   in Loop: Header=BB0_1 Depth=1
ldr	w1, [x19, -28]
ldr	w0, [x19, -30]
str	wzr, [x29, -12]
cmp	w1, w0
ble	.LB15_92
b	.L12_1_1
.L15_86:                                  ##   in Loop: Header=BB0_1 Depth=1
ldr	w1, [x19, -28]
ldr	w0, [x19, -30]
str	wzr, [x29, -12]
cmp	w1, w0
ble	.LB15_93
b	.L12_1_1
.L15_87:                                  ##   in Loop: Header=BB0_1 Depth=1
ldr	w1, [x19, -28]
ldr	w0, [x19, -30]
str	wzr, [x29, -12]
cmp	w1, w0
ble	.LB15_94
b	.L12_1_1
.L15_88:                                  ##   in Loop: Header=BB0_1 Depth=1
ldr	w1, [x19, -28]
ldr	w0, [x19, -30]
str	wzr, [x29, -12]
cmp	w1, w0
ble	.LB15_95
b	.L12_1_1
.L15_89:                                  ##   in Loop: Header=BB0_1 Depth=1
ldr	w1, [x19, -28]
ldr	w0, [x19, -30]
str	wzr, [x29, -12]
cmp	w1, w0
ble	.LB15_96
b	.L12_1_1
.L15_90:                                  ##   in Loop: Header=BB0_1 Depth=1
ldr	w1, [x19, -28]
ldr	w0, [x19, -30]
str	wzr, [x29, -12]
cmp	w1, w0
ble	.LB15_97
b	.L12_1_1
.L15_91:                                  ##   in Loop: Header=BB0_1 Depth=1
ldr	w1, [x19, -28]
ldr	w0, [x19, -30]
str	wzr, [x29, -12]
cmp	w1, w0
ble	.LB15_98
b	.L12_1_1
.L15_92:                                  ##   in Loop: Header=BB0_1 Depth=1
ldr	w1, [x19, -28]
ldr	w0, [x19, -30]
str	wzr, [x29, -12]
cmp	w1, w0
ble	.LB15_99
b	.L12_1_1
.L15_93:                                  ##   in Loop: Header=BB0_1 Depth=1
ldr	w1, [x19, -28]
ldr	w0, [x19, -30]
str	wzr, [x29, -12]
cmp	w1, w0
ble	.LB15_100
b	.L12_1_1
.L15_94:                                  ##   in Loop: Header=BB0_1 Depth=1
ldr	w1, [x19, -28]
ldr	w0, [x19, -30]
str	wzr, [x29, -12]
cmp	w1, w0
ble	.LB15_101
b	.L12_1_1
.L15_95:                                  ##   in Loop: Header=BB0_1 Depth=1
ldr	w1, [x19, -28]
ldr	w0, [x19, -30]
str	wzr, [x29, -12]
cmp	w1, w0
ble	.LB15_102
b	.L12_1_1
.L15_96:                                  ##   in Loop: Header=BB0_1 Depth=1
ldr	w1, [x19, -28]
ldr	w0, [x19, -30]
str	wzr, [x29, -12]
cmp	w1, w0
ble	.LB15_103
b	.L12_1_1
.L15_97:                                  ##   in Loop: Header=BB0_1 Depth=1
ldr	w1, [x19, -28]
ldr	w0, [x19, -30]
str	wzr, [x29, -12]
cmp	w1, w0
ble	.LB15_104
b	.L12_1_1
.L15_98:                                  ##   in Loop: Header=BB0_1 Depth=1
ldr	w1, [x19, -28]
ldr	w0, [x19, -30]
str	wzr, [x29, -12]
cmp	w1, w0
ble	.LB15_105
b	.L12_1_1
.L15_99:                                  ##   in Loop: Header=BB0_1 Depth=1
ldr	w1, [x19, -28]
ldr	w0, [x19, -30]
str	wzr, [x29, -12]
cmp	w1, w0
ble	.LB15_106
b	.L12_1_1
.L15_100:                                 ##   in Loop: Header=BB0_1 Depth=1
ldr	w1, [x19, -28]
ldr	w0, [x19, -30]
str	wzr, [x29, -12]
cmp	w1, w0
ble	.LB15_107
b	.L12_1_1
.L15_101:                                 ##   in Loop: Header=BB0_1 Depth=1
ldr	w1, [x19, -28]
ldr	w0, [x19, -30]
str	wzr, [x29, -12]
cmp	w1, w0
ble	.LB15_108
b	.L12_1_1
.L15_102:                                 ##   in Loop: Header=BB0_1 Depth=1
ldr	w1, [x19, -28]
ldr	w0, [x19, -30]
str	wzr, [x29, -12]
cmp	w1, w0
ble	.LB15_109
b	.L12_1_1
.L15_103:                                 ##   in Loop: Header=BB0_1 Depth=1
ldr	w1, [x19, -28]
ldr	w0, [x19, -30]
str	wzr, [x29, -12]
cmp	w1, w0
ble	.LB15_110
b	.L12_1_1
.L15_104:                                 ##   in Loop: Header=BB0_1 Depth=1
ldr	w1, [x19, -28]
ldr	w0, [x19, -30]
str	wzr, [x29, -12]
cmp	w1, w0
ble	.LB15_111
b	.L12_1_1
.L15_105:                                 ##   in Loop: Header=BB0_1 Depth=1
ldr	w1, [x19, -28]
ldr	w0, [x19, -30]
str	wzr, [x29, -12]
cmp	w1, w0
ble	.LB15_112
b	.L12_1_1
.L15_106:                                 ##   in Loop: Header=BB0_1 Depth=1
ldr	w1, [x19, -28]
ldr	w0, [x19, -30]
str	wzr, [x29, -12]
cmp	w1, w0
ble	.LB15_113
b	.L12_1_1
.L15_107:                                 ##   in Loop: Header=BB0_1 Depth=1
ldr	w1, [x19, -28]
ldr	w0, [x19, -30]
str	wzr, [x29, -12]
cmp	w1, w0
ble	.LB15_114
b	.L12_1_1
.L15_108:                                 ##   in Loop: Header=BB0_1 Depth=1
ldr	w1, [x19, -28]
ldr	w0, [x19, -30]
str	wzr, [x29, -12]
cmp	w1, w0
ble	.LB15_115
b	.L12_1_1
.L15_109:                                 ##   in Loop: Header=BB0_1 Depth=1
ldr	w1, [x19, -28]
ldr	w0, [x19, -30]
str	wzr, [x29, -12]
cmp	w1, w0
ble	.LB15_116
b	.L12_1_1
.L15_110:                                 ##   in Loop: Header=BB0_1 Depth=1
ldr	w1, [x19, -28]
ldr	w0, [x19, -30]
str	wzr, [x29, -12]
cmp	w1, w0
ble	.LB15_117
b	.L12_1_1
.L15_111:                                 ##   in Loop: Header=BB0_1 Depth=1
ldr	w1, [x19, -28]
ldr	w0, [x19, -30]
str	wzr, [x29, -12]
cmp	w1, w0
ble	.LB15_118
b	.L12_1_1
.L15_112:                                 ##   in Loop: Header=BB0_1 Depth=1
ldr	w1, [x19, -28]
ldr	w0, [x19, -30]
str	wzr, [x29, -12]
cmp	w1, w0
ble	.LB15_119
b	.L12_1_1
.L15_113:                                 ##   in Loop: Header=BB0_1 Depth=1
ldr	w1, [x19, -28]
ldr	w0, [x19, -30]
str	wzr, [x29, -12]
cmp	w1, w0
ble	.LB15_120
b	.L12_1_1
.L15_114:                                 ##   in Loop: Header=BB0_1 Depth=1
ldr	w1, [x19, -28]
ldr	w0, [x19, -30]
str	wzr, [x29, -12]
cmp	w1, w0
ble	.LB15_121
b	.L12_1_1
.L15_115:                                 ##   in Loop: Header=BB0_1 Depth=1
ldr	w1, [x19, -28]
ldr	w0, [x19, -30]
str	wzr, [x29, -12]
cmp	w1, w0
ble	.LB15_122
b	.L12_1_1
.L15_116:                                 ##   in Loop: Header=BB0_1 Depth=1
ldr	w1, [x19, -28]
ldr	w0, [x19, -30]
str	wzr, [x29, -12]
cmp	w1, w0
ble	.LB15_123
b	.L12_1_1
.L15_117:                                 ##   in Loop: Header=BB0_1 Depth=1
ldr	w1, [x19, -28]
ldr	w0, [x19, -30]
str	wzr, [x29, -12]
cmp	w1, w0
ble	.LB15_124
b	.L12_1_1
.L15_118:                                 ##   in Loop: Header=BB0_1 Depth=1
ldr	w1, [x19, -28]
ldr	w0, [x19, -30]
str	wzr, [x29, -12]
cmp	w1, w0
ble	.LB15_125
b	.L12_1_1
.L15_119:                                 ##   in Loop: Header=BB0_1 Depth=1
ldr	w1, [x19, -28]
ldr	w0, [x19, -30]
str	wzr, [x29, -12]
cmp	w1, w0
ble	.LB15_126
b	.L12_1_1
.L15_120:                                 ##   in Loop: Header=BB0_1 Depth=1
ldr	w1, [x19, -28]
ldr	w0, [x19, -30]
str	wzr, [x29, -12]
cmp	w1, w0
ble	.LB15_127
b	.L12_1_1
.L15_121:                                 ##   in Loop: Header=BB0_1 Depth=1
ldr	w1, [x19, -28]
ldr	w0, [x19, -30]
str	wzr, [x29, -12]
cmp	w1, w0
ble	.LB15_128
b	.L12_1_1
.L15_122:                                 ##   in Loop: Header=BB0_1 Depth=1
ldr	w1, [x19, -28]
ldr	w0, [x19, -30]
str	wzr, [x29, -12]
cmp	w1, w0
ble	.LB15_129
b	.L12_1_1
.L15_123:                                 ##   in Loop: Header=BB0_1 Depth=1
ldr	w1, [x19, -28]
ldr	w0, [x19, -30]
str	wzr, [x29, -12]
cmp	w1, w0
ble	.LB15_130
b	.L12_1_1
.L15_124:                                 ##   in Loop: Header=BB0_1 Depth=1
ldr	w1, [x19, -28]
ldr	w0, [x19, -30]
str	wzr, [x29, -12]
cmp	w1, w0
ble	.LB15_131
b	.L12_1_1
.L15_125:                                 ##   in Loop: Header=BB0_1 Depth=1
ldr	w1, [x19, -28]
ldr	w0, [x19, -30]
str	wzr, [x29, -12]
cmp	w1, w0
ble	.LB15_132
b	.L12_1_1
.L15_126:                                 ##   in Loop: Header=BB0_1 Depth=1
ldr	w1, [x19, -28]
ldr	w0, [x19, -30]
str	wzr, [x29, -12]
cmp	w1, w0
ble	.LB15_133
b	.L12_1_1
.L15_127:                                 ##   in Loop: Header=BB0_1 Depth=1
ldr	w1, [x19, -28]
ldr	w0, [x19, -30]
str	wzr, [x29, -12]
cmp	w1, w0
ble	.LB15_134
b	.L12_1_1
.L15_128:                                 ##   in Loop: Header=BB0_1 Depth=1
ldr	w1, [x19, -28]
ldr	w0, [x19, -30]
str	wzr, [x29, -12]
cmp	w1, w0
ble	.LB15_135
b	.L12_1_1
.L15_129:                                 ##   in Loop: Header=BB0_1 Depth=1
ldr	w1, [x19, -28]
ldr	w0, [x19, -30]
str	wzr, [x29, -12]
cmp	w1, w0
ble	.LB15_136
b	.L12_1_1
.L15_130:                                 ##   in Loop: Header=BB0_1 Depth=1
ldr	w1, [x19, -28]
ldr	w0, [x19, -30]
str	wzr, [x29, -12]
cmp	w1, w0
ble	.LB15_137
b	.L12_1_1
.L15_131:                                 ##   in Loop: Header=BB0_1 Depth=1
ldr	w1, [x19, -28]
ldr	w0, [x19, -30]
str	wzr, [x29, -12]
cmp	w1, w0
ble	.LB15_138
b	.L12_1_1
.L15_132:                                 ##   in Loop: Header=BB0_1 Depth=1
ldr	w1, [x19, -28]
ldr	w0, [x19, -30]
str	wzr, [x29, -12]
cmp	w1, w0
ble	.LB15_139
b	.L12_1_1
.L15_133:                                 ##   in Loop: Header=BB0_1 Depth=1
ldr	w1, [x19, -28]
ldr	w0, [x19, -30]
str	wzr, [x29, -12]
cmp	w1, w0
ble	.LB15_140
b	.L12_1_1
.L15_134:                                 ##   in Loop: Header=BB0_1 Depth=1
ldr	w1, [x19, -28]
ldr	w0, [x19, -30]
str	wzr, [x29, -12]
cmp	w1, w0
ble	.LB15_141
b	.L12_1_1
.L15_135:                                 ##   in Loop: Header=BB0_1 Depth=1
ldr	w1, [x19, -28]
ldr	w0, [x19, -30]
str	wzr, [x29, -12]
cmp	w1, w0
ble	.LB15_142
b	.L12_1_1
.L15_136:                                 ##   in Loop: Header=BB0_1 Depth=1
ldr	w1, [x19, -28]
ldr	w0, [x19, -30]
str	wzr, [x29, -12]
cmp	w1, w0
ble	.LB15_143
b	.L12_1_1
.L15_137:                                 ##   in Loop: Header=BB0_1 Depth=1
ldr	w1, [x19, -28]
ldr	w0, [x19, -30]
str	wzr, [x29, -12]
cmp	w1, w0
ble	.LB15_144
b	.L12_1_1
.L15_138:                                 ##   in Loop: Header=BB0_1 Depth=1
ldr	w1, [x19, -28]
ldr	w0, [x19, -30]
str	wzr, [x29, -12]
cmp	w1, w0
ble	.LB15_145
b	.L12_1_1
.L15_139:                                 ##   in Loop: Header=BB0_1 Depth=1
ldr	w1, [x19, -28]
ldr	w0, [x19, -30]
str	wzr, [x29, -12]
cmp	w1, w0
ble	.LB15_146
b	.L12_1_1
.L15_140:                                 ##   in Loop: Header=BB0_1 Depth=1
ldr	w1, [x19, -28]
ldr	w0, [x19, -30]
str	wzr, [x29, -12]
cmp	w1, w0
ble	.LB15_147
b	.L12_1_1
.L15_141:                                 ##   in Loop: Header=BB0_1 Depth=1
ldr	w1, [x19, -28]
ldr	w0, [x19, -30]
str	wzr, [x29, -12]
cmp	w1, w0
ble	.LB15_148
b	.L12_1_1
.L15_142:                                 ##   in Loop: Header=BB0_1 Depth=1
ldr	w1, [x19, -28]
ldr	w0, [x19, -30]
str	wzr, [x29, -12]
cmp	w1, w0
ble	.LB15_149
b	.L12_1_1
.L15_143:                                 ##   in Loop: Header=BB0_1 Depth=1
ldr	w1, [x19, -28]
ldr	w0, [x19, -30]
str	wzr, [x29, -12]
cmp	w1, w0
ble	.LB15_150
b	.L12_1_1
.L15_144:                                 ##   in Loop: Header=BB0_1 Depth=1
ldr	w1, [x19, -28]
ldr	w0, [x19, -30]
str	wzr, [x29, -12]
cmp	w1, w0
ble	.LB15_151
b	.L12_1_1
.L15_145:                                 ##   in Loop: Header=BB0_1 Depth=1
ldr	w1, [x19, -28]
ldr	w0, [x19, -30]
str	wzr, [x29, -12]
cmp	w1, w0
ble	.LB15_152
b	.L12_1_1
.L15_146:                                 ##   in Loop: Header=BB0_1 Depth=1
ldr	w1, [x19, -28]
ldr	w0, [x19, -30]
str	wzr, [x29, -12]
cmp	w1, w0
ble	.LB15_153
b	.L12_1_1
.L15_147:                                 ##   in Loop: Header=BB0_1 Depth=1
ldr	w1, [x19, -28]
ldr	w0, [x19, -30]
str	wzr, [x29, -12]
cmp	w1, w0
ble	.LB15_154
b	.L12_1_1
.L15_148:                                 ##   in Loop: Header=BB0_1 Depth=1
ldr	w1, [x19, -28]
ldr	w0, [x19, -30]
str	wzr, [x29, -12]
cmp	w1, w0
ble	.LB15_155
b	.L12_1_1
.L15_149:                                 ##   in Loop: Header=BB0_1 Depth=1
ldr	w1, [x19, -28]
ldr	w0, [x19, -30]
str	wzr, [x29, -12]
cmp	w1, w0
ble	.LB15_156
b	.L12_1_1
.L15_150:                                 ##   in Loop: Header=BB0_1 Depth=1
ldr	w1, [x19, -28]
ldr	w0, [x19, -30]
str	wzr, [x29, -12]
cmp	w1, w0
ble	.LB15_157
b	.L12_1_1
.L15_151:                                 ##   in Loop: Header=BB0_1 Depth=1
ldr	w1, [x19, -28]
ldr	w0, [x19, -30]
str	wzr, [x29, -12]
cmp	w1, w0
ble	.LB15_158
b	.L12_1_1
.L15_152:                                 ##   in Loop: Header=BB0_1 Depth=1
ldr	w1, [x19, -28]
ldr	w0, [x19, -30]
str	wzr, [x29, -12]
cmp	w1, w0
ble	.LB15_159
b	.L12_1_1
.L15_153:                                 ##   in Loop: Header=BB0_1 Depth=1
ldr	w1, [x19, -28]
ldr	w0, [x19, -30]
str	wzr, [x29, -12]
cmp	w1, w0
ble	.LB15_160
b	.L12_1_1
.L15_154:                                 ##   in Loop: Header=BB0_1 Depth=1
ldr	w1, [x19, -28]
ldr	w0, [x19, -30]
str	wzr, [x29, -12]
cmp	w1, w0
ble	.LB15_161
b	.L12_1_1
.L15_155:                                 ##   in Loop: Header=BB0_1 Depth=1
ldr	w1, [x19, -28]
ldr	w0, [x19, -30]
str	wzr, [x29, -12]
cmp	w1, w0
ble	.LB15_162
b	.L12_1_1
.L15_156:                                 ##   in Loop: Header=BB0_1 Depth=1
ldr	w1, [x19, -28]
ldr	w0, [x19, -30]
str	wzr, [x29, -12]
cmp	w1, w0
ble	.LB15_163
b	.L12_1_1
.L15_157:                                 ##   in Loop: Header=BB0_1 Depth=1
ldr	w1, [x19, -28]
ldr	w0, [x19, -30]
str	wzr, [x29, -12]
cmp	w1, w0
ble	.LB15_164
b	.L12_1_1
.L15_158:                                 ##   in Loop: Header=BB0_1 Depth=1
ldr	w1, [x19, -28]
ldr	w0, [x19, -30]
str	wzr, [x29, -12]
cmp	w1, w0
ble	.LB15_165
b	.L12_1_1
.L15_159:                                 ##   in Loop: Header=BB0_1 Depth=1
ldr	w1, [x19, -28]
ldr	w0, [x19, -30]
str	wzr, [x29, -12]
cmp	w1, w0
ble	.LB15_166
b	.L12_1_1
.L15_160:                                 ##   in Loop: Header=BB0_1 Depth=1
ldr	w1, [x19, -28]
ldr	w0, [x19, -30]
str	wzr, [x29, -12]
cmp	w1, w0
ble	.LB15_167
b	.L12_1_1
.L15_161:                                 ##   in Loop: Header=BB0_1 Depth=1
ldr	w1, [x19, -28]
ldr	w0, [x19, -30]
str	wzr, [x29, -12]
cmp	w1, w0
ble	.LB15_168
b	.L12_1_1
.L15_162:                                 ##   in Loop: Header=BB0_1 Depth=1
ldr	w1, [x19, -28]
ldr	w0, [x19, -30]
str	wzr, [x29, -12]
cmp	w1, w0
ble	.LB15_169
b	.L12_1_1
.L15_163:                                 ##   in Loop: Header=BB0_1 Depth=1
ldr	w1, [x19, -28]
ldr	w0, [x19, -30]
str	wzr, [x29, -12]
cmp	w1, w0
ble	.LB15_170
b	.L12_1_1
.L15_164:                                 ##   in Loop: Header=BB0_1 Depth=1
ldr	w1, [x19, -28]
ldr	w0, [x19, -30]
str	wzr, [x29, -12]
cmp	w1, w0
ble	.LB15_171
b	.L12_1_1
.L15_165:                                 ##   in Loop: Header=BB0_1 Depth=1
ldr	w1, [x19, -28]
ldr	w0, [x19, -30]
str	wzr, [x29, -12]
cmp	w1, w0
ble	.LB15_172
b	.L12_1_1
.L15_166:                                 ##   in Loop: Header=BB0_1 Depth=1
ldr	w1, [x19, -28]
ldr	w0, [x19, -30]
str	wzr, [x29, -12]
cmp	w1, w0
ble	.LB15_173
b	.L12_1_1
.L15_167:                                 ##   in Loop: Header=BB0_1 Depth=1
ldr	w1, [x19, -28]
ldr	w0, [x19, -30]
str	wzr, [x29, -12]
cmp	w1, w0
ble	.LB15_174
b	.L12_1_1
.L15_168:                                 ##   in Loop: Header=BB0_1 Depth=1
ldr	w1, [x19, -28]
ldr	w0, [x19, -30]
str	wzr, [x29, -12]
cmp	w1, w0
ble	.LB15_175
b	.L12_1_1
.L15_169:                                 ##   in Loop: Header=BB0_1 Depth=1
ldr	w1, [x19, -28]
ldr	w0, [x19, -30]
str	wzr, [x29, -12]
cmp	w1, w0
ble	.LB15_176
b	.L12_1_1
.L15_170:                                 ##   in Loop: Header=BB0_1 Depth=1
ldr	w1, [x19, -28]
ldr	w0, [x19, -30]
str	wzr, [x29, -12]
cmp	w1, w0
ble	.LB15_177
b	.L12_1_1
.L15_171:                                 ##   in Loop: Header=BB0_1 Depth=1
ldr	w1, [x19, -28]
ldr	w0, [x19, -30]
str	wzr, [x29, -12]
cmp	w1, w0
ble	.LB15_178
b	.L12_1_1
.L15_172:                                 ##   in Loop: Header=BB0_1 Depth=1
ldr	w1, [x19, -28]
ldr	w0, [x19, -30]
str	wzr, [x29, -12]
cmp	w1, w0
ble	.LB15_179
b	.L12_1_1
.L15_173:                                 ##   in Loop: Header=BB0_1 Depth=1
ldr	w1, [x19, -28]
ldr	w0, [x19, -30]
str	wzr, [x29, -12]
cmp	w1, w0
ble	.LB15_180
b	.L12_1_1
.L15_174:                                 ##   in Loop: Header=BB0_1 Depth=1
ldr	w1, [x19, -28]
ldr	w0, [x19, -30]
str	wzr, [x29, -12]
cmp	w1, w0
ble	.LB15_181
b	.L12_1_1
.L15_175:                                 ##   in Loop: Header=BB0_1 Depth=1
ldr	w1, [x19, -28]
ldr	w0, [x19, -30]
str	wzr, [x29, -12]
cmp	w1, w0
ble	.LB15_182
b	.L12_1_1
.L15_176:                                 ##   in Loop: Header=BB0_1 Depth=1
ldr	w1, [x19, -28]
ldr	w0, [x19, -30]
str	wzr, [x29, -12]
cmp	w1, w0
ble	.LB15_183
b	.L12_1_1
.L15_177:                                 ##   in Loop: Header=BB0_1 Depth=1
ldr	w1, [x19, -28]
ldr	w0, [x19, -30]
str	wzr, [x29, -12]
cmp	w1, w0
ble	.LB15_184
b	.L12_1_1
.L15_178:                                 ##   in Loop: Header=BB0_1 Depth=1
ldr	w1, [x19, -28]
ldr	w0, [x19, -30]
str	wzr, [x29, -12]
cmp	w1, w0
ble	.LB15_185
b	.L12_1_1
.L15_179:                                 ##   in Loop: Header=BB0_1 Depth=1
ldr	w1, [x19, -28]
ldr	w0, [x19, -30]
str	wzr, [x29, -12]
cmp	w1, w0
ble	.LB15_186
b	.L12_1_1
.L15_180:                                 ##   in Loop: Header=BB0_1 Depth=1
ldr	w1, [x19, -28]
ldr	w0, [x19, -30]
str	wzr, [x29, -12]
cmp	w1, w0
ble	.LB15_187
b	.L12_1_1
.L15_181:                                 ##   in Loop: Header=BB0_1 Depth=1
ldr	w1, [x19, -28]
ldr	w0, [x19, -30]
str	wzr, [x29, -12]
cmp	w1, w0
ble	.LB15_188
b	.L12_1_1
.L15_182:                                 ##   in Loop: Header=BB0_1 Depth=1
ldr	w1, [x19, -28]
ldr	w0, [x19, -30]
str	wzr, [x29, -12]
cmp	w1, w0
ble	.LB15_189
b	.L12_1_1
.L15_183:                                 ##   in Loop: Header=BB0_1 Depth=1
ldr	w1, [x19, -28]
ldr	w0, [x19, -30]
str	wzr, [x29, -12]
cmp	w1, w0
ble	.LB15_190
b	.L12_1_1
.L15_184:                                 ##   in Loop: Header=BB0_1 Depth=1
ldr	w1, [x19, -28]
ldr	w0, [x19, -30]
str	wzr, [x29, -12]
cmp	w1, w0
ble	.LB15_191
b	.L12_1_1
.L15_185:                                 ##   in Loop: Header=BB0_1 Depth=1
ldr	w1, [x19, -28]
ldr	w0, [x19, -30]
str	wzr, [x29, -12]
cmp	w1, w0
ble	.LB15_192
b	.L12_1_1
.L15_186:                                 ##   in Loop: Header=BB0_1 Depth=1
ldr	w1, [x19, -28]
ldr	w0, [x19, -30]
str	wzr, [x29, -12]
cmp	w1, w0
ble	.LB15_193
b	.L12_1_1
.L15_187:                                 ##   in Loop: Header=BB0_1 Depth=1
ldr	w1, [x19, -28]
ldr	w0, [x19, -30]
str	wzr, [x29, -12]
cmp	w1, w0
ble	.LB15_194
b	.L12_1_1
.L15_188:                                 ##   in Loop: Header=BB0_1 Depth=1
ldr	w1, [x19, -28]
ldr	w0, [x19, -30]
str	wzr, [x29, -12]
cmp	w1, w0
ble	.LB15_195
b	.L12_1_1
.L15_189:                                 ##   in Loop: Header=BB0_1 Depth=1
ldr	w1, [x19, -28]
ldr	w0, [x19, -30]
str	wzr, [x29, -12]
cmp	w1, w0
ble	.LB15_196
b	.L12_1_1
.L15_190:                                 ##   in Loop: Header=BB0_1 Depth=1
ldr	w1, [x19, -28]
ldr	w0, [x19, -30]
str	wzr, [x29, -12]
cmp	w1, w0
ble	.LB15_197
b	.L12_1_1
.L15_191:                                 ##   in Loop: Header=BB0_1 Depth=1
ldr	w1, [x19, -28]
ldr	w0, [x19, -30]
str	wzr, [x29, -12]
cmp	w1, w0
ble	.LB15_198
b	.L12_1_1
.L15_192:                                 ##   in Loop: Header=BB0_1 Depth=1
ldr	w1, [x19, -28]
ldr	w0, [x19, -30]
str	wzr, [x29, -12]
cmp	w1, w0
ble	.LB15_199
b	.L12_1_1
.L15_193:                                 ##   in Loop: Header=BB0_1 Depth=1
ldr	w1, [x19, -28]
ldr	w0, [x19, -30]
str	wzr, [x29, -12]
cmp	w1, w0
ble	.LB15_200
b	.L12_1_1
.L15_194:                                 ##   in Loop: Header=BB0_1 Depth=1
ldr	w1, [x19, -28]
ldr	w0, [x19, -30]
str	wzr, [x29, -12]
cmp	w1, w0
ble	.LB15_201
b	.L12_1_1
.L15_195:                                 ##   in Loop: Header=BB0_1 Depth=1
ldr	w1, [x19, -28]
ldr	w0, [x19, -30]
str	wzr, [x29, -12]
cmp	w1, w0
ble	.LB15_202
b	.L12_1_1
.L15_196:                                 ##   in Loop: Header=BB0_1 Depth=1
ldr	w1, [x19, -28]
ldr	w0, [x19, -30]
str	wzr, [x29, -12]
cmp	w1, w0
ble	.LB15_203
b	.L12_1_1
.L15_197:                                 ##   in Loop: Header=BB0_1 Depth=1
ldr	w1, [x19, -28]
ldr	w0, [x19, -30]
str	wzr, [x29, -12]
cmp	w1, w0
ble	.LB15_204
b	.L12_1_1
.L15_198:                                 ##   in Loop: Header=BB0_1 Depth=1
ldr	w1, [x19, -28]
ldr	w0, [x19, -30]
str	wzr, [x29, -12]
cmp	w1, w0
ble	.LB15_205
b	.L12_1_1
.L15_199:                                 ##   in Loop: Header=BB0_1 Depth=1
ldr	w1, [x19, -28]
ldr	w0, [x19, -30]
str	wzr, [x29, -12]
cmp	w1, w0
ble	.LB15_206
b	.L12_1_1
.L15_200:                                 ##   in Loop: Header=BB0_1 Depth=1
ldr	w1, [x19, -28]
ldr	w0, [x19, -30]
str	wzr, [x29, -12]
cmp	w1, w0
ble	.LB15_207
b	.L12_1_1
.L15_201:                                 ##   in Loop: Header=BB0_1 Depth=1
ldr	w1, [x19, -28]
ldr	w0, [x19, -30]
str	wzr, [x29, -12]
cmp	w1, w0
ble	.LB15_208
b	.L12_1_1
.L15_202:                                 ##   in Loop: Header=BB0_1 Depth=1
ldr	w1, [x19, -28]
ldr	w0, [x19, -30]
str	wzr, [x29, -12]
cmp	w1, w0
ble	.LB15_209
b	.L12_1_1
.L15_203:                                 ##   in Loop: Header=BB0_1 Depth=1
ldr	w1, [x19, -28]
ldr	w0, [x19, -30]
str	wzr, [x29, -12]
cmp	w1, w0
ble	.LB15_210
b	.L12_1_1
.L15_204:                                 ##   in Loop: Header=BB0_1 Depth=1
ldr	w1, [x19, -28]
ldr	w0, [x19, -30]
str	wzr, [x29, -12]
cmp	w1, w0
ble	.LB15_211
b	.L12_1_1
.L15_205:                                 ##   in Loop: Header=BB0_1 Depth=1
ldr	w1, [x19, -28]
ldr	w0, [x19, -30]
str	wzr, [x29, -12]
cmp	w1, w0
ble	.LB15_212
b	.L12_1_1
.L15_206:                                 ##   in Loop: Header=BB0_1 Depth=1
ldr	w1, [x19, -28]
ldr	w0, [x19, -30]
str	wzr, [x29, -12]
cmp	w1, w0
ble	.LB15_213
b	.L12_1_1
.L15_207:                                 ##   in Loop: Header=BB0_1 Depth=1
ldr	w1, [x19, -28]
ldr	w0, [x19, -30]
str	wzr, [x29, -12]
cmp	w1, w0
ble	.LB15_214
b	.L12_1_1
.L15_208:                                 ##   in Loop: Header=BB0_1 Depth=1
ldr	w1, [x19, -28]
ldr	w0, [x19, -30]
str	wzr, [x29, -12]
cmp	w1, w0
ble	.LB15_215
b	.L12_1_1
.L15_209:                                 ##   in Loop: Header=BB0_1 Depth=1
ldr	w1, [x19, -28]
ldr	w0, [x19, -30]
str	wzr, [x29, -12]
cmp	w1, w0
ble	.LB15_216
b	.L12_1_1
.L15_210:                                 ##   in Loop: Header=BB0_1 Depth=1
ldr	w1, [x19, -28]
ldr	w0, [x19, -30]
str	wzr, [x29, -12]
cmp	w1, w0
ble	.LB15_217
b	.L12_1_1
.L15_211:                                 ##   in Loop: Header=BB0_1 Depth=1
ldr	w1, [x19, -28]
ldr	w0, [x19, -30]
str	wzr, [x29, -12]
cmp	w1, w0
ble	.LB15_218
b	.L12_1_1
.L15_212:                                 ##   in Loop: Header=BB0_1 Depth=1
ldr	w1, [x19, -28]
ldr	w0, [x19, -30]
str	wzr, [x29, -12]
cmp	w1, w0
ble	.LB15_219
b	.L12_1_1
.L15_213:                                 ##   in Loop: Header=BB0_1 Depth=1
ldr	w1, [x19, -28]
ldr	w0, [x19, -30]
str	wzr, [x29, -12]
cmp	w1, w0
ble	.LB15_220
b	.L12_1_1
.L15_214:                                 ##   in Loop: Header=BB0_1 Depth=1
ldr	w1, [x19, -28]
ldr	w0, [x19, -30]
str	wzr, [x29, -12]
cmp	w1, w0
ble	.LB15_221
b	.L12_1_1
.L15_215:                                 ##   in Loop: Header=BB0_1 Depth=1
ldr	w1, [x19, -28]
ldr	w0, [x19, -30]
str	wzr, [x29, -12]
cmp	w1, w0
ble	.LB15_222
b	.L12_1_1
.L15_216:                                 ##   in Loop: Header=BB0_1 Depth=1
ldr	w1, [x19, -28]
ldr	w0, [x19, -30]
str	wzr, [x29, -12]
cmp	w1, w0
ble	.LB15_223
b	.L12_1_1
.L15_217:                                 ##   in Loop: Header=BB0_1 Depth=1
ldr	w1, [x19, -28]
ldr	w0, [x19, -30]
str	wzr, [x29, -12]
cmp	w1, w0
ble	.LB15_224
b	.L12_1_1
.L15_218:                                 ##   in Loop: Header=BB0_1 Depth=1
ldr	w1, [x19, -28]
ldr	w0, [x19, -30]
str	wzr, [x29, -12]
cmp	w1, w0
ble	.LB15_225
b	.L12_1_1
.L15_219:                                 ##   in Loop: Header=BB0_1 Depth=1
ldr	w1, [x19, -28]
ldr	w0, [x19, -30]
str	wzr, [x29, -12]
cmp	w1, w0
ble	.LB15_226
b	.L12_1_1
.L15_220:                                 ##   in Loop: Header=BB0_1 Depth=1
ldr	w1, [x19, -28]
ldr	w0, [x19, -30]
str	wzr, [x29, -12]
cmp	w1, w0
ble	.LB15_227
b	.L12_1_1
.L15_221:                                 ##   in Loop: Header=BB0_1 Depth=1
ldr	w1, [x19, -28]
ldr	w0, [x19, -30]
str	wzr, [x29, -12]
cmp	w1, w0
ble	.LB15_228
b	.L12_1_1
.L15_222:                                 ##   in Loop: Header=BB0_1 Depth=1
ldr	w1, [x19, -28]
ldr	w0, [x19, -30]
str	wzr, [x29, -12]
cmp	w1, w0
ble	.LB15_229
b	.L12_1_1
.L15_223:                                 ##   in Loop: Header=BB0_1 Depth=1
ldr	w1, [x19, -28]
ldr	w0, [x19, -30]
str	wzr, [x29, -12]
cmp	w1, w0
ble	.LB15_230
b	.L12_1_1
.L15_224:                                 ##   in Loop: Header=BB0_1 Depth=1
ldr	w1, [x19, -28]
ldr	w0, [x19, -30]
str	wzr, [x29, -12]
cmp	w1, w0
ble	.LB15_231
b	.L12_1_1
.L15_225:                                 ##   in Loop: Header=BB0_1 Depth=1
ldr	w1, [x19, -28]
ldr	w0, [x19, -30]
str	wzr, [x29, -12]
cmp	w1, w0
ble	.LB15_232
b	.L12_1_1
.L15_226:                                 ##   in Loop: Header=BB0_1 Depth=1
ldr	w1, [x19, -28]
ldr	w0, [x19, -30]
str	wzr, [x29, -12]
cmp	w1, w0
ble	.LB15_233
b	.L12_1_1
.L15_227:                                 ##   in Loop: Header=BB0_1 Depth=1
ldr	w1, [x19, -28]
ldr	w0, [x19, -30]
str	wzr, [x29, -12]
cmp	w1, w0
ble	.LB15_234
b	.L12_1_1
.L15_228:                                 ##   in Loop: Header=BB0_1 Depth=1
ldr	w1, [x19, -28]
ldr	w0, [x19, -30]
str	wzr, [x29, -12]
cmp	w1, w0
ble	.LB15_235
b	.L12_1_1
.L15_229:                                 ##   in Loop: Header=BB0_1 Depth=1
ldr	w1, [x19, -28]
ldr	w0, [x19, -30]
str	wzr, [x29, -12]
cmp	w1, w0
ble	.LB15_236
b	.L12_1_1
.L15_230:                                 ##   in Loop: Header=BB0_1 Depth=1
ldr	w1, [x19, -28]
ldr	w0, [x19, -30]
str	wzr, [x29, -12]
cmp	w1, w0
ble	.LB15_237
b	.L12_1_1
.L15_231:                                 ##   in Loop: Header=BB0_1 Depth=1
ldr	w1, [x19, -28]
ldr	w0, [x19, -30]
str	wzr, [x29, -12]
cmp	w1, w0
ble	.LB15_238
b	.L12_1_1
.L15_232:                                 ##   in Loop: Header=BB0_1 Depth=1
ldr	w1, [x19, -28]
ldr	w0, [x19, -30]
str	wzr, [x29, -12]
cmp	w1, w0
ble	.LB15_239
b	.L12_1_1
.L15_233:                                 ##   in Loop: Header=BB0_1 Depth=1
ldr	w1, [x19, -28]
ldr	w0, [x19, -30]
str	wzr, [x29, -12]
cmp	w1, w0
ble	.LB15_240
b	.L12_1_1
.L15_234:                                 ##   in Loop: Header=BB0_1 Depth=1
ldr	w1, [x19, -28]
ldr	w0, [x19, -30]
str	wzr, [x29, -12]
cmp	w1, w0
ble	.LB15_241
b	.L12_1_1
.L15_235:                                 ##   in Loop: Header=BB0_1 Depth=1
ldr	w1, [x19, -28]
ldr	w0, [x19, -30]
str	wzr, [x29, -12]
cmp	w1, w0
ble	.LB15_242
b	.L12_1_1
.L15_236:                                 ##   in Loop: Header=BB0_1 Depth=1
ldr	w1, [x19, -28]
ldr	w0, [x19, -30]
str	wzr, [x29, -12]
cmp	w1, w0
ble	.LB15_243
b	.L12_1_1
.L15_237:                                 ##   in Loop: Header=BB0_1 Depth=1
ldr	w1, [x19, -28]
ldr	w0, [x19, -30]
str	wzr, [x29, -12]
cmp	w1, w0
ble	.LB15_244
b	.L12_1_1
.L15_238:                                 ##   in Loop: Header=BB0_1 Depth=1
ldr	w1, [x19, -28]
ldr	w0, [x19, -30]
str	wzr, [x29, -12]
cmp	w1, w0
ble	.LB15_245
b	.L12_1_1
.L15_239:                                 ##   in Loop: Header=BB0_1 Depth=1
ldr	w1, [x19, -28]
ldr	w0, [x19, -30]
str	wzr, [x29, -12]
cmp	w1, w0
ble	.LB15_246
b	.L12_1_1
.L15_240:                                 ##   in Loop: Header=BB0_1 Depth=1
ldr	w1, [x19, -28]
ldr	w0, [x19, -30]
str	wzr, [x29, -12]
cmp	w1, w0
ble	.LB15_247
b	.L12_1_1
.L15_241:                                 ##   in Loop: Header=BB0_1 Depth=1
ldr	w1, [x19, -28]
ldr	w0, [x19, -30]
str	wzr, [x29, -12]
cmp	w1, w0
ble	.LB15_248
b	.L12_1_1
.L15_242:                                 ##   in Loop: Header=BB0_1 Depth=1
ldr	w1, [x19, -28]
ldr	w0, [x19, -30]
str	wzr, [x29, -12]
cmp	w1, w0
ble	.LB15_249
b	.L12_1_1
.L15_243:                                 ##   in Loop: Header=BB0_1 Depth=1
ldr	w1, [x19, -28]
ldr	w0, [x19, -30]
str	wzr, [x29, -12]
cmp	w1, w0
ble	.LB15_250
b	.L12_1_1
.L15_244:                                 ##   in Loop: Header=BB0_1 Depth=1
ldr	w1, [x19, -28]
ldr	w0, [x19, -30]
str	wzr, [x29, -12]
cmp	w1, w0
ble	.LB15_251
b	.L12_1_1
.L15_245:                                 ##   in Loop: Header=BB0_1 Depth=1
ldr	w1, [x19, -28]
ldr	w0, [x19, -30]
str	wzr, [x29, -12]
cmp	w1, w0
ble	.LB15_252
b	.L12_1_1
.L15_246:                                 ##   in Loop: Header=BB0_1 Depth=1
ldr	w1, [x19, -28]
ldr	w0, [x19, -30]
str	wzr, [x29, -12]
cmp	w1, w0
ble	.LB15_253
b	.L12_1_1
.L15_247:                                 ##   in Loop: Header=BB0_1 Depth=1
ldr	w1, [x19, -28]
ldr	w0, [x19, -30]
str	wzr, [x29, -12]
cmp	w1, w0
ble	.LB15_254
b	.L12_1_1
.L15_248:                                 ##   in Loop: Header=BB0_1 Depth=1
ldr	w1, [x19, -28]
ldr	w0, [x19, -30]
str	wzr, [x29, -12]
cmp	w1, w0
ble	.LB15_255
b	.L12_1_1
.L15_249:                                 ##   in Loop: Header=BB0_1 Depth=1
ldr	w1, [x19, -28]
ldr	w0, [x19, -30]
str	wzr, [x29, -12]
cmp	w1, w0
ble	.LB15_256
b	.L12_1_1
.L15_250:                                 ##   in Loop: Header=BB0_1 Depth=1
ldr	w1, [x19, -28]
ldr	w0, [x19, -30]
str	wzr, [x29, -12]
cmp	w1, w0
ble	.LB15_257
b	.L12_1_1
.L15_251:                                 ##   in Loop: Header=BB0_1 Depth=1
ldr	w1, [x19, -28]
ldr	w0, [x19, -30]
str	wzr, [x29, -12]
cmp	w1, w0
ble	.LB15_258
b	.L12_1_1
.L15_252:                                 ##   in Loop: Header=BB0_1 Depth=1
ldr	w1, [x19, -28]
ldr	w0, [x19, -30]
str	wzr, [x29, -12]
cmp	w1, w0
ble	.LB15_259
b	.L12_1_1
.L15_253:                                 ##   in Loop: Header=BB0_1 Depth=1
ldr	w1, [x19, -28]
ldr	w0, [x19, -30]
str	wzr, [x29, -12]
cmp	w1, w0
ble	.LB15_260
b	.L12_1_1
.L15_254:                                 ##   in Loop: Header=BB0_1 Depth=1
ldr	w1, [x19, -28]
ldr	w0, [x19, -30]
str	wzr, [x29, -12]
cmp	w1, w0
ble	.LB15_261
b	.L12_1_1
.L15_255:                                 ##   in Loop: Header=BB0_1 Depth=1
ldr	w1, [x19, -28]
ldr	w0, [x19, -30]
str	wzr, [x29, -12]
cmp	w1, w0
ble	.LB15_262
b	.L12_1_1
.L15_256:                                 ##   in Loop: Header=BB0_1 Depth=1
ldr	w1, [x19, -28]
ldr	w0, [x19, -30]
str	wzr, [x29, -12]
cmp	w1, w0
ble	.LB15_263
b	.L12_1_1
.L15_257:                                 ##   in Loop: Header=BB0_1 Depth=1
ldr	w1, [x19, -28]
ldr	w0, [x19, -30]
str	wzr, [x29, -12]
cmp	w1, w0
ble	.LB15_264
b	.L12_1_1
.L15_258:                                 ##   in Loop: Header=BB0_1 Depth=1
ldr	w1, [x19, -28]
ldr	w0, [x19, -30]
str	wzr, [x29, -12]
cmp	w1, w0
ble	.LB15_265
b	.L12_1_1
.L15_259:                                 ##   in Loop: Header=BB0_1 Depth=1
ldr	w1, [x19, -28]
ldr	w0, [x19, -30]
str	wzr, [x29, -12]
cmp	w1, w0
ble	.LB15_266
b	.L12_1_1
.L15_260:                                 ##   in Loop: Header=BB0_1 Depth=1
ldr	w1, [x19, -28]
ldr	w0, [x19, -30]
str	wzr, [x29, -12]
cmp	w1, w0
ble	.LB15_267
b	.L12_1_1
.L15_261:                                 ##   in Loop: Header=BB0_1 Depth=1
ldr	w1, [x19, -28]
ldr	w0, [x19, -30]
str	wzr, [x29, -12]
cmp	w1, w0
ble	.LB15_268
b	.L12_1_1
.L15_262:                                 ##   in Loop: Header=BB0_1 Depth=1
ldr	w1, [x19, -28]
ldr	w0, [x19, -30]
str	wzr, [x29, -12]
cmp	w1, w0
ble	.LB15_269
b	.L12_1_1
.L15_263:                                 ##   in Loop: Header=BB0_1 Depth=1
ldr	w1, [x19, -28]
ldr	w0, [x19, -30]
str	wzr, [x29, -12]
cmp	w1, w0
ble	.LB15_270
b	.L12_1_1
.L15_264:                                 ##   in Loop: Header=BB0_1 Depth=1
ldr	w1, [x19, -28]
ldr	w0, [x19, -30]
str	wzr, [x29, -12]
cmp	w1, w0
ble	.LB15_271
b	.L12_1_1
.L15_265:                                 ##   in Loop: Header=BB0_1 Depth=1
ldr	w1, [x19, -28]
ldr	w0, [x19, -30]
str	wzr, [x29, -12]
cmp	w1, w0
ble	.LB15_272
b	.L12_1_1
.L15_266:                                 ##   in Loop: Header=BB0_1 Depth=1
ldr	w1, [x19, -28]
ldr	w0, [x19, -30]
str	wzr, [x29, -12]
cmp	w1, w0
ble	.LB15_273
b	.L12_1_1
.L15_267:                                 ##   in Loop: Header=BB0_1 Depth=1
ldr	w1, [x19, -28]
ldr	w0, [x19, -30]
str	wzr, [x29, -12]
cmp	w1, w0
ble	.LB15_274
b	.L12_1_1
.L15_268:                                 ##   in Loop: Header=BB0_1 Depth=1
ldr	w1, [x19, -28]
ldr	w0, [x19, -30]
str	wzr, [x29, -12]
cmp	w1, w0
ble	.LB15_275
b	.L12_1_1
.L15_269:                                 ##   in Loop: Header=BB0_1 Depth=1
ldr	w1, [x19, -28]
ldr	w0, [x19, -30]
str	wzr, [x29, -12]
cmp	w1, w0
ble	.LB15_276
b	.L12_1_1
.L15_270:                                 ##   in Loop: Header=BB0_1 Depth=1
ldr	w1, [x19, -28]
ldr	w0, [x19, -30]
str	wzr, [x29, -12]
cmp	w1, w0
ble	.LB15_277
b	.L12_1_1
.L15_271:                                 ##   in Loop: Header=BB0_1 Depth=1
ldr	w1, [x19, -28]
ldr	w0, [x19, -30]
str	wzr, [x29, -12]
cmp	w1, w0
ble	.LB15_278
b	.L12_1_1
.L15_272:                                 ##   in Loop: Header=BB0_1 Depth=1
ldr	w1, [x19, -28]
ldr	w0, [x19, -30]
str	wzr, [x29, -12]
cmp	w1, w0
ble	.LB15_279
b	.L12_1_1
.L15_273:                                 ##   in Loop: Header=BB0_1 Depth=1
ldr	w1, [x19, -28]
ldr	w0, [x19, -30]
str	wzr, [x29, -12]
cmp	w1, w0
ble	.LB15_280
b	.L12_1_1
.L15_274:                                 ##   in Loop: Header=BB0_1 Depth=1
ldr	w1, [x19, -28]
ldr	w0, [x19, -30]
str	wzr, [x29, -12]
cmp	w1, w0
ble	.LB15_281
b	.L12_1_1
.L15_275:                                 ##   in Loop: Header=BB0_1 Depth=1
ldr	w1, [x19, -28]
ldr	w0, [x19, -30]
str	wzr, [x29, -12]
cmp	w1, w0
ble	.LB15_282
b	.L12_1_1
.L15_276:                                 ##   in Loop: Header=BB0_1 Depth=1
ldr	w1, [x19, -28]
ldr	w0, [x19, -30]
str	wzr, [x29, -12]
cmp	w1, w0
ble	.LB15_283
b	.L12_1_1
.L15_277:                                 ##   in Loop: Header=BB0_1 Depth=1
ldr	w1, [x19, -28]
ldr	w0, [x19, -30]
str	wzr, [x29, -12]
cmp	w1, w0
ble	.LB15_284
b	.L12_1_1
.L15_278:                                 ##   in Loop: Header=BB0_1 Depth=1
ldr	w1, [x19, -28]
ldr	w0, [x19, -30]
str	wzr, [x29, -12]
cmp	w1, w0
ble	.LB15_285
b	.L12_1_1
.L15_279:                                 ##   in Loop: Header=BB0_1 Depth=1
ldr	w1, [x19, -28]
ldr	w0, [x19, -30]
str	wzr, [x29, -12]
cmp	w1, w0
ble	.LB15_286
b	.L12_1_1
.L15_280:                                 ##   in Loop: Header=BB0_1 Depth=1
ldr	w1, [x19, -28]
ldr	w0, [x19, -30]
str	wzr, [x29, -12]
cmp	w1, w0
ble	.LB15_287
b	.L12_1_1
.L15_281:                                 ##   in Loop: Header=BB0_1 Depth=1
ldr	w1, [x19, -28]
ldr	w0, [x19, -30]
str	wzr, [x29, -12]
cmp	w1, w0
ble	.LB15_288
b	.L12_1_1
.L15_282:                                 ##   in Loop: Header=BB0_1 Depth=1
ldr	w1, [x19, -28]
ldr	w0, [x19, -30]
str	wzr, [x29, -12]
cmp	w1, w0
ble	.LB15_289
b	.L12_1_1
.L15_283:                                 ##   in Loop: Header=BB0_1 Depth=1
ldr	w1, [x19, -28]
ldr	w0, [x19, -30]
str	wzr, [x29, -12]
cmp	w1, w0
ble	.LB15_290
b	.L12_1_1
.L15_284:                                 ##   in Loop: Header=BB0_1 Depth=1
ldr	w1, [x19, -28]
ldr	w0, [x19, -30]
str	wzr, [x29, -12]
cmp	w1, w0
ble	.LB15_291
b	.L12_1_1
.L15_285:                                 ##   in Loop: Header=BB0_1 Depth=1
ldr	w1, [x19, -28]
ldr	w0, [x19, -30]
str	wzr, [x29, -12]
cmp	w1, w0
ble	.LB15_292
b	.L12_1_1
.L15_286:                                 ##   in Loop: Header=BB0_1 Depth=1
ldr	w1, [x19, -28]
ldr	w0, [x19, -30]
str	wzr, [x29, -12]
cmp	w1, w0
ble	.LB15_293
b	.L12_1_1
.L15_287:                                 ##   in Loop: Header=BB0_1 Depth=1
ldr	w1, [x19, -28]
ldr	w0, [x19, -30]
str	wzr, [x29, -12]
cmp	w1, w0
ble	.LB15_294
b	.L12_1_1
.L15_288:                                 ##   in Loop: Header=BB0_1 Depth=1
ldr	w1, [x19, -28]
ldr	w0, [x19, -30]
str	wzr, [x29, -12]
cmp	w1, w0
ble	.LB15_295
b	.L12_1_1
.L15_289:                                 ##   in Loop: Header=BB0_1 Depth=1
ldr	w1, [x19, -28]
ldr	w0, [x19, -30]
str	wzr, [x29, -12]
cmp	w1, w0
ble	.LB15_296
b	.L12_1_1
.L15_290:                                 ##   in Loop: Header=BB0_1 Depth=1
ldr	w1, [x19, -28]
ldr	w0, [x19, -30]
str	wzr, [x29, -12]
cmp	w1, w0
ble	.LB15_297
b	.L12_1_1
.L15_291:                                 ##   in Loop: Header=BB0_1 Depth=1
ldr	w1, [x19, -28]
ldr	w0, [x19, -30]
str	wzr, [x29, -12]
cmp	w1, w0
ble	.LB15_298
b	.L12_1_1
.L15_292:                                 ##   in Loop: Header=BB0_1 Depth=1
ldr	w1, [x19, -28]
ldr	w0, [x19, -30]
str	wzr, [x29, -12]
cmp	w1, w0
ble	.LB15_299
b	.L12_1_1
.L15_293:                                 ##   in Loop: Header=BB0_1 Depth=1
ldr	w1, [x19, -28]
ldr	w0, [x19, -30]
str	wzr, [x29, -12]
cmp	w1, w0
ble	.LB15_300
b	.L12_1_1
.L15_294:                                 ##   in Loop: Header=BB0_1 Depth=1
ldr	w1, [x19, -28]
ldr	w0, [x19, -30]
str	wzr, [x29, -12]
cmp	w1, w0
ble	.LB15_301
b	.L12_1_1
.L15_295:                                 ##   in Loop: Header=BB0_1 Depth=1
ldr	w1, [x19, -28]
ldr	w0, [x19, -30]
str	wzr, [x29, -12]
cmp	w1, w0
ble	.LB15_302
b	.L12_1_1
.L15_296:                                 ##   in Loop: Header=BB0_1 Depth=1
ldr	w1, [x19, -28]
ldr	w0, [x19, -30]
str	wzr, [x29, -12]
cmp	w1, w0
ble	.LB15_303
b	.L12_1_1
.L15_297:                                 ##   in Loop: Header=BB0_1 Depth=1
ldr	w1, [x19, -28]
ldr	w0, [x19, -30]
str	wzr, [x29, -12]
cmp	w1, w0
ble	.LB15_304
b	.L12_1_1
.L15_298:                                 ##   in Loop: Header=BB0_1 Depth=1
ldr	w1, [x19, -28]
ldr	w0, [x19, -30]
str	wzr, [x29, -12]
cmp	w1, w0
ble	.LB15_305
b	.L12_1_1
.L15_299:                                 ##   in Loop: Header=BB0_1 Depth=1
ldr	w1, [x19, -28]
ldr	w0, [x19, -30]
str	wzr, [x29, -12]
cmp	w1, w0
ble	.LB15_306
b	.L12_1_1
.L15_300:                                 ##   in Loop: Header=BB0_1 Depth=1
ldr	w1, [x19, -28]
ldr	w0, [x19, -30]
str	wzr, [x29, -12]
cmp	w1, w0
ble	.LB15_307
b	.L12_1_1
.L15_301:                                 ##   in Loop: Header=BB0_1 Depth=1
ldr	w1, [x19, -28]
ldr	w0, [x19, -30]
str	wzr, [x29, -12]
cmp	w1, w0
ble	.LB15_308
b	.L12_1_1
.L15_302:                                 ##   in Loop: Header=BB0_1 Depth=1
ldr	w1, [x19, -28]
ldr	w0, [x19, -30]
str	wzr, [x29, -12]
cmp	w1, w0
ble	.LB15_309
b	.L12_1_1
.L15_303:                                 ##   in Loop: Header=BB0_1 Depth=1
ldr	w1, [x19, -28]
ldr	w0, [x19, -30]
str	wzr, [x29, -12]
cmp	w1, w0
ble	.LB15_310
b	.L12_1_1
.L15_304:                                 ##   in Loop: Header=BB0_1 Depth=1
ldr	w1, [x19, -28]
ldr	w0, [x19, -30]
str	wzr, [x29, -12]
cmp	w1, w0
ble	.LB15_311
b	.L12_1_1
.L15_305:                                 ##   in Loop: Header=BB0_1 Depth=1
ldr	w1, [x19, -28]
ldr	w0, [x19, -30]
str	wzr, [x29, -12]
cmp	w1, w0
ble	.LB15_312
b	.L12_1_1
.L15_306:                                 ##   in Loop: Header=BB0_1 Depth=1
ldr	w1, [x19, -28]
ldr	w0, [x19, -30]
str	wzr, [x29, -12]
cmp	w1, w0
ble	.LB15_313
b	.L12_1_1
.L15_307:                                 ##   in Loop: Header=BB0_1 Depth=1
ldr	w1, [x19, -28]
ldr	w0, [x19, -30]
str	wzr, [x29, -12]
cmp	w1, w0
ble	.LB15_314
b	.L12_1_1
.L15_308:                                 ##   in Loop: Header=BB0_1 Depth=1
ldr	w1, [x19, -28]
ldr	w0, [x19, -30]
str	wzr, [x29, -12]
cmp	w1, w0
ble	.LB15_315
b	.L12_1_1
.L15_309:                                 ##   in Loop: Header=BB0_1 Depth=1
ldr	w1, [x19, -28]
ldr	w0, [x19, -30]
str	wzr, [x29, -12]
cmp	w1, w0
ble	.LB15_316
b	.L12_1_1
.L15_310:                                 ##   in Loop: Header=BB0_1 Depth=1
ldr	w1, [x19, -28]
ldr	w0, [x19, -30]
str	wzr, [x29, -12]
cmp	w1, w0
ble	.LB15_317
b	.L12_1_1
.L15_311:                                 ##   in Loop: Header=BB0_1 Depth=1
ldr	w1, [x19, -28]
ldr	w0, [x19, -30]
str	wzr, [x29, -12]
cmp	w1, w0
ble