.arch armv8-a
.file	__TEXT,__text,regular,pure_instructions
.align	2
.global	_func0                          ## -- Begin function func0
.p2align	4,,11
_func0:                                 ## @func0
    .section	__TEXT,__text,regular,pure_instructions
    .build_version macos, 13, 0	sdk_version 13, 3
    .globl	_func0                          ## -- Begin function func0
    .p2align	2,,3
_func0:                                 ## @func0
    cset	w4, eq
    bgt	.L6
mov	x4, x0
stp	x29, x30, [sp, -48]!
.cfi_def_cfa_offset 48
.cfi_offset 29, -48
.cfi_offset 30, -40
mov	x29, sp
str	x19, [sp, 16]
.cfi_offset 19, -32
mov	w19, w1
str	x4, [x29, -8]
str	w19, [x29, -12]
str	wzr, [x29, -16]
cmp	w19, 1
bgt	.L7
stp	x21, x22, [sp, 32]
.cfi_offset 22, -24
.cfi_offset 21, -32
adrp	x21, .LC0
add	x21, x21, :lo12:.LC0
ldr	w0, [x29, -12]
str	d8, [sp, 40]
.cfi_offset 72, -8
fmov	d8, 1.0e+0
cmp	w0, 1
bls	.L8
.L3:
ldp	x21, x22, [sp, 32]
.cfi_restore 22
.cfi_restore 21
ldr	d8, [sp, 40]
.cfi_restore 72
.L1:
ldr	w0, [x29, -12]
ldr	x19, [sp, 16]
ldp	x29, x30, [sp], 48
.cfi_remember_state
.cfi_restore 30
.cfi_restore 29
.cfi_restore 19
.cfi_def_cfa_offset 0
ret
.p2align	2,,3
.L6:
.cfi_restore_state
mov	w0, 0
str	w0, [x29, -12]
str	w0, [x29, -16]
cmp	w19, 2
beq	.L3
str	w0, [x29, -12]
str	w0, [x29, -16]
b	.L1
.p2align	2,,3
.L8:
.cfi_offset 21, -32
.cfi_offset 22, -24
.cfi_offset 72, -8
adrp	x0, .LC1
ldr	q0, [x0,
fmov	d8, q0
b	.L3
.p2align	2,,3
.L7:
mov	w0, 0
str	w0, [x29, -12]
str	w0, [x29, -16]
b	.L1
.p2align	2,,3
.L8:
.cfi_restore 21
.cfi_restore 22
.cfi_restore 72
ldr	w0, [x29, -12]
str	w0, [x29, -4]
b	.L1
.L9:
ldr	w1, [x29, -12]
ldr	w0, [x29, -16]
cmp	w1, 2147483647
csel	w1, w1, wzr, ne
cmp	w0, 2147483647
csel	w0, w0, wzr, ne
cmp	w1, 0
bne	.L10
.L4:
ldr	w1, [x29, -16]
ldr	w0, [x29, -4]
add	w1, w1, 1
str	w1, [x29, -16]
b	.L1
.p2align	2,,3
.L10:
ldr	x0, [x29, -8]
ldrsw	x2, [x29, -16]
ldr	w0, [x0, x2, lsl 2]
cmp	w0, w2
ble	.L4
ldr	x0, [x29, -8]
ldrsw	x2, [x29, -16]
ldr	w0, [x0, x2, lsl 2]
cmp	w0, w2
bgt	.L9
b	.L4
.L11:
ldr	x0, [x29, -8]
ldrsw	x2, [x29, -16]
ldr	w0, [x0, x2, lsl 2]
cmp	w0, w2
bne	.L12
b	.L4
.p2align	2,,3
.L12:
ldr	x0, [x29, -8]
ldrsw	x2, [x29, -16]
str	w0, [x29, -16]
b	.L1
.L13:
ldr	x0, [x29, -8]
ldrsw	x2, [x29, -16]
ldr	w0, [x0, x2, lsl 2]
cmp	w0, w2
bhi	.L13
b	.L11
.L14:
ldr	x0, [x29, -8]
ldr	w1, [x29, -12]
ldr	w0, [x0, x2, lsl 2]
cmp	w0, w1
bne	.L15
b	.L4
.p2align	2,,3
.L15:
ldr	x0, [x29, -8]
ldr	w1, [x29, -12]
str	w1, [x29, -12]
ldr	w0, [x0, x2, lsl 2]
str	w0, [x29, -16]
b	.L1
.L16:
ldr	x0, [x29, -8]
ldrsw	x2, [x29, -16]
ldr	w0, [x0, x2, lsl 2]
cmp	w0, w2
bne	.L14
b	.L4
.L17:
ldr	x0, [x29, -8]
ldr	w1, [x29, -12]
ldr	w0, [x0, x2, lsl 2]
str	w1, [x29, -12]
str	w0, [x29, -16]
b	.L1
.L18:
ldr	x0, [x29, -8]
ldrsw	x2, [x29, -16]
ldr	w0, [x0, x2, lsl 2]
cmp	w0, w2
beq	.L4
b	.L16
.L19:
ldr	x0, [x29, -8]
ldrsw	x2, [x29, -16]
ldr	w0, [x0, x2, lsl 2]
cmp	w0, w2
bhi	.L19
b	.L17
.L20:
ldr	x0, [x29, -8]
ldrsw	x2, [x29, -16]
ldr	w0, [x0, x2, lsl 2]
cmp	w0, w2
bne	.L21
b	.L4
.p2align	2,,3
.L21:
ldr	x0, [x29, -8]
ldr	w1, [x29, -12]
str	w1, [x29, -12]
ldr	w0, [x0, x2, lsl 2]
str	w0, [x29, -16]
b	.L1
.L22:
ldr	x0, [x29, -8]
ldrsw	x2, [x29, -16]
ldr	w0, [x0, x2, lsl 2]
cmp	w0, w2
beq	.L4
b	.L20
.L23:
ldr	x0, [x29, -8]
ldrsw	x2, [x29, -16]
ldr	w0, [x0, x2, lsl 2]
cmp	w0, w2
beq	.L4
b	.L22
.L24:
ldr	x0, [x29, -8]
ldrsw	x2, [x29, -16]
ldr	w0, [x0, x2, lsl 2]
cmp	w0, w2
bne	.L23
b	.L4
.L25:
ldr	x0, [x29, -8]
ldrsw	x2, [x29, -16]
ldr	w0, [x0, x2, lsl 2]
cmp	w0, w2
bhi	.L25
b	.L23
.L26:
ldr	x0, [x29, -8]
ldrsw	x2, [x29, -16]
ldr	w0, [x0, x2, lsl 2]
cmp	w0, w2
bne	.L24
b	.L4
.L27:
ldr	x0, [x29, -8]
ldrsw	x2, [x29, -16]
ldr	w0, [x0, x2, lsl 2]
cmp	w0, w2
bne	.L26
b	.L4
.L28:
ldr	x0, [x29, -8]
ldrsw	x2, [x29, -16]
ldr	w0, [x0, x2, lsl 2]
cmp	w0, w2
beq	.L4
b	.L27
.L29:
ldr	x0, [x29, -8]
ldrsw	x2, [x29, -16]
ldr	w0, [x0, x2, lsl 2]
cmp	w0, w2
bne	.L28
b	.L4
.L30:
ldr	x0, [x29, -8]
ldrsw	x2, [x29, -16]
ldr	w0, [x0, x2, lsl 2]
cmp	w0, w2
bne	.L29
b	.L4
.L31:
ldr	x0, [x29, -8]
ldrsw	x2, [x29, -16]
ldr	w0, [x0, x2, lsl 2]
cmp	w0, w2
bne	.L30
b	.L4
.L32:
ldr	x0, [x29, -8]
ldrsw	x2, [x29, -16]
ldr	w0, [x0, x2, lsl 2]
cmp	w0, w2
beq	.L4
b	.L31
.L33:
ldr	x0, [x29, -8]
ldrsw	x2, [x29, -16]
ldr	w0, [x0, x2, lsl 2]
cmp	w0, w2
beq	.L4
b	.L33
.L34:
ldr	x0, [x29, -8]
ldrsw	x2, [x29, -16]
ldr	w0, [x0, x2, lsl 2]
cmp	w0, w2
beq	.L4
b	.L34
.L35:
ldr	x0, [x29, -8]
ldrsw	x2, [x29, -16]
ldr	w0, [x0, x2, lsl 2]
cmp	w0, w2
bne	.L35
b	.L4
.L36:
ldr	x0, [x29, -8]
ldrsw	x2, [x29, -16]
ldr	w0, [x0, x2, lsl 2]
cmp	w0, w2
bne	.L36
b	.L4
.L37:
ldr	x0, [x29, -8]
ldrsw	x2, [x29, -16]
ldr	w0, [x0, x2, lsl 2]
cmp	w0, w2
beq	.L4
b	.L37
.L38:
ldr	x0, [x29, -8]
ldrsw	x2, [x29, -16]
ldr	w0, [x0, x2, lsl 2]
cmp	w0, w2
bne	.L38
b	.L4
.L39:
ldr	x0, [x29, -8]
ldrsw	x2, [x29, -16]
ldr	w0, [x0, x2, lsl 2]
cmp	w0, w2
beq	.L4
b	.L39
.L40:
ldr	x0, [x29, -8]
ldrsw	x2, [x29, -16]
ldr	w0, [x0, x2, lsl 2]
cmp	w0, w2
bne	.L40
b	.L4
.L41:
ldr	x0, [x29, -8]
ldrsw	x2, [x29, -16]
ldr	w0, [x0, x2, lsl 2]
cmp	w0, w2
bne	.L41
b	.L4
.L42:
ldr	x0, [x29, -8]
ldrsw	x2, [x29, -16]
ldr	w0, [x0, x2, lsl 2]
cmp	w0, w2
bne	.L42
b	.L4
.L43:
ldr	x0, [x29, -8]
ldrsw	x2, [x29, -16]
ldr	w0, [x0, x2, lsl 2]
cmp	w0, w2
bne	.L43
b	.L4
.L44:
ldr	x0, [x29, -8]
ldrsw	x2, [x29, -16]
ldr	w0, [x0, x2, lsl 2]
cmp	w0, w2
beq	.L4
b	.L44
.L45:
ldr	x0, [x29, -8]
ldrsw	x2, [x29, -16]
ldr	w0, [x0, x2, lsl 2]
cmp	w0, w2
bne	.L45
b	.L4
.L46:
ldr	x0, [x29, -8]
ldrsw	x2, [x29, -16]
ldr	w0, [x0, x2, lsl 2]
cmp	w0, w2
beq	.L4
b	.L46
.L47:
ldr	x0, [x29, -8]
ldrsw	x2, [x29, -16]
ldr	w0, [x0, x2, lsl 2]
cmp	w0, w2
beq	.L4
b	.L47
.L48:
ldr	x0, [x29, -8]
ldrsw	x2, [x29, -16]
ldr	w0, [x0, x2, lsl 2]
cmp	w0, w2
bne	.L48
b	.L4
.L49:
ldr	x0, [x29, -8]
ldrsw	x2, [x29, -16]
ldr	w0, [x0, x2, lsl 2]
cmp	w0, w2
beq	.L4
b	.L49
.L50:
ldr	x0, [x29, -8]
ldrsw	x2, [x29, -16]
ldr	w0, [x0, x2, lsl 2]
cmp	w0, w2
beq	.L4
b	.L50
.L51:
ldr	x0, [x29, -8]
ldrsw	x2, [x29, -16]
ldr	w0, [x0, x2, lsl 2]
cmp	w0, w2
bne	.L51
b	.L4
.L52:
ldr	x0, [x29, -8]
ldrsw	x2, [x29, -16]
ldr	w0, [x0, x2, lsl 2]
cmp	w0, w2
bne	.L52
b	.L4
.L53:
ldr	x0, [x29, -8]
ldrsw	x2, [x29, -16]
ldr	w0, [x0, x2, lsl 2]
cmp	w0, w2
beq	.L4
b	.L53
.L54:
ldr	x0, [x29, -8]
ldrsw	x2, [x29, -16]
ldr	w0, [x0, x2, lsl 2]
cmp	w0, w2
bne	.L54
b	.L4
.L55:
ldr	x0, [x29, -8]
ldrsw	x2, [x29, -16]
ldr	w0, [x0, x2, lsl 2]
cmp	w0, w2
beq	.L4
b	.L55
.L56:
ldr	x0, [x29, -8]
ldrsw	x2, [x29, -16]
ldr	w0, [x0, x2, lsl 2]
cmp	w0, w2
beq	.L4
b	.L56
.L57:
ldr	x0, [x29, -8]
ldrsw	x2, [x29, -16]
ldr	w0, [x0, x2, lsl 2]
cmp	w0, w2
beq	.L4
b	.L57
.L58:
ldr	x0, [x29, -8]
ldrsw	x2, [x29, -16]
ldr	w0, [x0, x2, lsl 2]
cmp	w0, w2
bne	.L58
b	.L4
.L59:
ldr	x0, [x29, -8]
ldrsw	x2, [x29, -16]
ldr	w0, [x0, x2, lsl 2]
cmp	w0, w2
bne	.L59
b	.L4
.L60:
ldr	x0, [x29, -8]
ldrsw	x2, [x29, -16]
ldr	w0, [x0, x2, lsl 2]
cmp	w0, w2
beq	.L4
b	.L60
.L61:
ldr	x0, [x29, -8]
ldrsw	x2, [x29, -16]
ldr	w0, [x0, x2, lsl 2]
cmp	w0, w2
beq	.L4
b	.L61
.L62:
ldr	x0, [x29, -8]
ldrsw	x2, [x29, -16]
ldr	w0, [x0, x2, lsl 2]
cmp	w0, w2
bne	.L62
b	.L4
.L63:
ldr	x0, [x29, -8]
ldrsw	x2, [x29, -16]
ldr	w0, [x0, x2, lsl 2]
cmp	w0, w2
beq	.L4
b	.L63
.L64:
ldr	x0, [x29, -8]
ldrsw	x2, [x29, -16]
ldr	w0, [x0, x2, lsl 2]
cmp	w0, w2
bne	.L64
b	.L4
.L65:
ldr	x0, [x29, -8]
ldrsw	x2, [x29, -16]
ldr	w0, [x0, x2, lsl 2]
cmp	w0, w2
bne	.L65
b	.L4
.L66:
ldr	x0, [x29, -8]
ldrsw	x2, [x29, -16]
ldr	w0, [x0, x2, lsl 2]
cmp	w0, w2
bne	.L66
b	.L4
.L67:
ldr	x0, [x29, -8]
ldrsw	x2, [x29, -16]
ldr	w0, [x0, x2, lsl 2]
cmp	w0, w2
bne	.L67
b	.L4
.L68:
ldr	x0, [x29, -8]
ldrsw	x2, [x29, -16]
ldr	w0, [x0, x2, lsl 2]
cmp	w0, w2
beq	.L4
b	.L68
.L69:
ldr	x0, [x29, -8]
ldrsw	x2, [x29, -16]
ldr	w0, [x0, x2, lsl 2]
cmp	w0, w2
bne	.L69
b	.L4
.L70:
ldr	x0, [x29, -8]
ldrsw	x2, [x29, -16]
ldr	w0, [x0, x2, lsl 2]
cmp	w0, w2
bne	.L70
b	.L4
.L71:
ldr	x0, [x29, -8]
ldrsw	x2, [x29, -16]
ldr	w0, [x0, x2, lsl 2]
cmp	w0, w2
bne	.L71
b	.L4
.L72:
ldr	x0, [x29, -8]
ldrsw	x2, [x29, -16]
ldr	w0, [x0, x2, lsl 2]
cmp	w0, w2
beq	.L4
b	.L72
.L73:
ldr	x0, [x29, -8]
ldrsw	x2, [x29, -16]
ldr	w0, [x0, x2, lsl 2]
cmp	w0, w2
bne	.L73
b	.L4
.L74:
ldr	x0, [x29, -8]
ldrsw	x2, [x29, -16]
ldr	w0, [x0, x2, lsl 2]
cmp	w0, w2
beq	.L4
b	.L74
.L75:
ldr	x0, [x29, -8]
ldrsw	x2, [x29, -16]
ldr	w0, [x0, x2, lsl 2]
cmp	w0, w2
bne	.L75
b	.L4
.L76:
ldr	x0, [x29, -8]
ldrsw	x2, [x29, -16]
ldr	w0, [x0, x2, lsl 2]
cmp	w0, w2
bne	.L76
b	.L4
.L77:
ldr	x0, [x29, -8]
ldrsw	x2, [x29, -16]
ldr	w0, [x0, x2, lsl 2]
cmp	w0, w2
beq	.L4
b	.L77
.L78:
ldr	x0, [x29, -8]
ldrsw	x2, [x29, -16]
ldr	w0, [x0, x2, lsl 2]
cmp	w0, w2
bne	.L78
b	.L4
.L79:
ldr	x0, [x29, -8]
ldrsw	x2, [x29, -16]
ldr	w0, [x0, x2, lsl 2]
cmp	w0, w2
bne	.L79
b	.L4
.L80:
ldr	x0, [x29, -8]
ldrsw	x2, [x29, -16]
ldr	w0, [x0, x2, lsl 2]
cmp	w0, w2
bne	.L80
b	.L4
.L81:
ldr	x0, [x29, -8]
ldrsw	x2, [x29, -16]
ldr	w0, [x0, x2, lsl 2]
cmp	w0, w2
bne	.L81
b	.L4
.L82:
ldr	x0, [x29, -8]
ldrsw	x2, [x29, -16]
ldr	w0, [x0, x2, lsl 2]
cmp	w0, w2
beq	.L4
b	.L82
.L83:
ldr	x0, [x29, -8]
ldrsw	x2, [x29, -16]
ldr	w0, [x0, x2, lsl 2]
cmp	w0, w2
beq	.L4
b	.L83
.L84:
ldr	x0, [x29, -8]
ldrsw	x2, [x29, -16]
ldr	w0, [x0, x2, lsl 2]
cmp	w0, w2
bne	.L84
b	.L4
.L85:
ldr	x0, [x29, -8]
ldrsw	x2, [x29, -16]
ldr	w0, [x0, x2, lsl 2]
cmp	w0, w2
bne	.L85
b	.L4
.L86:
ldr	x0, [x29, -8]
ldrsw	x2, [x29, -16]
ldr	w0, [x0, x2, lsl 2]
cmp	w0, w2
bne	.L86
b	.L4
.L87:
ldr	x0, [x29, -8]
ldrsw	x2, [x29, -16]
ldr	w0, [x0, x2, lsl 2]
cmp	w0, w2
bne	.L87
b	.L4
.L88:
ldr	x0, [x29, -8]
ldrsw	x2, [x29, -16]
ldr	w0, [x0, x2, lsl 2]
cmp	w0, w2
bne	.L88
b	.L4
.L89:
ldr	x0, [x29, -8]
ldrsw	x2, [x29, -16]
ldr	w0, [x0, x2, lsl 2]
cmp	w0, w2
bne	.L89
b	.L4
.L90:
ldr	x0, [x29, -8]
ldrsw	x2, [x29, -16]
ldr	w0, [x0, x2, lsl 2]
cmp	w0, w2
beq	.L4
b	.L90
.L91:
ldr	x0, [x29, -8]
ldrsw	x2, [x29, -16]
ldr	w0, [x0, x2, lsl 2]
cmp	w0, w2
bne	.L91
b	.L4
.L92:
ldr	x0, [x29, -8]
ldrsw	x2, [x29, -16]
ldr	w0, [x0, x2, lsl 2]
cmp	w0, w2
beq	.L4
b	.L92
.L93:
ldr	x0, [x29, -8]
ldrsw	x2, [x29, -16]
ldr	w0, [x0, x2, lsl 2]
cmp	w0, w2
bne	.L93
b	.L4
.L94:
ldr	x0, [x29, -8]
ldrsw	x2, [x29, -16]
ldr	w0, [x0, x2, lsl 2]
cmp	w0, w2
bne	.L94
b	.L4
.L95:
ldr	x0, [x29, -8]
ldrsw	x2, [x29, -16]
ldr	w0, [x0, x2, lsl 2]
cmp	w0, w2
bne	.L95
b	.L4
.L96:
ldr	x0, [x29, -8]
ldrsw	x2, [x29, -16]
ldr	w0, [x0, x2, lsl 2]
cmp	w0, w2
bne	.L96
b	.L4
.L97:
ldr	x0, [x29, -8]
ldrsw	x2, [x29, -16]
ldr	w0, [x0, x2, lsl 2]
cmp	w0, w2
beq	.L4
b	.L97
.L98:
ldr	x0, [x29, -8]
ldrsw	x2, [x29, -16]
ldr	w0, [x0, x2, lsl 2]
cmp	w0, w2
bne	.L98
b	.L4
.L99:
ldr	x0, [x29, -8]
ldrsw	x2, [x29, -16]
ldr	w0, [x0, x2, lsl 2]
cmp	w0, w2
bne	.L99
b	.L4
.L100:
ldr	x0, [x29, -8]
ldrsw	x2, [x29, -16]
ldr	w0, [x0, x2, lsl 2]
cmp	w0, w2
beq	.L4
b	.L100
.L101:
ldr	x0, [x29, -8]
ldrsw	x2, [x29, -16]
ldr	w0, [x0, x2, lsl 2]
cmp	w0, w2
beq	.L4
b	.L101
.L102:
ldr	x0, [x29, -8]
ldrsw	x2, [x29, -16]
ldr	w0, [x0, x2, lsl 2]
cmp	w0, w2
bne	.L102
b	.L4
.L103:
ldr	x0, [x29, -8]
ldrsw	x2, [x29, -16]
ldr	w0, [x0, x2, lsl 2]
cmp	w0, w2
beq	.L4
b	.L103
.L104:
ldr	x0, [x29, -8]
ldrsw	x2, [x29, -16]
ldr	w0, [x0, x2, lsl 2]
cmp	w0, w2
bne	.L104
b	.L4
.L105:
ldr	x0, [x29, -8]
ldrsw	x2, [x29, -16]
ldr	w0, [x0, x2, lsl 2]
cmp	w0, w2
bne	.L105
b	.L4
.L106:
ldr	x0, [x29, -8]
ldrsw	x2, [x29, -16]
ldr	w0, [x0, x2, lsl 2]
cmp	w0, w2
beq	.L4
b	.L106
.L107:
ldr	x0, [x29, -8]
ldrsw	x2, [x29, -16]
ldr	w0, [x0, x2, lsl 2]
cmp	w0, w2
bne	.L107
b	.L4
.L108:
ldr	x0, [x29, -8]
ldrsw	x2, [x29, -16]
ldr	w0, [x0, x2, lsl 2]
cmp	w0, w2
bne	.L108
b	.L4
.L109:
ldr	x0, [x29, -8]
ldrsw	x2, [x29, -16]
ldr	w0, [x0, x2, lsl 2]
cmp	w0, w2
bne	.L109
b	.L4
.L110:
ldr	x0, [x29, -8]
ldrsw	x2, [x29, -16]
ldr	w0, [x0, x2, lsl 2]
cmp	w0, w2
beq	.L4
b	.L110
.L111:
ldr	x0, [x29, -8]
ldrsw	x2, [x29, -16]
ldr	w0, [x0, x2, lsl 2]
cmp	w0, w2
bne	.L111
b	.L4
.L112:
ldr	x0, [x29, -8]
ldrsw	x2, [x29, -16]
ldr	w0, [x0, x2, lsl 2]
cmp	w0, w2
beq	.L4
b	.L112
.L113:
ldr	x0, [x29, -8]
ldrsw	x2, [x29, -16]
ldr	w0, [x0, x2, lsl 2]
cmp	w0, w2
bne	.L113
b	.L4
.L114:
ldr	x0, [x29, -8]
ldrsw	x2, [x29, -16]
ldr	w0, [x0, x2, lsl 2]
cmp	w0, w2
bne	.L114
b	.L4
.L115:
ldr	x0, [x29, -8]
ldrsw	x2, [x29, -16]
ldr	w0, [x0, x2, lsl 2]
cmp	w0, w2
beq	.L4
b	.L115
.L116:
ldr	x0, [x29, -8]
ldrsw	x2, [x29, -16]
ldr	w0, [x0, x2, lsl 2]
cmp	w0, w2
bne	.L116
b	.L4
.L117:
ldr	x0, [x29, -8]
ldrsw	x2, [x29, -16]
ldr	w0, [x0, x2, lsl 2]
cmp	w0, w2
beq	.L4
b	.L117
.L118:
ldr	x0, [x29, -8]
ldrsw	x2, [x29, -16]
ldr	w0, [x0, x2, lsl 2]
cmp	w0, w2
bne	.L118
b	.L4
.L119:
ldr	x0, [x29, -8]
ldrsw	x2, [x29, -16]
ldr	w0, [x0, x2, lsl 2]
cmp	w0, w2
bne	.L119
b	.L4
.L120:
ldr	x0, [x29, -8]
ldrsw	x2, [x29, -16]
ldr	w0, [x0, x2, lsl 2]
cmp	w0, w2
beq	.L4
b	.L120
.L121:
ldr	x0, [x29, -8]
ldrsw	x2, [x29, -16]
ldr	w0, [x0, x2, lsl 2]
cmp	w0, w2
bne	.L121
b	.L4
.L122:
ldr	x0, [x29, -8]
ldrsw	x2, [x29, -16]
ldr	w0, [x0, x2, lsl 2]
cmp	w0, w2
bne	.L122
b	.L4
.L123:
ldr	x0, [x29, -8]
ldrsw	x2, [x29, -16]
ldr	w0, [x0, x2, lsl 2]
cmp	w0, w2
bne	.L123
b	.L4
.L124:
ldr	x0, [x29, -8]
ldrsw	x2, [x29, -16]
ldr	w0, [x0, x2, lsl 2]
cmp	w0, w2
bne	.L124
b	.L4
.L125:
ldr	x0, [x29, -8]
ldrsw	x2, [x29, -16]
ldr	w0, [x0, x2, lsl 2]
cmp	w0, w2
bne	.L125
b	.L4
.L126:
ldr	x0, [x29, -8]
ldrsw	x2, [x29, -16]
ldr	w0, [x0, x2, lsl 2]
cmp	w0, w2
beq	.L4
b	.L126
.L127:
ldr	x0, [x29, -8]
ldrsw	x2, [x29, -16]
ldr	w0, [x0, x2, lsl 2]
cmp	w0, w2
bne	.L127
b	.L4
.L128:
ldr	x0, [x29, -8]
ldrsw	x2, [x29, -16]
ldr	w0, [x0, x2, lsl 2]
cmp	w0, w2
bne	.L128
b	.L4
.L129:
ldr	x0, [x29, -8]
ldrsw	x2, [x29, -16]
ldr	w0, [x0, x2, lsl 2]
cmp	w0, w2
beq	.L4
b	.L129
.L130:
ldr	x0, [x29, -8]
ldrsw	x2, [x29, -16]
ldr	w0, [x0, x2, lsl 2]
cmp	w0, w2
bne	.L130
b	.L4
.L131:
ldr	x0, [x29, -8]
ldrsw	x2, [x29, -16]
ldr	w0, [x0, x2, lsl 2]
cmp	w0, w2
bne	.L131
b	.L4
.L132:
ldr	x0, [x29, -8]
ldrsw	x2, [x29, -16]
ldr	w0, [x0, x2, lsl 2]
cmp	w0, w2
bne	.L132
b	.L4
.L133:
ldr	x0, [x29, -8]
ldrsw	x2, [x29, -16]
ldr	w0, [x0, x2, lsl 2]
cmp	w0, w2
beq	.L4
b	.L133
.L134:
ldr	x0, [x29, -8]
ldrsw	x2, [x29, -16]
ldr	w0, [x0, x2, lsl 2]
cmp	w0, w2
bne	.L134
b	.L4
.L135:
ldr	x0, [x29, -8]
ldrsw	x2, [x29, -16]
ldr	w0, [x0, x2, lsl 2]
cmp	w0, w2
bne	.L135
b	.L4
.L136:
ldr	x0, [x29, -8]
ldrsw	x2, [x29, -16]
ldr	w0, [x0, x2, lsl 2]
cmp	w0, w2
bne	.L136
b	.L4
.L137:
ldr	x0, [x29, -8]
ldrsw	x2, [x29, -16]
ldr	w0, [x0, x2, lsl 2]
cmp	w0, w2
bne	.L137
b	.L4
.L138:
ldr	x0, [x29, -8]
ldrsw	x2, [x29, -16]
ldr	w0, [x0, x2, lsl 2]
cmp	w0, w2
bne	.L138
b	.L4
.L139:
ldr	x0, [x29, -8]
ldrsw	x2, [x29, -16]
ldr	w0, [x0, x2, lsl 2]
cmp	w0, w2
bne	.L139
b	.L4
.L140:
ldr	x0, [x29, -8]
ldrsw	x2, [x29, -16]
ldr	w0, [x0, x2, lsl 2]
cmp	w0, w2
beq	.L4
b	.L140
.L141:
ldr	x0, [x29, -8]
ldrsw	x2, [x29, -16]
ldr	w0, [x0, x2, lsl 2]
cmp	w0, w2
bne	.L141
b	.L4
.L142:
ldr	x0, [x29, -8]
ldrsw	x2, [x29, -16]
ldr	w0, [x0, x2, lsl 2]
cmp	w0, w2
bne	.L142
b	.L4
.L143:
ldr	x0, [x29, -8]
ldrsw	x2, [x29, -16]
ldr	w0, [x0, x2, lsl 2]
cmp	w0, w2
bne	.L143
b	.L4
.L144:
ldr	x0, [x29, -8]
ldrsw	x2, [x29, -16]
ldr	w0, [x0, x2, lsl 2]
cmp	w0, w2
beq	.L4
b	.L144
.L145:
ldr	x0, [x29, -8]
ldrsw	x2, [x29, -16]
ldr	w0, [x0, x2, lsl 2]
cmp	w0, w2
bne	.L145
b	.L4
.L146:
ldr	x0, [x29, -8]
ldrsw	x2, [x29, -16]
ldr	w0, [x0, x2, lsl 2]
cmp	w0, w2
beq	.L4
b	.L146
.L147:
ldr	x0, [x29, -8]
ldrsw	x2, [x29, -16]
ldr	w0, [x0, x2, lsl 2]
cmp	w0, w2
bne	.L147
b	.L4
.L148:
ldr	x0, [x29, -8]
ldrsw	x2, [x29, -16]
ldr	w0, [x0, x2, lsl 2]
cmp	w0, w2
bne	.L148
b	.L4
.L149:
ldr	x0, [x29, -8]
ldrsw	x2, [x29, -16]
ldr	w0, [x0, x2, lsl 2]
cmp	w0, w2
bne	.L149
b	.L4
.L150:
ldr	x0, [x29, -8]
ldrsw	x2, [x29, -16]
ldr	w0, [x0, x2, lsl 2]
cmp	w0, w2
bne	.L150
b	.L4
.L151:
ldr	x0, [x29, -8]
ldrsw	x2, [x29, -16]
ldr	w0, [x0, x2, lsl 2]
cmp	w0, w2
bne	.L151
b	.L4
.L152:
ldr	x0, [x29, -8]
ldrsw	x2, [x29, -16]
ldr	w0, [x0, x2, lsl 2]
cmp	w0, w2
bne	.L152
b	.L4
.L153:
ldr	x0, [x29, -8]
ldrsw	x2, [x29, -16]
ldr	w0, [x0, x2, lsl 2]
cmp	w0, w2
bne	.L153
b	.L4
.L154:
ldr	x0, [x29, -8]
ldrsw	x2, [x29, -16]
ldr	w0, [x0, x2, lsl 2]
cmp	w0, w2
beq	.L4
b	.L154
.L155:
ldr	x0, [x29, -8]
ldrsw	x2, [x29, -16]
ldr	w0, [x0, x2, lsl 2]
cmp	w0, w2
bne	.L155
b	.L4
.L156:
ldr	x0, [x29, -8]
ldrsw	x2, [x29, -16]
ldr	w0, [x0, x2, lsl 2]
cmp	w0, w2
bne	.L156
b	.L4
.L157:
ldr	x0, [x29, -8]
ldrsw	x2, [x29, -16]
ldr	w0, [x0, x2, lsl 2]
cmp	w0, w2
bne	.L157
b	.L4
.L158:
ldr	x0, [x29, -8]
ldrsw	x2, [x29, -16]
ldr	w0, [x0, x2, lsl 2]
cmp	w0, w2
bne	.L158
b	.L4
.L159:
ldr	x0, [x29, -8]
ldrsw	x2, [x29, -16]
ldr	w0, [x0, x2, lsl 2]
cmp	w0, w2
beq	.L4
b	.L159
.L160:
ldr	x0, [x29, -8]
ldrsw	x2, [x29, -16]
ldr	w0, [x0, x2, lsl 2]
cmp	w0, w2
bne	.L160
b	.L4
.L161:
ldr	x0, [x29, -8]
ldrsw	x2, [x29, -16]
ldr	w0, [x0, x2, lsl 2]
cmp	w0, w2
bne	.L161
b	.L4
.L162:
ldr	x0, [x29, -8]
ldrsw	x2, [x29, -16]
ldr	w0, [x0, x2, lsl 2]
cmp	w0, w2
bne	.L162
b	.L4
.L163:
ldr	x0, [x29, -8]
ldrsw	x2, [x29, -16]
ldr	w0, [x0, x2, lsl 2]
cmp	w0, w2
bne	.L163
b	.L4
.L164:
ldr	x0, [x29, -8]
ldrsw	x2, [x29, -16]
ldr	w0, [x0, x2, lsl 2]
cmp	w0, w2
bne	.L164
b	.L4
.L165:
ldr	x0, [x29, -8]
ldrsw	x2, [x29, -16]
ldr	w0, [x0, x2, lsl 2]
cmp	w0, w2
bne	.L165
b	.L4
.L166:
ldr	x0, [x29, -8]
ldrsw	x2, [x29, -16]
ldr	w0, [x0, x2, lsl 2]
cmp	w0, w2
bne	.L166
b	.L4
.L167:
ldr	x0, [x29, -8]
ldrsw	x2, [x29, -16]
ldr	w0, [x0, x2, lsl 2]
cmp	w0, w2
bne	.L167
b	.L4
.L168:
ldr	x0, [x29, -8]
ldrsw	x2, [x29, -16]
ldr	w0, [x0, x2, lsl 2]
cmp	w0, w2
bne	.L168
b	.L4
.L169:
ldr	x0, [x29, -8]
ldrsw	x2, [x29, -16]
ldr	w0, [x0, x2, lsl 2]
cmp	w0, w2
bne	.L169
b	.L4
.L170:
ldr	x0, [x29, -8]
ldrsw	x2, [x29, -16]
ldr	w0, [x0, x2, lsl 2]
cmp	w0, w2
beq	.L4
b	.L170
.L171:
ldr	x0, [x29, -8]
ldrsw	x2, [x29, -16]
ldr	w0, [x0, x2, lsl 2]
cmp	w0, w2
bne	.L171
b	.L4
.L172:
ldr	x0, [x29, -8]
ldrsw	x2, [x29, -16]
ldr	w0, [x0, x2, lsl 2]
cmp	w0, w2
bne	.L172
b	.L4
.L173:
ldr	x0, [x29, -8]
ldrsw	x2, [x29, -16]
ldr	w0, [x0, x2, lsl 2]
cmp	w0, w2
bne	.L173
b	.L4
.L174:
ldr	x0, [x29, -8]
ldrsw	x2, [x29, -16]
ldr	w0, [x0, x2, lsl 2]
cmp	w0, w2
bne	.L174
b	.L4
.L175:
ldr	x0, [x29, -8]
ldrsw	x2, [x29, -16]
ldr	w0, [x0, x2, lsl 2]
cmp	w0, w2
beq	.L4
b	.L175
.L176:
ldr	x0, [x29, -8]
ldrsw	x2, [x29, -16]
ldr	w0, [x0, x2, lsl 2]
cmp	w0, w2
bne	.L176
b	.L4
.L177:
ldr	x0, [x29, -8]
ldrsw	x2, [x29, -16]
ldr	w0, [x0, x2, lsl 2]
cmp	w0, w2
bne	.L177
b	.L4
.L178:
ldr	x0, [x29, -8]
ldrsw	x2, [x29, -16]
ldr	w0, [x0, x2, lsl 2]
cmp	w0, w2
bne	.L178
b	.L4
.L179:
ldr	x0, [x29, -8]
ldrsw	x2, [x29, -16]
ldr	w0, [x0, x2, lsl 2]
cmp	w0, w2
bne	.L179
b	.L4
.L180:
ldr	x0, [x29, -8]
ldrsw	x2, [x29, -16]
ldr	w0, [x0, x2, lsl 2]
cmp	w0, w2
beq	.L4
b	.L180
.L181:
ldr	x0, [x29, -8]
ldrsw	x2, [x29, -16]
ldr	w0, [x0, x2, lsl 2]
cmp	w0, w2
bne	.L181
b	.L4
.L182:
ldr	x0, [x29, -8]
ldrsw	x2, [x29, -16]
ldr	w0, [x0, x2, lsl 2]
cmp	w0, w2
bne	.L182
b	.L4
.L183:
ldr	x0, [x29, -8]
ldrsw	x2, [x29, -16]
ldr	w0, [x0, x2, lsl 2]
cmp	w0, w2
bne	.L183
b	.L4
.L184:
ldr	x0, [x29, -8]
ldrsw	x2, [x29, -16]
ldr	w0, [x0, x2, lsl 2]
cmp	w0, w2
beq	.L4
b	.L184
.L185:
ldr	x0, [x29, -8]
ldrsw	x2, [x29, -16]
ldr	w0, [x0, x2, lsl 2]
cmp	w0, w2
bne	.L185
b	.L4
.L186:
ldr	x0, [x29, -8]
ldrsw	x2, [x29, -16]
ldr	w0, [x0, x2, lsl 2]
cmp	w0, w2
bne	.L186
b	.L4
.L187:
ldr	x0, [x29, -8]
ldrsw	x2, [x29, -16]
ldr	w0, [x0, x2, lsl 2]
cmp	w0, w2
bne	.L187
b	.L4
.L188:
ldr	x0, [x29, -8]
ldrsw	x2, [x29, -16]
ldr	w0, [x0, x2, lsl 2]
cmp	w0, w2
bne	.L188
b	.L4
.L189:
ldr	x0, [x29, -8]
ldrsw	x2, [x29, -16]
ldr	w0, [x0, x2, lsl 2]
cmp	w0, w2
bne	.L189
b	.L4
.L190:
ldr	x0, [x29, -8]
ldrsw	x2, [x29, -16]
ldr	w0, [x0, x2, lsl 2]
cmp	w0, w2
bne	.L190
b	.L4
.L191:
ldr	x0, [x29, -8]
ldrsw	x2, [x29, -16]
ldr	w0, [x0, x2, lsl 2]
cmp	w0, w2
bne	.L191
b	.L4
.L192:
ldr	x0, [x29, -8]
ldrsw	x2, [x29, -16]
ldr	w0, [x0, x2, lsl 2]
cmp	w0, w2
bne	.L192
b	.L4
.L193:
ldr	x0, [x29, -8]
ldrsw	x2, [x29, -16]
ldr	w0, [x0, x2, lsl 2]
cmp	w0, w2
beq	.L4
b	.L193
.L194:
ldr	x0, [x29, -8]
ldrsw	x2, [x29, -16]
ldr	w0, [x0, x2, lsl 2]
cmp	w0, w2
bne	.L194
b	.L4
.L195:
ldr	x0, [x29, -8]
ldrsw	x2, [x29, -16]
ldr	w0, [x0, x2, lsl 2]
cmp	w0, w2
bne	.L195
b	.L4
.L196:
ldr	x0, [x29, -8]
ldrsw	x2, [x29, -16]
ldr	w0, [x0, x2, lsl 2]
cmp	w0, w2
beq	.L4
b	.L196
.L197:
ldr	x0, [x29, -8]
ldrsw	x2, [x29, -16]
ldr	w0, [x0, x2, lsl 2]
cmp	w0, w2
bne	.L197
b	.L4
.L198:
ldr	x0, [x29, -8]
ldrsw	x2, [x29, -16]
ldr	w0, [x0, x2, lsl 2]
cmp	w0, w2
bne	.L198
b	.L4
.L199:
ldr	x0, [x29, -8]
ldrsw	x2, [x29, -16]
ldr	w0, [x0, x2, lsl 2]
cmp	w0, w2
bne	.L199
b	.L4
.L200:
ldr	x0, [x29, -8]
ldrsw	x2, [x29, -16]
ldr	w0, [x0, x2, lsl 2]
cmp	w0, w2
bne	.L200
b	.L4
.L201:
ldr	x0, [x29, -8]
ldrsw	x2, [x29, -16]
ldr	w0, [x0, x2, lsl 2]
cmp	w0, w2
bne	.L201
b	.L4
.L202:
ldr	x0, [x29, -8]
ldrsw	x2, [x29, -16]
ldr	w0, [x0, x2, lsl 2]
cmp	w0, w2
bne	.L202
b	.L4
.L203:
ldr	x0, [x29, -8]
ldrsw	x2, [x29, -16]
ldr	w0, [x0, x2, lsl 2]
cmp	w0, w2
bne	.L203
b	.L4
.L204:
ldr	x0, [x29, -8]
ldrsw	x2, [x29, -16]
ldr	w0, [x0, x2, lsl 2]
cmp	w0, w2
bne	.L204
b	.L4
.L205:
ldr	x0, [x29, -8]
ldrsw	x2, [x29, -16]
ldr	w0, [x0, x2, lsl 2]
cmp	w0, w2
bne	.L205
b	.L4
.L206:
ldr	x0, [x29, -8]
ldrsw	x2, [x29, -16]
ldr	w0, [x0, x2, lsl 2]
cmp	w0, w2
bne	.L206
b	.L4
.L207:
ldr	x0, [x29, -8]
ldrsw	x2, [x29, -16]
ldr	w0, [x0, x2, lsl 2]
cmp	w0, w2
beq	.L4
b	.L207
.L208:
ldr	x0, [x29, -8]
ldrsw	x2, [x29, -16]
ldr	w0, [x0, x2, lsl 2]
cmp	w0, w2
bne	.L208
b	.L4
.L209:
ldr	x0, [x29, -8]
ldrsw	x2, [x29, -16]
ldr	w0, [x0, x2, lsl 2]
cmp	w0, w2
bne	.L209
b	.L4
.L210:
ldr	x0, [x29, -8]
ldrsw	x2, [x29, -16]
ldr	w0, [x0, x2, lsl 2]
cmp	w0, w2
beq	.L4
b	.L210
.L211:
ldr	x0, [x29, -8]
ldrsw	x2, [x29, -16]
ldr	w0, [x0, x2, lsl 2]
cmp	w0, w2
bne	.L211
b	.L4
.L212:
ldr	x0, [x29, -8]
ldrsw	x2, [x29, -16]
ldr	w0, [x0, x2, lsl 2]
cmp	w0, w2
bne	.L212
b	.L4
.L213:
ldr	x0, [x29, -8]
ldrsw	x2, [x29, -16]
ldr	w0, [x0, x2, lsl 2]
cmp	w0, w2
bne	.L213
b	.L4
.L214:
ldr	x0, [x29, -8]
ldrsw	x2, [x29, -16]
ldr	w0, [x0, x2, lsl 2]
cmp	w0, w2
bne	.L214
b	.L4
.L215:
ldr	x0, [x29, -8]
ldrsw	x2, [x29, -16]
ldr	w0, [x0, x2, lsl 2]
cmp	w0, w2
bne	.L215
b	.L4
.L216:
ldr	x0, [x29, -8]
ldrsw	x2, [x29, -16]
ldr	w0, [x0, x2, lsl 2]
cmp	w0, w2
beq	.L4
b	.L216
.L217:
ldr	x0, [x29, -8]
ldrsw	x2, [x29, -16]
ldr	w0, [x0, x2, lsl 2]
cmp	w0, w2
bne	.L217
b	.L4
.L218:
ldr	x0, [x29, -8]
ldrsw	x2, [x29, -16]
ldr	w0, [x0, x2, lsl 2]
cmp	w0, w2
bne	.L218
b	.L4
.L219:
ldr	x0, [x29, -8]
ldrsw	x2, [x29, -16]
ldr	w0, [x0, x2, lsl 2]
cmp	w0, w2
bne	.L219
b	.L4
.L220:
ldr	x0, [x29, -8]
ldrsw	x2, [x29, -16]
ldr	w0, [x0, x2, lsl 2]
cmp	w0, w2
bne	.L220
b	.L4
.L221:
ldr	x0, [x29, -8]
ldrsw	x2, [x29, -16]
ldr	w0, [x0, x2, lsl 2]
cmp	w0, w2
bne	.L221
b	.L4
.L222:
ldr	x0, [x29, -8]
ldrsw	x2, [x29, -16]
ldr	w0, [x0, x2, lsl 2]
cmp	w0, w2
bne	.L222
b	.L4
.L223:
ldr	x0, [x29, -8]
ldrsw	x2, [x29, -16]
ldr	w0, [x0, x2, lsl 2]
cmp	w0, w2
bne	.L223
b	.L4
.L224:
ldr	x0, [x29, -8]
ldrsw	x2, [x29, -16]
ldr	w0, [x0, x2, lsl 2]
cmp	w0, w2
beq	.L4
b	.L224
.L225:
ldr	x0, [x29, -8]
ldrsw	x2, [x29, -16]
ldr	w0, [x0, x2, lsl 2]
cmp	w0, w2
bne	.L225
b	.L4
.L226:
ldr	x0, [x29, -8]
ldrsw	x2, [x29, -16]
ldr	w0, [x0, x2, lsl 2]
cmp	w0, w2
beq	.L4
b	.L226
.L227:
ldr	x0, [x29, -8]
ldrsw	x2, [x29, -16]
ldr	w0, [x0, x2, lsl 2]
cmp	w0, w2
bne	.L227
b	.L4
.L228:
ldr	x0, [x29, -8]
ldrsw	x2, [x29, -16]
ldr	w0, [x0, x2, lsl 2]
cmp	w0, w2
bne	.L228
b	.L4
.L229:
ldr	x0, [x29, -8]
ldrsw	x2, [x29, -16]
ldr	w0, [x0, x2, lsl 2]
cmp	w0, w2
bne	.L229
b	.L4
.L230:
ldr	x0, [x29, -8]
ldrsw	x2, [x29, -16]
ldr	w0, [x0, x2, lsl 2]
cmp	w0, w2
bne	.L230
b	.L4
.L231:
ldr	x0, [x29, -8]
ldrsw	x2, [x29, -16]
ldr	w0, [x0, x2, lsl 2]
cmp	w0, w2
bne	.L231
b	.L4
.L232:
ldr	x0, [x29, -8]
ldrsw	x2, [x29, -16]
ldr	w0, [x0, x2, lsl 2]
cmp	w0, w2
beq	.L4
b	.L232
.L233:
ldr	x0, [x29, -8]
ldrsw	x2, [x29, -16]
ldr	w0, [x0, x2, lsl 2]
cmp	w0, w2
bne	.L233
b	.L4
.L234:
ldr	x0, [x29, -8]
ldrsw	x2, [x29, -16]
ldr	w0, [x0, x2, lsl 2]
cmp	w0, w2
bne	.L234
b	.L4
.L235:
ldr	x0, [x29, -8]
ldrsw	x2, [x29, -16]
ldr	w0, [x0, x2, lsl 2]
cmp	w0, w2
bne	.L235
b	.L4
.L236:
ldr	x0, [x29, -8]
ldrsw	x2, [x29, -16]
ldr	w0, [x0, x2, lsl 2]
cmp	w0, w2
bne	.L236
b	.L4
.L237:
ldr	x0, [x29, -8]
ldrsw	x2, [x29, -16]
ldr	w0, [x0, x2, lsl 2]
cmp	w0, w2
bne	.L237
b	.L4
.L238:
ldr	x0, [x29, -8]
ldrsw	x2, [x29, -16]
ldr	w0, [x0, x2, lsl 2]
cmp	w0, w2
bne	.L238
b	.L4
.L239:
ldr	x0, [x29, -8]
ldrsw	x2, [x29, -16]
ldr	w0, [x0, x2, lsl 2]
cmp	w0, w2
beq	.L4
b	.L239
.L240:
ldr	x0, [x29, -8]
ldrsw	x2, [x29, -16]
ldr	w0, [x0, x2, lsl 2]
cmp	w0, w2
bne	.L240
b	.L4
.L241:
ldr	x0, [x29, -8]
ldrsw	x2, [x29, -16]
ldr	w0, [x0, x2, lsl 2]
cmp	w0, w2
bne	.L241
b	.L4
.L242:
ldr	x0, [x29, -8]
ldrsw	x2, [x29, -16]
ldr	w0, [x0, x2, lsl 2]
cmp	w0, w2
bne	.L242
b	.L4
.L243:
ldr	x0, [x29, -8]
ldrsw	x2, [x29, -16]
ldr	w0, [x0, x2, lsl 2]
cmp	w0, w2
beq	.L4
b	.L243
.L244:
ldr	x0, [x29, -8]
ldrsw	x2, [x29, -16]
ldr	w0, [x0, x2, lsl 2]
cmp	w0, w2
bne	.L244
b	.L4
.L245:
ldr	x0, [x29, -8]
ldrsw	x2, [x29, -16]
ldr	w0, [x0, x2, lsl 2]
cmp	w0, w2
bne	.L245
b	.L4
.L246:
ldr	x0, [x29, -8]
ldrsw	x2, [x29, -16]
ldr	w0, [x0, x2, lsl 2]
cmp	w0, w2
bne	.L246
b	.L4
.L247:
ldr	x0, [x29, -8]
ldrsw	x2, [x29, -16]
ldr	w0, [x0, x2, lsl 2]
cmp	w0, w2
bne	.L247
b	.L4
.L248:
ldr	x0, [x29, -8]
ldrsw	x2, [x29, -16]
ldr	w0, [x0, x2, lsl 2]
cmp	w0, w2
beq	.L4
b	.L248
.L249:
ldr	x0, [x29, -8]
ldrsw	x2, [x29, -16]
ldr	w0, [x0, x2, lsl 2]
cmp	w0, w2
bne	.L249
b	.L4
.L250:
ldr	x0, [x29, -8]
ldrsw	x2, [x29, -16]
ldr	w0, [x0, x2, lsl 2]
cmp	w0, w2
beq	.L4
b	.L250
.L251:
ldr	x0, [x29, -8]
ldrsw	x2, [x29, -16]
ldr	w0, [x0, x2, lsl 2]
cmp	w0, w2
bne	.L251
b	.L4
.L252:
ldr	x0, [x29, -8]
ldrsw	x2, [x29, -16]
ldr	w0, [x0, x2, lsl 2]
cmp	w0, w2
beq	.L4
b	.L252
.L253:
ldr	x0, [x29, -8]
ldrsw	x2, [x29, -16]
ldr	w0, [x0, x2, lsl 2]
cmp	w0, w2
bne	.L253
b	.L4
.L254:
ldr	x0, [x29, -8]
ldrsw	x2, [x29, -16]
ldr	w0, [x0, x2, lsl 2]
cmp	w0, w2
bne	.L254
b	.L4
.L255:
ldr	x0, [x29, -8]
ldrsw	x2, [x29, -16]
ldr	w0, [x0, x2, lsl 2]
cmp	w0, w2
bne	.L255
b	.L4
.L256:
ldr	x0, [x29, -8]
ldrsw	x2, [x29, -16]
ldr	w0, [x0, x2, lsl 2]
cmp	w0, w2
bne	.L256
b	.L4
.L257:
ldr	x0, [x29, -8]
ldrsw	x2, [x29, -16]
ldr	w0, [x0, x2, lsl 2]
cmp	w0, w2
beq	.L4
b	.L257
.L258:
ldr	x0, [x29, -8]
ldrsw	x2, [x29, -16]
ldr	w0, [x0, x2, lsl 2]
cmp	w0, w2
bne	.L258
b	.L4
.L259:
ldr	x0, [x29, -8]
ldrsw	x2, [x29, -16]
ldr	w0, [x0, x2, lsl 2]
cmp	w0, w2
bne	.L259
b	.L4
.L260:
ldr	x0, [x29, -8]
ldrsw	x2, [x29, -16]
ldr	w0, [x0, x2, lsl 2]
cmp	w0, w2
beq	.L4
b	.L260
.L261:
ldr	x0, [x29, -8]
ldrsw	x2, [x29, -16]
ldr	w0, [x0, x2, lsl 2]
cmp	w0, w2
bne	.L261
b	.L4
.L262:
ldr	x0, [x29, -8]
ldrsw	x2, [x29, -16]
ldr	w0, [x0, x2, lsl 2]
cmp	w0, w2
bne	.L262
b	.L4
.L263:
ldr	x0, [x29, -8]
ldrsw	x2, [x29, -16]
ldr	w0, [x0, x2, lsl 2]
cmp	w0, w2
beq	.L4
b	.L263
.L264:
ldr	x0, [x29, -8]
ldrsw	x2, [x29, -16]
ldr	w0, [x0, x2, lsl 2]
cmp	w0, w2
bne	.L264
b	.L4
.L265:
ldr	x0, [x29, -8]
ldrsw	x2, [x29, -16]
ldr	w0, [x0, x2, lsl 2]
cmp	w0, w2
beq	.L4
b	.L265
.L266:
ldr	x0, [x29, -8]
ldrsw	x2, [x29, -16]
ldr	w0, [x0, x2, lsl 2]
cmp	w0, w2
bne	.L266
b	.L4
.L267:
ldr	x0, [x29, -8]
ldrsw	x2, [x29, -16]
ldr	w0, [x0, x2, lsl 2]
cmp	w0, w2
bne	.L267
b	.L4
.L268:
ldr	x0, [x29, -8]
ldrsw	x2, [x29, -16]
ldr	w0, [x0, x2, lsl 2]
cmp	w0, w2
beq	.L4
b	.L268
.L269:
ldr	x0, [x29, -8]
ldrsw	x2, [x29, -16]
ldr	w0, [x0, x2, lsl 2]
cmp	w0, w2
bne	.L269
b	.L4
.L270:
ldr	x0, [x29, -8]
ldrsw	x2, [x29, -16]
ldr	w0, [x0, x2, lsl 2]
cmp	w0, w2
beq	.L4
b	.L270
.L271:
ldr	x0, [x29, -8]
ldrsw	x2, [x29, -16]
ldr	w0, [x0, x2, lsl 2]
cmp	w0, w2
bne	.L271
b	.L4
.L272:
ldr	x0, [x29, -8]
ldrsw	x2, [x29, -16]
ldr	w0, [x0, x2, lsl 2]
cmp	w0, w2
bne	.L272
b	.L4
.L273:
ldr	x0, [x29, -8]
ldrsw	x2, [x29, -16]
ldr	w0, [x0, x2, lsl 2]
cmp	w0, w2
bne	.L273
b	.L4
.L274:
ldr	x0, [x29, -8]
ldrsw	x2, [x29, -16]
ldr	w0, [x0, x2, lsl 2]
cmp	w0, w2
bne	.L274
b	.L4
.L275:
ldr	x0, [x29, -8]
ldrsw	x2, [x29, -16]
ldr	w0, [x0, x2, lsl 2]
cmp	w0, w2
beq	.L4
b	.L275
.L276:
ldr	x0, [x29, -8]
ldrsw	x2, [x29, -16]
ldr	w0, [x0, x2, lsl 2]
cmp	w0, w2
bne	.L276
b	.L4
.L277:
ldr	x0, [x29, -8]
ldrsw	x2, [x29, -16]
ldr	w0, [x0, x2, lsl 2]
cmp	w0, w2
bne	.L277
b	.L4
.L278:
ldr	x0, [x29, -8]
ldrsw	x2, [x29, -16]
ldr	w0, [x0, x2, lsl 2]
cmp	w0, w2
bne	.L278
b	.L4
.L279:
ldr	x0, [x29, -8]
ldrsw	x2, [x29, -16]
ldr	w0, [x0, x2, lsl 2]
cmp	w0, w2
bne	.L279
b	.L4
.L280:
ldr	x0, [x29, -8]
ldrsw	x2, [x29, -16]
ldr	w0, [x0, x2, lsl 2]
cmp	w0, w2
beq	.L4
b	.L280
.L281:
ldr	x0, [x29, -8]
ldrsw	x2, [x29, -16]
ldr	w0, [x0, x2, lsl 2]
cmp	w0, w2
bne	.L281
b	.L4
.L282:
ldr	x0, [x29, -8]
ldrsw	x2, [x29, -16]
ldr	w0, [x0, x2, lsl 2]
cmp	w0, w2
bne	.L282
b	.L4
.L283:
ldr	x0, [x29, -8]
ldrsw	x2, [x29, -16]
ldr	w0, [x0, x2, lsl 2]
cmp	w0, w2
bne	.L283
b	.L4
.L284:
ldr	x0, [x29, -8]
ldrsw	x2, [x29, -16]
ldr	w0, [x0, x2, lsl 2]
cmp	w0, w2
beq	.L4
b	.L284
.L285:
ldr	x0, [x29, -8]
ldrsw	x2, [x29, -16]
ldr	w0, [x0, x2, lsl 2]
cmp	w0, w2
bne	.L285
b	.L4
.L286:
ldr	x0, [x29, -8]
ldrsw	x2, [x29, -16]
ldr	w0, [x0, x2, lsl 2]
cmp	w0, w2
bne	.L286
b	.L4
.L287:
ldr	x0, [x29, -8]
ldrsw	x2, [x29, -16]
ldr	w0, [x0, x2, lsl 2]
cmp	w0, w2
bne	.L287
b	.L4
.L288:
ldr	x0, [x29, -8]
ldrsw	x2, [x29, -16]
ldr	w0, [x0, x2, lsl 2]
cmp	w0, w2
bne	.L288
b	.L4
.L289:
ldr	x0, [x29, -8]
ldrsw	x2, [x29, -16]
ldr	w0, [x0, x2, lsl 2]
cmp	w0, w2
bne	.L289
b	.L4
.L290:
ldr	x0, [x29, -8]
ldrsw	x2, [x29, -16]
ldr	w0, [x0, x2, lsl 2]
cmp	w0, w2
bne	.L290
b	.L4
.L291:
ldr	x0, [x29, -8]
ldrsw	x2, [x29, -16]
ldr	w0, [x0, x2, lsl 2]
cmp	w0, w2
bne	.L291
b	.L4
.L292:
ldr	x0, [x29, -8]
ldrsw	x2, [x29, -16]
ldr	w0, [x0, x2, lsl 2]
cmp	w0, w2
bne	.L292
b	.L4
.L293:
ldr	x0, [x29, -8]
ldrsw	x2, [x29, -16]
ldr	w0, [x0, x2, lsl 2]
cmp	w0, w2
bne	.L293
b	.L4
.L294:
ldr	x0, [x29, -8]
ldrsw	x2, [x29, -16]
ldr	w0, [x0, x2, lsl 2]
cmp	w0, w2
bne	.L294
b	.L4
.L295:
ldr	x0, [x29, -8]
ldrsw	x2, [x29, -16]
ldr	w0, [x0, x2, lsl 2]
cmp	w0, w2
bne	.L295
b	.L4
.L296:
ldr	x0, [x29, -8]
ldrsw	x2, [x29, -16]
ldr	w0, [x0, x2, lsl 2]
cmp	w0, w2
beq	.L4
b	.L296
.L297:
ldr	x0, [x29, -8]
ldrsw	x2, [x29, -16]
ldr	w0, [x0, x2, lsl 2]
cmp	w0, w2
bne	.L297
b	.L4
.L298:
ldr	x0, [x29, -8]
ldrsw	x2, [x29, -16]
ldr	w0, [x0, x2, lsl 2]
cmp	w0, w2
bne	.L298
b	.L4
.L299:
ldr	x0, [x29, -8]
ldrsw	x2, [x29, -16]
ldr	w0, [x0, x2, lsl 2]
cmp	w0, w2
bne	.L299
b	.L4
.L300:
ldr	x0, [x29, -8]
ldrsw	x2, [x29, -16]
ldr	w0, [x0, x2, lsl 2]
cmp	w0, w2
beq	.L4
b	.L300
.L301:
ldr	x0, [x29, -8]
ldrsw	x2, [x29, -16]
ldr	w0, [x0, x2, lsl 2]
cmp	w0, w2
bne	.L301
b	.L4
.L302:
ldr	x0, [x29, -8]
ldrsw	x2, [x29, -16]
ldr	w0, [x0, x2, lsl 2]
cmp	w0, w2
bne	.L302
b	.L4
.L303:
ldr	x0, [x29, -8]
ldrsw	x2, [x29, -16]
ldr	w0, [x0, x2, lsl 2]
cmp	w0, w2
bne	.L303
b	.L4
.L304:
ldr	x0, [x29, -8]
ldrsw	x2, [x29, -16]
ldr	w0, [x0, x2, lsl 2]
cmp	w0, w2
bne	.L304
b	.L4
.L305:
ldr	x0, [x29, -8]
ldrsw	x2, [x29, -16]
ldr	w0, [x0, x2, lsl 2]
cmp	w0, w2
beq	.L4
b	.L305
.L306:
ldr	x0, [x29, -8]
ldrsw	x2, [x29, -16]
ldr	w0, [x0, x2, lsl 2]
cmp	w0, w2
bne	.L306
b	.L4
.L307:
ldr	x0, [x29, -8]
ldrsw	x2, [x29, -16]
ldr	w0, [x0, x2, lsl 2]
cmp	w0, w2
bne	.L307
b	.L4
.L308:
ldr	x0, [x29, -8]
ldrsw	x2, [x29, -16]
ldr	w0, [x0, x2, lsl 2]
cmp	w0, w2
bne	.L308
b	.L4
.L309:
ldr	x0, [x29, -8]
ldrsw	x2, [x29, -16]
ldr	w0, [x0, x2, lsl 2]
cmp	w0, w2
bne	.L309
b	.L4
.L310:
ldr	x0, [x29, -8]
ldrsw	x2, [x29, -16]
ldr	w0, [x0, x2, lsl 2]
cmp	w0, w2
bne	.L310
b	.L4
.L311:
ldr	x0, [x29, -8]
ldrsw	x2, [x29, -16]
ldr	w0, [x0, x2, lsl 2]
cmp	w0, w2
bne	.L311
b	.L4
.L312:
ldr	x0, [x29, -8]
ldrsw	x2, [x29, -16]
ldr	w0, [x0, x2, lsl 2]
cmp	w0, w2
beq	.L4
b	.L312
.L313:
ldr	x0, [x29, -8]
ldrsw	x2, [x29, -16]
ldr	w0, [x0, x2, lsl 2]
cmp	w0, w2
bne	.L313
b	.L4
.L314:
ldr	x0, [x29, -8]
ldrsw	x2, [x29, -16]
ldr	w0, [x0, x2, lsl 2]
cmp	w0, w2
bne	.L314
b	.L4
.L315:
ldr	x0, [x29, -8]
ldrsw	x2, [x29, -16]
ldr	w0, [x0, x2, lsl 2]
cmp	w0, w2
bne	.L315
b	.L4
.L316:
ldr	x0, [x29, -8]
ldrsw	x2, [x29, -16]
ldr	w0, [x0, x2, lsl 2]
cmp	w0, w2
beq	.L4
b	.L316
.L317:
ldr	x0, [x29, -8]
ldrsw	x2, [x29, -16]
ldr	w0, [x0, x2, lsl 2]
cmp	w0, w2
bne	.L317
b	.L4
.L318:
ldr	x0, [x29, -8]
ldrsw	x2, [x29, -16]
ldr	w0, [x0, x2, lsl 2]
cmp	w0, w2
bne	.L318
b	.L4
.L319:
ldr	x0, [x29, -8]
ldrsw	x2, [x29, -16]
ldr	w0, [x0, x2, lsl 2]
cmp	w0, w2
beq	.L4
b	.L319
.L320:
ldr	x0, [x29, -8]
ldrsw	x2, [x29, -16]
ldr	w0, [x0, x2, lsl 2]
cmp	w0, w2
bne	.L320
b	.L4
.L321:
ldr	x0, [x29, -8]
ldrsw	x2, [x29, -16]
ldr	w0, [x0, x2, lsl 2]
cmp	w0, w2
beq	.L4
b	.L321
.L322:
ldr	x0, [x29, -8]
ldrsw	x2, [x29, -16]
ldr	w0, [x0, x2, lsl 2]
cmp	w0, w2
bne	.L322
b	.L4
.L323:
ldr	x0, [x29, -8]
ldrsw	x2, [x29, -16]
ldr	w0, [x0, x2, lsl 2]
cmp	w0, w2
bne	.L323
b	.L4
.L324:
ldr	x0, [x29, -8]
ldrsw	x2, [x29, -16]
ldr	w0, [x0, x2, lsl 2]
cmp	w0, w2
beq	.L4
b	.L324
.L325:
ldr	x0, [x29, -8]
ldrsw	x2, [x29, -16]
ldr	w0, [x0, x2, lsl 2]
cmp	w0, w2
bne	.L325
b	.L4
.L326:
ldr	x0, [x29, -8]
ldrsw	x2, [x29, -16]
ldr	w0, [x0, x2, lsl 2]
cmp	w0, w2
bne	.L326
b	.L4
.L327:
ldr	x0, [x29, -8]
ldrsw	x2, [x29, -16]
ldr	w0, [x0, x2, lsl 2]
cmp	w0, w2
bne	.L327
b	.L4
.L328:
ldr	x0, [x29, -8]
ldrsw	x2, [x29, -16]
ldr	w0, [x0, x2, lsl 2]
cmp	w0, w2
bne	.L328
b	.L4
.L329:
ldr	x0, [x29, -8]
ldrsw	x2, [x29, -16]
ldr	w0, [x0, x2, lsl 2]
cmp	w0, w2
beq	.L4
b	.L329
.L330:
ldr	x0, [x29, -8]
ldrsw	x2, [x29, -16]
ldr	w0, [x0, x2, lsl 2]
cmp	w0, w2
bne	.L330
b	.L4
.L331:
ldr	x0, [x29, -8]
ldrsw	x2, [x29, -16]
ldr	w0, [x0, x2, lsl 2]
cmp	w0, w2
bne	.L331
b	.L4
.L332:
ldr	x0, [x29, -8]
ldrsw	x2, [x29, -16]
ldr	w0, [x0, x2, lsl 2]
cmp	w0, w2
bne	.L332
b	.L4
.L333:
ldr	x0, [x29, -8]
ldrsw	x2, [x29, -16]
ldr	w0, [x0, x2, lsl 2]
cmp	w0, w2
beq	.L4
b	.L333
.L334:
ldr	x0, [x29, -8]
ldrsw	x2, [x29, -16]
ldr	w0, [x0, x2, lsl 2]
cmp	w0, w2
bne	.L334
b	.L4
.L335:
ldr	x0, [x29, -8]
ldrsw	x2, [x29, -16]
ldr	w0, [x0, x2, lsl 2]
cmp	w0, w2
bne	.L335
b	.L4
.L336:
ldr	x0, [x29, -8]
ldrsw	x2, [x29, -16]
ldr	w0, [x0, x2, lsl 2]
cmp	w0, w2
bne	.L336
b	.L4
.L337:
ldr	x0, [x29, -8]
ldrsw	x2, [x29, -16]
ldr	w0, [x0, x2, lsl 2]
cmp	w0, w2
bne	.L337
b	.L4
.L338:
ldr	x0, [x29, -8]
ldrsw	x2, [x29, -16]
ldr	w0, [x0, x2, lsl 2]
cmp	w0, w2
bne	.L338
b	.L4
.L339:
ldr	x0, [x29, -8]
ldrsw	x2, [x29, -16]
ldr	w0, [x0, x2, lsl 2]
cmp	w0, w2
bne	.L339
b	.L4
.L340:
ldr	x0, [x29, -8]
ldrsw	x2, [x29, -16]
ldr	w0, [x0, x2, lsl 2]
cmp	w0, w2
bne	.L340
b	.L4
.L341:
ldr	x0, [x29, -8]
ldrsw	x2, [x29, -16]
ldr	w0, [x0, x2, lsl 2]
cmp	w0, w2
bne	.L341
b	.L4
.L342:
ldr	x0, [x29, -8]
ldrsw	x2, [x29, -16]
ldr	w0, [x0, x2, lsl 2]
cmp	w0, w2
bne	.L342
b	.L4
.L343:
ldr	x0, [x29, -8]
ldrsw	x2, [x29, -16]
ldr	w0, [x0, x2, lsl 2]
cmp	w0, w2
bne	.L343
b	.L4
.L344:
ldr	x0, [x29, -8]
ldrsw	x2, [x29, -16]
ldr	w0, [x0, x2, lsl 2]
cmp	w0, w2
bne	.L344
b	.L4
.L345:
ldr	x0, [x29, -8]
ldrsw	x2, [x29, -16]
ldr	w0, [x0, x2, lsl 2]
cmp	w0, w2
bne	.L345
b	.L4
.L346:
ldr	x0, [x29, -8]
ldrsw	x2, [x29, -16]
ldr	w0, [x0, x2, lsl 2]
cmp	w0, w2
bne	.L346
b	.L4
.L347:
ldr	x0, [x29, -8]
ldrsw	x2, [x29, -16]
ldr	w0, [x0, x2, lsl 2]
cmp	w0, w2
bne	.L347
b	.L4
.L348:
ldr	x0, [x29, -8]
ldrsw	x2, [x29, -16]
ldr	w0, [x0, x2, lsl 2]
cmp	w0, w2
bne	.L348
b	.L4
.L349:
ldr	x0, [x29, -8]
ldrsw	x2, [x29, -16]
ldr	w0, [x0, x2, lsl 2]
cmp	w0, w2
bne	.L349
b	.L4
.L350:
ldr	x0, [x29, -8]
ldrsw	x2, [x29, -16]
ldr	w0, [x0, x2, lsl 2]
cmp	w0, w2
beq	.L4
b	.L350
.L351:
ldr	x0, [x29, -8]
ldrsw	x2, [x29, -16]
ldr	w0, [x0, x2, lsl 2]
cmp	w0, w2
bne	.L351
b	.L4
.L352:
ldr	x0, [x29, -8]
ldrsw	x2, [x29, -16]
ldr	w0, [x0, x2, lsl 2]
cmp	w0, w2
beq	.L4
b	.L352
.L353:
ldr	x0, [x29, -8]
ldrsw	x2, [x29, -16]
ldr	w0, [x0, x2, lsl 2]
cmp	w0, w2
bne	.L353
b	.L4
.L354:
ldr	x0, [x29, -8]
ldrsw	x2, [x29, -16]
ldr	w0, [x0, x2, lsl 2]
cmp	w0, w2
beq	.L4
b	.L354
.L355:
ldr	x0, [x29, -8]
ldrsw	x2, [x29, -16]
ldr	w0, [x0, x2, lsl 2]
cmp	w0, w2
bne	.L355
b	.L4
.L356:
ldr	x0, [x29, -8]
ldrsw	x2, [x29, -16]
ldr	w0, [x0, x2, lsl 2]
cmp	w0, w2
beq	.L4
b	.L356
.L357:
ldr	x0, [x29, -8]
ldrsw	x2, [x29, -16]
ldr	w0, [x0, x2, lsl 2]
cmp	w0, w2
bne	.L357
b	.L4
.L358:
ldr	x0, [x29, -8]
ldrsw	x2, [x29, -16]
ldr	w0, [x0, x2, lsl 2]
cmp	w0, w2
bne	.L358
b	.L4
.L359:
ldr	x0, [x29, -8]
ldrsw	x2, [x29, -16]
ldr	w0, [x0, x2, lsl 2]
cmp	w0, w2
bne	.L359
b	.L4
.L360:
ldr	x0, [x29, -8]
ldrsw	x2, [x29, -16]
ldr	w0, [x0, x2, lsl 2]
cmp	w0, w2
bne	.L360
b	.L4
.L361:
ldr	x0, [x29, -8]
ldrsw	x2, [x29, -16]
ldr	w0, [x0, x2, lsl 2]
cmp	w0, w2
bne	.L361
b	.L4
.L362:
ldr	x0, [x29, -8]
ldrsw	x2, [x29, -16]
ldr	w0, [x0, x2, lsl 2]
cmp	w0, w2
bne	.L362
b	.L4
.L363:
ldr	x0, [x29, -8]
ldrsw	x2, [x29, -16]
ldr	w0, [x0, x2, lsl 2]
cmp	w0, w2
beq	.L4
b	.L363
.L364:
ldr	x0, [x29, -8]
ldrsw	x2, [x29, -16]
ldr	w0, [x0, x2, lsl 2]
cmp	w0, w2
bne	.L364
b	.L4
.L365:
ldr	x0, [x29, -8]
ldrsw	x2, [x29, -16]
ldr	w0, [x0, x2, lsl 2]
cmp	w0, w2
bne	.L365
b	.L4
.L366:
ldr	x0, [x29, -8]
ldrsw	x2, [x29, -16]
ldr	w0, [x0, x2, lsl 2]
cmp	w0, w2
bne	.L366
b	.L4
.L367:
ldr	x0, [x29, -8]
ldrsw	x2, [x29, -16]
ldr	w0, [x0, x2, lsl 2]
cmp	w0, w2
bne	.L367
b	.L4
.L368:
ldr	x0, [x29, -8]
ldrsw	x2, [x29, -16]
ldr	w0, [x0, x2, lsl 2]
cmp	w0, w2
beq	.L4
b	.L368
.L369:
ldr	x0, [x29, -8]
ldrsw	x2, [x29, -16]
ldr	w0, [x0, x2, lsl 2]
cmp	w0, w2
bne	.L369
b	.L4
.L370:
ldr	x0, [x29, -8]
ldrsw	x2, [x29, -16]
ldr	w0, [x0, x2, lsl 2]
cmp	w0, w2
bne	.L370
b	.L4
.L371:
ldr	x0, [x29, -8]
ldrsw	x2, [x29, -16]
ldr	w0, [x0, x2, lsl 2]
cmp	w0, w2
bne	.L371
b	.L4
.L372:
ldr	x0, [x29, -8]
ldrsw	x2, [x29, -16]
ldr	w0, [x0, x2, lsl 2]
cmp	w0, w2
beq	.L4
b	.L372
.L373:
ldr	x0, [x29, -8]
ldrsw	x2, [x29, -16]
ldr	w0, [x0, x2, lsl 2]
cmp	w0, w2
bne	.L373
b	.L4
.L374:
ldr	x0, [x29, -8]
ldrsw	x2, [x29, -16]
ldr	w0, [x0, x2, lsl 2]
cmp	w0, w2
bne	.L374
b	.L4
.L375:
ldr	x0, [x29, -8]
ldrsw	x2, [x29, -16]
ldr	w0, [x0, x2, lsl 2]
cmp	w0, w2
bne	.L375
b	.L4
.L376:
ldr	x0, [x29, -8]
ldrsw	x2, [x29, -16]
ldr	w0, [x0, x2, lsl 2]
cmp	w0, w2
bne	.L376
b	.L4
.L377:
ldr	x0, [x29, -8]
ldrsw	x2, [x29, -16]
ldr	w0, [x0, x2, lsl 2]
cmp	w0, w2
bne	.L377
b	.L4
.L378:
ldr	x0, [x29, -8]
ldrsw	x2, [x29, -16]
ldr	w0, [x0, x2, lsl 2]
cmp	w0, w2
bne	.L378
b	.L4
.L379:
ldr	x0, [x29, -8]
ldrsw	x2, [x29, -16]
ldr	w0, [x0, x2, lsl 2]
cmp	w0, w2
bne	.L379
b	.L4
.L380:
ldr	x0, [x29, -8]
ldrsw	x2, [x29, -16]
ldr	w0, [x0, x2, lsl 2]
cmp	w0, w2
bne	.L380
b	.L4
.L381:
ldr	x0, [x29, -8]
ldrsw	x2, [x29, -16]
ldr	w0, [x0, x2, lsl 2]
cmp	w0, w2
bne	.L381
b	.L4
.L382:
ldr	x0, [x29, -8]
ldrsw	x2, [x29, -16]
ldr	w0, [x0, x2, lsl 2]
cmp	w0, w2
bne	.L382
b	.L4
.L383:
ldr	x0, [x29, -8]
ldrsw	x2, [x29, -16]
ldr	w0, [x0, x2, lsl 2]
cmp	w0, w2
bne	.L383
b	.L4
.L384:
ldr	x0, [x29, -8]
ldrsw	x2, [x29, -16]
ldr	w0, [x0, x2, lsl 2]
cmp	w0, w2
bne	.L384
b	.L4
.L385:
ldr	x0, [x29, -8]
ldrsw	x2, [x29, -16]
ldr	w0, [x0, x2, lsl 2]
cmp	w0, w2
bne	.L385
b	.L4
.L386:
ldr	x0, [x29, -8]
ldrsw	x2, [x29, -16]
ldr	w0, [x0, x2, lsl 2]
cmp	w0, w2
bne	.L386
b	.L4
.L387:
ldr	x0, [x29, -8]
ldrsw	x2, [x29, -16]
ldr	w0, [x0, x2, lsl 2]
cmp	w0, w2
bne	.L387
b	.L4
.L388:
ldr	x0, [x29, -8]
ldrsw	x2, [x29, -16]
ldr	w0, [x0, x2, lsl 2]
cmp	w0, w2
bne	.L388
b	.L4
.L389:
ldr	x0, [x29, -8]
ldrsw	x2, [x29, -16]
ldr	w0, [x0, x2, lsl 2]
cmp	w0, w2
beq	.L4
b	.L389
.L390:
ldr	x0, [x29, -8]
ldrsw	x2, [x29, -16]
ldr	w0, [x0, x2, lsl 2]
cmp	w0, w2
bne	.L390
b	.L4
.L391:
ldr	x0, [x29, -8]
ldrsw	x2, [x29, -16]
ldr	w0, [x0, x2, lsl 2]
cmp	w0, w2
beq	.L4
b	.L391
.L392:
ldr	x0, [x29, -8]
ldrsw	x2, [x29, -16]
ldr	w0, [x0, x2, lsl 2]
cmp	w0, w2
bne	.L392
b	.L4
.L393:
ldr	x0, [x29, -8]
ldrsw	x2, [x29, -16]
ldr	w0, [x0, x2, lsl 2]
cmp	w0, w2
beq	.L4
b	.L393
.L394:
ldr	x0, [x29, -8]
ldrsw	x2, [x29, -16]
ldr	w0, [x0, x2, lsl 2]
cmp	w0, w2
bne	.L394
b	.L4
.L395:
ldr	x0, [x29, -8]
ldrsw	x2, [x29, -16]
ldr	w0, [x0, x2, lsl 2]
cmp	w0, w2
bne	.L395
b	.L4
.L396:
ldr	x0, [x29, -8]
ldrsw	x2, [x29, -16]
ldr	w0, [x0, x2, lsl 2]
cmp	w0, w2
bne	.L396
b	.L4
.L397:
ldr	x0, [x29, -8]
ldrsw	x2, [x29, -16]
ldr	w0, [x0, x2, lsl 2]
cmp	w0, w2
beq	.L4
b	.L397
.L398:
ldr	x0, [x29, -8]
ldrsw	x2, [x29, -16]
ldr	w0, [x0, x2, lsl 2]
cmp	w0, w2
bne	.L398
b	.L4
.L399:
ldr	x0, [x29, -8]
ldrsw	x2, [x29, -16]
ldr	w0, [x0, x2, lsl 2]
cmp	w0, w2
beq	.L4
b	.L399
.L400:
ldr	x0, [x29, -8]
ldrsw	x2, [x29, -16]
ldr	w0, [x0, x2, lsl 2]
cmp	w0, w2
bne	.L400
b	.L4
.L401:
ldr	x0, [x29, -8]
ldrsw	x2, [x29, -16]
ldr	w0, [x0, x2, lsl 2]
cmp	w0, w2
bne	.L401
b	.L4
.L402:
ldr	x0, [x29, -8]
ldrsw	x2, [x29, -16]
ldr	w0, [x0, x2, lsl 2]
cmp	w0, w2
beq	.L4
b	.L402
.L403:
ldr	x0, [x29, -8]
ldrsw	x2, [x29, -16]
ldr	w0, [x0, x2, lsl 2]
cmp	w0, w2
bne	.L403
b	.L4
.L404:
ldr	x0, [x29, -8]
ldrsw	x2, [x29, -16]
ldr	w0, [x0, x2, lsl 2]
cmp	w0, w2
bne	.L404
b	.L4
.L405:
ldr	x0, [x29, -8]
ldrsw	x2, [x29, -16]
ldr	w0, [x0, x2, lsl 2]
cmp	w0, w2
bne	.L405
b	.L4
.L406:
ldr	x0, [x29, -8]
ldrsw	x2, [x29, -16]
ldr	w0, [x0, x2, lsl 2]
cmp	w0, w2
beq	.L4
b	.L406
.L407:
ldr	x0, [x29, -8]
ldrsw	x2, [x29, -16]
ldr	w0, [x0, x2, lsl 2]
cmp	w0, w2
bne	.L407
b	.L4
.L408:
ldr	x0, [x29, -8]
ldrsw	x2, [x29, -16]
ldr	w0, [x0, x2, lsl 2]
cmp	w0, w2
bne	.L408
b	.L4
.L409:
ldr	x0, [x29, -8]
ldrsw	x2, [x29, -16]
ldr	w0, [x0, x2, lsl 2]
cmp	w0, w2
bne	.L409
b	.L4
.L410:
ldr	x0, [x29, -8]
ldrsw	x2, [x29, -16]
ldr	w0, [x0, x2, lsl 2]
cmp	w0, w2
bne	.L410
b	.L4
.L411:
ldr	x0, [x29, -8]
ldrsw	x2, [x29, -16]
ldr	w0, [x0, x2, lsl 2]
cmp	w0, w2
beq	.L4
b	.L411
.L412:
ldr	x0, [x29, -8]
ldrsw	x2, [x29, -16]
ldr	w0, [x0, x2, lsl 2]
cmp	w0, w2
bne	.L412
b	.L4
.L413:
ldr	x0, [x29, -8]
ldrsw	x2, [x29, -16]
ldr	w0, [x0, x2, lsl 2]
cmp	w0, w2
bne	.L413
b	.L4
.L414:
ldr	x0, [x29, -8]
ldrsw	x2, [x29, -16]
ldr	w0, [x0, x2, lsl 2]
cmp	w0, w2
bne	.L414
b	.L4
.L415:
ldr	x0, [x29, -8]
ldrsw	x2, [x29, -16]
ldr	w0, [x0, x2, lsl 2]
cmp	w0, w2
beq	.L4
b	.L415
.L416:
ldr	x0, [x29, -8]
ldrsw	x2, [x29, -16]
ldr	w0, [x0, x2, lsl 2]
cmp	w0, w2
bne	.L416
b	.L4
.L417:
ldr	x0, [x29, -8]
ldrsw	x2, [x29, -16]
ldr	w0, [x0, x2, lsl 2]
cmp	w0, w2
bne	.L417
b	.L4
.L418:
ldr	x0, [x29, -8]
ldrsw	x2, [x29, -16]
ldr	w0, [x0, x2, lsl 2]
cmp	w0, w2
bne	.L418
b	.L4
.L419:
ldr	x0, [x29, -8]
ldrsw	x2, [x29, -16]
ldr	w0, [x0, x2, lsl 2]
cmp	w0, w2
beq	.L4
b	.L419
.L420:
ldr	x0, [x29, -8]
ldrsw	x2, [x29, -16]
ldr	w0, [x0, x2, lsl 2]
cmp	w0, w2
bne	.L420
b	.L4
.L421:
ldr	x0, [x29, -8]
ldrsw	x2, [x29, -16]
ldr	w0, [x0, x2, lsl 2]
cmp	w0, w2
bne	.L421
b	.L4
.L422:
ldr	x0, [x29, -8]
ldrsw	x2, [x29, -16]
ldr	w0, [x0, x2, lsl 2]
cmp	w0, w2
beq	.L4
b	.L422
.L423:
ldr	x0, [x29, -8]
ldrsw	x2, [x29, -16]
ldr	w0, [x0, x2, lsl 2]
cmp	w0, w2
bne	.L423
b	.L4
.L424:
ldr	x0, [x29, -8]
ldrsw	x2, [x29, -16]
ldr	w0, [x0, x2, lsl 2]
cmp	w0, w2
bne	.L424
b	.L4
.L425:
ldr	x0, [x29, -8]
ldrsw	x2, [x29, -16]
ldr	w0, [x0, x2, lsl 2]
cmp	w0, w2
bne	.L425
b	.L4
.L426:
ldr	x0, [x29, -8]
ldrsw	x2, [x29, -16]
ldr	w0, [x0, x2, lsl 2]
cmp	w0, w2
beq	.L4
b	.L426
.L427:
ldr	x0, [x29, -8]
ldrsw	x2, [x29, -16]
ldr	w0, [x0, x2, lsl 2]
cmp	w0, w2
bne	.L427
b	.L4
.L428:
ldr	x0, [x29, -8]
ldrsw	x2, [x29, -16]
ldr	w0, [x0, x2, lsl 2]
cmp	w0, w2
beq	.L4
b	.L428
.L429:
ldr	x0, [x29, -8]
ldrsw	x2, [x29, -16]
ldr	w0, [x0, x2, lsl 2]
cmp	w0, w2
bne	.L429
b	.L4
.L430:
ldr	x0, [x29, -8]
ldrsw	x2, [x29, -16]
ldr	w0, [x0, x2, lsl 2]
cmp	w0, w2
beq	.L4
b	.L430
.L431:
ldr	x0, [x29, -8]
ldrsw	x2, [x29, -16]
ldr	w0, [x0, x2, lsl 2]
cmp	w0, w2
bne	.L431
b	.L4
.L432:
ldr	x0, [x29, -8]
ldrsw	x2, [x29, -16]
ldr	w0, [x0, x2, lsl 2]
cmp	w0, w2
bne	.L432
b	.L4
.L433:
ldr	x0, [x29, -8]
ldrsw	x2, [x29, -16]
ldr	w0, [x0, x2, lsl 2]
cmp	w0, w2
bne	.L433
b	.L4
.L434:
ldr	x0, [x29, -8]
ldrsw	x2, [x29, -16]
ldr	w0, [x0, x2, lsl 2]
cmp	w0, w2
bne	.L434
b	.L4
.L435:
ldr	x0, [x29, -8]
ldrsw	x2, [x29, -16]
ldr	w0, [x0, x2, lsl 2]
cmp	w0, w2
bne	.L435
b	.L4
.L436:
ldr	x0, [x29, -8]
ldrsw	x2, [x29, -16]
ldr	w0, [x0, x2, lsl 2]
cmp	w0, w2
bne	.L436
b	.L4
.L437:
ldr	x0, [x29, -8]
ldrsw	x2, [x29, -16]
ldr	w0, [x0, x2, lsl 2]
cmp	w0, w2
beq	.L4
b	.L437
.L438:
ldr	x0, [x29, -8]
ldrsw	x2, [x29, -16]
ldr	w0, [x0, x2, lsl 2]
cmp	w0, w2
bne	.L438
b	.L4
.L439:
ldr	x0, [x29, -8]
ldrsw	x2, [x29, -16]
ldr	w0, [x0, x2, lsl 2]
cmp	w0, w2
bne	.L439
b	.L4
.L440:
ldr	x0, [x29, -8]
ldrsw	x2, [x29, -16]
ldr	w0, [x0, x2, lsl 2]
cmp	w0, w2
beq	.L4
b	.L440
.L441:
ldr	x0, [x29, -8]
ldrsw	x2, [x29, -16]
ldr	w0, [x0, x2, lsl 2]
cmp	w0, w2
bne	.L441
b	.L4
.L442:
ldr	x0, [x29, -8]
ldrsw	x2, [x29, -16]
ldr	w0, [x0, x2, lsl 2]
cmp	w0, w2
bne	.L442
b	.L4
.L443:
ldr	x0, [x29, -8]
ldrsw	x2, [x29, -16]
ldr	w0, [x0, x2, lsl 2]
cmp	w0, w2
bne	.L443
b	.L4
.L444:
ldr	x0, [x29, -8]
ldrsw	x2, [x29, -16]
ldr	w0, [x0, x2, lsl 2]
cmp	w0, w2
bne	.L444
b	.L4
.L445:
ldr	x0, [x29, -8]
ldrsw	x2, [x29, -16]
ldr	w0, [x0, x2, lsl 2]
cmp	w0, w2
beq	.L4
b	.L445
.L446:
ldr	x0, [x29, -8]
ldrsw	x2, [x29, -16]
ldr	w0, [x0, x2, lsl 2]
cmp	w0, w2
bne	.L446
b	.L4
.L447:
ldr	x0, [x29, -8]
ldrsw	x2, [x29, -16]
ldr	w0, [x0, x2, lsl 2]
cmp	w0, w2
bne	.L447
b	.L4
.L448:
ldr	x0, [x29, -8]
ldrsw	x2, [x29, -16]
ldr	w0, [x0, x2, lsl 2]
cmp	w0, w2
beq	.L4
b	.L448
.L449:
ldr	x0, [x29, -8]
ldrsw	x2, [x29, -16]
ldr	w0, [x0, x2, lsl 2]
cmp	w0, w2
bne	.L449
b	.L4
.L450:
ldr	x0, [x29, -8]
ldrsw	x2, [x29, -16]
ldr	w0, [x0, x2, lsl 2]
cmp	w0, w2
bne	.L450
b	.L4
.L451:
ldr	x0, [x29, -8]
ldrsw	x2, [x29, -16]
ldr	w0, [x0, x2, lsl 2]
cmp	w0, w2
bne	.L451
b	.L4
.L452:
ldr	x0, [x29, -8]
ldrsw	x2, [x29, -16]
ldr	w0, [x0, x2, lsl 2]
cmp	w0, w2
bne	.L452
b	.L4
.L453:
ldr	x0, [x29, -8]
ldrsw	x2, [x29, -16]
ldr	w0, [x0, x2, lsl 2]
cmp	w0, w2
beq	.L4
b	.L453
.L454:
ldr	x0, [x29, -8]
ldrsw	x2, [x29, -16]
ldr	w0, [x0, x2, lsl 2]
cmp	w0, w2
bne	.L454
b	.L4
.L455:
ldr	x0, [x29, -8]
ldrsw	x2, [x29, -16]
ldr	w0, [x0, x2, lsl 2]
cmp	w0, w2
bne	.L455
b	.L4
.L456:
ldr	x0, [x29, -8]
ldrsw	x2, [x