.arch armv8-a
.file
.section	__TEXT,__text,regular,pure_instructions
.align	2
.global	_func0                          ## -- Begin function func0
.p2align	4,,11
_func0:                                 ## @func0
    .cfi_startproc
stp	x29, x30, [sp, -32]!
.cfi_def_cfa_offset 32
.cfi_offset 29, -32
.cfi_offset 30, -24
mov	x29, sp
.cfi_def_cfa_register 29
str	wzr, [sp, 28]
str	x0, [sp, 24]
ldrb	w0, [x29, 28]
ldrsw	x1, [sp, 24]
cmp	w0, 0
csel	w0, w1, wzr, ne
ret
.cfi_endproc
.segments_via_symbols
.section	__TEXT,__text,regular,pure_instructions
.global	_func0
.bss
.align	3
.set	.__TEXT,__text
.type	_func0, %function
.size	_func0, $简单代码长度
_func0:
    .cfi_startproc
stp	x29, x30, [sp, -48]!
.cfi_def_cfa_offset 48
.cfi_offset 29, -48
.cfi_offset 30, -40
mov	x29, sp
.cfi_def_cfa_register 29
str	x0, [sp, 40]
str	wzr, [sp, 36]
ldrb	w0, [x29, 36]
ldrsh	x1, [x29, 32]
ldrsh	x0, [x0, x1]
cbnz	w0, .L7
ldp	x29, x30, [sp], 48
.cfi_remember_state
.cfi_restore 30
.cfi_restore 29
.cfi_def_cfa_offset 0
ret
.L7:
.cfi_restore_state
ldr	w0, [sp, 36]
add	w0, w0, 1
str	w0, [sp, 36]
ldp	x29, x30, [sp], 48
.cfi_restore 30
.cfi_restore 29
.cfi_def_cfa_offset 0
ret
.cfi_endproc
.segments
.section	__TEXT,__rodata,.@class,VMA,public
.align	3
.set	.__TEXT,__rodata
.type	__bss_start__, %object
.size	__bss_start__, $简单数据段长度
__bss_start__':
.zero	(____简单数据段长度__)
.type	__TEXT,__text
.size	__TEXT,__simple_code_length
.__TEXT:
.section	__TEXT,__text,regular,pure_instructions
.global	_func0
.bss
.align	2
.set	.__TEXT,__text
.type	_func0, %function
.size	_func0, $简单代码长度
_func0:
    .cfi_startproc
stp	x29, x30, [sp, -48]!
.cfi_def_cfa_offset 48
.cfi_offset 29, -48
.cfi_offset 30, -40
mov	x29, sp
.cfi_def_cfa_register 29
str	x0, [sp, 40]
str	wzr, [sp, 36]
ldrb	w0, [x29, 36]
ldr	w1, [x29, 28]
ldr	x1, [x29, 32]
ldrsh	x0, [x0, x1]
cbz	w0, .L1
.L6:
ldr	w0, [sp, 36]
add	w0, w0, 1
str	w0, [sp, 36]
ldp	x29, x30, [sp], 48
.cfi_remember_state
.cfi_restore 30
.cfi_restore 29
.cfi_def_cfa_offset 0
ret
.L1:
.cfi_restore_state
ldp	x29, x30, [sp], 48
.cfi_restore 30
.cfi_restore 29
.cfi_def_cfa_offset 0
ret
.cfi_endproc
.sectors
.counts
.size	__TEXT,__simple_code_length
.size	__bss_start__, $简单数据段长度
.counts
.begin
.section	__TEXT,__text,regular,pure_instructions
.global	_func0
.bss
.align	3
.set	.__TEXT,__text
.type	_func0, %function
.size	_func0, $简单代码长度
_func0:
    .cfi_startproc
stp	x29, x30, [sp, -48]!
.cfi_def_cfa_offset 48
.cfi_offset 29, -48
.cfi_offset 30, -40
mov	x29, sp
.cfi_def_cfa_register 29
str	x0, [sp, 40]
str	wzr, [sp, 36]
ldrb	w0, [x29, 36]
ldr	w1, [x29, 28]
ldr	x1, [x29, 32]
ldr	x0, [x0, x1]
cbnz	w0, .L7
ldp	x29, x30, [sp], 48
.cfi_remember_state
.cfi_restore 30
.cfi_restore 29
.cfi_def_cfa_offset 0
ret
.L7:
.cfi_restore_state
ldr	w0, [sp, 36]
add	w0, w0, 1
str	w0, [sp, 36]
ldp	x29, x30, [sp], 48
.cfi_restore 30
.cfi_restore 29
.cfi_def_cfa_offset 0
ret
.cfi_endproc
.sections
.section	__TEXT,__rodata,.@class,VMA,public
.align	3
.set	.__TEXT,__rodata
.type	__bss_start__, %object
.size	__bss_start__', $简单数据段长度
__bss_start__':
.zero	(____简单数据段长度__)
.type	__TEXT,__text
.size	__TEXT,__simple_code_length
.__TEXT:
.global	_func0
.global	__bss_start__
.global	__TEXT
.global	__bss_end__
.global	__TEXT_END
.global	__bss_start__
.global	__TEXT_END
.global	__bss_end__
.global	__TEXT_END
.global	__bss_start__
.global	__TEXT_END
.global	__bss_end__
.global	__TEXT_END
.global	__bss_start__
.global	__TEXT_END
.global	__bss_end__
.global	__TEXT_END
.global	__bss_start__
.global	__TEXT_END
.global	__bss_end__
.global	__TEXT_END
.global	__bss_start__
.global	__TEXT_END
.global	__bss_end__
.global	__TEXT_END
.global	__bss_start__
.global	__TEXT_END
.global	__bss_end__
.global	__TEXT_END
.global	__bss_start__
.global	__TEXT_END
.global	__bss_end__
.global	__TEXT_END
.global	__bss_start__
.global	__TEXT_END
.global	__bss_end__
.global	__TEXT_END
.global	__bss_start__
.global	__TEXT_END
.global	__bss_end__
.global	__TEXT_END
.global	__bss_start__
.global	__TEXT_END
.global	__bss_end__
.global	__TEXT_END
.global	__bss_start__
.global	__TEXT_END
.global	__bss_end__
.global	__TEXT_END
.global	__bss_start__
.global	__TEXT_END
.global	__bss_end__
.global	__TEXT_END
.global	__bss_start__
.global	__TEXT_END
.global	__bss_end__
.global	__TEXT_END
.global	__bss_start__
.global	__TEXT_END
.global	__bss_end__
.global	__TEXT_END
.global	__bss_start__
.global	__TEXT_END
.global	__bss_end__
.global	__TEXT_END
.global	__bss_start__
.global	__TEXT_END
.global	__bss_end__
.global	__TEXT_END
.global	__bss_start__
.global	__TEXT_END
.global	__bss_end__
.global	__TEXT_END
.global	__bss_start__
.global	__TEXT_END
.global	__bss_end__
.global	__TEXT_END
.global	__bss_start__
.global	__TEXT_END
.global	__bss_end__
.global	__TEXT_END
.global	__bss_start__
.global	__TEXT_END
.global	__bss_end__
.global	__TEXT_END
.global	__bss_start__
.global	__TEXT_END
.global	__bss_end__
.global	__TEXT_END
.global	__bss_start__
.global	__TEXT_END
.global	__bss_end__
.global	__TEXT_END
.global	__bss_start__
.global	__TEXT_END
.global	__bss_end__
.global	__TEXT_END
.global	__bss_start__
.global	__TEXT_END
.global	__bss_end__
.global	__TEXT_END
.global	__bss_start__
.global	__TEXT_END
.global	__bss_end__
.global	__TEXT_END
.global	__bss_start__
.global	__TEXT_END
.global	__bss_end__
.global	__TEXT_END
.global	__bss_start__
.global	__TEXT_END
.global	__bss_end__
.global	__TEXT_END
.global	__bss_start__
.global	__TEXT_END
.global	__bss_end__
.global	__TEXT_END
.global	__bss_start__
.global	__TEXT_END
.global	__bss_end__
.global	__TEXT_END
.global	__bss_start__
.global	__TEXT_END
.global	__bss_end__
.global	__TEXT_END
.global	__bss_start__
.global	__TEXT_END
.global	__bss_end__
.global	__TEXT_END
.global	__bss_start__
.global	__TEXT_END
.global	__bss_end__
.global	__TEXT_END
.global	__bss_start__
.global	__TEXT_END
.global	__bss_end__
.global	__TEXT_END
.global	__bss_start__
.global	__TEXT_END
.global	__bss_end__
.global	__TEXT_END
.global	__bss_start__
.global	__TEXT_END
.global	__bss_end__
.global	__TEXT_END
.global	__bss_start__
.global	__TEXT_END
.global	__bss_end__
.global	__TEXT_END
.global	__bss_start__
.global	__TEXT_END
.global	__bss_end__
.global	__TEXT_END
.global	__bss_start__
.global	__TEXT_END
.global	__bss_end__
.global	__TEXT_END
.global	__bss_start__
.global	__TEXT_END
.global	__bss_end__
.global	__TEXT_END
.global	__bss_start__
.global	__TEXT_END
.global	__bss_end__
.global	__TEXT_END
.global	__bss_start__
.global	__TEXT_END
.global	__bss_end__
.global	__TEXT_END
.global	__bss_start__
.global	__TEXT_END
.global	__bss_end__
.global	__TEXT_END
.global	__bss_start__
.global	__TEXT_END
.global	__bss_end__
.global	__TEXT_END
.global	__bss_start__
.global	__TEXT_END
.global	__bss_end__
.global	__TEXT_END
.global	__bss_start__
.global	__TEXT_END
.global	__bss_end__
.global	__TEXT_END
.global	__bss_start__
.global	__TEXT_END
.global	__bss_end__
.global	__TEXT_END
.global	__bss_start__
.global	__TEXT_END
.global	__bss_end__
.global	__TEXT_END
.global	__bss_start__
.global	__TEXT_END
.global	__bss_end__
.global	__TEXT_END
.global	__bss_start__
.global	__TEXT_END
.global	__bss_end__
.global	__TEXT_END
.global	__bss_start__
.global	__TEXT_END
.global	__bss_end__
.global	__TEXT_END
.global	__bss_start__
.global	__TEXT_END
.global	__bss_end__
.global	__TEXT_END
.global	__bss_start__
.global	__TEXT_END
.global	__bss_end__
.global	__TEXT_END
.global	__bss_start__
.global	__TEXT_END
.global	__bss_end__
.global	__TEXT_END
.global	__bss_start__
.global	__TEXT_END
.global	__bss_end__
.global	__TEXT_END
.global	__bss_start__
.global	__TEXT_END
.global	__bss_end__
.global	__TEXT_END
.global	__bss_start__
.global	__TEXT_END
.global	__bss_end__
.global	__TEXT_END
.global	__bss_start__
.global	__TEXT_END
.global	__bss_end__
.global	__TEXT_END
.global	__bss_start__
.global	__TEXT_END
.global	__bss_end__
.global	__TEXT_END
.global	__bss_start__
.global	__TEXT_END
.global	__bss_end__
.global	__TEXT_END
.global	__bss_start__
.global	__TEXT_END
.global	__bss_end__
.global	__TEXT_END
.global	__bss_start__
.global	__TEXT_END
.global	__bss_end__
.global	__TEXT_END
.global	__bss_start__
.global	__TEXT_END
.global	__bss_end__
.global	__TEXT_END
.global	__bss_start__
.global	__TEXT_END
.global	__bss_end__
.global	__TEXT_END
.global	__bss_start__
.global	__TEXT_END
.global	__bss_end__
.global	__TEXT_END
.global	__bss_start__
.global	__TEXT_END
.global	__bss_end__
.global	__TEXT_END
.global	__bss_start__
.global	__TEXT_END
.global	__bss_end__
.global	__TEXT_END
.global	__bss_start__
.global	__TEXT_END
.global	__bss_end__
.global	__TEXT_END
.global	__bss_start__
.global	__TEXT_END
.global	__bss_end__
.global	__TEXT_END
.global	__bss_start__
.global	__TEXT_END
.global	__bss_end__
.global	__TEXT_END
.global	__bss_start__
.global	__TEXT_END
.global	__bss_end__
.global	__TEXT_END
.global	__bss_start__
.global	__TEXT_END
.global	__bss_end__
.global	__TEXT_END
.global	__bss_start__
.global	__TEXT_END
.global	__bss_end__
.global	__TEXT_END
.global	__bss_start__
.global	__TEXT_END
.global	__bss_end__
.global	__TEXT_END
.global	__bss_start__
.global	__TEXT_END
.global	__bss_end__
.global	__TEXT_END
.global	__bss_start__
.global	__TEXT_END
.global	__bss_end__
.global	__TEXT_END
.global	__bss_start__
.global	__TEXT_END
.global	__bss_end__
.global	__TEXT_END
.global	__bss_start__
.global	__TEXT_END
.global	__bss_end__
.global	__TEXT_END
.global	__bss_start__
.global	__TEXT_END
.global	__bss_end__
.global	__TEXT_END
.global	__bss_start__
.global	__TEXT_END
.global	__bss_end__
.global	__TEXT_END
.global	__bss_start__
.global	__TEXT_END
.global	__bss_end__
.global	__TEXT_END
.global	__bss_start__
.global	__TEXT_END
.global	__bss_end__
.global	__TEXT_END
.global	__bss_start__
.global	__TEXT_END
.global	__bss_end__
.global	__TEXT_END
.global	__bss_start__
.global	__TEXT_END
.global	__bss_end__
.global	__TEXT_END
.global	__bss_start__
.global	__TEXT_END
.global	__bss_end__
.global	__TEXT_END
.global	__bss_start__
.global	__TEXT_END
.global	__bss_end__
.global	__TEXT_END
.global	__bss_start__
.global	__TEXT_END
.global	__bss_end__
.global	__TEXT_END
.global	__bss_start__
.global	__TEXT_END
.global	__bss_end__
.global	__TEXT_END
.global	__bss_start__
.global	__TEXT_END
.global	__bss_end__
.global	__TEXT_END
.global	__bss_start__
.global	__TEXT_END
.global	__bss_end__
.global	__TEXT_END
.global	__bss_start__
.global	__TEXT_END
.global	__bss_end__
.global	__TEXT_END
.global	__bss_start__
.global	__TEXT_END
.global	__bss_end__
.global	__TEXT_END
.global	__bss_start__
.global	__TEXT_END
.global	__bss_end__
.global	__TEXT_END
.global	__bss_start__
.global	__TEXT_END
.global	__bss_end__
.global	__TEXT_END
.global	__bss_start__
.global	__TEXT_END
.global	__bss_end__
.global	__TEXT_END
.global	__bss_start__
.global	__TEXT_END
.global	__bss_end__
.global	__TEXT_END
.global	__bss_start__
.global	__TEXT_END
.global	__bss_end__
.global	__TEXT_END
.global	__bss_start__
.global	__TEXT_END
.global	__bss_end__
.global	__TEXT_END
.global	__bss_start__
.global	__TEXT_END
.global	__bss_end__
.global	__TEXT_END
.global	__bss_start__
.global	__TEXT_END
.global	__bss_end__
.global	__TEXT_END
.global	__bss_start__
.global	__TEXT_END
.global	__bss_end__
.global	__TEXT_END
.global	__bss_start__
.global	__TEXT_END
.global	__bss_end__
.global	__TEXT_END
.global	__bss_start__
.global	__TEXT_END
.global	__bss_end__
.global	__TEXT_END
.global	__bss_start__
.global	__TEXT_END
.global	__bss_end__
.global	__TEXT_END
.global	__bss_start__
.global	__TEXT_END
.global	__bss_end__
.global	__TEXT_END
.global	__bss_start__
.global	__TEXT_END
.global	__bss_end__
.global	__TEXT_END
.global	__bss_start__
.global	__TEXT_END
.global	__bss_end__
.global	__TEXT_END
.global	__bss_start__
.global	__TEXT_END
.global	__bss_end__
.global	__TEXT_END
.global	__bss_start__
.global	__TEXT_END
.global	__bss_end__
.global	__TEXT_END
.global	__bss_start__
.global	__TEXT_END
.global	__bss_end__
.global	__TEXT_END
.global	__bss_start__
.global	__TEXT_END
.global	__bss_end__
.global	__TEXT_END
.global	__bss_start__
.global	__TEXT_END
.global	__bss_end__
.global	__TEXT_END
.global	__bss_start__
.global	__TEXT_END
.global	__bss_end__
.global	__TEXT_END
.global	__bss_start__
.global	__TEXT_END
.global	__bss_end__
.global	__TEXT_END
.global	__bss_start__
.global	__TEXT_END
.global	__bss_end__
.global	__TEXT_END
.global	__bss_start__
.global	__TEXT_END
.global	__bss_end__
.global	__TEXT_END
.global	__bss_start__
.global	__TEXT_END
.global	__bss_end__
.global	__TEXT_END
.global	__bss_start__
.global	__TEXT_END
.global	__bss_end__
.global	__TEXT_END
.global	__bss_start__
.global	__TEXT_END
.global	__bss_end__
.global	__TEXT_END
.global	__bss_start__
.global	__TEXT_END
.global	__bss_end__
.global	__TEXT_END
.global	__bss_start__
.global	__TEXT_END
.global	__bss_end__
.global	__TEXT_END
.global	__bss_start__
.global	__TEXT_END
.global	__bss_end__
.global	__TEXT_END
.global	__bss_start__
.global	__TEXT_END
.global	__bss_end__
.global	__TEXT_END
.global	__bss_start__
.global	__TEXT_END
.global	__bss_end__
.global	__TEXT_END
.global	__bss_start__
.global	__TEXT_END
.global	__bss_end__
.global	__TEXT_END
.global	__bss_start__
.global	__TEXT_END
.global	__bss_end__
.global	__TEXT_END
.global	__bss_start__
.global	__TEXT_END
.global	__bss_end__
.global	__TEXT_END
.global	__bss_start__
.global	__TEXT_END
.global	__bss_end__
.global	__TEXT_END
.global	__bss_start__
.global	__TEXT_END
.global	__bss_end__
.global	__TEXT_END
.global	__bss_start__
.global	__TEXT_END
.global	__bss_end__
.global	__TEXT_END
.global	__bss_start__
.global	__TEXT_END
.global	__bss_end__
.global	__TEXT_END
.global	__bss_start__
.global	__TEXT_END
.global	__bss_end__
.global	__TEXT_END
.global	__bss_start__
.global	__TEXT_END
.global	__bss_end__
.global	__TEXT_END
.global	__bss_start__
.global	__TEXT_END
.global	__bss_end__
.global	__TEXT_END
.global	__bss_start__
.global	__TEXT_END
.global	__bss_end__
.global	__TEXT_END
.global	__bss_start__
.global	__TEXT_END
.global	__bss_end__
.global	__TEXT_END
.global	__bss_start__
.global	__TEXT_END
.global	__bss_end__
.global	__TEXT_END
.global	__bss_start__
.global	__TEXT_END
.global	__bss_end__
.global	__TEXT_END
.global	__bss_start__
.global	__TEXT_END
.global	__bss_end__
.global	__TEXT_END
.global	__bss_start__
.global	__TEXT_END
.global	__bss_end__
.global	__TEXT_END
.global	__bss_start__
.global	__TEXT_END
.global	__bss_end__
.global	__TEXT_END
.global	__bss_start__
.global	__TEXT_END
.global	__bss_end__
.global	__TEXT_END
.global	__bss_start__
.global	__TEXT_END
.global	__bss_end__
.global	__TEXT_END
.global	__bss_start__
.global	__TEXT_END
.global	__bss_end__
.global	__TEXT_END
.global	__bss_start__
.global	__TEXT_END
.global	__bss_end__
.global	__TEXT_END
.global	__bss_start__
.global	__TEXT_END
.global	__bss_end__
.global	__TEXT_END
.global	__bss_start__
.global	__TEXT_END
.global	__bss_end__
.global	__TEXT_END
.global	__bss_start__
.global	__TEXT_END
.global	__bss_end__
.global	__TEXT_END
.global	__bss_start__
.global	__TEXT_END
.global	__bss_end__
.global	__TEXT_END
.global	__bss_start__
.global	__TEXT_END
.global	__bss_end__
.global	__TEXT_END
.global	__bss_start__
.global	__TEXT_END
.global	__bss_end__
.global	__TEXT_END
.global	__bss_start__
.global	__TEXT_END
.global	__bss_end__
.global	__TEXT_END
.global	__bss_start__
.global	__TEXT_END
.global	__bss_end__
.global	__TEXT_END
.global	__bss_start__
.global	__TEXT_END
.global	__bss_end__
.global	__TEXT_END
.global	__bss_start__
.global	__TEXT_END
.global	__bss_end__
.global	__TEXT_END
.global	__bss_start__
.global	__TEXT_END
.global	__bss_end__
.global	__TEXT_END
.global	__bss_start__
.global	__TEXT_END
.global	__bss_end__
.global	__TEXT_END
.global	__bss_start__
.global	__TEXT_END
.global	__bss_end__
.global	__TEXT_END
.global	__bss_start__
.global	__TEXT_END
.global	__bss_end__
.global	__TEXT_END
.global	__bss_start__
.global	__TEXT_END
.global	__bss_end__
.global	__TEXT_END
.global	__bss_start__
.global	__TEXT_END
.global	__bss_end__
.global	__TEXT_END
.global	__bss_start__
.global	__TEXT_END
.global	__bss_end__
.global	__TEXT_END
.global	__bss_start__
.global	__TEXT_END
.global	__bss_end__
.global	__TEXT_END
.global	__bss_start__
.global	__TEXT_END
.global	__bss_end__
.global	__TEXT_END
.global	__bss_start__
.global	__TEXT_END
.global	__bss_end__
.global	__TEXT_END
.global	__bss_start__
.global	__TEXT_END
.global	__bss_end__
.global	__TEXT_END
.global	__bss_start__
.global	__TEXT_END
.global	__bss_end__
.global	__TEXT_END
.global	__bss_start__
.global	__TEXT_END
.global	__bss_end__
.global	__TEXT_END
.global	__bss_start__
.global	__TEXT_END
.global	__bss_end__
.global	__TEXT_END
.global	__bss_start__
.global	__TEXT_END
.global	__bss_end__
.global	__TEXT_END
.global	__bss_start__
.global	__TEXT_END
.global	__bss_end__
.global	__TEXT_END
.global	__bss_start__
.global	__TEXT_END
.global	__bss_end__
.global	__TEXT_END
.global	__bss_start__
.global	__TEXT_END
.global	__bss_end__
.global	__TEXT_END
.global	__bss_start__
.global	__TEXT_END
.global	__bss_end__
.global	__TEXT_END
.global	__bss_start__
.global	__TEXT_END
.global	__bss_end__
.global	__TEXT_END
.global	__bss_start__
.global	__TEXT_END
.global	__bss_end__
.global	__TEXT_END
.global	__bss_start__
.global	__TEXT_END
.global	__bss_end__
.global	__TEXT_END
.global	__bss_start__
.global	__TEXT_END
.global	__bss_end__
.global	__TEXT_END
.global	__bss_start__
.global	__TEXT_END
.global	__bss_end__
.global	__TEXT_END
.global	__bss_start__
.global	__TEXT_END
.global	__bss_end__
.global	__TEXT_END
.global	__bss_start__
.global	__TEXT_END
.global	__bss_end__
.global	__TEXT_END
.global	__bss_start__
.global	__TEXT_END
.global	__bss_end__
.global	__TEXT_END
.global	__bss_start__
.global	__TEXT_END
.global	__bss_end__
.global	__TEXT_END
.global	__bss_start__
.global	__TEXT_END
.global	__bss_end__
.global	__TEXT_END
.global	__bss_start__
.global	__TEXT_END
.global	__bss_end__
.global	__TEXT_END
.global	__bss_start__
.global	__TEXT_END
.global	__bss_end__
.global	__TEXT_END
.global	__bss_start__
.global	__TEXT_END
.global	__bss_end__
.global	__TEXT_END
.global	__bss_start__
.global	__TEXT_END
.global	__bss_end__
.global	__TEXT_END
.global	__bss_start__
.global	__TEXT_END
.global	__bss_end__
.global	__TEXT_END
.global	__bss_start__
.global	__TEXT_END
.global	__bss_end__
.global	__TEXT_END
.global	__bss_start__
.global	__TEXT_END
.global	__bss_end__
.global	__TEXT_END
.global	__bss_start__
.global	__TEXT_END
.global	__bss_end__
.global	__TEXT_END
.global	__bss_start__
.global	__TEXT_END
.global	__bss_end__
.global	__TEXT_END
.global	__bss_start__
.global	__TEXT_END
.global	__bss_end__
.global	__TEXT_END
.global	__bss_start__
.global	__TEXT_END
.global	__bss_end__
.global	__TEXT_END
.global	__bss_start__
.global	__TEXT_END
.global	__bss_end__
.global	__TEXT_END
.global	__bss_start__
.global	__TEXT_END
.global	__bss_end__
.global	__TEXT_END
.global	__bss_start__
.global	__TEXT_END
.global	__bss_end__
.global	__TEXT_END
.global	__bss_start__
.global	__TEXT_END
.global	__bss_end__
.global	__TEXT_END
.global	__bss_start__
.global	__TEXT_END
.global	__bss_end__
.global	__TEXT_END
.global	__bss_start__
.global	__TEXT_END
.global	__bss_end__
.global	__TEXT_END
.global	__bss_start__
.global	__TEXT_END
.global	__bss_end__
.global	__TEXT_END
.global	__bss_start__
.global	__TEXT_END
.global	__bss_end__
.global	__TEXT_END
.global	__bss_start__
.global	__TEXT_END
.global	__bss_end__
.global	__TEXT_END
.global	__bss_start__
.global	__TEXT_END
.global	__bss_end__
.global	__TEXT_END
.global	__bss_start__
.global	__TEXT_END
.global	__bss_end__
.global	__TEXT_END
.global	__bss_start__
.global	__TEXT_END
.global	__bss_end__
.global	__TEXT_END
.global	__bss_start__
.global	__TEXT_END
.global	__bss_end__
.global	__TEXT_END
.global	__bss_start__
.global	__TEXT_END
.global	__bss_end__
.global	__TEXT_END
.global	__bss_start__
.global	__TEXT_END
.global	__bss_end__
.global	__TEXT_END
.global	__bss_start__
.global	__TEXT_END
.global	__bss_end__
.global	__TEXT_END
.global	__bss_start__
.global	__TEXT_END
.global	__bss_end__
.global	__TEXT_END
.global	__bss_start__
.global	__TEXT_END
.global	__bss_end__
.global	__TEXT_END
.global	__bss_start__
.global	__TEXT_END
.global	__bss_end__
.global	__TEXT_END
.global	__bss_start__
.global	__TEXT_END
.global	__bss_end__
.global	__TEXT_END
.global	__bss_start__
.global	__TEXT_END
.global	__bss_end__
.global	__TEXT_END
.global	__bss_start__
.global	__TEXT_END
.global	__bss_end__
.global	__TEXT_END
.global	__bss_start__
.global	__TEXT_END
.global	__bss_end__
.global	__TEXT_END
.global	__bss_start__
.global	__TEXT_END
.global	__bss_end__
.global	__TEXT_END
.global	__bss_start__
.global	__TEXT_END
.global	__bss_end__
.global	__TEXT_END
.global	__bss_start__
.global	__TEXT_END
.global	__bss_end__
.global	__TEXT_END
.global	__bss_start__
.global	__TEXT_END
.global	__bss_end__
.global	__TEXT_END
.global	__bss_start__
.global	__TEXT_END
.global	__bss_end__
.global	__TEXT_END
.global	__bss_start__
.global	__TEXT_END
.global	__bss_end__
.global	__TEXT_END
.global	__bss_start__
.global	__TEXT_END
.global	__bss_end__
.global	__TEXT_END
.global	__bss_start__
.global	__TEXT_END
.global	__bss_end__
.global	__TEXT_END
.global	__bss_start__
.global	__TEXT_END
.global	__bss_end__
.global	__TEXT_END
.global	__bss_start__
.global	__TEXT_END
.global	__bss_end__
.global	__TEXT_END
.global	__bss_start__
.global	__TEXT_END
.global	__bss_end__
.global	__TEXT_END
.global	__bss_start__
.global	__TEXT_END
.global	__bss_end__
.global	__TEXT_END
.global	__bss_start__
.global	__TEXT_END
.global	__bss_end__
.global	__TEXT_END
.global	__bss_start__
.global	__TEXT_END
.global	__bss_end__
.global	__TEXT_END
.global	__bss_start__
.global	__TEXT_END
.global	__bss_end__
.global	__TEXT_END
.global	__bss_start__
.global	__TEXT_END
.global	__bss_end__
.global	__TEXT_END
.global	__bss_start__
.global	__TEXT_END
.global	__bss_end__
.global	__TEXT_END
.global	__bss_start__
.global	__TEXT_END
.global	__bss_end__
.global	__TEXT_END
.global	__bss_start__
.global	__TEXT_END
.global	__bss_end__
.global	__TEXT_END
.global	__bss_start__
.global	__TEXT_END
.global	__bss_end__
.global	__TEXT_END
.global	__bss_start__
.global	__TEXT_END
.global	__bss_end__
.global	__TEXT_END
.global	__bss_start__
.global	__TEXT_END
.global	__bss_end__
.global	__TEXT_END
.global	__bss_start__
.global	__TEXT_END
.global	__bss_end__
.global	__TEXT_END
.global	__bss_start__
.global	__TEXT_END
.global	__bss_end__
.global	__TEXT_END
.global	__bss_start__
.global	__TEXT_END
.global	__bss_end__
.global	__TEXT_END
.global	__bss_start__
.global	__TEXT_END
.global	__bss_end__
.global	__TEXT_END
.global	__bss_start__
.global	__TEXT_END
.global	__bss_end__
.global	__TEXT_END
.global	__bss_start__
.global	__TEXT_END
.global	__bss_end__
.global	__TEXT_END
.global	__bss_start__
.global	__TEXT_END
.global	__bss_end__
.global	__TEXT_END
.global	__bss_start__
.global	__TEXT_END
.global	__bss_end__
.global	__TEXT_END
.global	__bss_start__
.global	__TEXT_END
.global	__bss_end__
.global	__TEXT_END
.global	__bss_start__
.global	__TEXT_END
.global	__bss_end__
.global	__TEXT_END
.global	__bss_start__
.global	__TEXT_END
.global	__bss_end__
.global	__TEXT_END
.global	__bss_start__
.global	__TEXT_END
.global	__bss_end__
.global	__TEXT_END
.global	__bss_start__
.global	__TEXT_END
.global	__bss_end__
.global	__TEXT_END
.global	__bss_start__
.global	__TEXT_END
.global	__bss_end__
.global	__TEXT_END
.global	__bss_start__
.global	__TEXT_END
.global	__bss_end__
.global	__TEXT_END
.global	__bss_start__
.global	__TEXT_END
.global	__bss_end__
.global	__TEXT_END
.global	__bss_start__
.global	__TEXT_END
.global	__bss_end__
.global	__TEXT_END
.global	__bss_start__
.global	__TEXT_END
.global	__bss_end__
.global	__TEXT_END
.global	__bss_start__
.global	__TEXT_END
.global	__bss_end__
.global	__TEXT_END
.global	__bss_start__
.global	__TEXT_END
.global	__bss_end__
.global	__TEXT_END
.global	__bss_start__
.global	__TEXT_END
.global	__bss_end__
.global	__TEXT_END
.global	__bss_start__
.global	__TEXT_END
.global	__bss_end__
.global	__TEXT_END
.global	__bss_start__
.global	__TEXT_END
.global	__bss_end__
.global	__TEXT_END
.global	__bss_start__
.global	__TEXT_END
.global	__bss_end__
.global	__TEXT_END
.global	__bss_start__
.global	__TEXT_END
.global	__bss_end__
.global	__TEXT_END
.global	__bss_start__
.global	__TEXT_END
.global	__bss_end__
.global	__TEXT_END
.global	__bss_start__
.global	__TEXT_END
.global	__bss_end__
.global	__TEXT_END
.global	__bss_start__
.global	__TEXT_END
.global	__bss_end__
.global	__TEXT_END
.global	__bss_start__
.global	__TEXT_END
.global	__bss_end__
.global	__TEXT_END
.global	__bss_start__
.global	__TEXT_END
.global	__bss_end__
.global	__TEXT_END
.global	__bss_start__
.global	__TEXT_END
.global	__bss_end__
.global	__TEXT_END
.global	__bss_start__
.global	__TEXT_END
.global	__bss_end__
.global	__TEXT_END
.global	__bss_start__
.global	__TEXT_END
.global	__bss_end__
.global	__TEXT_END
.global	__bss_start__
.global	__TEXT_END
.global	__bss_end__
.global	__TEXT_END
.global	__bss_start__
.global	__TEXT_END
.global	__bss_end__
.global	__TEXT_END
.global	__bss_start__
.global	__TEXT_END
.global	__bss_end__
.global	__TEXT_END
.global	__bss_start__
.global	__TEXT_END
.global	__bss_end__
.global	__TEXT_END
.global	__bss_start__
.global	__TEXT_END
.global	__bss_end__
.global	__TEXT_END
.global	__bss_start__
.global	__TEXT_END
.global	__bss_end__
.global	__TEXT_END
.global	__bss_start__
.global	__TEXT_END
.global	__bss_end__
.global	__TEXT_END
.global	__bss_start__
.global	__TEXT_END
.global	__bss_end__
.global	__TEXT_END
.global	__bss_start__
.global	__TEXT_END
.global	__bss_end__
.global	__TEXT_END
.global	__bss_start__
.global	__TEXT_END
.global	__bss_end__
.global	__TEXT_END
.global	__bss_start__
.global	__TEXT_END
.global	__bss_end__
.global	__TEXT_END
.global	__bss_start__
.global	__TEXT_END
.global	__bss_end__
.global	__TEXT_END
.global	__bss_start__
.global	__TEXT_END
.global	__bss_end__
.global	__TEXT_END
.global	__bss_start__
.global	__TEXT_END
.global	__bss_end__
.global	__TEXT_END
.global	__bss_start__
.global	__TEXT_END
.global	__bss_end__
.global	__TEXT_END
.global	__bss_start__
.global	__TEXT_END
.global	__bss_end__
.global	__TEXT_END
.global	__bss_start__
.global	__TEXT_END
.global	__bss_end__
.global	__TEXT_END
.global	__bss_start__
.global	__TEXT_END
.global	__bss_end__
.global	__TEXT_END
.global	__bss_start__
.global	__TEXT_END
.global	__bss_end__
.global	__TEXT_END
.global	__bss_start__
.global	__TEXT_END
.global	__bss_end__
.global	__TEXT_END
.global	__bss_start__
.global	__TEXT_END
.global	__bss_end__
.global	__TEXT_END
.global	__bss_start__
.global	__TEXT_END
.global	__bss_end__
.global	__TEXT_END
.global	__bss_start__
.global	__TEXT_END
.global	__bss_end__
.global	__TEXT_END
.global	__bss_start__
.global	__TEXT_END
.global	__bss_end__
.global	__TEXT_END
.global	__bss_start__
.global	__TEXT_END
.global	__bss_end__
.global	__TEXT_END
.global	__bss_start__
.global	__TEXT_END
.global	__bss_end__
.global	__TEXT_END
.global	__bss_start__
.global	__TEXT_END
.global	__bss_end__
.global	__TEXT_END
.global	__bss_start__
.global	__TEXT_END
.global	__bss_end__
.global	__TEXT_END
.global	__bss_start__
.global	__TEXT_END
.global	__bss_end__
.global	__TEXT_END
.global	__bss_start__
.global	__TEXT_END
.global	__bss_end__
.global	__TEXT_END
.global	__bss_start__
.global	__TEXT_END
.global	__bss_end__
.global	__TEXT_END
.global	__bss_start__
.global	__TEXT_END
.global	__bss_end__
.global	__TEXT_END
.global	__bss_start__
.global	__TEXT_END
.global	__bss_end__
.global	__TEXT_END
.global	__bss_start__
.global	__TEXT_END
.global	__bss_end__
.global	__TEXT_END
.global	__bss_start__
.global	__TEXT_END
.global	__bss_end__
.global	__TEXT_END
.global	__bss_start__
.global	__TEXT_END
.global	__bss_end__
.global	__TEXT_END
.global	__bss_start__
.global	__TEXT_END
.global	__bss_end__
.global	__TEXT_END
.global	__bss_start__
.global	__TEXT_END
.global	__bss_end__
.global	__TEXT_END
.global	__bss_start__
.global	__TEXT_END
.global	__bss_end__
.global	__TEXT_END
.global	__bss_start__
.global	__TEXT_END
.global	__bss_end__
.global	__TEXT_END
.global	__bss_start__
.global	__TEXT_END
.global	__bss_end__
.global	__TEXT_END
.global	__bss_start__
.global	__TEXT_END
.global	__bss_end__
.global	__TEXT_END
.global	__bss_start__
.global	__TEXT_END
.global	__bss_end__
.global	__TEXT_END
.global	__bss_start__
.global	__TEXT_END
.global	__bss_end__
.global	__TEXT_END
.global	__bss_start__
.global	__TEXT_END
.global	__bss_end__
.global	__TEXT_END
.global	__bss_start__
.global	__TEXT_END
.global	__bss_end__
.global	__TEXT_END
.global	__bss_start__
.global	__TEXT_END
.global	__bss_end__
.global	__TEXT_END
.global	__bss_start__
.global	__TEXT_END
.global	__bss_end__
.global	__TEXT_END
.global	__bss_start__
.global	__TEXT_END
.global	__bss_end__
.global	__TEXT_END
.global	__bss_start__
.global	__TEXT_END
.global	__bss_end__
.global	__TEXT_END
.global	__bss_start__
.global	__TEXT_END
.global	__bss_end__
.global	__TEXT_END
.global	__bss_start__
.global	__TEXT_END
.global	__bss_end__
.global	__TEXT_END
.global	__bss_start__
.global	__TEXT_END
.global	__bss_end__
.global	__TEXT_END
.global	__bss_start__
.global	__TEXT_END
.global	__bss_end__
.global	__TEXT_END
.global	__bss_start__
.global	__TEXT_END
.global	__bss_end__
.global	__TEXT_END
.global	__bss_start__
.global	__TEXT_END
.global	__bss_end__
.global	__TEXT_END
.global	__bss_start__
.global	__TEXT_END
.global	__bss_end__
.global	__TEXT_END
.global	__bss_start__
.global	__TEXT_END
.global	__bss_end__
.global	__TEXT_END
.global	__bss_start__
.global	__TEXT_END
.global	__bss_end__
.global	__TEXT_END
.global	__bss_start__
.global	__TEXT_END
.global	__bss_end__
.global	__TEXT_END
.global	__bss_start__
.global	__TEXT_END
.global	__bss_end__
.global	__TEXT_END
.global	__bss_start__
.global	__TEXT_END
.global	__bss_end__
.global	__TEXT_END
.global	__bss_start__
.global	__TEXT_END
.global	__bss_end__
.global	__TEXT_END
.global	__bss_start__
.global	__TEXT_END
.global	__bss_end__
.global	__TEXT_END
.global	__bss_start__
.global	__TEXT_END
.global	__bss_end__
.global	__TEXT_END
.global	__bss_start__
.global	__TEXT_END
.global	__bss_end__
.global	__TEXT_END
.global	__bss_start__
.global	__TEXT_END
.global	__bss_end__
.global	__TEXT_END
.global	__bss_start__
.global	__TEXT_END
.global	__bss_end__
.global	__TEXT_END
.global	__bss_start__
.global	__TEXT_END
.global	__bss_end__
.global	__TEXT_END
.global	__bss_start__
.global	__TEXT_END
.global	__bss_end__
.global	__TEXT_END
.global	__bss_start__
.global	__TEXT_END
.global	__bss_end__
.global	__TEXT_END
.global	__bss_start__
.global	__TEXT_END
.global	__bss_end__
.global	__TEXT_END
.global	__bss_start__
.global	__TEXT_END
.global	__bss_end__
.global	__TEXT_END
.global	__bss_start__
.global	__TEXT_END
.global	__bss_end__
.global	__TEXT_END
.global	__bss_start__
.global	__TEXT_END
.global	__bss_end__
.global	__TEXT_END
.global	__bss_start__
.global	__TEXT_END
.global	__bss_end__
.global	__TEXT_END
.global	__bss_start__
.global	__TEXT_END
.global	__bss_end__
.global	__TEXT_END
.global	__bss_start__
.global	__TEXT_END
.global	__bss_end__
.global	__TEXT_END
.global	__bss_start__
.global	__TEXT_END
.global	__bss_end__
.global	__TEXT_END
.global	__bss_start__
.global	__TEXT_END
.global	__bss_end__
.global	__TEXT_END
.global	__bss_start__
.global	__TEXT_END
.global	__bss_end__
.global	__TEXT_END
.global	__bss_start__
.global	__TEXT_END
.global	__bss_end__
.global	__TEXT_END
.global	__bss_start__
.global	__TEXT_END
.global	__bss_end__
.global	__TEXT_END
.global	__bss_start__
.global	__TEXT_END
.global	__bss_end__
.global	__TEXT_END
.global	__bss_start__
.global	__TEXT_END
.global	__bss_end__
.global	__TEXT_END
.global	__bss_start__
.global	__TEXT_END
.global	__bss_end__
.global	__TEXT_END
.global	__bss_start__
.global	__TEXT_END
.global	__bss_end__
.global	__TEXT_END
.global	__bss_start__
.global	__TEXT_END
.global	__bss_end__
.global	__TEXT_END
.global	__bss_start__
.global	__TEXT_END
.global	__bss_end__
.global	__TEXT_END
.global	__bss_start__
.global	__TEXT_END
.global	__bss_end__
.global	__TEXT_END
.global	__bss_start__
.global	__TEXT_END
.global	__bss_end__
.global	__TEXT_END
.global	__bss_start__
.global	__TEXT_END
.global	__bss_end__
.global	__TEXT_END
.global	__bss_start__
.global	__TEXT_END
.global	__bss_end__
.global	__TEXT_END
.global	__bss_start__
.global	__TEXT_END
.global	__bss_end__
.global	__TEXT_END
.global	__bss_start__
.global	__TEXT_END
.global	__bss_end__
.global	__TEXT_END
.global	__bss_start__
.global	__TEXT_END
.global	__bss_end__
.global	__TEXT_END
.global	__bss_start__
.global	__TEXT_END
.global	__bss_end__
.global	__TEXT_END
.global	__bss_start__
.global	__TEXT_END
.global	__bss_end__
.global	__TEXT_END
.global	__bss_start__
.global	__TEXT_END
.global	__bss_end__
.global	__TEXT_END
.global	__bss_start__
.global	__TEXT_END
.global	__bss_end__
.global	__TEXT_END
.global	__bss_start__
.global	__TEXT_END
.global	__bss_end__
.global	__TEXT_END
.global	__bss_start__
.global	__TEXT_END
.global	__bss_end__
.global	__TEXT_END
.global	__bss_start__
.global	__TEXT_END
.global	__bss_end__
.global	__TEXT_END
.global	__bss_start__
.global	__TEXT_END
.global	__bss_end__
.global	__TEXT_END
.global	__bss_start__
.global	__TEXT_END
.global	__bss_end__
.global	__TEXT_END
.global	__bss_start__
.global	__TEXT_END
.global	__bss_end__
.global	__TEXT_END
.global	__bss_start__
.global	__TEXT_END
.global	__bss_end__
.global	__TEXT_END
.global	__bss_start__
.global	__TEXT_END
.global	__bss_end__
.global	__TEXT_END
.global	__bss_start__
.global	__TEXT_END
.global	__bss_end__
.global	__TEXT_END
.global	__bss_start__
.global	__TEXT_END
.global	__bss_end__
.global	__TEXT_END
.global	__bss_start__
.global	__TEXT_END
.global	__bss_end__
.global	__TEXT_END
.global	__bss_start__
.global	__TEXT_END
.global	__bss_end__
.global	__TEXT_END
.global	__bss_start__
.global	__TEXT_END
.global	__bss_end__
.global	__TEXT_END
.global	__bss_start__
.global	__TEXT_END
.global	__bss_end__
.global	__TEXT_END
.global	__bss_start__
.global	__TEXT_END
.global	__bss_end__
.global	__TEXT_END
.global	__bss_start__
.global	__TEXT_END
.global	__bss_end__
.global	__TEXT_END
.global	__bss_start__
.global	__TEXT_END
.global	__bss_end__
.global	__TEXT_END
.global	__bss_start__
.global	__TEXT_END
.global	__bss_end__
.global	__TEXT_END
.global	__bss_start__
.global	__TEXT_END
.global	__bss_end__
.global	__TEXT_END
.global	__bss_start__
.global	__TEXT_END
.global	__bss_end__
.global	__TEXT_END
.global	__bss_start__
.global	__TEXT_END
.global	__bss_end__
.global	__TEXT_END
.global	__bss_start__
.global	__TEXT_END
.global	__bss_end__
.global	__TEXT_END
.global	__bss_start__
.global	__TEXT_END
.global	__bss_end__
.global	__TEXT_END
.global	__bss_start__
.global	__TEXT_END
.global	__bss_end__
.global	__TEXT_END
.global	__bss_start__
.global	__TEXT_END
.global	__bss_end__
.global	__TEXT_END
.global	__bss_start__
.global	__TEXT_END
.global	__bss_end__
.global	__TEXT_END
.global	__bss_start__
.global	__TEXT_END
.global	__bss_end__
.global	__TEXT_END
.global	__bss_start__
.global	__TEXT_END
.global	__bss_end__
.global	__TEXT_END
.global	__bss_start__
.global	__TEXT_END
.global	__bss_end__
.global	__TEXT_END
.global	__bss_start__
.global	__TEXT_END
.global	__bss_end__
.global	__TEXT_END
.global	__bss_start__
.global	__TEXT_END
.global	__bss_end__
.global	__TEXT_END
.global	__bss_start__
.global	__TEXT_END
.global	__bss_end__
.global	__TEXT_END
.global	__bss_start__
.global	__TEXT_END
.global	__bss_end__
.global	__TEXT_END
.global	__bss_start__
.global	__TEXT_END
.global	__bss_end__
.global	__TEXT_END
.global	__bss_start__
.global	__TEXT_END
.global	__bss_end__
.global	__TEXT_END
.global	__bss_start__
.global	__TEXT_END
.global	__bss_end__
.global	__TEXT_END
.global	__bss_start__
.global	__TEXT_END
.global	__bss_end__
.global	__TEXT_END
.global	__bss_start__
.global	__TEXT_END
.global	__bss_end__
.global	__TEXT_END
.global	__bss_start__
.global	__TEXT_END
.global	__bss_end__
.global	__TEXT_END
.global	__bss_start__
.global	__TEXT_END
.global	__bss_end__
.global	__TEXT_END
.global	__bss_start__
.global	__TEXT_END
.global	__bss_end__
.global	__TEXT_END
.global	__bss_start__
.global	__TEXT_END
.global	__bss_end__
.global	__TEXT_END
.global	__bss_start__
.global	__TEXT_END
.global	__bss_end__
.global	__TEXT_END
.global	__bss_start__
.global	__TEXT_END
.global	__bss_end__
.global	__TEXT_END
.global	__bss_start__
.global	__TEXT_END
.global	__bss_end__
.global	__TEXT_END
.global	__bss_start__
.global	__TEXT_END
.global	__bss_end__
.global	__TEXT_END
.global	__bss_start__
.global	__TEXT_END
.global	__bss_end__
.global	__TEXT_END
.global	__bss_start__
.global	__TEXT_END
.global	__bss_end__
.global	__TEXT_END
.global	__bss_start__
.global	__TEXT_END
.global	__bss_end__
.global	__TEXT_END
.global	__bss_start__
.global	__TEXT_END
.global	__bss_end__
.global	__TEXT_END
.global	__bss_start__
.global	__TEXT_END
.global	__bss_end__
.global	__TEXT_END
.global	__bss_start__
.global	__TEXT_END
.global	__bss_end__
.global	__TEXT_END
.global	__bss_start__
.global	__TEXT_END
.global	__bss_end__
.global	__TEXT_END
.global	__bss_start__
.global	__TEXT_END
.global	__bss_end__
.global	__TEXT_END
.global	__bss_start__
.global	__TEXT_END
.global	__bss_end__
.global	__TEXT_END
.global	__bss_start__
.global	__TEXT_END
.global	__bss_end__
.global	__TEXT_END
.global	__bss_start__
.global	__TEXT_END
.global	__bss_end__
.global	__TEXT_END
.global	__bss_start__
.global	__TEXT_END
.global	__bss_end__
.global	__TEXT_END
.global	__bss_start__
.global	__TEXT_END
.global	__bss_end__
.global	__TEXT_END
.global	__bss_start__
.global	__TEXT_END
.global	__bss_end__
.global	__TEXT_END
.global	__bss_start__
.global	__TEXT_END
.global	__bss_end__
.global	__TEXT_END
.global	__bss_start__
.global	__TEXT_END
.global	__bss_end__
.global	__TEXT_END
.global	__bss_start__
.global	__TEXT_END
.global	__bss_end__
.global	__TEXT_END
.global	__bss_start__
.global	__TEXT_END
.global	__bss_end__
.global	__TEXT_END
.global	__bss_start__
.global	__TEXT_END
.global	__bss_end__
.global	__TEXT_END
.global	__bss_start__
.global	__TEXT_END
.global	__bss_end__
.global	__TEXT_END
.global	__bss_start__
.global	__TEXT_END
.global	__bss_end__
.global	__TEXT_END
.global	__bss_start__
.global	__TEXT_END
.global	__bss_end__
.global	__TEXT_END
.global	__bss_start__
.global	__TEXT_END
.global	__bss_end__
.global	__TEXT_END
.global	__bss_start__
.global	__TEXT_END
.global	__bss_end__
.global	__TEXT_END
.global	__bss_start__
.global	__TEXT_END
.global	__bss_end__
.global	__TEXT_END
.global	__bss_start__
.global	__TEXT_END
.global	__bss_end__
.global	__TEXT_END
.global	__bss_start__
.global	__TEXT_END
.global	__bss_end__
.global	__TEXT_END
.global	__bss_start__
.global	__TEXT_END
.global	__bss_end__
.global	__TEXT_END
.global	__bss_start__
.global	__TEXT_END
.global	__bss_end__
.global	__TEXT_END
.global	__bss_start__
.global	__TEXT_END
.global	__bss_end__
.global	__TEXT_END
.global	__bss_start__
.global	__TEXT_END
.global	__bss_end__
.global	__TEXT_END
.global	__bss_start__
.global	__TEXT_END
.global	__bss_end__
.global	__TEXT_END
.global	__bss_start__
.global	__TEXT_END
.global	__bss_end__
.global	__TEXT_END
.global	__bss_start__
.global	__TEXT_END
.global	__bss_end__
.global	__TEXT_END
.global	__bss_start__
.global	__TEXT_END
.global	__bss_end__
.global	__TEXT_END
.global	__bss_start__
.global	__TEXT_END
.global	__bss_end__
.global	__TEXT_END
.global	__bss_start__
.global	__TEXT_END
.global	__bss_end__
.global	__TEXT_END
.global	__bss_start__
.global	__TEXT_END
.global	__bss_end__
.global	__TEXT_END
.global	__bss_start__
.global	__TEXT_END
.global	__bss_end__
.global	__TEXT_END
.global	__bss_start__
.global	__TEXT_END
.global	__bss_end__
.global	__TEXT_END
.global	__bss_start__
.global	__TEXT_END
.global	__bss_end__
.global	__TEXT_END
.global	__bss_start__
.global	__TEXT_END
.global	__bss_end__
.global	__TEXT_END
.global	__bss_start__
.global	__TEXT_END
.global	__bss_end__
.global	__TEXT_END
.global	__bss_start__
.global	__TEXT_END
.global	__bss_end__
.global	__TEXT_END
.global	__bss_start__
.global	__TEXT_END
.global	__bss_end__
.global	__TEXT_END
.global	__bss_start__
.global	__TEXT_END
.global	__bss_end__
.global	__TEXT_END
.global	__bss_start__
.global	__TEXT_END
.global	__bss_end__
.global	__TEXT_END
.global	__bss_start__
.global	__TEXT_END
.global	__bss_end__
.global	__TEXT_END
.global	__bss_start__
.global	__TEXT_END
.global	__bss_end__
.global	__TEXT_END
.global	__bss_start__
.global	__TEXT_END
.global	__bss_end__
.global	__TEXT_END
.global	__bss_start__
.global	__TEXT_END
.global	__bss_end__
.global	__TEXT_END
.global	__bss_start__
.global	__TEXT_END
.global	__bss_end__
.global	__TEXT_END
.global	__bss_start__
.global	__TEXT_END
.global	__bss_end__
.global	__TEXT_END
.global	__bss_start__
.global	__TEXT_END
.global	__bss_end__
.global	__TEXT_END
.global	__bss_start__
.global	__TEXT_END
.global	__bss_end__
.global	__TEXT_END
.global	__bss_start__
.global	__TEXT_END
.global	__bss_end__
.global	__TEXT_END
.global	__bss_start__
.global	__TEXT_END
.global	__bss_end__
.global	__TEXT_END
.global	__bss_start__
.global	__TEXT_END
.global	__bss_end__
.global	__TEXT_END
.global	__bss_start__
.global	__TEXT_END
.global	__bss_end__
.global	__TEXT_END
.global	__bss_start__
.global	__TEXT_END
.global	__bss_end__
.global	__TEXT_END
.global	__bss_start__
.global	__TEXT_END
.global	__bss_end__
.global	__TEXT_END
.global	__bss_start__
.global	__TEXT_END
.global	__bss_end__
.global	__TEXT_END
.global	__bss_start__
.global	__TEXT_END
.global	__bss_end__
.global	__TEXT_END
.global	__bss_start__
.global	__TEXT_END
.global	__bss_end__
.global	__TEXT_END
.global	__bss_start__
.global	__TEXT_END
.global	__bss_end__
.global	__TEXT_END
.global	__bss_start__
.global	__TEXT_END
.global	__bss_end__
.global	__TEXT_END
.global	__bss_start__
.global	__TEXT_END
.global	__bss_end__
.global	__TEXT_END
.global	__bss_start__
.global	__TEXT_END
.global	__bss_end__
.global	__TEXT_END
.global	__bss_start__
.global	__TEXT_END
.global	__bss_end__
.global	__TEXT_END
.global	__bss_start__
.global	__TEXT_END
.global	__bss_end__
.global	__TEXT_END
.global	__bss_start__
.global	__TEXT_END
.global	__bss_end__
.global	__TEXT_END
.global	__bss_start__
.global	__TEXT_END
.global	__bss_end__
.global	__TEXT_END
.global	__bss_start__
.global	__TEXT_END
.global	__bss_end__
.global	__TEXT_END
.global	__bss_start__
.global	__TEXT_END
.global	__bss_end__
.global	__TEXT_END
.global	__bss_start__
.global	__TEXT_END
.global	__bss_end__
.global	__TEXT_END
.global	__bss_start__
.global	__TEXT_END
.global	__bss_end__
.global	__TEXT_END
.global	__bss_start__
.global	__TEXT_END
.global	__bss_end__
.global	__TEXT_END
.global	__bss_start__
.global	__TEXT_END
.global	__bss_end__
.global	__TEXT_END
.global	__bss_start__
.global	__TEXT_END
.global	__bss_end__
.global	__TEXT_END
.global	__bss_start__
.global	__TEXT_END
.global	__bss_end__
.global	__TEXT_END
.global	__bss_start__
.global	__TEXT_END
.global	__bss_end__
.global	__TEXT_END
.global	__bss_start__
.global	__TEXT_END
.global	__bss_end__
.global	__TEXT_END
.global	__bss_start__
.global	__TEXT_END
.global	__bss_end__
.global	__TEXT_END
.global	__bss_start__
.global	__TEXT_END
.global	__bss_end__
.global	__TEXT_END
.global	__bss_start__
.global	__TEXT_END
.global	__bss_end__
.global	__TEXT_END
.global	__bss_start__
.global	__TEXT_END
.global	__bss_end__
.global	__TEXT_END
.global	__bss_start__
.global	__TEXT_END
.global	__bss_end__
.global	__TEXT_END
.global	__bss_start__
.global	__TEXT_END
.global	__bss_end__
.global	__TEXT_END
.global	__bss_start__
.global	__TEXT_END
.global	__bss_end__
.global	__TEXT_END
.global	__bss_start__
.global	__TEXT_END
.global	__bss_end__
.global	__TEXT_END
.global	__bss_start__
.global	__TEXT_END
.global	__bss_end__
.global	__TEXT_END
.global	__bss_start__
.global	__TEXT_END
.global	__bss_end__
.global	__TEXT_END
.global	__bss_start__
.global	__TEXT_END
.global	__bss_end__
.global	__TEXT_END
.global	__bss_start__
.global	__TEXT_END
.global	__bss_end__
.global	__TEXT_END
.global	__bss_start__
.global	__TEXT_END
.global	__bss_end__
.global	__TEXT_END
.global	__bss_start__
.global	__TEXT_END
.global	__bss_end__
.global	__TEXT_END
.global	__bss_start__
.global	__TEXT_END
.global	__bss_end__
.global	__TEXT_END
.global	__bss_start__
.global	__TEXT_END
.global	__bss_end__
.global	__TEXT_END
.global	__bss_start__
.global	__TEXT_END
.global	__bss_end__
.global	__TEXT_END
.global	__bss_start__
.global	__TEXT_END
.global	__bss_end__
.global	__TEXT_END
.global	__bss_start__
.global	__TEXT_END
.global	__bss_end__
.global	__TEXT_END
.global	__bss_start__
.global	__TEXT_END
.global	__bss_end__
.global	__TEXT_END
.global	__bss_start__
.global	__TEXT_END
.global	__bss_end__
.global	__TEXT_END
.global	__bss_start__
.global	__TEXT_END
.global	__bss_end__
.global	__TEXT_END
.global	__bss_start__
.global	__TEXT_END
.global	__bss_end__
.global	__TEXT_END
.global	__bss_start__
.global	__TEXT_END
.global	__bss_end__
.global	__TEXT_END
.global	__bss_start__
.global	__TEXT_END
.global	__bss_end__
.global	__TEXT_END
.global	__bss_start__
.global	__TEXT_END
.global	__bss_end__
.global	__TEXT_END
.global	__bss_start__
.global	__TEXT_END
.global	__bss_end__
.global	__TEXT_END
.global	__bss_start__
.global	__TEXT_END
.global	__bss_end__
.global	__TEXT_END
.global	__bss_start__
.global	__TEXT_END
.global	__bss_end__
.global	__TEXT_END
.global	__bss_start__
.global	__TEXT_END
.global	__bss_end__
.global	__TEXT_END
.global	__bss_start__
.global	__TEXT_END
.global	__bss_end__
.global	__TEXT_END
.global	__bss_start__
.global	__TEXT_END
.global	__bss_end__
.global	__TEXT_END
.global	__bss_start__
.global	__TEXT_END
.global	__bss_end__
.global	__TEXT_END
.global	__bss_start__
.global	__TEXT_END
.global	__bss_end__
.global	__TEXT_END
.global	__bss_start__
.global	__TEXT_END
.global	__bss_end__
.global	__TEXT_END
.global	__bss_start__
.global	__TEXT_END
.global	__bss_end__
.global	__TEXT_END
.global	__bss_start__
.global	__TEXT_END
.global	__bss_end__
.global	__TEXT_END
.global	__bss_start__
.global	__TEXT_END
.global	__bss_end__
.global	__TEXT_END
.global	__bss_start__
.global	__TEXT_END
.global	__bss_end__
.global	__TEXT_END
.global	__bss_start__
.global	__TEXT_END
.global	__bss_end__
.global	__TEXT_END
.global	__bss_start__
.global	__TEXT_END
.global	__bss_end__
.global	__TEXT_END
.global	__bss_start__
.global	__TEXT_END
.global	__bss_end__
.global	__TEXT_END
.global	__bss_start__
.global	__TEXT_END
.global	__bss_end__
.global	__TEXT_END
.global	__bss_start__
.global	__TEXT_END
.global	__bss_end__
.global	__TEXT_END
.global	__bss_start__
.global	__TEXT_END
.global	__bss_end__
.global	__TEXT_END
.global	__bss_start__
.global	__TEXT_END
.global	__bss_end__
.global	__TEXT_END
.global	__bss_start__
.global	__TEXT_END
.global	__bss_end__
.global	__TEXT_END
.global	__bss_start__
.global	__TEXT_END
.global	__bss_end__
.global	__TEXT_END
.global	__bss_start__
.global	__TEXT_END
.global	__bss_end__
.global	__TEXT_END
.global	__bss_start__
.global	__TEXT_END
.global	__bss_end__
.global	__TEXT_END
.global	__bss_start__
.global	__TEXT_END
.global	__bss_end__
.global	__TEXT_END
.global	__bss_start__
.global	__TEXT_END
.global	__bss_end__
.global	__TEXT_END
.global	__bss_start__
.global	__TEXT_END
.global	__bss_end__
.global	__TEXT_END
.global	__bss_start__
.global	__TEXT_END
.global	__bss_end__
.global	__TEXT_END
.global	__bss_start__
.global	__TEXT_END
.global	__bss_end__
.global	__TEXT_END
.global	__bss_start__
.global	__TEXT_END
.global	__bss_end__
.global	__TEXT_END
.global	__bss_start__
.global	__TEXT_END
.global	__bss_end__
.global	__TEXT_END
.global	__bss_start__
.global	__TEXT_END
.global	__bss_end__
.global	__TEXT_END
.global	__bss_start__
.global	__TEXT_END
.global	__bss_end__
.global	__TEXT_END
.global	__bss_start__
.global	__TEXT_END
.global	__bss_end__
.global	__TEXT_END
.global	__bss_start__
.global	__TEXT_END
.global	__bss_end__
.global	__TEXT_END
.global	__bss_start__
.global	__TEXT_END
.global	__bss_end__
.global	__TEXT_END
.global	__bss_start__
.global	__TEXT_END
.global	__bss_end__
.global	__TEXT_END
.global	__bss_start__
.global	__TEXT_END
.global	__bss_end__
.global	__TEXT_END
.global	__bss_start__
.global	__TEXT_END
.global	__bss_end__
.global	__TEXT_END
.global	__bss_start__
.global	__TEXT_END
.global	__bss_end__
.global	__TEXT_END
.global	__bss_start__
.global	__TEXT_END
.global	__bss_end__
.global	__TEXT_END
.global	__bss_start__
.global	__TEXT_END
.global	__bss_end__
.global	__TEXT_END
.global	__bss_start__
.global	__TEXT_END
.global	__bss_end__
.global	__TEXT_END
.global	__bss_start__
.global	__TEXT_END
.global	__bss_end__
.global	__TEXT_END
.global	__bss_start__
.global	__TEXT_END
.global	__bss_end__
.global	__TEXT_END
.global	__bss_start__
.global	__TEXT_END
.global	__bss_end__
.global	__TEXT_END
.global	__bss_start__
.global	__TEXT_END
.global	__bss_end__
.global	__TEXT_END
.global	__bss_start__
.global	__TEXT_END
.global	__bss_end__
.global	__TEXT_END
.global	__bss_start__
.global	__TEXT_END
.global	__bss_end__
.global	__TEXT_END
.global	__bss_start__
.global	__TEXT_END
.global	__bss_end__
.global	__TEXT_END
.global	__bss_start__
.global	__TEXT_END
.global	__bss_end__
.global	__TEXT_END
.global	__bss_start__
.global	__TEXT_END
.global	__bss_end__
.global	__TEXT_END
.global	__bss_start__
.global	__TEXT_END
.global	__bss_end__
.global	__TEXT_END
.global	__bss_start__
.global	__TEXT_END
.global	__bss_end__
.global	__TEXT_END
.global	__bss_start__
.global	__TEXT_END
.global	__bss_end__
.global	__TEXT_END
.global	__bss_start__
.global	__TEXT_END
.global	__bss_end__
.global	__TEXT_END
.global	__bss_start__
.global	__TEXT_END
.global	__bss_end__
.global	__TEXT_END
.global	__bss_start__
.global	__TEXT_END
.global	__bss_end__
.global	__TEXT_END
.global	__bss_start__
.global	__TEXT_END
.global	__bss_end__
.global	__TEXT_END
.global	__bss_start__
.global	__TEXT_END
.global	__bss_end__
.global	__TEXT_END
.global	__bss_start__
.global	__TEXT_END
.global	__bss_end__
.global	__TEXT_END
.global	__bss_start__
.global	__TEXT_END
.global	__bss_end__
.global	__TEXT_END
.global	__bss_start__
.global	__TEXT_END
.global	__bss_end__
.global	__TEXT_END
.global	__bss_start__
.global	__TEXT_END
.global	__bss_end__
.global	__TEXT_END
.global	__bss_start__
.global	__TEXT_END
.global	__bss_end__
.global	__TEXT_END
.global	__bss_start__
.global	__TEXT_END
.global	__bss_end__
.global	__TEXT_END
.global	__bss_start__
.global	__TEXT_END
.global	__bss_end__
.global	__TEXT_END
.global	__bss_start__
.global	__TEXT_END
.global	__bss_end__
.global	__TEXT_END
.global	__bss_start__
.global	__TEXT_END
.global	__bss_end__
.global	__TEXT_END
.global	__bss_start__
.global	__TEXT_END
.global	__bss_end__
.global	__TEXT_END
.global	__bss_start__
.global	__TEXT_END
.global	__bss_end__
.global	__TEXT_END
.global	__bss_start__
.global	__TEXT_END
.global	__bss_end__
.global	__TEXT_END
.global	__bss_start__
.global	__TEXT_END
.global	__bss_end__
.global	__TEXT_END
.global	__bss_start__
.global	__TEXT_END
.global	__bss_end__
.global	__TEXT_END
.global	__bss_start__
.global	__TEXT_END
.global	__bss_end__
.global	__TEXT_END
.global	__bss_start__
.global	__TEXT_END
.global	__bss_end__
.global	__TEXT_END
.global	__bss_start__
.global	__TEXT_END
.global	__bss_end__
.global	__TEXT_END
.global	__bss_start__
.global	__TEXT_END
.global	__bss_end__
.global	__TEXT_END
.global	__bss_start__
.global	__TEXT_END
.global	__bss_end__
.global	__TEXT_END
.global	__bss_start__
.global	__TEXT_END
.global	__bss_end__
.global	__TEXT_END
.global	__bss_start__
.global	__TEXT_END
.global	__bss_end__
.global	__TEXT_END
.global	__bss_start__
.global	__TEXT_END
.global	__bss_end__
.global	__TEXT_END
.global	__bss_start__
.global	__TEXT_END
.global	__bss_end__
.global	__TEXT_END
.global	__bss_start__
.global	__TEXT_END
.global	__bss_end__
.global	__TEXT_END
.global	__bss_start__
.global	__TEXT_END
.global	__bss_end__
.global	__TEXT_END
.global	__bss_start__
.global	__TEXT_END
.global	__bss_end__
.global	__TEXT_END
.global	__bss_start__
.global	__TEXT_END
.global	__bss_end__
.global	__TEXT_END
.global	__bss_start__
.global	__TEXT_END
.global	__bss_end__
.global	__TEXT_END
.global	__bss_start__
.global	__TEXT_END
.global	__bss_end__
.global	__TEXT_END
.global	__bss_start__
.global	__TEXT_END
.global	__bss_end__
.global	__TEXT_END
.global	__bss_start__
.global	__TEXT_END
.global	__bss_end__
.global	__TEXT_END
.global	__bss_start__
.global	__TEXT_END
.global	__bss_end__
.global	__TEXT_END
.global	__bss_start__
.global	__TEXT_END
.global	__bss_end__
.global	__TEXT_END
.global	__bss_start__
.global	__TEXT_END
.global	__bss_end__
.global	__TEXT_END
.global	__bss_start__
.global	__TEXT_END
.global	__bss_end__
.global	__TEXT_END
.global	__bss_start__
.global	__TEXT_END
.global	__bss_end__
.global	__TEXT_END
.global	__bss_start__
.global	__TEXT_END
.global	__bss_end__
.global	__TEXT_END
.global	__bss_start__
.global	__TEXT_END
.global	__bss_end__
.global	__TEXT_END
.global	__bss_start__
.global	__TEXT_END
.global	__bss_end__
.global	__TEXT_END
.global	__bss_start__
.global	__TEXT_END
.global	__bss_end__
.global	__TEXT_END
.global	__bss_start__
.global	__TEXT_END
.global	__bss_end__
.global	__TEXT_END
.global	__bss_start__
.global	__TEXT_END
.global	__bss_end__
.global	__TEXT_END
.global	__bss_start__
.global	__TEXT_END
.global	__bss_end__
.global	__TEXT_END
.global	__bss_start__
.global	__TEXT_END
.global	__bss_end__
.global	__TEXT_END
.global	__bss_start__
.global	__TEXT_END
.global	__bss_end__
.global	__TEXT_END
.global	__bss_start__
.global	__TEXT_END
.global	__bss_end__
.global	__TEXT_END
.global	__bss_start__
.global	__TEXT_END
.global	__bss_end__
.global	__TEXT_END
.global	__bss_start__
.global	__TEXT_END
.global	__bss_end__
.global	__TEXT_END
.global	__bss_start__
.global	__TEXT_END
.global	__bss_end__
.global	__TEXT_END
.global	__bss_start__
.global	__TEXT_END
.global	__bss_end__
.global	__TEXT_END
.global	__bss_start__
.global	__TEXT_END
.global	__bss_end__
.global	__TEXT_END
.global	__bss_start__
.global	__TEXT_END
.global	__bss_end__
.global	__TEXT_END
.global	__bss_start__
.global	__TEXT_END
.global	__bss_end__
.global	__TEXT_END
.global	__bss_start__
.global	__TEXT_END
.global	__bss_end__
.global	__TEXT_END
.global	__bss_start__
.global	__TEXT_END
.global	__bss_end__
.global	__TEXT_END
.global	__bss_start__
.global	__TEXT_END
.global	__bss_end__
.global	__TEXT_END
.global	__bss_start__
.global	__TEXT_END
.global	__bss_end__
.global	__TEXT_END
.global	__bss_start__
.global	__TEXT_END
.global	__bss_end__
.global	__TEXT_END
.global	__bss_start__
.global	__TEXT_END
.global	__bss_end__
.global	__TEXT_END
.global	__bss_start__
.global	__TEXT_END
.global	__bss_end__
.global	__TEXT_END
.global	__bss_start__
.global	__TEXT_END
.global	__bss_end__
.global	__TEXT_END
.global	__bss_start__
.global	__TEXT_END
.global	__bss_end__
.global	__TEXT_END
.global	__bss_start__
.global	__TEXT_END
.global	__bss_end__
.global	__TEXT_END
.global	__bss_start__
.global	__TEXT_END
.global	__bss_end__
.global	__TEXT_END
.global	__bss_start__
.global	__TEXT_END
.global	__bss_end__
.global	__TEXT_END
.global	__bss_start__
.global	__TEXT_END
.global	__bss_end__
.global	__TEXT_END
.global	__bss_start__
.global	__TEXT_END
.global	__bss_end__
.global	__TEXT_END
.global	__bss_start__
.global	__TEXT_END
.global	__bss_end__
.global	__TEXT_END
.global	__bss_start__
.global	__TEXT_END
.global	__bss_end__
.global	__TEXT_END
.global	__bss_start__
.global	__TEXT_END
.global	__bss_end__
.global	__TEXT_END
.global	__bss_start__
.global	__TEXT_END
.global	__bss_end__
.global	__TEXT_END
.global	__bss_start__
.global	__TEXT_END
.global	__bss_end__
.global	__TEXT_END
.global	__bss_start__
.global	__TEXT_END
.global	__bss_end__
.global	__TEXT_END
.global	__bss_start__
.global	__TEXT_END
.global	__bss_end__
.global	__TEXT_END
.global	__bss_start__
.global	__TEXT_END
.global	__bss_end__
.global	__TEXT_END
.global	__bss_start__
.global	__TEXT_END
.global	__bss_end__
.global	__TEXT_END
.global	__bss_start__
.global	__TEXT_END
.global	__bss_end__
.global	__TEXT_END
.global	__bss_start__
.global	__TEXT_END
.global	__bss_end__
.global	__TEXT_END
.global	__bss_start__
.global	__TEXT_END
.global	__bss_end__
.global	__TEXT_END
.global	__bss_start__
.global	__TEXT_END
.global	__bss_end__
.global	__TEXT_END
.global	__bss_start__
.global	__TEXT_END
.global	__bss_end__
.global	__TEXT_END
.global	__bss_start__
.global	__TEXT_END
.global	__bss_end__
.global	__TEXT_END
.global	__bss_start__
.global	__TEXT_END
.global	__bss_end__
.global	__TEXT_END
.global	__bss_start__
.global	__TEXT_END
.global	__bss_end__
.global	__TEXT_END
.global	__bss_start__
.global	__TEXT_END
.global	__bss_end__
.global	__TEXT_END
.global	__bss_start__
.global	__TEXT_END
.global	__bss_end__
.global	__TEXT_END
.global	__bss_start__
.global	__TEXT_END
.global	__bss_end__
.global	__TEXT_END
.global	__bss_start__
.global	__TEXT_END
.global	__bss_end__
.global	__TEXT_END
.global	__bss_start__
.global	__TEXT_END
.global	__bss_end__
.global	__TEXT_END
.global	__bss_start__
.global	__TEXT_END
.global	__bss_end__
.global	__TEXT_END
.global	__bss_start__
.global	__TEXT_END
.global	__bss_end__
.global	__TEXT_END
.global	__bss_start__
.global	__TEXT_END
.global	__bss_end__
.global	__TEXT_END
.global	__bss_start__
.global	__TEXT_END
.global	__bss_end__
.global	__TEXT_END
.global	__bss_start__
.global	__TEXT_END
.global	__bss_end__
.global	__TEXT_END
.global	__bss_start__
.global	__TEXT_END
.global	__bss_end__
.global	__TEXT_END
.global	__bss_start__
.global	__TEXT_END
.global	__bss_end__
.global	__TEXT_END
.global	__bss_start__
.global	__TEXT_END
.global	__bss_end__
.global	__TEXT_END
.global	__bss_start__
.global	__TEXT_END
.global	__bss_end__
.global	__TEXT_END
.global	__bss_start__
.global	__TEXT_END
.global	__bss_end__
.global	__TEXT_END
.global	__bss_start__
.global	__TEXT_END
.global	__bss_end__
.global	__TEXT_END
.global	__bss_start__
.global	__TEXT_END
.global	__bss_end__
.global	__TEXT_END
.global	__bss_start__
.global	__TEXT_END
.global	__bss_end__
.global	__TEXT_END
.global	__bss_start__
.global	__TEXT_END
.global	__bss_end__
.global	__TEXT_END
.global	__bss_start__
.global	__TEXT_END
.global	__bss_end__
.global	__TEXT_END
.global	__bss_start__
.global	__TEXT_END
.global	__bss_end__
.global	__TEXT_END
.global	__bss_start__
.global	__TEXT_END
.global	__bss_end__
.global	__TEXT_END
.global	__bss_start__
.global	__TEXT_END
.global	__bss_end__
.global	__TEXT_END
.global	__bss_start__
.global	__TEXT_END
.global	__bss_end__
.global	__TEXT_END
.global	__bss_start__
.global	__TEXT_END
.global	__bss_end__
.global	__TEXT_END
.global	__bss_start__
.global	__TEXT_END
.global	__bss_end__
.global	__TEXT_END
.global	__bss_start__
.global	__TEXT_END
.global	__bss_end__
.global	__TEXT_END
.global	__bss_start__
.global	__TEXT_END
.global	__bss_end__
.global	__TEXT_END
.global	__bss_start__
.global	__TEXT_END
.global	__bss_end__
.global	__TEXT_END
.global	__bss_start__
.global	__TEXT_END
.global	__bss_end__
.global	__TEXT_END
.global	__bss_start__
.global	__TEXT_END
.global	__bss_end__
.global	__TEXT_END
.global	__bss_start__
.global	__TEXT_END
.global	__bss_end__
.global	__TEXT_END
.global	__bss_start__
.global	__TEXT_END
.global	__bss_end__
.global	__TEXT_END
.global	__bss_start__
.global	__TEXT_END
.global	__bss_end__
.global	__TEXT_END
.global	__bss_start__
.global	__TEXT_END
.global	__bss_end__
.global	__TEXT_END
.global	__bss_start__
.global	__TEXT_END
.global	__bss_end__
.global	__TEXT_END
.global	__bss_start__
.global	__TEXT_END
.global	__bss_end__
.global	__TEXT_END
.global	__bss_start__
.global	__TEXT_END
.global	__bss_end__
.global	__TEXT_END
.global	__bss_start__
.global	__TEXT_END
.global	__bss_end__
.global	__TEXT_END
.global	__bss_start__
.global	__TEXT_END
.global	__bss_end__
.global	__TEXT_END
.global	__bss_start__
.global	__TEXT_END
.global	__bss_end__
.global	__TEXT_END
.global	__bss_start__
.global	__TEXT_END
.global	__bss_end__
.global	__TEXT_END
.global	__bss_start__
.global	__TEXT_END
.global	__bss_end__
.global	__TEXT_END
.global	__bss_start__
.global	__TEXT_END
.global	__bss_end__
.global	__TEXT_END
.global	__bss_start__
.global	__TEXT_END
.global	__bss_end__
.global	__TEXT_END
.global	__bss_start__
.global	__TEXT_END
.global	__bss_end__
.global	__TEXT_END
.global	__bss_start__
.global	__TEXT_END
.global	__bss_end__
.global	__TEXT_END
.global	__bss_start__
.global	__TEXT_END
.global	__bss_end__
.global	__TEXT_END
.global	__bss_start__
.global	__TEXT_END
.global	__bss_end__
.global	__TEXT_END
.global	__bss_start__
.global	__TEXT_END
.global	__bss_end__
.global	__TEXT_END
.global	__bss_start__
.global	__TEXT_END
.global	__bss_end__
.global	__TEXT_END
.global	__bss_start__
.global	__TEXT_END
.global	__bss_end__
.global	__TEXT_END
.global	__bss_start__
.global	__TEXT_END
.global	__bss_end__
.global	__TEXT_END
.global	__bss_start__
.global	__TEXT_END
.global	__bss_end__
.global	__TEXT_END
.global	__bss_start__
.global	__TEXT_END
.global	__bss_end__
.global	__TEXT_END
.global	__bss_start__
.global	__TEXT_END
.global	__bss_end__
.global	__TEXT_END
.global	__bss_start__
.global	__TEXT_END
.global	__bss_end__
.global	__TEXT_END
.global	__bss_start__
.global	__TEXT_END
.global	__bss_end__
.global	__TEXT_END
.global	__bss_start__
.global	__TEXT_END
.global	__bss_end__
.global	__TEXT_END
.global	__bss_start__
.global	__TEXT_END
.global	__bss_end__
.global	__TEXT_END
.global	__bss_start__
.global	__TEXT_END
.global	__bss_end__
.global	__TEXT_END
.global	__bss_start__
.global	__TEXT_END
.global	__bss_end__
.global	__TEXT_END
.global	__bss_start__
.global	__TEXT_END
.global	__bss_end__
.global	__TEXT_END
.global	__bss_start__
.global	__TEXT_END
.global	__bss_end__
.global	__TEXT_END
.global	__bss_start__
.global	__TEXT_END
.global	__bss_end__
.global	__TEXT_END
.global	__bss_start__
.global	__TEXT_END
.global	__bss_end__
.global	__TEXT_END
.global	__bss_start__
.global	__TEXT_END
.global	__bss_end__
.global	__TEXT_END
.global	__bss_start__
.global	__TEXT_END
.global	__bss_end__
.global	__TEXT_END
.global	__bss_start__
.global	__TEXT_END
.global	__bss_end__
.global	__TEXT_END
.global	__bss_start__
.global	__TEXT_END
.global	__bss_end__
.global	__TEXT_END
.global	__bss_start__
.global	__TEXT_END
.global	__bss_end__
.global	__TEXT_END
.global	__bss_start__
.global	__TEXT_END
.global	__bss_end__
.global	__TEXT_END
.global	__bss_start__
.global	__TEXT_END
.global	__bss_end__
.global	__TEXT_END
.global	__bss_start__
.global	__TEXT_END
.global	__bss_end__
.global	__TEXT_END
.global	__bss_start__
.global	__TEXT_END
.global	__bss_end__
.global	__TEXT_END
.global	__bss_start__
.global	__TEXT_END
.global	__bss_end__
.global	__TEXT_END
.global	__bss_start__
.global	__TEXT_END
.global	__bss_end__
.global	__TEXT_END
.global	__bss_start__
.global	__TEXT_END
.global	__bss_end__
.global	__TEXT_END
.global	__bss_start__
.global	__TEXT_END
.global	__bss_end__
.global	__TEXT_END
.global	__bss_start__
.global	__TEXT_END
.global	__bss_end__
.global	__TEXT_END
.global	__bss_start__
.global	__TEXT_END
.global	__bss_end__
.global	__TEXT_END
.global	__bss_start__
.global	__TEXT_END
.global	__bss_end__
.global	__TEXT_END
.global	__bss_start__
.global	__TEXT_END
.global	__bss_end__
.global	__TEXT_END
.global	__bss_start__
.global	__TEXT_END
.global	__bss_end__
.global	__TEXT_END
.global	__bss_start__
.global	__TEXT_END
.global	__bss_end__
.global	__TEXT_END
.global	__bss_start__
.global	__TEXT_END
.global	__bss_end__
.global	__TEXT_END
.global	__bss_start__
.global	__TEXT_END
.global	__bss_end__
.global	__TEXT_END
.global	__bss_start__
.global	__TEXT_END
.global	__bss_end__
.global	__TEXT_END
.global	__bss_start__
.global	__TEXT_END
.global	__bss_end__
.global	__TEXT_END
.global	__bss_start__
.global	__TEXT_END
.global	__bss_end__
.global	__TEXT_END
.global	__bss_start__
.global	__TEXT_END
.global	__bss_end__
.global	__TEXT_END
.global	__bss_start__
.global	__TEXT_END
.global	__bss_end__
.global	__TEXT_END
.global	__bss_start__
.global	__TEXT_END
.global	__bss_end__
.global	__TEXT_END
.global	__bss_start__
.global	__TEXT_END
.global	__bss_end__
.global	__TEXT_END
.global	__bss_start__
.global	__TEXT_END
.global	__bss_end__
.global	__TEXT_END
.global	__bss_start__
.global	__TEXT_END
.global	__bss_end__
.global	__TEXT_END
.global	__bss_start__
.global	__TEXT_END
.global	__bss_end__
.global	__TEXT_END
.global	__bss_start__
.global	__TEXT_END
.global	__bss_end__
.global	__TEXT_END
.global	__bss_start__
.global	__TEXT_END
.global	__bss_end__
.global	__TEXT_END
.global	__bss_start__
.global	__TEXT_END
.global	__bss_end__
.global	__TEXT_END
.global	__bss_start__
.global	__TEXT_END
.global	__bss_end__
.global	__TEXT_END
.global	__bss_start__
.global	__TEXT_END
.global	__bss_end__
.global	__TEXT_END
.global	__bss_start__
.global	__TEXT_END
.global	__bss_end__
.global	__TEXT_END
.global	__bss_start__
.global	__TEXT_END
.global	__bss_end__
.global	__TEXT_END
.global	__bss_start__
.global	__TEXT_END
.global	__bss_end__
.global	__TEXT_END
.global	__bss_start__
.global	__TEXT_END
.global	__bss_end__
.global	__TEXT_END
.global	__bss_start__
.global	__TEXT_END
.global	__bss_end__
.global	__TEXT_END
.global	__bss_start__
.global	__TEXT_END
.global	__bss_end__
.global	__TEXT_END
.global	__bss_start__
.global	__TEXT_END
.global	__bss_end__
.global	__TEXT_END
.global	__bss_start__
.global	__TEXT_END
.global	__bss_end__
.global	__TEXT_END
.global	__bss_start__
.global	__TEXT_END
.global	__bss_end__
.global	__TEXT_END
.global	__bss_start__
.global	__TEXT_END
.global	__bss_end__
.global	__TEXT_END
.global	__bss_start__
.global	__TEXT_END
.global	__bss_end__
.global	__TEXT_END
.global	__bss_start__
.global	__TEXT_END
.global	__bss_end__
.global	__TEXT_END
.global	__bss_start__
.global	__TEXT_END
.global	__bss_end__
.global	__TEXT_END
.global	__bss_start__
.global	__TEXT_END
.global	__bss_end__
.global	__TEXT_END
.global	__bss_start__
.global	__TEXT_END
.global	__bss_end__
.global	__TEXT_END
.global	__bss_start__
.global	__TEXT_END
.global	__bss_end__
.global	__TEXT_END
.global	__bss_start__
.global	__TEXT_END
.global	__bss_end__
.global	__TEXT_END
.global	__bss_start__
.global	__TEXT_END
.global	__bss_end__
.global	__TEXT_END
.global	__bss_start__
.global	__TEXT_END
.global	__bss_end__
.global	__TEXT_END
.global	__bss_start__
.global	__TEXT_END
.global	__bss_end__
.global	__TEXT_END
.global	__bss_start__
.global	__TEXT_END
.global	__bss_end__
.global	__TEXT_END
.global	__bss_start__
.global	__TEXT_END
.global	__bss_end__
.global	__TEXT_END
.global	__bss_start__
.global	__TEXT_END
.global	__bss_end__
.global	__TEXT_END
.global	__bss_start__
.global	__TEXT_END
.global	__bss_end__
.global	__TEXT_END
.global	__bss_start__
.global	__TEXT_END
.global	__bss_end__
.global	__TEXT_END
.global	__bss_start__
.global	__TEXT_END
.global	__bss_end__
.global	__TEXT_END
.global	__bss_start__
.global	__TEXT_END
.global	__bss_end__
.global	__TEXT_END
.global	__bss_start__
.global	__TEXT_END
.global	__bss_end__
.global	__TEXT_END
.global	__bss_start__
.global	__TEXT_END
.global	__bss_end__
.global	__TEXT_END
.global	__bss_start__
.global	__TEXT_END
.global	__bss_end__
.global	__TEXT_END
.global	__bss_start__
.global	__TEXT_END
.global	__bss_end__
.global	__TEXT_END
.global	__bss_start__
.global	__TEXT_END
.global	__bss_end__
.global	__TEXT_END
.global	__bss_start__
.global	__TEXT_END
.global	__bss_end__
.global	__TEXT_END
.global	__bss_start__
.global	__TEXT_END
.global	__bss_end__
.global	__TEXT_END
.global	__bss_start__
.global	__TEXT_END
.global	__bss_end__
.global	__TEXT_END
.global	__bss_start__
.global	__TEXT_END
.global	__bss_end__
.global	__TEXT_END
.global	__bss_start__
.global	__TEXT_END
.global	__bss_end__
.global	__TEXT_END
.global	__bss_start__
.global	__TEXT_END
.global	__bss_end__
.global	__TEXT_END
.global	__bss_start__
.global	__TEXT_END
.global	__bss_end__
.global	__TEXT_END
.global	__bss_start__
.global	__TEXT_END
.global	__bss_end__
.global	__TEXT_END
.global	__bss_start__
.global	__TEXT_END
.global	__bss_end__
.global	__TEXT_END
.global	__bss_start__
.global	__TEXT_END
.global	__bss_end__
.global	__TEXT_END
.global	__bss_start__
.global	__TEXT_END
.global	__bss_end__
.global	__TEXT_END
.global	__bss_start__
.global	__TEXT_END
.global	__bss_end__
.global	__TEXT_END
.global	__bss_start__
.global	__TEXT_END
.global	__bss_end__
.global	__TEXT_END
.global	__bss_start__
.global	__TEXT_END
.global	__bss_end__
.global	__TEXT_END
.global	__bss_start__
.global	__TEXT_END
.global	__bss_end__
.global	__TEXT_END
.global	__bss_start__
.global	__TEXT_END
.global	__bss_end__
.global	__TEXT_END
.global	__bss_start__
.global	__TEXT_END
.global	__bss_end__
.global	__TEXT_END
.global	__bss_start__
.global	__TEXT_END
.global	__bss_end__
.global	__TEXT_END
.global	__bss_start__
.global	__TEXT_END
.global	__bss_end__
.global	__TEXT_END
.global	__bss_start__
.global	__TEXT_END
.global	__bss_end__
.global	__TEXT_END
.global	__bss_start__
.global	__TEXT_END
.global	__bss_end__
.global	__TEXT_END
.global	__bss_start__
.global	__TEXT_END
.global	__bss_end__
.global	__TEXT_END
.global	__bss_start__
.global	__TEXT_END
.global	__bss_end__
.global	__TEXT_END
.global	__bss_start__
.global	__TEXT_END
.global	__bss_end__
.global	__TEXT_END
.global	__bss_start__
.global	__TEXT_END
.global	__bss_end__
.global	__TEXT_END
.global	__bss_start__
.global	__TEXT_END
.global	__bss_end__
.global	__TEXT_END
.global	__bss_start__
.global	__TEXT_END
.global	__bss_end__
.global	__TEXT_END
.global	__bss_start__
.global	__TEXT_END
.global	__bss_end__
.global	__TEXT_END
.global	__bss_start__
.global	__TEXT_END
.global	__bss_end__
.global	__TEXT_END
.global	__bss_start__
.global	__TEXT_END
.global	__bss_end__
.global	__TEXT_END
.global	__bss_start__
.global	__TEXT_END
.global	__bss_end__
.global	__TEXT_END
.global	__bss_start__
.global	__TEXT_END
.global	__bss_end__
.global	__TEXT_END
.global	__bss_start__
.global	__TEXT_END
.global	__bss_end__
.global	__TEXT_END
.global	__bss_start__
.global	__TEXT_END
.global	__bss_end__
.global	__TEXT_END
.global	__bss_start__
.global	__TEXT_END
.global	__bss_end__
.global	__TEXT_END
.global	__bss_start__
.global	__TEXT_END
.global	__bss_end__
.global	__TEXT_END
.global	__bss_start__
.global	__TEXT_END
.global	__bss_end__
.global	__TEXT_END
.global	__bss_start__
.global	__TEXT_END
.global	__bss_end__
.global	__TEXT_END
.global	__bss_start__
.global	__TEXT_END
.global	__bss_end__
.global	__TEXT_END
.global	__bss_start__
.global	__TEXT_END
.global	__bss_end__
.global	__TEXT_END
.global	__bss_start__
.global	__TEXT_END
.global	__bss_end__
.global	__TEXT_END
.global	__bss_start__
.global	__TEXT_END
.global	__bss_end__
.global	__TEXT_END
.global	__bss_start__
.global	__TEXT_END
.global	__bss_end__
.global	__TEXT_END
.global	__bss_start__
.global	__TEXT_END
.global	__bss_end__
.global	__TEXT_END
.global	__bss_start__
.global	__TEXT_END
.global	__bss_end__
.global	__TEXT_END
.global	__bss_start__
.global	__TEXT_END
.global	__bss_end__
.global	__TEXT_END
.global	__bss_start__
.global	__TEXT_END
.global	__bss_end__
.global	__TEXT_END
.global	__bss_start__
.global	__TEXT_END
.global	__bss_end__
.global	__TEXT_END
.global	__bss_start__
.global	__TEXT_END
.global	__bss_end__
.global	__TEXT_END
.global	__bss_start__
.global	__TEXT_END
.global	__bss_end__
.global	__TEXT_END
.global	__bss_start__
.global	__TEXT_END
.global	__bss_end__
.global	__TEXT_END
.global	__bss_start__
.global	__TEXT_END
.global	__bss_end__
.global	__TEXT_END
.global	__bss_start__
.global	__TEXT_END
.global	__bss_end__
.global	__TEXT_END
.global	__bss_start__
.global	__TEXT_END
.global	__bss_end__
.global	__TEXT_END
.global	__bss_start__
.global	__TEXT_END
.global	__bss_end__
.global	__TEXT_END
.global	__bss_start__
.global	__TEXT_END
.global	__bss_end__
.global	__TEXT_END
.global	__bss_start__
.global	__TEXT_END
.global	__bss_end__
.global	__TEXT_END
.global	__bss_start__
.global	__TEXT_END
.global	__bss_end__
.global	__TEXT_END
.global	__bss_start__
.global	__TEXT_END
.global	__bss_end__
.global	__TEXT_END
.global	__bss_start__
.global	__TEXT_END
.global	__bss_end__
.global	__TEXT_END
.global	__bss_start__
.global	__TEXT_END
.global	__bss_end__
.global	__TEXT_END
.global	__bss_start__
.global	__TEXT_END
.global	__bss_end__
.global	__TEXT_END
.global	__bss_start__
.global	__TEXT_END
.global	__bss_end__
.global	__TEXT_END
.global	__bss_start__
.global	__TEXT_END
.global	__bss_end__
.global	__TEXT_END
.global	__bss_start__
.global	__TEXT_END
.global	__bss_end__
.global	__TEXT_END
.global	__bss_start__
.global	__TEXT_END
.global	__bss_end__
.global	__TEXT_END
.global	__bss_start__
.global	__TEXT_END
.global	__bss_end__
.global	__TEXT_END
.global	__bss_start__
.global	__TEXT_END
.global	__bss_end__
.global	__TEXT_END
.global	__bss_start__
.global	__TEXT_END
.global	__bss_end__
.global	__TEXT_END
.global	__bss_start__
.global	__TEXT_END
.global	__bss_end__
.global	__TEXT_END
.global	__bss_start__
.global	__TEXT_END
.global	__bss_end__
.global	__TEXT_END
.global	__bss_start__
.global	__TEXT_END
.global	__bss_end__
.global	__TEXT_END
.global	__bss_start__
.global	__TEXT_END
.global	__bss_end__
.global	__TEXT_END
.global	__bss_start__
.global	__TEXT_END
.global	__bss_end__
.global	__TEXT_END
.global	__bss_start__
.global	__TEXT_END
.global	__bss_end__
.global	__TEXT_END
.global	__bss_start__
.global	__TEXT_END
.global	__bss_end__
.global	__TEXT_END
.global	__bss_start__
.global	__TEXT_END
.global	__bss_end__
.global	__TEXT_END
.global	__bss_start__
.global	__TEXT_END
.global	__bss_end__
.global	__TEXT_END
.global	__bss_start__
.global	__TEXT_END
.global	__bss_end__
.global	__TEXT_END
.global	__bss_start__
.global	__TEXT_END
.global	__bss_end__
.global	__TEXT_END
.global	__bss_start__
.global	__TEXT_END
.global	__bss_end__
.global	__TEXT_END
.global	__bss_start__
.global	__TEXT_END
.global	__bss_end__
.global	__TEXT_END
.global	__bss_start__
.global	__TEXT_END
.global	__bss_end__
.global	__TEXT_END
.global	__bss_start__
.global	__TEXT_END
.global	__bss_end__
.global	__TEXT_END
.global	__bss_start__
.global	__TEXT_END
.global	__bss_end__
.global	__TEXT_END
.global	__bss_start__
.global	__TEXT_END
.global	__bss_end__
.global	__TEXT_END
.global	__bss_start__
.global	__TEXT_END
.global	__bss_end__
.global	__TEXT_END
.global	__bss_start__
.global	__TEXT_END
.global	__bss_end__
.global	__TEXT_END
.global	__bss_start__
.global	__TEXT_END
.global	__bss_end__
.global	__TEXT_END
.global	__bss_start__
.global	__TEXT_END
.global	__bss_end__
.global	__TEXT_END
.global	__bss_start__
.global	__TEXT_END
.global	__bss_end__
.global	__TEXT_END
.global	__bss_start__
.global	__TEXT_END
.global	__bss_end__
.global	__TEXT_END
.global	__bss_start__
.global	__TEXT_END
.global	__bss_end__
.global	__TEXT_END
.global	__bss_start__
.global	__TEXT_END
.global	__bss_end__
.global	__TEXT_END
.global	__bss_start__
.global	__TEXT_END
.global	__bss_end__
.global	__TEXT_END
.global	__bss_start__
.global	__TEXT_END
.global	__bss_end__
.global	__TEXT_END
.global	__bss_start__
.global	__TEXT_END
.global	__bss_end__
.global	__TEXT_END
.global	__bss_start__
.global	__TEXT_END
.global	__bss_end__
.global	__TEXT_END
.global	__bss_start__
.global	__TEXT_END
.global	__bss_end__
.global	__TEXT_END
.global	__bss_start__
.global	__TEXT_END
.global	__bss_end__
.global	__TEXT_END
.global	__bss_start__
.global	__TEXT_END
.global	__bss_end__
.global	__TEXT_END
.global	__bss_start__
.global	__TEXT_END
.global	__bss_end__
.global	__TEXT_END
.global	__bss_start__
.global	__TEXT_END
.global	__bss_end__
.global	__TEXT_END
.global	__bss_start__
.global	__TEXT_END
.global	__bss_end__
.global	__TEXT_END
.global	__bss_start__
.global	__TEXT_END
.global	__bss_end__
.global	__TEXT_END
.global	__bss_start__
.global	__TEXT_END
.global	__bss_end__
.global	__TEXT_END
.global	__bss_start__
.global	__TEXT_END
.global	__bss_end__
.global	__TEXT_END
.global	__bss_start__
.global	__TEXT_END
.global	__bss_end__
.global	__TEXT_END
.global	__bss_start__
.global	__TEXT_END
.global	__bss_end__
.global	__TEXT_END
.global	__bss_start__
.global	__TEXT_END
.global	__bss_end__
.global	__TEXT_END
.global	__bss_start__
.global	__TEXT_END
.global	__bss_end__
.global	__TEXT_END
.global	__bss_start__
.global	__TEXT_END
.global	__bss_end__
.global	__TEXT_END
.global	__bss_start__
.global	__TEXT_END
.global	__bss_end__
.global	__TEXT_END
.global	__bss_start__
.global	__TEXT_END
.global	__bss_end__
.global	__TEXT_END
.global	__bss_start__
.global	__TEXT_END
.global	__bss_end__
.global	__TEXT_END
.global	__bss_start__
.global	__TEXT_END
.global	__bss_end__
.global	__TEXT_END
.global	__bss_start__
.global	__TEXT_END
.global	__bss_end__
.global	__TEXT_END
.global	__bss_start__
.global	__TEXT_END
.global	__bss_end__
.global	__TEXT_END
.global	__bss_start__
.global	__TEXT_END
.global	__bss_end__
.global	__TEXT_END
.global	__bss_start__
.global	__TEXT_END
.global	__bss_end__
.global	__TEXT_END
.global	__bss_start__
.global	__TEXT_END
.global	__bss_end__
.global	__TEXT_END
.global	__bss_start__
.global	__TEXT_END
.global	__bss_end__
.global	__TEXT_END
.global	__bss_start__
.global	__TEXT_END
.global	__bss_end__
.global	__TEXT_END
.global	__bss_start__
.global	__TEXT_END
.global	__bss_end__
.global	__TEXT_END
.global	__bss_start__
.global	__TEXT_END
.global	__bss_end__
.global	__TEXT_END
.global	__bss_start__
.global	__TEXT_END
.global	__bss_end__
.global	__TEXT_END
.global	__bss_start__
.global	__TEXT_END
.global	__bss_end__
.global	__TEXT_END
.global	__bss_start__
.global	__TEXT_END
.global	__bss_end__
.global	__TEXT_END
.global	__bss_start__
.global	__TEXT_END
.global	__bss_end__
.global	__TEXT_END
.global	__bss_start__
.global	__TEXT_END
.global	__bss_end__
.global	__TEXT_END
.global	__bss_start__
.global	__TEXT_END
.global	__bss_end__
.global	__TEXT_END
.global	__bss_start__
.global	__TEXT_END
.global	__bss_end__
.global	__TEXT_END
.global	__bss_start__
.global	__TEXT_END
.global	__bss_end__
.global	__TEXT_END
.global	__bss_start__
.global	__TEXT_END
.global	__bss_end__
.global	__TEXT_END
.global	__bss_start__
.global	__TEXT_END
.global	__bss_end__
.global	__TEXT_END
.global	__bss_start__
.global	__TEXT_END
.global	__bss_end__
.global	__TEXT_END
.global	__bss_start__
.global	__TEXT_END
.global	__bss_end__
.global	__TEXT_END
.global	__bss_start__
.global	__TEXT_END
.global	__bss_end__
.global	__TEXT_END
.global	__bss_start__
.global	__TEXT_END
.global	__bss_end__
.global	__TEXT_END
.global	__bss_start__
.global	__TEXT_END
.global	__bss_end__
.global	__TEXT_END
.global	__bss_start__
.global	__TEXT_END
.global	__bss_end__
.global	__TEXT_END
.global	__bss_start__
.global	__TEXT_END
.global	__bss_end__
.global	__TEXT_END
.global	__bss_start__
.global	__TEXT_END
.global	__bss_end__
.global	__TEXT_END
.global	__bss_start__
.global	__TEXT_END
.global	__bss_end__
.global	__TEXT_END
.global	__bss_start__
.global	__TEXT_END
.global	__bss_end__
.global	__TEXT_END
.global	__bss_start__
.global	__TEXT_END
.global	__bss_end__
.global	__TEXT_END
.global	__bss_start__
.global	__TEXT_END
.global	__bss_end__
.global	__TEXT_END
.global	__bss_start__
.global	__TEXT_END
.global	__bss_end__
.global	__TEXT_END
.global	__bss_start__
.global	__TEXT_END
.global	__bss_end__
.global	__TEXT_END
.global	__bss_start__
.global	__TEXT_END
.global	__bss_end__
.global	__TEXT_END
.global	__bss_start__
.global	__TEXT_END
.global	__bss_end__
.global	__TEXT_END
.global	__bss_start__
.global	__TEXT_END
.global	__bss_end__
.global	__TEXT_END
.global	__bss_start__
.global	__TEXT_END
.global	__bss_end__
.global	__TEXT_END
.global	__bss_start__
.global	__TEXT_END
.global	__bss_end__
.global	__TEXT_END
.global	__bss_start__
.global	__TEXT_END
.global	__bss_end__
.global	__TEXT_END
.global	__bss_start__
.global	__TEXT_END
.global	__bss_end__
.global	__TEXT_END
.global	__bss_start__
.global	__TEXT_END
.global	__bss_end__
.global	__TEXT_END
.global	__bss_start__
.global	__TEXT_END
.global	__bss_end__
.global	__TEXT_END
.global	__bss_start__
.global	__TEXT_END
.global	__bss_end__
.global	__TEXT_END
.global	__bss_start__
.global	__TEXT_END
.global	__bss_end__
.global	__TEXT_END
.global	__bss_start__
.global	__TEXT_END
.global	__bss_end__
.global	__TEXT_END
.global	__bss_start__
.global	__TEXT_END
.global	__bss_end__
.global	__TEXT_END
.global	__bss_start__
.global	__TEXT_END
.global	__bss_end__
.global	__TEXT_END
.global	__bss_start__
.global	__TEXT_END
.global	__bss_end__
.global	__TEXT_END
.global	__bss_start__
.global	__TEXT_END
.global	__bss_end__
.global	__TEXT_END
.global	__bss_start__
.global	__TEXT_END
.global	__bss_end__
.global	__TEXT_END
.global	__bss_start__
.global	__TEXT_END
.global	__bss_end__
.global	__TEXT_END
.global	__bss_start__
.global	__TEXT_END
.global	__bss_end__
.global	__TEXT_END
.global	__bss_start__
.global	__TEXT_END
.global	__bss_end__
.global	__TEXT_END
.global	__bss_start__
.global	__TEXT_END
.global	__bss_end__
.global	__TEXT_END
.global	__bss_start__
.global	__TEXT_END
.global	__bss_end__
.global	__TEXT_END
.global	__bss_start__
.global	__TEXT_END
.global	__bss_end__
.global	__TEXT_END
.global	__bss_start__
.global	__TEXT_END
.global	__bss_end__
.global	__TEXT_END
.global	__bss_start__
.global	__TEXT_END
.global	__bss_end__
.global	__TEXT_END
.global	__bss_start__
.global	__TEXT_END
.global	__bss_end__
.global	__TEXT_END
.global	__bss_start__
.global	__TEXT_END
.global	__bss_end__
.global	__TEXT_END
.global	__bss_start__
.global	__TEXT_END
.global	__bss_end__
.global	__TEXT_END
.global	__bss_start__
.global	__TEXT_END
.global	__bss_end__
.global	__TEXT_END
.global	__bss_start__
.global	__TEXT_END
.global	__bss_end__
.global	__TEXT_END
.global	__bss_start__
.global	__TEXT_END
.global	__bss_end__
.global	__TEXT_END
.global	__bss_start__
.global	__TEXT_END
.global	__bss_end__
.global	__TEXT_END
.global	__bss_start__
.global	__TEXT_END
.global	__bss_end__
.global	__TEXT_END
.global	__bss_start__
.global	__TEXT_END
.global	__bss_end__
.global	__TEXT_END
.global	__bss_start__
.global	__TEXT_END
.global	__bss_end__
.global	__TEXT_END
.global	__bss_start__
.global	__TEXT_END
.global	__bss_end__
.global	__TEXT_END
.global	__bss_start__
.global	__TEXT_END
.global	__bss_end__
.global	__TEXT_END
.global	__bss_start__
.global	__TEXT_END
.global	__bss_end__
.global	__TEXT_END
.global	__bss_start__
.global	__TEXT_END
.global	__bss_end__
.global	__TEXT_END
.global	__bss_start__
.global	__TEXT_END
.global	__bss_end__
.global	__TEXT_END
.global	__bss_start__
.global	__TEXT_END
.global	__bss_end__
.global	__TEXT_END
.global	__bss_start__
.global	__TEXT_END
.global	__bss_end__
.global	__TEXT_END
.global	__bss_start__
.global	__TEXT_END
.global	__bss_end__
.global	__TEXT_END
.global	__bss_start__
.global	__TEXT_END
.global	__bss_end__
.global	__TEXT_END
.global	__bss_start__
.global	__TEXT_END
.global	__bss_end__
.global	__TEXT_END
.global	__bss_start__
.global	__TEXT_END
.global	__bss_end__
.global	__TEXT_END
.global	__bss_start__
.global	__TEXT_END
.global	__bss_end__
.global	__TEXT_END
.global	__bss_start__
.global	__TEXT_END
.global	__bss_end__
.global	__TEXT_END
.global	__bss_start__
.global	__TEXT_END
.global	__bss_end__
.global	__TEXT_END
.global	__bss_start__
.global	__TEXT_END
.global	__bss_end__
.global	__TEXT_END
.global	__bss_start__
.global	__TEXT_END
.global	__bss_end__
.global	__TEXT_END
.global	__bss_start__
.global	__TEXT_END
.global	__bss_end__
.global	__TEXT_END
.global	__bss_start__
.global	__TEXT_END
.global	__bss_end__
.global	__TEXT_END
.global	__bss_start__
.global	__TEXT_END
.global	__bss_end__
.global	__TEXT_END
.global	__bss_start__
.global	__TEXT_END
.global	__bss_end__
.global	__TEXT_END
.global	__bss_start__
.global	__TEXT_END
.global	__bss_end__
.global	__TEXT_END
.global	__bss_start__
.global	__TEXT_END
.global	__bss_end__
.global	__TEXT_END
.global	__bss_start__
.global	__TEXT_END
.global	__bss_end__
.global	__TEXT_END
.global	__bss_start__
.global	__TEXT_END
.global	__bss_end__
.global	__TEXT_END
.global	__bss_start__
.global	__TEXT_END
.global	__bss_end__
.global	__TEXT_END
.global	__bss_start__
.global	__TEXT_END
.global	__bss_end__
.global	__TEXT_END
.global	__bss_start__
.global	__TEXT_END
.global	__bss_end__
.global	__TEXT_END
.global	__bss_start__
.global	__TEXT_END
.global	__bss_end__
.global	__TEXT_END
.global	__bss_start__
.global	__TEXT_END
.global	__bss_end__
.global	__TEXT_END
.global	__bss_start__
.global	__TEXT_END
.global	__bss_end__
.global	__TEXT_END
.global	__bss_start__
.global	__TEXT_END
.global	__bss_end__
.global	__TEXT_END
.global	__bss_start__
.global	__TEXT_END
.global	__bss_end__
.global	__TEXT_END
.global	__bss_start__
.global	__TEXT_END
.global	__bss_end__
.global	__TEXT_END
.global	__bss_start__
.global	__TEXT_END
.global	__bss_end__
.global	__TEXT_END
.global	__bss_start__
.global	__TEXT_END
.global	__bss_end__
.global	__TEXT_END
.global	__bss_start__
.global	__TEXT_END
.global	__bss_end__
.global	__TEXT_END
.global	__bss_start__
.global	__TEXT_END
.global	__bss_end__
.global	__TEXT_END
.global	__bss_start__
.global	__TEXT_END
.global	__bss_end__
.global	__TEXT_END
.global	__bss_start__
.global	__TEXT_END
.global	__bss_end__
.global	__TEXT_END
.global	__bss_start__
.global	__TEXT_END
.global	__bss_end__
.global	__TEXT_END
.global	__bss_start__
.global	__TEXT_END
.global	__bss_end__
.global	__TEXT_END
.global	__bss_start__
.global	__TEXT_END
.global	__bss_end__
.global	__TEXT_END
.global	__bss_start__
.global	__TEXT_END
.global	__bss_end__
.global	__TEXT_END
.global	__bss_start__
.global	__TEXT_END
.global	__bss_end__
.global	__TEXT_END
.global	__bss_start__
.global	__TEXT_END
.global	__bss_end__
.global	__TEXT_END
.global	__bss_start__
.global	__TEXT_END
.global	__bss_end__
.global	__TEXT_END
.global	__bss_start__
.global	__TEXT_END
.global	__bss_end__
.global	__TEXT_END
.global	__bss_start__
.global	__TEXT_END
.global	__bss_end__
.global	__TEXT_END
.global	__bss_start__
.global	__TEXT_END
.global	__bss_end__
.global	__TEXT_END
.global	__bss_start__
.global	__TEXT_END
.global	__bss_end__
.global	__TEXT_END
.global	__bss_start__
.global	__TEXT_END
.global	__bss_end__
.global	__TEXT_END
.global	__bss_start__
.global	__TEXT_END
.global	__bss_end__
.global	__TEXT_END
.global	__bss_start__
.global	__TEXT_END
.global	__bss_end__
.global	__TEXT_END
.global	__bss_start__
.global	__TEXT_END
.global	__bss_end__
.global	__TEXT_END
.global	__bss_start__
.global	__TEXT_END
.global	__bss_end__
.global	__TEXT_END
.global	__bss_start__
.global	__TEXT_END
.global	__bss_end__
.global	__TEXT_END
.global	__bss_start__
.global	__TEXT_END
.global	__bss_end__
.global	__TEXT_END
.global	__bss_start__
.global	__TEXT_END
.global	__bss_end__
.global	__TEXT_END
.global	__bss_start__
.global	__TEXT_END
.global	__bss_end__
.global	__TEXT_END
.global	__bss_start__
.global	__TEXT_END
.global	__bss_end__
.global	__TEXT_END
.global	__bss_start__
.global	__TEXT_END
.global	__bss_end__
.global	__TEXT_END
.global	__bss_start__
.global	__TEXT_END
.global	__bss_end__
.global	__TEXT_END
.global	__bss_start__
.global	__TEXT_END
.global	__bss_end__
.global	__TEXT_END
.global	__bss_start__
.global	__TEXT_END
.global	__bss_end__
.global	__TEXT_END
.global	__bss_start__
.global	__TEXT_END
.global	__bss_end__
.global	__TEXT_END
.global	__bss_start__
.global	__TEXT_END
.global	__bss_end__
.global	__TEXT_END
.global	__bss_start__
.global	__TEXT_END
.global	__bss_end__
.global	__TEXT_END
.global	__bss_start__
.global	__TEXT_END
.global	__bss_end__
.global	__TEXT_END
.global	__bss_start__
.global	__TEXT_END
.global	__bss_end__
.global	__TEXT_END
.global	__bss_start__
.global	__TEXT_END
.global	__bss_end__
.global	__TEXT_END
.global	__bss_start__
.global	__TEXT_END
.global	__bss_end__
.global	__TEXT_END
.global	__bss_start__
.global	__TEXT_END
.global	__bss_end__
.global	__TEXT_END
.global	__bss_start__
.global	__TEXT_END
.global	__bss_end__
.global	__TEXT_END
.global	__bss_start__
.global	__TEXT_END
.global	__bss_end__
.global	__TEXT_END
.global	__bss_start__
.global	__TEXT_END
.global	__bss_end__
.global	__TEXT_END
.global	__bss_start__
.global	__TEXT_END
.global	__bss_end__
.global	__TEXT_END
.global	__bss_start__
.global	__TEXT_END
.global	__bss_end__
.global	__TEXT_END
.global	__bss_start__
.global	__TEXT_END
.global	__bss_end__
.global	__TEXT_END
.global	__bss_start__
.global	__TEXT_END
.global	__bss_end__
.global	__TEXT_END
.global	__bss_start__
.global	__TEXT_END
.global	__bss_end__
.global	__TEXT_END
.global	__bss_start__
.global	__TEXT_END
.global	__bss_end__
.global	__TEXT_END
.global	__bss_start__
.global	__TEXT_END
.global	__bss_end__
.global	__TEXT_END
.global	__bss_start__
.global	__TEXT_END
.global	__bss_end__
.global	__TEXT_END
.global	__bss_start__
.global	__TEXT_END
.global	__bss_end__
.global	__TEXT_END
.global	__bss_start__
.global	__TEXT_END
.global	__bss_end__
.global	__TEXT_END
.global	__bss_start__
.global	__TEXT_END
.global	__bss_end__
.global	__TEXT_END
.global	__bss_start__
.global	__TEXT_END
.global	__bss_end__
.global	__TEXT_END
.global	__bss_start__
.global	__TEXT_END
.global	__bss_end__
.global	__TEXT_END
.global	__bss_start__
.global	__TEXT_END
.global	__bss_end__
.global	__TEXT_END
.global	__bss_start__
.global	__TEXT_END
.global	__bss_end__
.global	__TEXT_END
.global	__bss_start__
.global	__TEXT_END
.global	__bss_end__
.global	__TEXT_END
.global	__bss_start__
.global	__TEXT_END
.global	__bss_end__
.global	__TEXT_END
.global	__bss_start__
.global	__TEXT_END
.global	__bss_end__
.global	__TEXT_END
.global	__bss_start__
.global	__TEXT_END
.global	__bss_end__
.global	__TEXT_END
.global	__bss_start__
.global	__TEXT_END
.global	__bss_end__
.global	__TEXT_END
.global	__bss_start__
.global	__TEXT_END
.global	__bss_end__
.global	__TEXT_END
.global	__bss_start__
.global	__TEXT_END
.global	__bss_end__
.global	__TEXT_END
.global	__bss_start__
.global	__TEXT_END
.global	__bss_end__
.global	__TEXT_END
.global	__bss_start__
.global	__TEXT_END
.global	__bss_end__
.global	__TEXT_END
.global	__bss_start__
.global	__TEXT_END
.global	__bss_end__
.global	__TEXT_END
.global	__bss_start__
.global	__TEXT_END
.global	__bss_end__
.global	__TEXT_END
.global	__bss_start__
.global	__TEXT_END
.global	__bss_end__
.global	__TEXT_END
.global	__bss_start__
.global	__TEXT_END
.global	__bss_end__
.global	__TEXT_END
.global	__bss_start__
.global	__TEXT_END
.global	__bss_end__
.global	__TEXT_END
.global	__bss_start__
.global	__TEXT_END
.global	__bss_end__
.global	__TEXT_END
.global	__bss_start__
.global	__TEXT_END
.global	__bss_end__
.global	__TEXT_END
.global	__bss_start__
.global	__TEXT_END
.global	__bss_end__
.global	__TEXT_END
.global	__bss_start__
.global	__TEXT_END
.global	__bss_end__
.global	__TEXT_END
.global	__bss_start__
.global	__TEXT_END
.global	__bss_end__
.global	__TEXT_END
.global	__bss_start__
.global	__TEXT_END
.global	__bss_end__
.global	__TEXT_END
.global	__bss_start__
.global	__TEXT_END
.global	__bss_end__
.global	__TEXT_END
.global	__bss_start__
.global	__TEXT_END
.global	__bss_end__
.global	__TEXT_END
.global	__bss_start__
.global	__TEXT_END
.global	__bss_end__
.global	__TEXT_END
.global	__bss_start__
.global	__TEXT_END
.global	__bss_end__
.global	__TEXT_END
.global	__bss_start__
.global	__TEXT_END
.global	__bss_end__
.global	__TEXT_END
.global	__bss_start__
.global	__TEXT_END
.global	__bss_end__
.global	__TEXT_END
.global	__bss_start__
.global	__TEXT_END
.global	__bss_end__
.global	__TEXT_END
.global	__bss_start__
.global	__TEXT_END
.global	__bss_end__
.global	__TEXT_END
.global	__bss_start__
.global	__TEXT_END
.global	__bss_end__
.global	__TEXT_END
.global	__bss_start__
.global	__TEXT_END
.global	__bss_end__
.global	__TEXT_END
.global	__bss_start__
.global	__TEXT_END
.global	__bss_end__
.global	__TEXT_END
.global	__bss_start__
.global	__TEXT_END
.global	__bss_end__
.global	__TEXT_END
.global	__bss_start__
.global	__TEXT_END
.global	__bss_end__
.global	__TEXT_END
.global	__bss_start__
.global	__TEXT_END
.global	__bss_end__
.global	__TEXT_END
.global	__bss_start__
.global	__TEXT_END
.global	__bss_end__
.global	__TEXT_END
.global	__bss_start__
.global	__TEXT_END
.global	__bss_end__
.global	__TEXT_END
.global	__bss_start__
.global	__TEXT_END
.global	__bss_end__
.global	__TEXT_END
.global	__bss_start__
.global	__TEXT_END
.global	__bss_end__
.global	__TEXT_END
.global	__bss_start__
.global	__TEXT_END
.global	__bss_end__
.global	__TEXT_END
.global	__bss_start__
.global	__TEXT_END
.global	__bss_end__
.global	__TEXT_END
.global	__bss_start__
.global	__TEXT_END
.global	__bss_end__
.global	__TEXT_END
.global	__bss_start__
.global	__TEXT_END
.global	__bss_end__
.global	__TEXT_END
.global	__bss_start__
.global	__TEXT_END
.global	__bss_end__
.global	__TEXT_END
.global	__bss_start__
.global	__TEXT_END
.global	__bss_end__
.global	__TEXT_END
.global	__bss_start__
.global	__TEXT_END
.global	__bss_end__
.global	__TEXT_END
.global	__bss_start__
.global	__TEXT_END
.global	__bss_end__
.global	__TEXT_END
.global	__bss_start__
.global	__TEXT_END
.global	__bss_end__
.global	__TEXT_END
.global	__bss_start__
.global	__TEXT_END
.global	__bss_end__
.global	__TEXT_END
.global	__bss_start__
.global	__TEXT_END
.global	__bss_end__
.global	__TEXT_END
.global	__bss_start__
.global	__TEXT_END
.global	__bss_end__
.global	__TEXT_END
.global	__bss_start__
.global	__TEXT_END
.global	__bss_end__
.global	__TEXT_END
.global	__bss_start__
.global	__TEXT_END
.global	__bss_end__
.global	__TEXT_END
.global	__bss_start__
.global	__TEXT_END
.global	__bss_end__
.global	__TEXT_END
.global	__bss_start__
.global	__TEXT_END
.global	__bss_end__
.global	__TEXT_END
.global	__bss_start__
.global	__TEXT_END
.global	__bss_end__
.global	__TEXT_END
.global	__bss_start__
.global	__TEXT_END
.global	__bss_end__
.global	__TEXT_END
.global	__bss_start__
.global	__TEXT_END
.global	__bss_end__
.global	__TEXT_END
.global	__bss_start__
.global	__TEXT_END
.global	__bss_end__
.global	__TEXT_END
.global	__bss_start__
.global	__TEXT_END
.global	__bss_end__
.global	__TEXT_END
.global	__bss_start__
.global	__TEXT_END
.global	__bss_end__
.global	__TEXT_END
.global	__bss_start__
.global	__TEXT_END
.global	__bss_end__
.global	__TEXT_END
.global	__bss_start__
.global	__TEXT_END
.global	__bss_end__
.global	__TEXT_END
.global	__bss_start__
.global	__TEXT_END
.global	__bss_end__
.global	__TEXT_END
.global	__bss_start__
.global	__TEXT_END
.global	__bss_end__
.global	__TEXT_END
.global	__bss_start__
.global	__TEXT_END
.global	__bss_end__
.global	__TEXT_END
.global	__bss_start__
.global	__TEXT_END
.global	__bss_end__
.global	__TEXT_END
.global	__bss_start__
.global	__TEXT_END
.global	__bss_end__
.global	__TEXT_END
.global	__bss_start__
.global	__TEXT_END
.global	__bss_end__
.global	__TEXT_END
.global	__bss_start__
.global	__TEXT_END
.global	__bss_end__
.global	__TEXT_END
.global	__bss_start__
.global	__TEXT_END
.global	__bss_end__
.global	__TEXT_END
.global	__bss_start__
.global	__TEXT_END
.global	__bss_end__
.global	__TEXT_END
.global	__bss_start__
.global	__TEXT_END
.global	__bss_end__
.global	__TEXT_END
.global	__bss_start__
.global	__TEXT_END
.global	__bss_end__
.global	__TEXT_END
.global	__bss_start__
.global	__TEXT_END
.global	__bss_end__
.global	__TEXT_END
.global	__bss_start__
.global	__TEXT_END
.global	__bss_end__
.global	__TEXT_END
.global	__bss_start__
.global	__TEXT_END
.global	__bss_end__
.global	__TEXT_END
.global	__bss_start__
.global	__TEXT_END
.global	__bss_end__
.global	__TEXT_END
.global	__bss_start__
.global	__TEXT_END
.global	__bss_end__
.global	__TEXT_END
.global	__bss_start__
.global	__TEXT_END
.global	__bss_end__