.arch armv8-a
.file "func0.s"
.section	__TEXT,__text,regular,pure_instructions
.align	2
.sp	48
.global	_func0                          ## -- Begin function func0
.section	__TEXT,__text,regular,pure_instructions
.align	2
.LC0:
adrp	x2, .LANCHOR0
add	x2, x2, :lo12:.LANCHOR0
mov	w5, w0
sub	sp, sp,
add	x0, x2, 56
stp	x29, x30, [sp, 48]
.cfi_def_cfa_offset 64
.cfi_offset 29, -16
.cfi_offset 30, -8
add	x29, sp, 48
ldr	x3, [x2]
str	x3, [x2, 56]
str	w5, [x2, 52]
mov	w4, w0
mov	w6, w1
mov	w2, 50
mov	w1, 0
strb	w6, [x2, 58]
bl	___sprintf_chk
add	x0, x2, 52
bl	_strlen
mov	w1, w0
ldp	w0, w3, [x2, 52]
sub	w1, w1,
cmp	w1, w6
bge	LBB0_6
stp	x19, x20, [sp, 64]
.cfi_offset 20, -24
.cfi_offset 19, -32
str	x21, [sp, 80]
.cfi_offset 21, -16
add	x21, sp, 40
sub	x20, x2,
sub	x21, x21, w6, sxtw
mov	w2, 0
add	x0, x2, 52
bl	___strncat_chk
sub	x20, x20,
sub	x21, x21,
add	x0, x2, 52
add	x1, x2, 52
sub	x20, x20, w6, sxtw
sub	x21, x21, w6, sxtw
add	x20, x20, w1, sxtw
add	x21, x21, w1, sxtw
mov	w2, 50
bl	___strcpy_chk
sub	x20, x20,
sub	x21, x21,
add	x0, x2, 52
add	x1, x2, 52
sub	x20, x20, w6, sxtw
sub	x21, x21, w6, sxtw
add	x20, x20, w1, sxtw
add	x21, x21, w1, sxtw
mov	w2, 50
bl	___strncat_chk
add	x0, x2, 52
add	x1, x2, 52
mov	w2, 50
sub	x1, x1,
bl	___strcpy_chk
ldp	x2, x3, [x2, 56]
cmp	x2, x3
beq	.L8
bl	___stack_chk_fail
brk
.L8:
add	x0, x2, 52
ldp	x19, x20, [sp, 64]
.cfi_restore 20
.cfi_restore 19
ldr	x21, [sp, 80]
.cfi_restore 21
add	sp, sp, 64
ret
.LBB0_6:
.cfi_def_cfa_offset 48
.cfi_offset 29, -16
.cfi_offset 30, -8
sub	x0, x29,
sub	x3, x21, w6, sxtw
add	x1, x29, x21
add	x1, x1, w5, sxtw
mov	w2, 50
bl	___strncat_chk
add	x0, x2, 52
add	x1, x2, 52
sub	x20, x20,
sub	x21, x21,
add	x20, x20, w6, sxtw
add	x21, x21, w6, sxtw
sub	x20, x20, w5, sxtw
add	x21, x21, w5, sxtw
mov	w2, 50
bl	___strcpy_chk
add	x0, x2, 52
add	x1, x2, 52
sub	x20, x20,
sub	x21, x21,
add	x20, x20, w6, sxtw
add	x21, x21, w6, sxtw
sub	x20, x20, w5, sxtw
add	x21, x21, w5, sxtw
mov	w2, 50
bl	___strncat_chk
add	x0, x2, 52
add	x1, x2, 52
mov	w2, 50
sub	x1, x1,
bl	___strcpy_chk
ldp	x2, x3, [x2, 56]
cmp	x2, x3
beq	.L8
bl	___stack_chk_fail
brk
.LBB0_7:
adrp	x0, :got:__stack_chk_guard
ldr	x0, [x0, :got_lo12:__stack_chk_guard]
ldr	x2, [x29, 56]
ldr	x1, [x0]
cmp	x2, x1
bne	.LBB0_9
add	x0, x2, 52
ldp	x29, x30, [sp, 48]
ldp	x19, x20, [sp, 64]
.cfi_remember_state
.cfi_restore 20
.cfi_restore 19
ldr	x21, [sp, 80]
.cfi_restore 21
add	sp, sp, 64
ret
.LBB0_9:
.cfi_restore_state
str	x21, [sp, 80]
.cfi_offset 21, -16
bl	___stack_chk_fail
brk
```
This ARMv8-A assembly code translates the given x86 assembly code for `func0` into ARM architecture-specific instructions. It includes all necessary setup, data movement, and control-flow operations as described in the original code snippet.