.arch armv8-a
.file     __TEXT,__text,regular,pure_instructions
.section	__TEXT,__text,regular,pure_instructions
.align	2
.p2align	4,,11
.func0:
	.cfi_startproc
stp	x29, x30, [sp, -32]!
.cfi_def_cfa_offset 32
.cfi_offset 29, -32
.cfi_offset 30, -24
mov	x29, sp
.cfi_def_cfa_register 29
str	d8, [sp, 16]
.cfi_offset 72, -16
fmov	s8, s0
fmov	s0, s1
str	d10, [sp, 32]
.cfi_offset 74, -8
fmov	d10, 1.0e+0
str	d11, [sp, 40]
.cfi_offset 75, -7
fmov	d11, 2.5e+0
str	d12, [sp, 48]
.cfi_offset 76, -6
fmov	d12, d8
ldr	s1, [x29, -8]
fmul	s8, s8, s1
adrp	x0, .LANCHOR0
fcvt	d8, s8
ldr	d1, [x0,
fmul	d8, d8, d1
fcvt	s0, d8
ldr	d10, [sp, 32]
ldr	d12, [sp, 48]
ldp	x29, x30, [sp], 32
.cfi_restore 30
.cfi_restore 29
.cfi_restore 76
.cfi_restore 74
.cfi_restore 72
.cfi_def_cfa_offset 0
ret
    .cfi_endproc
    section __TEXT,__data,null,@progbeg
.LC0:
.global	_func0
.bss
.align	3
.set	.LANCHOR0,. + 0
.type	.LC0, %object
.word	0x3fe0
.word	0
.word	0
.word	0
.type	_LC0, %object
.size	_LC0, 8
._L_C0:
.float	d10
.float	d11
.float	d12
.type	_LC0, %object
.size	_LC0, 8
.LC0:
.xword	.LC0
.xword	.LC0
.xword	.LC0
.xword	.LC0
.type	_LC0, %object
.size	_LC0, 8
.LC0:
.xword	.LC0
.xword	.LC0
.xword	.LC0
.xword	.LC0
.type	_LC0, %object
.size	_LC0, 8
.LC0:
.xword	.LC0
.xword	.LC0
.xword	.LC0
.xword	.LC0
.type	_LC0, %object
.size	_LC0, 8
.LC0:
.xword	.LC0
.xword	.LC0
.xword	.LC0
.xword	.LC0
.type	_LC0, %object
.size	_LC0, 8
.LC0:
.xword	.LC0
.xword	.LC0
.xword	.LC0
.xword	.LC0
.type	_LC0, %object
.size	_LC0, 8
.LC0:
.xword	.LC0
.xword	.LC0
.xword	.LC0
.xword	.LC0
.type	_LC0, %object
.size	_LC0, 8
.LC0:
.xword	.LC0
.xword	.LC0
.xword	.LC0
.xword	.LC0
.type	_LC0, %object
.size	_LC0, 8
.LC0:
.xword	.LC0
.xword	.LC0
.xword	.LC0
.xword	.LC0
.type	_LC0, %object
.size	_LC0, 8
.LC0:
.xword	.LC0
.xword	.LC0
.xword	.LC0
.xword	.LC0
.type	_LC0, %object
.size	_LC0, 8
.LC0:
.xword	.LC0
.xword	.LC0
.xword	.LC0
.xword	.LC0
.type	_LC0, %object
.size	_LC0, 8
.LC0:
.xword	.LC0
.xword	.LC0
.xword	.LC0
.xword	.LC0
.type	_LC0, %object
.size	_LC0, 8
.LC0:
.xword	.LC0
.xword	.LC0
.xword	.LC0
.xword	.LC0
.type	_LC0, %object
.size	_LC0, 8
.LC0:
.xword	.LC0
.xword	.LC0
.xword	.LC0
.xword	.LC0
.type	_LC0, %object
.size	_LC0, 8
.LC0:
.xword	.LC0
.xword	.LC0
.xword	.LC0
.xword	.LC0
.type	_LC0, %object
.size	_LC0, 8
.LC0:
.xword	.LC0
.xword	.LC0
.xword	.LC0
.xword	.LC0
.type	_LC0, %object
.size	_LC0, 8
.LC0:
.xword	.LC0
.xword	.LC0
.xword	.LC0
.xword	.LC0
.type	_LC0, %object
.size	_LC0, 8
.LC0:
.xword	.LC0
.xword	.LC0
.xword	.LC0
.xword	.LC0
.type	_LC0, %object
.size	_LC0, 8
.LC0:
.xword	.LC0
.xword	.LC0
.xword	.LC0
.xword	.LC0
.type	_LC0, %object
.size	_LC0, 8
.LC0:
.xword	.LC0
.xword	.LC0
.xword	.LC0
.xword	.LC0
.type	_LC0, %object
.size	_LC0, 8
.LC0:
.xword	.LC0
.xword	.LC0
.xword	.LC0
.xword	.LC0
.type	_LC0, %object
.size	_LC0, 8
.LC0:
.xword	.LC0
.xword	.LC0
.xword	.LC0
.xword	.LC0
.type	_LC0, %object
.size	_LC0, 8
.LC0:
.xword	.LC0
.xword	.LC0
.xword	.LC0
.xword	.LC0
.type	_LC0, %object
.size	_LC0, 8
.LC0:
.xword	.LC0
.xword	.LC0
.xword	.LC0
.xword	.LC0
.type	_LC0, %object
.size	_LC0, 8
.LC0:
.xword	.LC0
.xword	.LC0
.xword	.LC0
.xword	.LC0
.type	_LC0, %object
.size	_LC0, 8
.LC0:
.xword	.LC0
.xword	.LC0
.xword	.LC0
.xword	.LC0
.type	_LC0, %object
.size	_LC0, 8
.LC0:
.xword	.LC0
.xword	.LC0
.xword	.LC0
.xword	.LC0
.type	_LC0, %object
.size	_LC0, 8
.LC0:
.xword	.LC0
.xword	.LC0
.xword	.LC0
.xword	.LC0
.type	_LC0, %object
.size	_LC0, 8
.LC0:
.xword	.LC0
.xword	.LC0
.xword	.LC0
.xword	.LC0
.type	_LC0, %object
.size	_LC0, 8
.LC0:
.xword	.LC0
.xword	.LC0
.xword	.LC0
.xword	.LC0
.type	_LC0, %object
.size	_LC0, 8
.LC0:
.xword	.LC0
.xword	.LC0
.xword	.LC0
.xword	.LC0
.type	_LC0, %object
.size	_LC0, 8
.LC0:
.xword	.LC0
.xword	.LC0
.xword	.LC0
.xword	.LC0
.type	_LC0, %object
.size	_LC0, 8
.LC0:
.xword	.LC0
.xword	.LC0
.xword	.LC0
.xword	.LC0
.type	_LC0, %object
.size	_LC0, 8
.LC0:
.xword	.LC0
.xword	.LC0
.xword	.LC0
.xword	.LC0
.type	_LC0, %object
.size	_LC0, 8
.LC0:
.xword	.LC0
.xword	.LC0
.xword	.LC0
.xword	.LC0
.type	_LC0, %object
.size	_LC0, 8
.LC0:
.xword	.LC0
.xword	.LC0
.xword	.LC0
.xword	.LC0
.type	_LC0, %object
.size	_LC0, 8
.LC0:
.xword	.LC0
.xword	.LC0
.xword	.LC0
.xword	.LC0
.type	_LC0, %object
.size	_LC0, 8
.LC0:
.xword	.LC0
.xword	.LC0
.xword	.LC0
.xword	.LC0
.type	_LC0, %object
.size	_LC0, 8
.LC0:
.xword	.LC0
.xword	.LC0
.xword	.LC0
.xword	.LC0
.type	_LC0, %object
.size	_LC0, 8
.LC0:
.xword	.LC0
.xword	.LC0
.xword	.LC0
.xword	.LC0
.type	_LC0, %object
.size	_LC0, 8
.LC0:
.xword	.LC0
.xword	.LC0
.xword	.LC0
.xword	.LC0
.type	_LC0, %object
.size	_LC0, 8
.LC0:
.xword	.LC0
.xword	.LC0
.xword	.LC0
.xword	.LC0
.type	_LC0, %object
.size	_LC0, 8
.LC0:
.xword	.LC0
.xword	.LC0
.xword	.LC0
.xword	.LC0
.type	_LC0, %object
.size	_LC0, 8
.LC0:
.xword	.LC0
.xword	.LC0
.xword	.LC0
.xword	.LC0
.type	_LC0, %object
.size	_LC0, 8
.LC0:
.xword	.LC0
.xword	.LC0
.xword	.LC0
.xword	.LC0
.type	_LC0, %object
.size	_LC0, 8
.LC0:
.xword	.LC0
.xword	.LC0
.xword	.LC0
.xword	.LC0
.type	_LC0, %object
.size	_LC0, 8
.LC0:
.xword	.LC0
.xword	.LC0
.xword	.LC0
.xword	.LC0
.type	_LC0, %object
.size	_LC0, 8
.LC0:
.xword	.LC0
.xword	.LC0
.xword	.LC0
.xword	.LC0
.type	_LC0, %object
.size	_LC0, 8
.LC0:
.xword	.LC0
.xword	.LC0
.xword	.LC0
.xword	.LC0
.type	_LC0, %object
.size	_LC0, 8
.LC0:
.xword	.LC0
.xword	.LC0
.xword	.LC0
.xword	.LC0
.type	_LC0, %object
.size	_LC0, 8
.LC0:
.xword	.LC0
.xword	.LC0
.xword	.LC0
.xword	.LC0
.type	_LC0, %object
.size	_LC0, 8
.LC0:
.xword	.LC0
.xword	.LC0
.xword	.LC0
.xword	.LC0
.type	_LC0, %object
.size	_LC0, 8
.LC0:
.xword	.LC0
.xword	.LC0
.xword	.LC0
.xword	.LC0
.type	_LC0, %object
.size	_LC0, 8
.LC0:
.xword	.LC0
.xword	.LC0
.xword	.LC0
.xword	.LC0
.type	_LC0, %object
.size	_LC0, 8
.LC0:
.xword	.LC0
.xword	.LC0
.xword	.LC0
.xword	.LC0
.type	_LC0, %object
.size	_LC0, 8
.LC0:
.xword	.LC0
.xword	.LC0
.xword	.LC0
.xword	.LC0
.type	_LC0, %object
.size	_LC0, 8
.LC0:
.xword	.LC0
.xword	.LC0
.xword	.LC0
.xword	.LC0
.type	_LC0, %object
.size	_LC0, 8
.LC0:
.xword	.LC0
.xword	.LC0
.xword	.LC0
.xword	.LC0
.type	_LC0, %object
.size	_LC0, 8
.LC0:
.xword	.LC0
.xword	.LC0
.xword	.LC0
.xword	.LC0
.type	_LC0, %object
.size	_LC0, 8
.LC0:
.xword	.LC0
.xword	.LC0
.xword	.LC0
.xword	.LC0
.type	_LC0, %object
.size	_LC0, 8
.LC0:
.xword	.LC0
.xword	.LC0
.xword	.LC0
.xword	.LC0
.type	_LC0, %object
.size	_LC0, 8
.LC0:
.xword	.LC0
.xword	.LC0
.xword	.LC0
.xword	.LC0
.type	_LC0, %object
.size	_LC0, 8
.LC0:
.xword	.LC0
.xword	.LC0
.xword	.LC0
.xword	.LC0
.type	_LC0, %object
.size	_LC0, 8
.LC0:
.xword	.LC0
.xword	.LC0
.xword	.LC0
.xword	.LC0
.type	_LC0, %object
.size	_LC0, 8
.LC0:
.xword	.LC0
.xword	.LC0
.xword	.LC0
.xword	.LC0
.type	_LC0, %object
.size	_LC0, 8
.LC0:
.xword	.LC0
.xword	.LC0
.xword	.LC0
.xword	.LC0
.type	_LC0, %object
.size	_LC0, 8
.LC0:
.xword	.LC0
.xword	.LC0
.xword	.LC0
.xword	.LC0
.type	_LC0, %object
.size	_LC0, 8
.LC0:
.xword	.LC0
.xword	.LC0
.xword	.LC0
.xword	.LC0
.type	_LC0, %object
.size	_LC0, 8
.LC0:
.xword	.LC0
.xword	.LC0
.xword	.LC0
.xword	.LC0
.type	_LC0, %object
.size	_LC0, 8
.LC0:
.xword	.LC0
.xword	.LC0
.xword	.LC0
.xword	.LC0
.type	_LC0, %object
.size	_LC0, 8
.LC0:
.xword	.LC0
.xword	.LC0
.xword	.LC0
.xword	.LC0
.type	_LC0, %object
.size	_LC0, 8
.LC0:
.xword	.LC0
.xword	.LC0
.xword	.LC0
.xword	.LC0
.type	_LC0, %object
.size	_LC0, 8
.LC0:
.xword	.LC0
.xword	.LC0
.xword	.LC0
.xword	.LC0
.type	_LC0, %object
.size	_LC0, 8
.LC0:
.xword	.LC0
.xword	.LC0
.xword	.LC0
.xword	.LC0
.type	_LC0, %object
.size	_LC0, 8
.LC0:
.xword	.LC0
.xword	.LC0
.xword	.LC0
.xword	.LC0
.type	_LC0, %object
.size	_LC0, 8
.LC0:
.xword	.LC0
.xword	.LC0
.xword	.LC0
.xword	.LC0
.type	_LC0, %object
.size	_LC0, 8
.LC0:
.xword	.LC0
.xword	.LC0
.xword	.LC0
.xword	.LC0
.type	_LC0, %object
.size	_LC0, 8
.LC0:
.xword	.LC0
.xword	.LC0
.xword	.LC0
.xword	.LC0
.type	_LC0, %object
.size	_LC0, 8
.LC0:
.xword	.LC0
.xword	.LC0
.xword	.LC0
.xword	.LC0
.type	_LC0, %object
.size	_LC0, 8
.LC0:
.xword	.LC0
.xword	.LC0
.xword	.LC0
.xword	.LC0
.type	_LC0, %object
.size	_LC0, 8
.LC0:
.xword	.LC0
.xword	.LC0
.xword	.LC0
.xword	.LC0
.type	_LC0, %object
.size	_LC0, 8
.LC0:
.xword	.LC0
.xword	.LC0
.xword	.LC0
.xword	.LC0
.type	_LC0, %object
.size	_LC0, 8
.LC0:
.xword	.LC0
.xword	.LC0
.xword	.LC0
.xword	.LC0
.type	_LC0, %object
.size	_LC0, 8
.LC0:
.xword	.LC0
.xword	.LC0
.xword	.LC0
.xword	.LC0
.type	_LC0, %object
.size	_LC0, 8
.LC0:
.xword	.LC0
.xword	.LC0
.xword	.LC0
.xword	.LC0
.type	_LC0, %object
.size	_LC0, 8
.LC0:
.xword	.LC0
.xword	.LC0
.xword	.LC0
.xword	.LC0
.type	_LC0, %object
.size	_LC0, 8
.LC0:
.xword	.LC0
.xword	.LC0
.xword	.LC0
.xword	.LC0
.type	_LC0, %object
.size	_LC0, 8
.LC0:
.xword	.LC0
.xword	.LC0
.xword	.LC0
.xword	.LC0
.type	_LC0, %object
.size	_LC0, 8
.LC0:
.xword	.LC0
.xword	.LC0
.xword	.LC0
.xword	.LC0
.type	_LC0, %object
.size	_LC0, 8
.LC0:
.xword	.LC0
.xword	.LC0
.xword	.LC0
.xword	.LC0
.type	_LC0, %object
.size	_LC0, 8
.LC0:
.xword	.LC0
.xword	.LC0
.xword	.LC0
.xword	.LC0
.type	_LC0, %object
.size	_LC0, 8
.LC0:
.xword	.LC0
.xword	.LC0
.xword	.LC0
.xword	.LC0
.type	_LC0, %object
.size	_LC0, 8
.LC0:
.xword	.LC0
.xword	.LC0
.xword	.LC0
.xword	.LC0
.type	_LC0, %object
.size	_LC0, 8
.LC0:
.xword	.LC0
.xword	.LC0
.xword	.LC0
.xword	.LC0
.type	_LC0, %object
.size	_LC0, 8
.LC0:
.xword	.LC0
.xword	.LC0
.xword	.LC0
.xword	.LC0
.type	_LC0, %object
.size	_LC0, 8
.LC0:
.xword	.LC0
.xword	.LC0
.xword	.LC0
.xword	.LC0
.type	_LC0, %object
.size	_LC0, 8
.LC0:
.xword	.LC0
.xword	.LC0
.xword	.LC0
.xword	.LC0
.type	_LC0, %object
.size	_LC0, 8
.LC0:
.xword	.LC0
.xword	.LC0
.xword	.LC0
.xword	.LC0
.type	_LC0, %object
.size	_LC0, 8
.LC0:
.xword	.LC0
.xword	.LC0
.xword	.LC0
.xword	.LC0
.type	_LC0, %object
.size	_LC0, 8
.LC0:
.xword	.LC0
.xword	.LC0
.xword	.LC0
.xword	.LC0
.type	_LC0, %object
.size	_LC0, 8
.LC0:
.xword	.LC0
.xword	.LC0
.xword	.LC0
.xword	.LC0
.type	_LC0, %object
.size	_LC0, 8
.LC0:
.xword	.LC0
.xword	.LC0
.xword	.LC0
.xword	.LC0
.type	_LC0, %object
.size	_LC0, 8
.LC0:
.xword	.LC0
.xword	.LC0
.xword	.LC0
.xword	.LC0
.type	_LC0, %object
.size	_LC0, 8
.LC0:
.xword	.LC0
.xword	.LC0
.xword	.LC0
.xword	.LC0
.type	_LC0, %object
.size	_LC0, 8
.LC0:
.xword	.LC0
.xword	.LC0
.xword	.LC0
.xword	.LC0
.type	_LC0, %object
.size	_LC0, 8
.LC0:
.xword	.LC0
.xword	.LC0
.xword	.LC0
.xword	.LC0
.type	_LC0, %object
.size	_LC0, 8
.LC0:
.xword	.LC0
.xword	.LC0
.xword	.LC0
.xword	.LC0
.type	_LC0, %object
.size	_LC0, 8
.LC0:
.xword	.LC0
.xword	.LC0
.xword	.LC0
.xword	.LC0
.type	_LC0, %object
.size	_LC0, 8
.LC0:
.xword	.LC0
.xword	.LC0
.xword	.LC0
.xword	.LC0
.type	_LC0, %object
.size	_LC0, 8
.LC0:
.xword	.LC0
.xword	.LC0
.xword	.LC0
.xword	.LC0
.type	_LC0, %object
.size	_LC0, 8
.LC0:
.xword	.LC0
.xword	.LC0
.xword	.LC0
.xword	.LC0
.type	_LC0, %object
.size	_LC0, 8
.LC0:
.xword	.LC0
.xword	.LC0
.xword	.LC0
.xword	.LC0
.type	_LC0, %object
.size	_LC0, 8
.LC0:
.xword	.LC0
.xword	.LC0
.xword	.LC0
.xword	.LC0
.type	_LC0, %object
.size	_LC0, 8
.LC0:
.xword	.LC0
.xword	.LC0
.xword	.LC0
.xword	.LC0
.type	_LC0, %object
.size	_LC0, 8
.LC0:
.xword	.LC0
.xword	.LC0
.xword	.LC0
.xword	.LC0
.type	_LC0, %object
.size	_LC0, 8
.LC0:
.xword	.LC0
.xword	.LC0
.xword	.LC0
.xword	.LC0
.type	_LC0, %object
.size	_LC0, 8
.LC0:
.xword	.LC0
.xword	.LC0
.xword	.LC0
.xword	.LC0
.type	_LC0, %object
.size	_LC0, 8
.LC0:
.xword	.LC0
.xword	.LC0
.xword	.LC0
.xword	.LC0
.type	_LC0, %object
.size	_LC0, 8
.LC0:
.xword	.LC0
.xword	.LC0
.xword	.LC0
.xword	.LC0
.type	_LC0, %object
.size	_LC0, 8
.LC0:
.xword	.LC0
.xword	.LC0
.xword	.LC0
.xword	.LC0
.type	_LC0, %object
.size	_LC0, 8
.LC0:
.xword	.LC0
.xword	.LC0
.xword	.LC0
.xword	.LC0
.type	_LC0, %object
.size	_LC0, 8
.LC0:
.xword	.LC0
.xword	.LC0
.xword	.LC0
.xword	.LC0
.type	_LC0, %object
.size	_LC0, 8
.LC0:
.xword	.LC0
.xword	.LC0
.xword	.LC0
.xword	.LC0
.type	_LC0, %object
.size	_LC0, 8
.LC0:
.xword	.LC0
.xword	.LC0
.xword	.LC0
.xword	.LC0
.type	_LC0, %object
.size	_LC0, 8
.LC0:
.xword	.LC0
.xword	.LC0
.xword	.LC0
.xword	.LC0
.type	_LC0, %object
.size	_LC0, 8
.LC0:
.xword	.LC0
.xword	.LC0
.xword	.LC0
.xword	.LC0
.type	_LC0, %object
.size	_LC0, 8
.LC0:
.xword	.LC0
.xword	.LC0
.xword	.LC0
.xword	.LC0
.type	_LC0, %object
.size	_LC0, 8
.LC0:
.xword	.LC0
.xword	.LC0
.xword	.LC0
.xword	.LC0
.type	_LC0, %object
.size	_LC0, 8
.LC0:
.xword	.LC0
.xword	.LC0
.xword	.LC0
.xword	.LC0
.type	_LC0, %object
.size	_LC0, 8
.LC0:
.xword	.LC0
.xword	.LC0
.xword	.LC0
.xword	.LC0
.type	_LC0, %object
.size	_LC0, 8
.LC0:
.xword	.LC0
.xword	.LC0
.xword	.LC0
.xword	.LC0
.type	_LC0, %object
.size	_LC0, 8
.LC0:
.xword	.LC0
.xword	.LC0
.xword	.LC0
.xword	.LC0
.type	_LC0, %object
.size	_LC0, 8
.LC0:
.xword	.LC0
.xword	.LC0
.xword	.LC0
.xword	.LC0
.type	_LC0, %object
.size	_LC0, 8
.LC0:
.xword	.LC0
.xword	.LC0
.xword	.LC0
.xword	.LC0
.type	_LC0, %object
.size	_LC0, 8
.LC0:
.xword	.LC0
.xword	.LC0
.xword	.LC0
.xword	.LC0
.type	_LC0, %object
.size	_LC0, 8
.LC0:
.xword	.LC0
.xword	.LC0
.xword	.LC0
.xword	.LC0
.type	_LC0, %object
.size	_LC0, 8
.LC0:
.xword	.LC0
.xword	.LC0
.xword	.LC0
.xword	.LC0
.type	_LC0, %object
.size	_LC0, 8
.LC0:
.xword	.LC0
.xword	.LC0
.xword	.LC0
.xword	.LC0
.type	_LC0, %object
.size	_LC0, 8
.LC0:
.xword	.LC0
.xword	.LC0
.xword	.LC0
.xword	.LC0
.type	_LC0, %object
.size	_LC0, 8
.LC0:
.xword	.LC0
.xword	.LC0
.xword	.LC0
.xword	.LC0
.type	_LC0, %object
.size	_LC0, 8
.LC0:
.xword	.LC0
.xword	.LC0
.xword	.LC0
.xword	.LC0
.type	_LC0, %object
.size	_LC0, 8
.LC0:
.xword	.LC0
.xword	.LC0
.xword	.LC0
.xword	.LC0
.type	_LC0, %object
.size	_LC0, 8
.LC0:
.xword	.LC0
.xword	.LC0
.xword	.LC0
.xword	.LC0
.type	_LC0, %object
.size	_LC0, 8
.LC0:
.xword	.LC0
.xword	.LC0
.xword	.LC0
.xword	.LC0
.type	_LC0, %object
.size	_LC0, 8
.LC0:
.xword	.LC0
.xword	.LC0
.xword	.LC0
.xword	.LC0
.type	_LC0, %object
.size	_LC0, 8
.LC0:
.xword	.LC0
.xword	.LC0
.xword	.LC0
.xword	.LC0
.type	_LC0, %object
.size	_LC0, 8
.LC0:
.xword	.LC0
.xword	.LC0
.xword	.LC0
.xword	.LC0
.type	_LC0, %object
.size	_LC0, 8
.LC0:
.xword	.LC0
.xword	.LC0
.xword	.LC0
.xword	.LC0
.type	_LC0, %object
.size	_LC0, 8
.LC0:
.xword	.LC0
.xword	.LC0
.xword	.LC0
.xword	.LC0
.type	_LC0, %object
.size	_LC0, 8
.LC0:
.xword	.LC0
.xword	.LC0
.xword	.LC0
.xword	.LC0
.type	_LC0, %object
.size	_LC0, 8
.LC0:
.xword	.LC0
.xword	.LC0
.xword	.LC0
.xword	.LC0
.type	_LC0, %object
.size	_LC0, 8
.LC0:
.xword	.LC0
.xword	.LC0
.xword	.LC0
.xword	.LC0
.type	_LC0, %object
.size	_LC0, 8
.LC0:
.xword	.LC0
.xword	.LC0
.xword	.LC0
.xword	.LC0
.type	_LC0, %object
.size	_LC0, 8
.LC0:
.xword	.LC0
.xword	.LC0
.xword	.LC0
.xword	.LC0
.type	_LC0, %object
.size	_LC0, 8
.LC0:
.xword	.LC0
.xword	.LC0
.xword	.LC0
.xword	.LC0
.type	_LC0, %object
.size	_LC0, 8
.LC0:
.xword	.LC0
.xword	.LC0
.xword	.LC0
.xword	.LC0
.type	_LC0, %object
.size	_LC0, 8
.LC0:
.xword	.LC0
.xword	.LC0
.xword	.LC0
.xword	.LC0
.type	_LC0, %object
.size	_LC0, 8
.LC0:
.xword	.LC0
.xword	.LC0
.xword	.LC0
.xword	.LC0
.type	_LC0, %object
.size	_LC0, 8
.LC0:
.xword	.LC0
.xword	.LC0
.xword	.LC0
.xword	.LC0
.type	_LC0, %object
.size	_LC0, 8
.LC0:
.xword	.LC0
.xword	.LC0
.xword	.LC0
.xword	.LC0
.type	_LC0, %object
.size	_LC0, 8
.LC0:
.xword	.LC0
.xword	.LC0
.xword	.LC0
.xword	.LC0
.type	_LC0, %object
.size	_LC0, 8
.LC0:
.xword	.LC0
.xword	.LC0
.xword	.LC0
.xword	.LC0
.type	_LC0, %object
.size	_LC0, 8
.LC0:
.xword	.LC0
.xword	.LC0
.xword	.LC0
.xword	.LC0
.type	_LC0, %object
.size	_LC0, 8
.LC0:
.xword	.LC0
.xword	.LC0
.xword	.LC0
.xword	.LC0
.type	_LC0, %object
.size	_LC0, 8
.LC0:
.xword	.LC0
.xword	.LC0
.xword	.LC0
.xword	.LC0
.type	_LC0, %object
.size	_LC0, 8
.LC0:
.xword	.LC0
.xword	.LC0
.xword	.LC0
.xword	.LC0
.type	_LC0, %object
.size	_LC0, 8
.LC0:
.xword	.LC0
.xword	.LC0
.xword	.LC0
.xword	.LC0
.type	_LC0, %object
.size	_LC0, 8
.LC0:
.xword	.LC0
.xword	.LC0
.xword	.LC0
.xword	.LC0
.type	_LC0, %object
.size	_LC0, 8
.LC0:
.xword	.LC0
.xword	.LC0
.xword	.LC0
.xword	.LC0
.type	_LC0, %object
.size	_LC0, 8
.LC0:
.xword	.LC0
.xword	.LC0
.xword	.LC0
.xword	.LC0
.type	_LC0, %object
.size	_LC0, 8
.LC0:
.xword	.LC0
.xword	.LC0
.xword	.LC0
.xword	.LC0
.type	_LC0, %object
.size	_LC0, 8
.LC0:
.xword	.LC0
.xword	.LC0
.xword	.LC0
.xword	.LC0
.type	_LC0, %object
.size	_LC0, 8
.LC0:
.xword	.LC0
.xword	.LC0
.xword	.LC0
.xword	.LC0
.type	_LC0, %object
.size	_LC0, 8
.LC0:
.xword	.LC0
.xword	.LC0
.xword	.LC0
.xword	.LC0
.type	_LC0, %object
.size	_LC0, 8
.LC0:
.xword	.LC0
.xword	.LC0
.xword	.LC0
.xword	.LC0
.type	_LC0, %object
.size	_LC0, 8
.LC0:
.xword	.LC0
.xword	.LC0
.xword	.LC0
.xword	.LC0
.type	_LC0, %object
.size	_LC0, 8
.LC0:
.xword	.LC0
.xword	.LC0
.xword	.LC0
.xword	.LC0
.type	_LC0, %object
.size	_LC0, 8
.LC0:
.xword	.LC0
.xword	.LC0
.xword	.LC0
.xword	.LC0
.type	_LC0, %object
.size	_LC0, 8
.LC0:
.xword	.LC0
.xword	.LC0
.xword	.LC0
.xword	.LC0
.type	_LC0, %object
.size	_LC0, 8
.LC0:
.xword	.LC0
.xword	.LC0
.xword	.LC0
.xword	.LC0
.type	_LC0, %object
.size	_LC0, 8
.LC0:
.xword	.LC0
.xword	.LC0
.xword	.LC0
.xword	.LC0
.type	_LC0, %object
.size	_LC0, 8
.LC0:
.xword	.LC0
.xword	.LC0
.xword	.LC0
.xword	.LC0
.type	_LC0, %object
.size	_LC0, 8
.LC0:
.xword	.LC0
.xword	.LC0
.xword	.LC0
.xword	.LC0
.type	_LC0, %object
.size	_LC0, 8
.LC0:
.xword	.LC0
.xword	.LC0
.xword	.LC0
.xword	.LC0
.type	_LC0, %object
.size	_LC0, 8
.LC0:
.xword	.LC0
.xword	.LC0
.xword	.LC0
.xword	.LC0
.type	_LC0, %object
.size	_LC0, 8
.LC0:
.xword	.LC0
.xword	.LC0
.xword	.LC0
.xword	.LC0
.type	_LC0, %object
.size	_LC0, 8
.LC0:
.xword	.LC0
.xword	.LC0
.xword	.LC0
.xword	.LC0
.type	_LC0, %object
.size	_LC0, 8
.LC0:
.xword	.LC0
.xword	.LC0
.xword	.LC0
.xword	.LC0
.type	_LC0, %object
.size	_LC0, 8
.LC0:
.xword	.LC0
.xword	.LC0
.xword	.LC0
.xword	.LC0
.type	_LC0, %object
.size	_LC0, 8
.LC0:
.xword	.LC0
.xword	.LC0
.xword	.LC0
.xword	.LC0
.type	_LC0, %object
.size	_LC0, 8
.LC0:
.xword	.LC0
.xword	.LC0
.xword	.LC0
.xword	.LC0
.type	_LC0, %object
.size	_LC0, 8
.LC0:
.xword	.LC0
.xword	.LC0
.xword	.LC0
.xword	.LC0
.type	_LC0, %object
.size	_LC0, 8
.LC0:
.xword	.LC0
.xword	.LC0
.xword	.LC0
.xword	.LC0
.type	_LC0, %object
.size	_LC0, 8
.LC0:
.xword	.LC0
.xword	.LC0
.xword	.LC0
.xword	.LC0
.type	_LC0, %object
.size	_LC0, 8
.LC0:
.xword	.LC0
.xword	.LC0
.xword	.LC0
.xword	.LC0
.type	_LC0, %object
.size	_LC0, 8
.LC0:
.xword	.LC0
.xword	.LC0
.xword	.LC0
.xword	.LC0
.type	_LC0, %object
.size	_LC0, 8
.LC0:
.xword	.LC0
.xword	.LC0
.xword	.LC0
.xword	.LC0
.type	_LC0, %object
.size	_LC0, 8
.LC0:
.xword	.LC0
.xword	.LC0
.xword	.LC0
.xword	.LC0
.type	_LC0, %object
.size	_LC0, 8
.LC0:
.xword	.LC0
.xword	.LC0
.xword	.LC0
.xword	.LC0
.type	_LC0, %object
.size	_LC0, 8
.LC0:
.xword	.LC0
.xword	.LC0
.xword	.LC0
.xword	.LC0
.type	_LC0, %object
.size	_LC0, 8
.LC0:
.xword	.LC0
.xword	.LC0
.xword	.LC0
.xword	.LC0
.type	_LC0, %object
.size	_LC0, 8
.LC0:
.xword	.LC0
.xword	.LC0
.xword	.LC0
.xword	.LC0
.type	_LC0, %object
.size	_LC0, 8
.LC0:
.xword	.LC0
.xword	.LC0
.xword	.LC0
.xword	.LC0
.type	_LC0, %object
.size	_LC0, 8
.LC0:
.xword	.LC0
.xword	.LC0
.xword	.LC0
.xword	.LC0
.type	_LC0, %object
.size	_LC0, 8
.LC0:
.xword	.LC0
.xword	.LC0
.xword	.LC0
.xword	.LC0
.type	_LC0, %object
.size	_LC0, 8
.LC0:
.xword	.LC0
.xword	.LC0
.xword	.LC0
.xword	.LC0
.type	_LC0, %object
.size	_LC0, 8
.LC0:
.xword	.LC0
.xword	.LC0
.xword	.LC0
.xword	.LC0
.type	_LC0, %object
.size	_LC0, 8
.LC0:
.xword	.LC0
.xword	.LC0
.xword	.LC0
.xword	.LC0
.type	_LC0, %object
.size	_LC0, 8
.LC0:
.xword	.LC0
.xword	.LC0
.xword	.LC0
.xword	.LC0
.type	_LC0, %object
.size	_LC0, 8
.LC0:
.xword	.LC0
.xword	.LC0
.xword	.LC0
.xword	.LC0
.type	_LC0, %object
.size	_LC0, 8
.LC0:
.xword	.LC0
.xword	.LC0
.xword	.LC0
.xword	.LC0
.type	_LC0, %object
.size	_LC0, 8
.LC0:
.xword	.LC0
.xword	.LC0
.xword	.LC0
.xword	.LC0
.type	_LC0, %object
.size	_LC0, 8
.LC0:
.xword	.LC0
.xword	.LC0
.xword	.LC0
.xword	.LC0
.type	_LC0, %object
.size	_LC0, 8
.LC0:
.xword	.LC0
.xword	.LC0
.xword	.LC0
.xword	.LC0
.type	_LC0, %object
.size	_LC0, 8
.LC0:
.xword	.LC0
.xword	.LC0
.xword	.LC0
.xword	.LC0
.type	_LC0, %object
.size	_LC0, 8
.LC0:
.xword	.LC0
.xword	.LC0
.xword	.LC0
.xword	.LC0
.type	_LC0, %object
.size	_LC0, 8
.LC0:
.xword	.LC0
.xword	.LC0
.xword	.LC0
.xword	.LC0
.type	_LC0, %object
.size	_LC0, 8
.LC0:
.xword	.LC0
.xword	.LC0
.xword	.LC0
.xword	.LC0
.type	_LC0, %object
.size	_LC0, 8
.LC0:
.xword	.LC0
.xword	.LC0
.xword	.LC0
.xword	.LC0
.type	_LC0, %object
.size	_LC0, 8
.LC0:
.xword	.LC0
.xword	.LC0
.xword	.LC0
.xword	.LC0
.type	_LC0, %object
.size	_LC0, 8
.LC0:
.xword	.LC0
.xword	.LC0
.xword	.LC0
.xword	.LC0
.type	_LC0, %object
.size	_LC0, 8
.LC0:
.xword	.LC0
.xword	.LC0
.xword	.LC0
.xword	.LC0
.type	_LC0, %object
.size	_LC0, 8
.LC0:
.xword	.LC0
.xword	.LC0
.xword	.LC0
.xword	.LC0
.type	_LC0, %object
.size	_LC0, 8
.LC0:
.xword	.LC0
.xword	.LC0
.xword	.LC0
.xword	.LC0
.type	_LC0, %object
.size	_LC0, 8
.LC0:
.xword	.LC0
.xword	.LC0
.xword	.LC0
.xword	.LC0
.type	_LC0, %object
.size	_LC0, 8
.LC0:
.xword	.LC0
.xword	.LC0
.xword	.LC0
.xword	.LC0
.type	_LC0, %object
.size	_LC0, 8
.LC0:
.xword	.LC0
.xword	.LC0
.xword	.LC0
.xword	.LC0
.type	_LC0, %object
.size	_LC0, 8
.LC0:
.xword	.LC0
.xword	.LC0
.xword	.LC0
.xword	.LC0
.type	_LC0, %object
.size	_LC0, 8
.LC0:
.xword	.LC0
.xword	.LC0
.xword	.LC0
.xword	.LC0
.type	_LC0, %object
.size	_LC0, 8
.LC0:
.xword	.LC0
.xword	.LC0
.xword	.LC0
.xword	.LC0
.type	_LC0, %object
.size	_LC0, 8
.LC0:
.xword	.LC0
.xword	.LC0
.xword	.LC0
.xword	.LC0
.type	_LC0, %object
.size	_LC0, 8
.LC0:
.xword	.LC0
.xword	.LC0
.xword	.LC0
.xword	.LC0
.type	_LC0, %object
.size	_LC0, 8
.LC0:
.xword	.LC0
.xword	.LC0
.xword	.LC0
.xword	.LC0
.type	_LC0, %object
.size	_LC0, 8
.LC0:
.xword	.LC0
.xword	.LC0
.xword	.LC0
.xword	.LC0
.type	_LC0, %object
.size	_LC0, 8
.LC0:
.xword	.LC0
.xword	.LC0
.xword	.LC0
.xword	.LC0
.type	_LC0, %object
.size	_LC0, 8
.LC0:
.xword	.LC0
.xword	.LC0
.xword	.LC0
.xword	.LC0
.type	_LC0, %object
.size	_LC0, 8
.LC0:
.xword	.LC0
.xword	.LC0
.xword	.LC0
.xword	.LC0
.type	_LC0, %object
.size	_LC0, 8
.LC0:
.xword	.LC0
.xword	.LC0
.xword	.LC0
.xword	.LC0
.type	_LC0, %object
.size	_LC0, 8
.LC0:
.xword	.LC0
.xword	.LC0
.xword	.LC0
.xword	.LC0
.type	_LC0, %object
.size	_LC0, 8
.LC0:
.xword	.LC0
.xword	.LC0
.xword	.LC0
.xword	.LC0
.type	_LC0, %object
.size	_LC0, 8
.LC0:
.xword	.LC0
.xword	.LC0
.xword	.LC0
.xword	.LC0
.type	_LC0, %object
.size	_LC0, 8
.LC0:
.xword	.LC0
.xword	.LC0
.xword	.LC0
.xword	.LC0
.type	_LC0, %object
.size	_LC0, 8
.LC0:
.xword	.LC0
.xword	.LC0
.xword	.LC0
.xword	.LC0
.type	_LC0, %object
.size	_LC0, 8
.LC0:
.xword	.LC0
.xword	.LC0
.xword	.LC0
.xword	.LC0
.type	_LC0, %object
.size	_LC0, 8
.LC0:
.xword	.LC0
.xword	.LC0
.xword	.LC0
.xword	.LC0
.type	_LC0, %object
.size	_LC0, 8
.LC0:
.xword	.LC0
.xword	.LC0
.xword	.LC0
.xword	.LC0
.type	_LC0, %object
.size	_LC0, 8
.LC0:
.xword	.LC0
.xword	.LC0
.xword	.LC0
.xword	.LC0
.type	_LC0, %object
.size	_LC0, 8
.LC0:
.xword	.LC0
.xword	.LC0
.xword	.LC0
.xword	.LC0
.type	_LC0, %object
.size	_LC0, 8
.LC0:
.xword	.LC0
.xword	.LC0
.xword	.LC0
.xword	.LC0
.type	_LC0, %object
.size	_LC0, 8
.LC0:
.xword	.LC0
.xword	.LC0
.xword	.LC0
.xword	.LC0
.type	_LC0, %object
.size	_LC0, 8
.LC0:
.xword	.LC0
.xword	.LC0
.xword	.LC0
.xword	.LC0
.type	_LC0, %object
.size	_LC0, 8
.LC0:
.xword	.LC0
.xword	.LC0
.xword	.LC0
.xword	.LC0
.type	_LC0, %object
.size	_LC0, 8
.LC0:
.xword	.LC0
.xword	.LC0
.xword	.LC0
.xword	.LC0
.type	_LC0, %object
.size	_LC0, 8
.LC0:
.xword	.LC0
.xword	.LC0
.xword	.LC0
.xword	.LC0
.type	_LC0, %object
.size	_LC0, 8
.LC0:
.xword	.LC0
.xword	.LC0
.xword	.LC0
.xword	.LC0
.type	_LC0, %object
.size	_LC0, 8
.LC0:
.xword	.LC0
.xword	.LC0
.xword	.LC0
.xword	.LC0
.type	_LC0, %object
.size	_LC0, 8
.LC0:
.xword	.LC0
.xword	.LC0
.xword	.LC0
.xword	.LC0
.type	_LC0, %object
.size	_LC0, 8
.LC0:
.xword	.LC0
.xword	.LC0
.xword	.LC0
.xword	.LC0
.type	_LC0, %object
.size	_LC0, 8
.LC0:
.xword	.LC0
.xword	.LC0
.xword	.LC0
.xword	.LC0
.type	_LC0, %object
.size	_LC0, 8
.LC0:
.xword	.LC0
.xword	.LC0
.xword	.LC0
.xword	.LC0
.type	_LC0, %object
.size	_LC0, 8
.LC0:
.xword	.LC0
.xword	.LC0
.xword	.LC0
.xword	.LC0
.type	_LC0, %object
.size	_LC0, 8
.LC0:
.xword	.LC0
.xword	.LC0
.xword	.LC0
.xword	.LC0
.type	_LC0, %object
.size	_LC0, 8
.LC0:
.xword	.LC0
.xword	.LC0
.xword	.LC0
.xword	.LC0
.type	_LC0, %object
.size	_LC0, 8
.LC0:
.xword	.LC0
.xword	.LC0
.xword	.LC0
.xword	.LC0
.type	_LC0, %object
.size	_LC0, 8
.LC0:
.xword	.LC0
.xword	.LC0
.xword	.LC0
.xword	.LC0
.type	_LC0, %object
.size	_LC0, 8
.LC0:
.xword	.LC0
.xword	.LC0
.xword	.LC0
.xword	.LC0
.type	_LC0, %object
.size	_LC0, 8
.LC0:
.xword	.LC0
.xword	.LC0
.xword	.LC0
.xword	.LC0
.type	_LC0, %object
.size	_LC0, 8
.LC0:
.xword	.LC0
.xword	.LC0
.xword	.LC0
.xword	.LC0
.type	_LC0, %object
.size	_LC0, 8
.LC0:
.xword	.LC0
.xword	.LC0
.xword	.LC0
.xword	.LC0
.type	_LC0, %object
.size	_LC0, 8
.LC0:
.xword	.LC0
.xword	.LC0
.xword	.LC0
.xword	.LC0
.type	_LC0, %object
.size	_LC0, 8
.LC0:
.xword	.LC0
.xword	.LC0
.xword	.LC0
.xword	.LC0
.type	_LC0, %object
.size	_LC0, 8
.LC0:
.xword	.LC0
.xword	.LC0
.xword	.LC0
.xword	.LC0
.type	_LC0, %object
.size	_LC0, 8
.LC0:
.xword	.LC0
.xword	.LC0
.xword	.LC0
.xword	.LC0
.type	_LC0, %object
.size	_LC0, 8
.LC0:
.xword	.LC0
.xword	.LC0
.xword	.LC0
.xword	.LC0
.type	_LC0, %object
.size	_LC0, 8
.LC0:
.xword	.LC0
.xword	.LC0
.xword	.LC0
.xword	.LC0
.type	_LC0, %object
.size	_LC0, 8
.LC0:
.xword	.LC0
.xword	.LC0
.xword	.LC0
.xword	.LC0
.type	_LC0, %object
.size	_LC0, 8
.LC0:
.xword	.LC0
.xword	.LC0
.xword	.LC0
.xword	.LC0
.type	_LC0, %object
.size	_LC0, 8
.LC0:
.xword	.LC0
.xword	.LC0
.xword	.LC0
.xword	.LC0
.type	_LC0, %object
.size	_LC0, 8
.LC0:
.xword	.LC0
.xword	.LC0
.xword	.LC0
.xword	.LC0
.type	_LC0, %object
.size	_LC0, 8
.LC0:
.xword	.LC0
.xword	.LC0
.xword	.LC0
.xword	.LC0
.type	_LC0, %object
.size	_LC0, 8
.LC0:
.xword	.LC0
.xword	.LC0
.xword	.LC0
.xword	.LC0
.type	_LC0, %object
.size	_LC0, 8
.LC0:
.xword	.LC0
.xword	.LC0
.xword	.LC0
.xword	.LC0
.type	_LC0, %object
.size	_LC0, 8
.LC0:
.xword	.LC0
.xword	.LC0
.xword	.LC0
.xword	.LC0
.type	_LC0, %object
.size	_LC0, 8
.LC0:
.xword	.LC0
.xword	.LC0
.xword	.LC0
.xword	.LC0
.type	_LC0, %object
.size	_LC0, 8
.LC0:
.xword	.LC0
.xword	.LC0
.xword	.LC0
.xword	.LC0
.type	_LC0, %object
.size	_LC0, 8
.LC0:
.xword	.LC0
.xword	.LC0
.xword	.LC0
.xword	.LC0
.type	_LC0, %object
.size	_LC0, 8
.LC0:
.xword	.LC0
.xword	.LC0
.xword	.LC0
.xword	.LC0
.type	_LC0, %object
.size	_LC0, 8
.LC0:
.xword	.LC0
.xword	.LC0
.xword	.LC0
.xword	.LC0
.type	_LC0, %object
.size	_LC0, 8
.LC0:
.xword	.LC0
.xword	.LC0
.xword	.LC0
.xword	.LC0
.type	_LC0, %object
.size	_LC0, 8
.LC0:
.xword	.LC0
.xword	.LC0
.xword	.LC0
.xword	.LC0
.type	_LC0, %object
.size	_LC0, 8
.LC0:
.xword	.LC0
.xword	.LC0
.xword	.LC0
.xword	.LC0
.type	_LC0, %object
.size	_LC0, 8
.LC0:
.xword	.LC0
.xword	.LC0
.xword	.LC0
.xword	.LC0
.type	_LC0, %object
.size	_LC0, 8
.LC0:
.xword	.LC0
.xword	.LC0
.xword	.LC0
.xword	.LC0
.type	_LC0, %object
.size	_LC0, 8
.LC0:
.xword	.LC0
.xword	.LC0
.xword	.LC0
.xword	.LC0
.type	_LC0, %object
.size	_LC0, 8
.LC0:
.xword	.LC0
.xword	.LC0
.xword	.LC0
.xword	.LC0
.type	_LC0, %object
.size	_LC0, 8
.LC0:
.xword	.LC0
.xword	.LC0
.xword	.LC0
.xword	.LC0
.type	_LC0, %object
.size	_LC0, 8
.LC0:
.xword	.LC0
.xword	.LC0
.xword	.LC0
.xword	.LC0
.type	_LC0, %object
.size	_LC0, 8
.LC0:
.xword	.LC0
.xword	.LC0
.xword	.LC0
.xword	.LC0
.type	_LC0, %object
.size	_LC0, 8
.LC0:
.xword	.LC0
.xword	.LC0
.xword	.LC0
.xword	.LC0
.type	_LC0, %object
.size	_LC0, 8
.LC0:
.xword	.LC0
.xword	.LC0
.xword	.LC0
.xword	.LC0
.type	_LC0, %object
.size	_LC0, 8
.LC0:
.xword	.LC0
.xword	.LC0
.xword	.LC0
.xword	.LC0
.type	_LC0, %object
.size	_LC0, 8
.LC0:
.xword	.LC0
.xword	.LC0
.xword	.LC0
.xword	.LC0
.type	_LC0, %object
.size	_LC0, 8
.LC0:
.xword	.LC0
.xword	.LC0
.xword	.LC0
.xword	.LC0
.type	_LC0, %object
.size	_LC0, 8
.LC0:
.xword	.LC0
.xword	.LC0
.xword	.LC0
.xword	.LC0
.type	_LC0, %object
.size	_LC0, 8
.LC0:
.xword	.LC0
.xword	.LC0
.xword	.LC0
.xword	.LC0
.type	_LC0, %object
.size	_LC0, 8
.LC0:
.xword	.LC0
.xword	.LC0
.xword	.LC0
.xword	.LC0
.type	_LC0, %object
.size	_LC0, 8
.LC0:
.xword	.LC0
.xword	.LC0
.xword	.LC0
.xword	.LC0
.type	_LC0, %object
.size	_LC0, 8
.LC0:
.xword	.LC0
.xword	.LC0
.xword	.LC0
.xword	.LC0
.type	_LC0, %object
.size	_LC0, 8
.LC0:
.xword	.LC0
.xword	.LC0
.xword	.LC0
.xword	.LC0
.type	_LC0, %object
.size	_LC0, 8
.LC0:
.xword	.LC0
.xword	.LC0
.xword	.LC0
.xword	.LC0
.type	_LC0, %object
.size	_LC0, 8
.LC0:
.xword	.LC0
.xword	.LC0
.xword	.LC0
.xword	.LC0
.type	_LC0, %object
.size	_LC0, 8
.LC0:
.xword	.LC0
.xword	.LC0
.xword	.LC0
.xword	.LC0
.type	_LC0, %object
.size	_LC0, 8
.LC0:
.xword	.LC0
.xword	.LC0
.xword	.LC0
.xword	.LC0
.type	_LC0, %object
.size	_LC0, 8
.LC0:
.xword	.LC0
.xword	.LC0
.xword	.LC0
.xword	.LC0
.type	_LC0, %object
.size	_LC0, 8
.LC0:
.xword	.LC0
.xword	.LC0
.xword	.LC0
.xword	.LC0
.type	_LC0, %object
.size	_LC0, 8
.LC0:
.xword	.LC0
.xword	.LC0
.xword	.LC0
.xword	.LC0
.type	_LC0, %object
.size	_LC0, 8
.LC0:
.xword	.LC0
.xword	.LC0
.xword	.LC0
.xword	.LC0
.type	_LC0, %object
.size	_LC0, 8
.LC0:
.xword	.LC0
.xword	.LC0
.xword	.LC0
.xword	.LC0
.type	_LC0, %object
.size	_LC0, 8
.LC0:
.xword	.LC0
.xword	.LC0
.xword	.LC0
.xword	.LC0
.type	_LC0, %object
.size	_LC0, 8
.LC0:
.xword	.LC0
.xword	.LC0
.xword	.LC0
.xword	.LC0
.type	_LC0, %object
.size	_LC0, 8
.LC0:
.xword	.LC0
.xword	.LC0
.xword	.LC0
.xword	.LC0
.type	_LC0, %object
.size	_LC0, 8
.LC0:
.xword	.LC0
.xword	.LC0
.xword	.LC0
.xword	.LC0
.type	_LC0, %object
.size	_LC0, 8
.LC0:
.xword	.LC0
.xword	.LC0
.xword	.LC0
.xword	.LC0
.type	_LC0, %object
.size	_LC0, 8
.LC0:
.xword	.LC0
.xword	.LC0
.xword	.LC0
.xword	.LC0
.type	_LC0, %object
.size	_LC0, 8
.LC0:
.xword	.LC0
.xword	.LC0
.xword	.LC0
.xword	.LC0
.type	_LC0, %object
.size	_LC0, 8
.LC0:
.xword	.LC0
.xword	.LC0
.xword	.LC0
.xword	.LC0
.type	_LC0, %object
.size	_LC0, 8
.LC0:
.xword	.LC0
.xword	.LC0
.xword	.LC0
.xword	.LC0
.type	_LC0, %object
.size	_LC0, 8
.LC0:
.xword	.LC0
.xword	.LC0
.xword	.LC0
.xword	.LC0
.type	_LC0, %object
.size	_LC0, 8
.LC0:
.xword	.LC0
.xword	.LC0
.xword	.LC0
.xword	.LC0
.type	_LC0, %object
.size	_LC0, 8
.LC0:
.xword	.LC0
.xword	.LC0
.xword	.LC0
.xword	.LC0
.type	_LC0, %object
.size	_LC0, 8
.LC0:
.xword	.LC0
.xword	.LC0
.xword	.LC0
.xword	.LC0
.type	_LC0, %object
.size	_LC0, 8
.LC0:
.xword	.LC0
.xword	.LC0
.xword	.LC0
.xword	.LC0
.type	_LC0, %object
.size	_LC0, 8
.LC0:
.xword	.LC0
.xword	.LC0
.xword	.LC0
.xword	.LC0
.type	_LC0, %object
.size	_LC0, 8
.LC0:
.xword	.LC0
.xword	.LC0
.xword	.LC0
.xword	.LC0
.type	_LC0, %object
.size	_LC0, 8
.LC0:
.xword	.LC0
.xword	.LC0
.xword	.LC0
.xword	.LC0
.type	_LC0, %object
.size	_LC0, 8
.LC0:
.xword	.LC0
.xword	.LC0
.xword	.LC0
.xword	.LC0
.type	_LC0, %object
.size	_LC0, 8
.LC0:
.xword	.LC0
.xword	.LC0
.xword	.LC0
.xword	.LC0
.type	_LC0, %object
.size	_LC0, 8
.LC0:
.xword	.LC0
.xword	.LC0
.xword	.LC0
.xword	.LC0
.type	_LC0, %object
.size	_LC0, 8
.LC0:
.xword	.LC0
.xword	.LC0
.xword	.LC0
.xword	.LC0
.type	_LC0, %object
.size	_LC0, 8
.LC0:
.xword	.LC0
.xword	.LC0
.xword	.LC0
.xword	.LC0
.type	_LC0, %object
.size	_LC0, 8
.LC0:
.xword	.LC0
.xword	.LC0
.xword	.LC0
.xword	.LC0
.type	_LC0, %object
.size	_LC0, 8
.LC0:
.xword	.LC0
.xword	.LC0
.xword	.LC0
.xword	.LC0
.type	_LC0, %object
.size	_LC0, 8
.LC0:
.xword	.LC0
.xword	.LC0
.xword	.LC0
.xword	.LC0
.type	_LC0, %object
.size	_LC0, 8
.LC0:
.xword	.LC0
.xword	.LC0
.xword	.LC0
.xword	.LC0
.type	_LC0, %object
.size	_LC0, 8
.LC0:
.xword	.LC0
.xword	.LC0
.xword	.LC0
.xword	.LC0
.type	_LC0, %object
.size	_LC0, 8
.LC0:
.xword	.LC0
.xword	.LC0
.xword	.LC0
.xword	.LC0
.type	_LC0, %object
.size	_LC0, 8
.LC0:
.xword	.LC0
.xword	.LC0
.xword	.LC0
.xword	.LC0
.type	_LC0, %object
.size	_LC0, 8
.LC0:
.xword	.LC0
.xword	.LC0
.xword	.LC0
.xword	.LC0
.type	_LC0, %object
.size	_LC0, 8
.LC0:
.xword	.LC0
.xword	.LC0
.xword	.LC0
.xword	.LC0
.type	_LC0, %object
.size	_LC0, 8
.LC0:
.xword	.LC0
.xword	.LC0
.xword	.LC0
.xword	.LC0
.type	_LC0, %object
.size	_LC0, 8
.LC0:
.xword	.LC0
.xword	.LC0
.xword	.LC0
.xword	.LC0
.type	_LC0, %object
.size	_LC0, 8
.LC0:
.xword	.LC0
.xword	.LC0
.xword	.LC0
.xword	.LC0
.type	_LC0, %object
.size	_LC0, 8
.LC0:
.xword	.LC0
.xword	.LC0
.xword	.LC0
.xword	.LC0
.type	_LC0, %object
.size	_LC0, 8
.LC0:
.xword	.LC0
.xword	.LC0
.xword	.LC0
.xword	.LC0
.type	_LC0, %object
.size	_LC0, 8
.LC0:
.xword	.LC0
.xword	.LC0
.xword	.LC0
.xword	.LC0
.type	_LC0, %object
.size	_LC0, 8
.LC0:
.xword	.LC0
.xword	.LC0
.xword	.LC0
.xword	.LC0
.type	_LC0, %object
.size	_LC0, 8
.LC0:
.xword	.LC0
.xword	.LC0
.xword	.LC0
.xword	.LC0
.type	_LC0, %object
.size	_LC0, 8
.LC0:
.xword	.LC0
.xword	.LC0
.xword	.LC0
.xword	.LC0
.type	_LC0, %object
.size	_LC0, 8
.LC0:
.xword	.LC0
.xword	.LC0
.xword	.LC0
.xword	.LC0
.type	_LC0, %object
.size	_LC0, 8
.LC0:
.xword	.LC0
.xword	.LC0
.xword	.LC0
.xword	.LC0
.type	_LC0, %object
.size	_LC0, 8
.LC0:
.xword	.LC0
.xword	.LC0
.xword	.LC0
.xword	.LC0
.type	_LC0, %object
.size	_LC0, 8
.LC0:
.xword	.LC0
.xword	.LC0
.xword	.LC0
.xword	.LC0
.type	_LC0, %object
.size	_LC0, 8
.LC0:
.xword	.LC0
.xword	.LC0
.xword	.LC0
.xword	.LC0
.type	_LC0, %object
.size	_LC0, 8
.LC0:
.xword	.LC0
.xword	.LC0
.xword	.LC0
.xword	.LC0
.type	_LC0, %object
.size	_LC0, 8
.LC0:
.xword	.LC0
.xword	.LC0
.xword	.LC0
.xword	.LC0
.type	_LC0, %object
.size	_LC0, 8
.LC0:
.xword	.LC0
.xword	.LC0
.xword	.LC0
.xword	.LC0
.type	_LC0, %object
.size	_LC0, 8
.LC0:
.xword	.LC0
.xword	.LC0
.xword	.LC0
.xword	.LC0
.type	_LC0, %object
.size	_LC0, 8
.LC0:
.xword	.LC0
.xword	.LC0
.xword	.LC0
.xword	.LC0
.type	_LC0, %object
.size	_LC0, 8
.LC0:
.xword	.LC0
.xword	.LC0
.xword	.LC0
.xword	.LC0
.type	_LC0, %object
.size	_LC0, 8
.LC0:
.xword	.LC0
.xword	.LC0
.xword	.LC0
.xword	.LC0
.type	_LC0, %object
.size	_LC0, 8
.LC0:
.xword	.LC0
.xword	.LC0
.xword	.LC0
.xword	.LC0
.type	_LC0, %object
.size	_LC0, 8
.LC0:
.xword	.LC0
.xword	.LC0
.xword	.LC0
.xword	.LC0
.type	_LC0, %object
.size	_LC0, 8
.LC0:
.xword	.LC0
.xword	.LC0
.xword	.LC0
.xword	.LC0
.type	_LC0, %object
.size	_LC0, 8
.LC0:
.xword	.LC0
.xword	.LC0
.xword	.LC0
.xword	.LC0
.type	_LC0, %object
.size	_LC0, 8
.LC0:
.xword	.LC0
.xword	.LC0
.xword	.LC0
.xword	.LC0
.type	_LC0, %object
.size	_LC0, 8
.LC0:
.xword	.LC0
.xword	.LC0
.xword	.LC0
.xword	.LC0
.type	_LC0, %object
.size	_LC0, 8
.LC0:
.xword	.LC0
.xword	.LC0
.xword	.LC0
.xword	.LC0
.type	_LC0, %object
.size	_LC0, 8
.LC0:
.xword	.LC0
.xword	.LC0
.xword	.LC0
.xword	.LC0
.type	_LC0, %object
.size	_LC0, 8
.LC0:
.xword	.LC0
.xword	.LC0
.xword	.LC0
.xword	.LC0
.type	_LC0, %object
.size	_LC0, 8
.LC0:
.xword	.LC0
.xword	.LC0
.xword	.LC0
.xword	.LC0
.type	_LC0, %object
.size	_LC0, 8
.LC0:
.xword	.LC0
.xword	.LC0
.xword	.LC0
.xword	.LC0
.type	_LC0, %object
.size	_LC0, 8
.LC0:
.xword	.LC0
.xword	.LC0
.xword	.LC0
.xword	.LC0
.type	_LC0, %object
.size	_LC0, 8
.LC0:
.xword	.LC0
.xword	.LC0
.xword	.LC0
.xword	.LC0
.type	_LC0, %object
.size	_LC0, 8
.LC0:
.xword	.LC0
.xword	.LC0
.xword	.LC0
.xword	.LC0
.type	_LC0, %object
.size	_LC0, 8
.LC0:
.xword	.LC0
.xword	.LC0
.xword	.LC0
.xword	.LC0
.type	_LC0, %object
.size	_LC0, 8
.LC0:
.xword	.LC0
.xword	.LC0
.xword	.LC0
.xword	.LC0
.type	_LC0, %object
.size	_LC0, 8
.LC0:
.xword	.LC0
.xword	.LC0
.xword	.LC0
.xword	.LC0
.type	_LC0, %object
.size	_LC0, 8
.LC0:
.xword	.LC0
.xword	.LC0
.xword	.LC0
.xword	.LC0
.type	_LC0, %object
.size	_LC0, 8
.LC0:
.xword	.LC0
.xword	.LC0
.xword	.LC0
.xword	.LC0
.type	_LC0, %object
.size	_LC0, 8
.LC0:
.xword	.LC0
.xword	.LC0
.xword	.LC0
.xword	.LC0
.type	_LC0, %object
.size	_LC0, 8
.LC0:
.xword	.LC0
.xword	.LC0
.xword	.LC0
.xword	.LC0
.type	_LC0, %object
.size	_LC0, 8
.LC0:
.xword	.LC0
.xword	.LC0
.xword	.LC0
.xword	.LC0
.type	_LC0, %object
.size	_LC0, 8
.LC0:
.xword	.LC0
.xword	.LC0
.xword	.LC0
.xword	.LC0
.type	_LC0, %object
.size	_LC0, 8
.LC0:
.xword	.LC0
.xword	.LC0
.xword	.LC0
.xword	.LC0
.type	_LC0, %object
.size	_LC0, 8
.LC0:
.xword	.LC0
.xword	.LC0
.xword	.LC0
.xword	.LC0
.type	_LC0, %object
.size	_LC0, 8
.LC0:
.xword	.LC0
.xword	.LC0
.xword	.LC0
.xword	.LC0
.type	_LC0, %object
.size	_LC0, 8
.LC0:
.xword	.LC0
.xword	.LC0
.xword	.LC0
.xword	.LC0
.type	_LC0, %object
.size	_LC0, 8
.LC0:
.xword	.LC0
.xword	.LC0
.xword	.LC0
.xword	.LC0
.type	_LC0, %object
.size	_LC0, 8
.LC0:
.xword	.LC0
.xword	.LC0
.xword	.LC0
.xword	.LC0
.type	_LC0, %object
.size	_LC0, 8
.LC0:
.xword	.LC0
.xword	.LC0
.xword	.LC0
.xword	.LC0
.type	_LC0, %object
.size	_LC0, 8
.LC0:
.xword	.LC0
.xword	.LC0
.xword	.LC0
.xword	.LC0
.type	_LC0, %object
.size	_LC0, 8
.LC0:
.xword	.LC0
.xword	.LC0
.xword	.LC0
.xword	.LC0
.type	_LC0, %object
.size	_LC0, 8
.LC0:
.xword	.LC0
.xword	.LC0
.xword	.LC0
.xword	.LC0
.type	_LC0, %object
.size	_LC0, 8
.LC0:
.xword	.LC0
.xword	.LC0
.xword	.LC0
.xword	.LC0
.type	_LC0, %object
.size	_LC0, 8
.LC0:
.xword	.LC0
.xword	.LC0
.xword	.LC0
.xword	.LC0
.type	_LC0, %object
.size	_LC0, 8
.LC0:
.xword	.LC0
.xword	.LC0
.xword	.LC0
.xword	.LC0
.type	_LC0, %object
.size	_LC0, 8
.LC0:
.xword	.LC0
.xword	.LC0
.xword	.LC0
.xword	.LC0
.type	_LC0, %object
.size	_LC0, 8
.LC0:
.xword	.LC0
.xword	.LC0
.xword	.LC0
.xword	.LC0
.type	_LC0, %object
.size	_LC0, 8
.LC0:
.xword	.LC0
.xword	.LC0
.xword	.LC0
.xword	.LC0
.type	_LC0, %object
.size	_LC0, 8
.LC0:
.xword	.LC0
.xword	.LC0
.xword	.LC0
.xword	.LC0
.type	_LC0, %object
.size	_LC0, 8
.LC0:
.xword	.LC0
.xword	.LC0
.xword	.LC0
.xword	.LC0
.type	_LC0, %object
.size	_LC0, 8
.LC0:
.xword	.LC0
.xword	.LC0
.xword	.LC0
.xword	.LC0
.type	_LC0, %object
.size	_LC0, 8
.LC0:
.xword	.LC0
.xword	.LC0
.xword	.LC0
.xword	.LC0
.type	_LC0, %object
.size	_LC0, 8
.LC0:
.xword	.LC0
.xword	.LC0
.xword	.LC0
.xword	.LC0
.type	_LC0, %object
.size	_LC0, 8
.LC0:
.xword	.LC0
.xword	.LC0
.xword	.LC0
.xword	.LC0
.type	_LC0, %object
.size	_LC0, 8
.LC0:
.xword	.LC0
.xword	.LC0
.xword	.LC0
.xword	.LC0
.type	_LC0, %object
.size	_LC0, 8
.LC0:
.xword	.LC0
.xword	.LC0
.xword	.LC0
.xword	.LC0
.type	_LC0, %object
.size	_LC0, 8
.LC0:
.xword	.LC0
.xword	.LC0
.xword	.LC0
.xword	.LC0
.type	_LC0, %object
.size	_LC0, 8
.LC0:
.xword	.LC0
.xword	.LC0
.xword	.LC0
.xword	.LC0
.type	_LC0, %object
.size	_LC0, 8
.LC0:
.xword	.LC0
.xword	.LC0
.xword	.LC0
.xword	.LC0
.type	_LC0, %object
.size	_LC0, 8
.LC0:
.xword	.LC0
.xword	.LC0
.xword	.LC0
.xword	.LC0
.type	_LC0, %object
.size	_LC0, 8
.LC0:
.xword	.LC0
.xword	.LC0
.xword	.LC0
.xword	.LC0
.type	_LC0, %object
.size	_LC0, 8
.LC0:
.xword	.LC0
.xword	.LC0
.xword	.LC0
.xword	.LC0
.type	_LC0, %object
.size	_LC0, 8
.LC0:
.xword	.LC0
.xword	.LC0
.xword	.LC0
.xword	.LC0
.type	_LC0, %object
.size	_LC0, 8
.LC0:
.xword	.LC0
.xword	.LC0
.xword	.LC0
.xword	.LC0
.type	_LC0, %object
.size	_LC0, 8
.LC0:
.xword	.LC0
.xword	.LC0
.xword	.LC0
.xword	.LC0
.type	_LC0, %object
.size	_LC0, 8
.LC0:
.xword	.LC0
.xword	.LC0
.xword	.LC0
.xword	.LC0
.type	_LC0, %object
.size	_LC0, 8
.LC0:
.xword	.LC0
.xword	.LC0
.xword	.LC0
.xword	.LC0
.type	_LC0, %object
.size	_LC0, 8
.LC0:
.xword	.LC0
.xword	.LC0
.xword	.LC0
.xword	.LC0
.type	_LC0, %object
.size	_LC0, 8
.LC0:
.xword	.LC0
.xword	.LC0
.xword	.LC0
.xword	.LC0
.type	_LC0, %object
.size	_LC0, 8
.LC0:
.xword	.LC0
.xword	.LC0
.xword	.LC0
.xword	.LC0
.type	_LC0, %object
.size	_LC0, 8
.LC0:
.xword	.LC0
.xword	.LC0
.xword	.LC0
.xword	.LC0
.type	_LC0, %object
.size	_LC0, 8
.LC0:
.xword	.LC0
.xword	.LC0
.xword	.LC0
.xword	.LC0
.type	_LC0, %object
.size	_LC0, 8
.LC0:
.xword	.LC0
.xword	.LC0
.xword	.LC0
.xword	.LC0
.type	_LC0, %object
.size	_LC0, 8
.LC0:
.xword	.LC0
.xword	.LC0
.xword	.LC0
.xword	.LC0
.type	_LC0, %object
.size	_LC0, 8
.LC0:
.xword	.LC0
.xword	.LC0
.xword	.LC0
.xword	.LC0
.type	_LC0, %object
.size	_LC0, 8
.LC0:
.xword	.LC0
.xword	.LC0
.xword	.LC0
.xword	.LC0
.type	_LC0, %object
.size	_LC0, 8
.LC0:
.xword	.LC0
.xword	.LC0
.xword	.LC0
.xword	.LC0
.type	_LC0, %object
.size	_LC0, 8
.LC0:
.xword	.LC0
.xword	.LC0
.xword	.LC0
.xword	.LC0
.type	_LC0, %object
.size	_LC0, 8
.LC0:
.xword	.LC0
.xword	.LC0
.xword	.LC0
.xword	.LC0
.type	_LC0, %object
.size	_LC0, 8
.LC0:
.xword	.LC0
.xword	.LC0
.xword	.LC0
.xword	.LC0
.type	_LC0, %object
.size	_LC0, 8
.LC0:
.xword	.LC0
.xword	.LC0
.xword	.LC0
.xword	.LC0
.type	_LC0, %object
.size	_LC0, 8
.LC0:
.xword	.LC0
.xword	.LC0
.xword	.LC0
.xword	.LC0
.type	_LC0, %object
.size	_LC0, 8
.LC0:
.xword	.LC0
.xword	.LC0
.xword	.LC0
.xword	.LC0
.type	_LC0, %object
.size	_LC0, 8
.LC0:
.xword	.LC0
.xword	.LC0
.xword	.LC0
.xword	.LC0
.type	_LC0, %object
.size	_LC0, 8
.LC0:
.xword	.LC0
.xword	.LC0
.xword	.LC0
.xword	.LC0
.type	_LC0, %object
.size	_LC0, 8
.LC0:
.xword	.LC0
.xword	.LC0
.xword	.LC0
.xword	.LC0
.type	_LC0, %object
.size	_LC0, 8
.LC0:
.xword	.LC0
.xword	.LC0
.xword	.LC0
.xword	.LC0
.type	_LC0, %object
.size	_LC0, 8
.LC0:
.xword	.LC0
.xword	.LC0
.xword	.LC0
.xword	.LC0
.type	_LC0, %object
.size	_LC0, 8
.LC0:
.xword	.LC0
.xword	.LC0
.xword	.LC0
.xword	.LC0
.type	_LC0, %object
.size	_LC0, 8
.LC0:
.xword	.LC0
.xword	.LC0
.xword	.LC0
.xword	.LC0
.type	_LC0, %object
.size	_LC0, 8
.LC0:
.xword	.LC0
.xword	.LC0
.xword	.LC0
.xword	.LC0
.type	_LC0, %object
.size	_LC0, 8
.LC0:
.xword	.LC0
.xword	.LC0
.xword	.LC0
.xword	.LC0
.type	_LC0, %object
.size	_LC0, 8
.LC0:
.xword	.LC0
.xword	.LC0
.xword	.LC0
.xword	.LC0
.type	_LC0, %object
.size	_LC0, 8
.LC0:
.xword	.LC0
.xword	.LC0
.xword	.LC0
.xword	.LC0
.type	_LC0, %object
.size	_LC0, 8
.LC0:
.xword	.LC0
.xword	.LC0
.xword	.LC0
.xword	.LC0
.type	_LC0, %object
.size	_LC0, 8
.LC0:
.xword	.LC0
.xword	.LC0
.xword	.LC0
.xword	.LC0
.type	_LC0, %object
.size	_LC0, 8
.LC0:
.xword	.LC0
.xword	.LC0
.xword	.LC0
.xword	.LC0
.type	_LC0, %object
.size	_LC0, 8
.LC0:
.xword	.LC0
.xword	.LC0
.xword	.LC0
.xword	.LC0
.type	_LC0, %object
.size	_LC0, 8
.LC0:
.xword	.LC0
.xword	.LC0
.xword	.LC0
.xword	.LC0
.type	_LC0, %object
.size	_LC0, 8
.LC0:
.xword	.LC0
.xword	.LC0
.xword	.LC0
.xword	.LC0
.type	_LC0, %object
.size	_LC0, 8
.LC0:
.xword	.LC0
.xword	.LC0
.xword	.LC0
.xword	.LC0
.type	_LC0, %object
.size	_LC0, 8
.LC0:
.xword	.LC0
.xword	.LC0
.xword	.LC0
.xword	.LC0
.type	_LC0, %object
.size	_LC0, 8
.LC0:
.xword	.LC0
.xword	.LC0
.xword	.LC0
.xword	.LC0
.type	_LC0, %object
.size	_LC0, 8
.LC0:
.xword	.LC0
.xword	.LC0
.xword	.LC0
.xword	.LC0
.type	_LC0, %object
.size	_LC0, 8
.LC0:
.xword	.LC0
.xword	.LC0
.xword	.LC0
.xword	.LC0
.type	_LC0, %object
.size	_LC0, 8
.LC0:
.xword	.LC0
.xword	.LC0
.xword	.LC0
.xword	.LC0
.type	_LC0, %object
.size	_LC0, 8
.LC0:
.xword	.LC0
.xword	.LC0
.xword	.LC0
.xword	.LC0
.type	_LC0, %object
.size	_LC0, 8
.LC0:
.xword	.LC0
.xword	.LC0
.xword	.LC0
.xword	.LC0
.type	_LC0, %object
.size	_LC0, 8
.LC0:
.xword	.LC0
.xword	.LC0
.xword	.LC0
.xword	.LC0
.type	_LC0, %object
.size	_LC0, 8
.LC0:
.xword	.LC0
.xword	.LC0
.xword	.LC0
.xword	.LC0
.type	_LC0, %object
.size	_LC0, 8
.LC0:
.xword	.LC0
.xword	.LC0
.xword	.LC0
.xword	.LC0
.type	_LC0, %object
.size	_LC0, 8
.LC0:
.xword	.LC0
.xword	.LC0
.xword	.LC0
.xword	.LC0
.type	_LC0, %object
.size	_LC0, 8
.LC0:
.xword	.LC0
.xword	.LC0
.xword	.LC0
.xword	.LC0
.type	_LC0, %object
.size	_LC0, 8
.LC0:
.xword	.LC0
.xword	.LC0
.xword	.LC0
.xword	.LC0
.type	_LC0, %object
.size	_LC0, 8
.LC0:
.xword	.LC0
.xword	.LC0
.xword	.LC0
.xword	.LC0
.type	_LC0, %object
.size	_LC0, 8
.LC0:
.xword	.LC0
.xword	.LC0
.xword	.LC0
.xword	.LC0
.type	_LC0, %object
.size	_LC0, 8
.LC0:
.xword	.LC0
.xword	.LC0
.xword	.LC0
.xword	.LC0
.type	_LC0, %object
.size	_LC0, 8
.LC0:
.xword	.LC0
.xword	.LC0
.xword	.LC0
.xword	.LC0
.type	_LC0, %object
.size	_LC0, 8
.LC0:
.xword	.LC0
.xword	.LC0
.xword	.LC0
.xword	.LC0
.type	_LC0, %object
.size	_LC0, 8
.LC0:
.xword	.LC0
.xword	.LC0
.xword	.LC0
.xword	.LC0
.type	_LC0, %object
.size	_LC0, 8
.LC0:
.xword	.LC0
.xword	.LC0
.xword	.LC0
.xword	.LC0
.type	_LC0, %object
.size	_LC0, 8
.LC0:
.xword	.LC0
.xword	.LC0
.xword	.LC0
.xword	.LC0
.type	_LC0, %object
.size	_LC0, 8
.LC0:
.xword	.LC0
.xword	.LC0
.xword	.LC0
.xword	.LC0
.type	_LC0, %object
.size	_LC0, 8
.LC0:
.xword	.LC0
.xword	.LC0
.xword	.LC0
.xword	.LC0
.type	_LC0, %object
.size	_LC0, 8
.LC0:
.xword	.LC0
.xword	.LC0
.xword	.LC0
.xword	.LC0
.type	_LC0, %object
.size	_LC0, 8
.LC0:
.xword	.LC0
.xword	.LC0
.xword	.LC0
.xword	.LC0
.type	_LC0, %object
.size	_LC0, 8
.LC0:
.xword	.LC0
.xword	.LC0
.xword	.LC0
.xword	.LC0
.type	_LC0, %object
.size	_LC0, 8
.LC0:
.xword	.LC0
.xword	.LC0
.xword	.LC0
.xword	.LC0
.type	_LC0, %object
.size	_LC0, 8
.LC0:
.xword	.LC0
.xword	.LC0
.xword	.LC0
.xword	.LC0
.type	_LC0, %object
.size	_LC0, 8
.LC0:
.xword	.LC0
.xword	.LC0
.xword	.LC0
.xword	.LC0
.type	_LC0, %object
.size	_LC0, 8
.LC0:
.xword	.LC0
.xword	.LC0
.xword	.LC0
.xword	.LC0
.type	_LC0, %object
.size	_LC0, 8
.LC0:
.xword	.LC0
.xword	.LC0
.xword	.LC0
.xword	.LC0
.type	_LC0, %object
.size	_LC0, 8
.LC0:
.xword	.LC0
.xword	.LC0
.xword	.LC0
.xword	.LC0
.type	_LC0, %object
.size	_LC0, 8
.LC0:
.xword	.LC0
.xword	.LC0
.xword	.LC0
.xword	.LC0
.type	_LC0, %object
.size	_LC0, 8
.LC0:
.xword	.LC0
.xword	.LC0
.xword	.LC0
.xword	.LC0
.type	_LC0, %object
.size	_LC0, 8
.LC0:
.xword	.LC0
.xword	.LC0
.xword	.LC0
.xword	.LC0
.type	_LC0, %object
.size	_LC0, 8
.LC0:
.xword	.LC0
.xword	.LC0
.xword	.LC0
.xword	.LC0
.type	_LC0, %object
.size	_LC0, 8
.LC0:
.xword	.LC0
.xword	.LC0
.xword	.LC0
.xword	.LC0
.type	_LC0, %object
.size	_LC0, 8
.LC0:
.xword	.LC0
.xword	.LC0
.xword	.LC0
.xword	.LC0
.type	_LC0, %object
.size	_LC0, 8
.LC0:
.xword	.LC0
.xword	.LC0
.xword	.LC0
.xword	.LC0
.type	_LC0, %object
.size	_LC0, 8
.LC0:
.xword	.LC0
.xword	.LC0
.xword	.LC0
.xword	.LC0
.type	_LC0, %object
.size	_LC0, 8
.LC0:
.xword	.LC0
.xword	.LC0
.xword	.LC0
.xword	.LC0
.type	_LC0, %object
.size	_LC0, 8
.LC0:
.xword	.LC0
.xword	.LC0
.xword	.LC0
.xword	.LC0
.type	_LC0, %object
.size	_LC0, 8
.LC0:
.xword	.LC0
.xword	.LC0
.xword	.LC0
.xword	.LC0
.type	_LC0, %object
.size	_LC0, 8
.LC0:
.xword	.LC0
.xword	.LC0
.xword	.LC0
.xword	.LC0
.type	_LC0, %object
.size	_LC0, 8
.LC0:
.xword	.LC0
.xword	.LC0
.xword	.LC0
.xword	.LC0
.type	_LC0, %object
.size	_LC0, 8
.LC0:
.xword	.LC0
.xword	.LC0
.xword	.LC0
.xword	.LC0
.type	_LC0, %object
.size	_LC0, 8
.LC0:
.xword	.LC0
.xword	.LC0
.xword	.LC0
.xword	.LC0
.type	_LC0, %object
.size	_LC0, 8
.LC0:
.xword	.LC0
.xword	.LC0
.xword	.LC0
.xword	.LC0
.type	_LC0, %object
.size	_LC0, 8
.LC0:
.xword	.LC0
.xword	.LC0
.xword	.LC0
.xword	.LC0
.type	_LC0, %object
.size	_LC0, 8
.LC0:
.xword	.LC0
.xword	.LC0
.xword	.LC0
.xword	.LC0
.type	_LC0, %object
.size	_LC0, 8
.LC0:
.xword	.LC0
.xword	.LC0
.xword	.LC0
.xword	.LC0
.type	_LC0, %object
.size	_LC0, 8
.LC0:
.xword	.LC0
.xword	.LC0
.xword	.LC0
.xword	.LC0
.type	_LC0, %object
.size	_LC0, 8
.LC0:
.xword	.LC0
.xword	.LC0
.xword	.LC0
.xword	.LC0
.type	_LC0, %object
.size	_LC0, 8
.LC0:
.xword	.LC0
.xword	.LC0
.xword	.LC0
.xword	.LC0
.type	_LC0, %object
.size	_LC0, 8
.LC0:
.xword	.LC0
.xword	.LC0
.xword	.LC0
.xword	.LC0
.type	_LC0, %object
.size	_LC0, 8
.LC0:
.xword	.LC0
.xword	.LC0
.xword	.LC0
.xword	.LC0
.type	_LC0, %object
.size	_LC0, 8
.LC0:
.xword	.LC0
.xword	.LC0
.xword	.LC0
.xword	.LC0
.type	_LC0, %object
.size	_LC0, 8
.LC0:
.xword	.LC0
.xword	.LC0
.xword	.LC0
.xword	.LC0
.type	_LC0, %object
.size	_LC0, 8
.LC0:
.xword	.LC0
.xword	.LC0
.xword	.LC0
.xword	.LC0
.type	_LC0, %object
.size	_LC0, 8
.LC0:
.xword	.LC0
.xword	.LC0
.xword	.LC0
.xword	.LC0
.type	_LC0, %object
.size	_LC0, 8
.LC0:
.xword	.LC0
.xword	.LC0
.xword	.LC0
.xword	.LC0
.type	_LC0, %object
.size	_LC0, 8
.LC0:
.xword	.LC0
.xword	.LC0
.xword	.LC0
.xword	.LC0
.type	_LC0, %object
.size	_LC0, 8
.LC0:
.xword	.LC0
.xword	.LC0
.xword	.LC0
.xword	.LC0
.type	_LC0, %object
.size	_LC0, 8
.LC0:
.xword	.LC0
.xword	.LC0
.xword	.LC0
.xword	.LC0
.type	_LC0, %object
.size	_LC0, 8
.LC0:
.xword	.LC0
.xword	.LC0
.xword	.LC0
.xword	.LC0
.type	_LC0, %object
.size	_LC0, 8
.LC0:
.xword	.LC0
.xword	.LC0
.xword	.LC0
.xword	.LC0
.type	_LC0, %object
.size	_LC0, 8
.LC0:
.xword	.LC0
.xword	.LC0
.xword	.LC0
.xword	.LC0
.type	_LC0, %object
.size	_LC0, 8
.LC0:
.xword	.LC0
.xword	.LC0
.xword	.LC0
.xword	.LC0
.type	_LC0, %object
.size	_LC0, 8
.LC0:
.xword	.LC0
.xword	.LC0
.xword	.LC0
.xword	.LC0
.type	_LC0, %object
.size	_LC0, 8
.LC0:
.xword	.LC0
.xword	.LC0
.xword	.LC0
.xword	.LC0
.type	_LC0, %object
.size	_LC0, 8
.LC0:
.xword	.LC0
.xword	.LC0
.xword	.LC0
.xword	.LC0
.type	_LC0, %object
.size	_LC0, 8
.LC0:
.xword	.LC0
.xword	.LC0
.xword	.LC0
.xword	.LC0
.type	_LC0, %object
.size	_LC0, 8
.LC0:
.xword	.LC0
.xword	.LC0
.xword	.LC0
.xword	.LC0
.type	_LC0, %object
.size	_LC0, 8
.LC0:
.xword	.LC0
.xword	.LC0
.xword	.LC0
.xword	.LC0
.type	_LC0, %object
.size	_LC0, 8
.LC0:
.xword	.LC0
.xword	.LC0
.xword	.LC0
.xword	.LC0
.type	_LC0, %object
.size	_LC0, 8
.LC0:
.xword	.LC0
.xword	.LC0
.xword	.LC0
.xword	.LC0
.type	_LC0, %object
.size	_LC0, 8
.LC0:
.xword	.LC0
.xword	.LC0
.xword	.LC0
.xword	.LC0
.type	_LC0, %object
.size	_LC0, 8
.LC0:
.xword	.LC0
.xword	.LC0
.xword	.LC0
.xword	.LC0
.type	_LC0, %object
.size	_LC0, 8
.LC0:
.xword	.LC0
.xword	.LC0
.xword	.LC0
.xword	.LC0
.type	_LC0, %object
.size	_LC0, 8
.LC0:
.xword	.LC0
.xword	.LC0
.xword	.LC0
.xword	.LC0
.type	_LC0, %object
.size	_LC0, 8
.LC0:
.xword	.LC0
.xword	.LC0
.xword	.LC0
.xword	.LC0
.type	_LC0, %object
.size	_LC0, 8
.LC0:
.xword	.LC0
.xword	.LC0
.xword	.LC0
.xword	.LC0
.type	_LC0, %object
.size	_LC0, 8
.LC0:
.xword	.LC0
.xword	.LC0
.xword	.LC0
.xword	.LC0
.type	_LC0, %object
.size	_LC0, 8
.LC0:
.xword	.LC0
.xword	.LC0
.xword	.LC0
.xword	.LC0
.type	_LC0, %object
.size	_LC0, 8
.LC0:
.xword	.LC0
.xword	.LC0
.xword	.LC0
.xword	.LC0
.type	_LC0, %object
.size	_LC0, 8
.LC0:
.xword	.LC0
.xword	.LC0
.xword	.LC0
.xword	.LC0
.type	_LC0, %object
.size	_LC0, 8
.LC0:
.xword	.LC0
.xword	.LC0
.xword	.LC0
.xword	.LC0
.type	_LC0, %object
.size	_LC0, 8
.LC0:
.xword	.LC0
.xword	.LC0
.xword	.LC0
.xword	.LC0
.type	_LC0, %object
.size	_LC0, 8
.LC0:
.xword	.LC0
.xword	.LC0
.xword	.LC0
.xword	.LC0
.type	_LC0, %object
.size	_LC0, 8
.LC0:
.xword	.LC0
.xword	.LC0
.xword	.LC0
.xword	.LC0
.type	_LC0, %object
.size	_LC0, 8
.LC0:
.xword	.LC0
.xword	.LC0
.xword	.LC0
.xword	.LC0
.type	_LC0, %object
.size	_LC0, 8
.LC0:
.xword	.LC0
.xword	.LC0
.xword	.LC0
.xword	.LC0
.type	_LC0, %object
.size	_LC0, 8
.LC0:
.xword	.LC0
.xword	.LC0
.xword	.LC0
.xword	.LC0
.type	_LC0, %object
.size	_LC0, 8
.LC0:
.xword	.LC0
.xword	.LC0
.xword	.LC0
.xword	.LC0
.type	_LC0, %object
.size	_LC0, 8
.LC0:
.xword	.LC0
.xword	.LC0
.xword	.LC0
.xword	.LC0
.type	_LC0, %object
.size	_LC0, 8
.LC0:
.xword	.LC0
.xword	.LC0
.xword	.LC0
.xword	.LC0
.type	_LC0, %object
.size	_LC0, 8
.LC0:
.xword	.LC0
.xword	.LC0
.xword	.LC0
.xword	.LC0
.type	_LC0, %object
.size	_LC0, 8
.LC0:
.xword	.LC0
.xword	.LC0
.xword	.LC0
.xword	.LC0
.type	_LC0, %object
.size	_LC0, 8
.LC0:
.xword	.LC0
.xword	.LC0
.xword	.LC0
.xword	.LC0
.type	_LC0, %object
.size	_LC0, 8
.LC0:
.xword	.LC0
.xword	.LC0
.xword	.LC0
.xword	.LC0
.type	_LC0, %object
.size	_LC0, 8
.LC0:
.xword	.LC0
.xword	.LC0
.xword	.LC0
.xword	.LC0
.type	_LC0, %object
.size	_LC0, 8
.LC0:
.xword	.LC0
.xword	.LC0
.xword	.LC0
.xword	.LC0
.type	_LC0, %object
.size	_LC0, 8
.LC0:
.xword	.LC0
.xword	.LC0
.xword	.LC0
.xword	.LC0
.type	_LC0, %object
.size	_LC0, 8
.LC0:
.xword	.LC0
.xword	.LC0
.xword	.LC0
.xword	.LC0
.type	_LC0, %object
.size	_LC0, 8
.LC0:
.xword	.LC0
.xword	.LC0
.xword	.LC0
.xword	.LC0
.type	_LC0, %object
.size	_LC0, 8
.LC0:
.xword	.LC0
.xword	.LC0
.xword	.LC0
.xword	.LC0
.type	_LC0, %object
.size	_LC0, 8
.LC0:
.xword	.LC0
.xword	.LC0
.xword	.LC0
.xword	.LC0
.type	_LC0, %object
.size	_LC0, 8
.LC0:
.xword	.LC0
.xword	.LC0
.xword	.LC0
.xword	.LC0
.type	_LC0, %object
.size	_LC0, 8
.LC0:
.xword	.LC0
.xword	.LC0
.xword	.LC0
.xword	.LC0
.type	_LC0, %object
.size	_LC0, 8
.LC0:
.xword	.LC0
.xword	.LC0
.xword	.LC0
.xword	.LC0
.type	_LC0, %object
.size	_LC0, 8
.LC0:
.xword	.LC0
.xword	.LC0
.xword	.LC0
.xword	.LC0
.type	_LC0, %object
.size	_LC0, 8
.LC0:
.xword	.LC0
.xword	.LC0
.xword	.LC0
.xword	.LC0
.type	_LC0, %object
.size	_LC0, 8
.LC0:
.xword	.LC0
.xword	.LC0
.xword	.LC0
.xword	.LC0
.type	_LC0, %object
.size	_LC0, 8
.LC0:
.xword	.LC0
.xword	.LC0
.xword	.LC0
.xword	.LC0
.type	_LC0, %object
.size	_LC0, 8
.LC0:
.xword	.LC0
.xword	.LC0
.xword	.LC0
.xword	.LC0
.type	_LC0, %object
.size	_LC0, 8
.LC0:
.xword	.LC0
.xword	.LC0
.xword	.LC0
.xword	.LC0
.type	_LC0, %object
.size	_LC0, 8
.LC0:
.xword	.LC0
.xword	.LC0
.xword	.LC0
.xword	.LC0
.type	_LC0, %object
.size	_LC0, 8
.LC0:
.xword	.LC0
.xword	.LC0
.xword	.LC0
.xword	.LC0
.type	_LC0, %object
.size	_LC0, 8
.LC0:
.xword	.LC0
.xword	.LC0
.xword	.LC0
.xword	.LC0
.type	_LC0, %object
.size	_LC0, 8
.LC0:
.xword	.LC0
.xword	.LC0
.xword	.LC0
.xword	.LC0
.type	_LC0, %object
.size	_LC0, 8
.LC0:
.xword	.LC0
.xword	.LC0
.xword	.LC0
.xword	.LC0
.type	_LC0, %object
.size	_LC0, 8
.LC0:
.xword	.LC0
.xword	.LC0
.xword	.LC0
.xword	.LC0
.type	_LC0, %object
.size	_LC0, 8
.LC0:
.xword	.LC0
.xword	.LC0
.xword	.LC0
.xword	.LC0
.type	_LC0, %object
.size	_LC0, 8
.LC0:
.xword	.LC0
.xword	.LC0
.xword	.LC0
.xword	.LC0
.type	_LC0, %object
.size	_LC0, 8
.LC0:
.xword	.LC0
.xword	.LC0
.xword	.LC0
.xword	.LC0
.type	_LC0, %object
.size	_LC0, 8
.LC0:
.xword	.LC0
.xword	.LC0
.xword	.LC0
.xword	.LC0
.type	_LC0, %object
.size	_LC0, 8
.LC0:
.xword	.LC0
.xword	.LC0
.xword	.LC0
.xword	.LC0
.type	_LC0, %object
.size	_LC0, 8
.LC0:
.xword	.LC0
.xword	.LC0
.xword	.LC0
.xword	.LC0
.type	_LC0, %object
.size	_LC0, 8
.LC0:
.xword	.LC0
.xword	.LC0
.xword	.LC0
.xword	.LC0
.type	_LC0, %object
.size	_LC0, 8
.LC0:
.xword	.LC0
.xword	.LC0
.xword	.LC0
.xword	.LC0
.type	_LC0, %object
.size	_LC0, 8
.LC0:
.xword	.LC0
.xword	.LC0
.xword	.LC0
.xword	.LC0
.type	_LC0, %object
.size	_LC0, 8
.LC0:
.xword	.LC0
.xword	.LC0
.xword	.LC0
.xword	.LC0
.type	_LC0, %object
.size	_LC0, 8
.LC0:
.xword	.LC0
.xword	.LC0
.xword	.LC0
.xword	.LC0
.type	_LC0, %object
.size	_LC0, 8
.LC0:
.xword	.LC0
.xword	.LC0
.xword	.LC0
.xword	.LC0
.type	_LC0, %object
.size	_LC0, 8
.LC0:
.xword	.LC0
.xword	.LC0
.xword	.LC0
.xword	.LC0
.type	_LC0, %object
.size	_LC0, 8
.LC0:
.xword	.LC0
.xword	.LC0
.xword	.LC0
.xword	.LC0
.type	_LC0, %object
.size	_LC0, 8
.LC0:
.xword	.LC0
.xword	.LC0
.xword	.LC0
.xword	.LC0
.type	_LC0, %object
.size	_LC0, 8
.LC0:
.xword	.LC0
.xword	.LC0
.xword	.LC0
.xword	.LC0
.type	_LC0, %object
.size	_LC0, 8
.LC0:
.xword	.LC0
.xword	.LC0
.xword	.LC0
.xword	.LC0
.type	_LC0, %object
.size	_LC0, 8
.LC0:
.xword	.LC0
.xword	.LC0
.xword	.LC0
.xword	.LC0
.type	_LC0, %object
.size	_LC0, 8
.LC0:
.xword	.LC0
.xword	.LC0
.xword	.LC0
.xword	.LC0
.type	_LC0, %object
.size	_LC0, 8
.LC0:
.xword	.LC0
.xword	.LC0
.xword	.LC0
.xword	.LC0
.type	_LC0, %object
.size	_LC0, 8
.LC0:
.xword	.LC0
.xword	.LC0
.xword	.LC0
.xword	.LC0
.type	_LC0, %object
.size	_LC0, 8
.LC0:
.xword	.LC0
.xword	.LC0
.xword	.LC0
.xword	.LC0
.type	_LC0, %object
.size	_LC0, 8
.LC0:
.xword	.LC0
.xword	.LC0
.xword	.LC0
.xword	.LC0
.type	_LC0, %object
.size	_LC0, 8
.LC0:
.xword	.LC0
.xword	.LC0
.xword	.LC0
.xword	.LC0
.type	_LC0, %object
.size	_LC0, 8
.LC0:
.xword	.LC0
.xword	.LC0
.xword	.LC0
.xword	.LC0
.type	_LC0, %object
.size	_LC0, 8
.LC0:
.xword	.LC0
.xword	.LC0
.xword	.LC0
.xword	.LC0
.type	_LC0, %object
.size	_LC0, 8
.LC0:
.xword	.LC0
.xword	.LC0
.xword	.LC0
.xword	.LC0
.type	_LC0, %object
.size	_LC0, 8
.LC0:
.xword	.LC0
.xword	.LC0
.xword	.LC0
.xword	.LC0
.type	_LC0, %object
.size	_LC0, 8
.LC0:
.xword	.LC0
.xword	.LC0
.xword	.LC0
.xword	.LC0
.type	_LC0, %object
.size	_LC0, 8
.LC0:
.xword	.LC0
.xword	.LC0
.xword	.LC0
.xword	.LC0
.type	_LC0, %object
.size	_LC0, 8
.LC0:
.xword	.LC0
.xword	.LC0
.xword	.LC0
.xword	.LC0
.type	_LC0, %object
.size	_LC0, 8
.LC0:
.xword	.LC0
.xword	.LC0
.xword	.LC0
.xword	.LC0
.type	_LC0, %object
.size	_LC0, 8
.LC0:
.xword	.LC0
.xword	.LC0
.xword	.LC0
.xword	.LC0
.type	_LC0, %object
.size	_LC0, 8
.LC0:
.xword	.LC0
.xword	.LC0
.xword	.LC0
.xword	.LC0
.type	_LC0, %object
.size	_LC0, 8
.LC0:
.xword	.LC0
.xword	.LC0
.xword	.LC0
.xword	.LC0
.type	_LC0, %object
.size	_LC0, 8
.LC0:
.xword	.LC0
.xword	.LC0
.xword	.LC0
.xword	.LC0
.type	_LC0, %object
.size	_LC0, 8
.LC0:
.xword	.LC0
.xword	.LC0
.xword	.LC0
.xword	.L