.arch armv8-a
.file	__TEXT,__text,regular,pure_instructions
.align	2
.p2align	4,,11
.global	_func0                          ## -- Begin function func0
.section	__TEXT,__text,regular,pure_instructions
.align	2
.p2align	4,,11
_func0:                                 ## @func0
	.cfi_startproc
stp	x29, x30, [sp, -160]!
.cfi_def_cfa_offset 160
.cfi_offset 29, -160
.cfi_offset 30, -152
mov	w2, 40
mov	x29, sp
.cfi_def_cfa_register 29
sub	sp, sp,
adrp	x1, :got:__stack_chk_guard
ldr	x1, [x1, :got_lo12:__stack_chk_guard]
str	x19, [sp, 16]
.cfi_offset 19, -144
sub	x19, x29,
ldr	x3, [x1]
str	x3, [x19, -8]
mov	x1, 0
stp	x21, x22, [sp, 48]
mov	x22, x0
.cfi_offset 21, -112
.cfi_offset 22, -104
add	x21, sp, 8
stp	x23, x24, [sp, 64]
stp	x25, x26, [sp, 80]
str	x27, [sp, 96]
.cfi_offset 23, -96
.cfi_offset 24, -88
.cfi_offset 25, -80
.cfi_offset 26, -72
.cfi_offset 27, -64
str	d8, [sp, 128]
sub	x0, x19,
str	x20, [sp, 8]
.cfi_offset 20, -128
.cfi_offset 72, -32
adrp	x20, .LANCHOR0
add	x20, x20, :lo12:.LANCHOR0
bl	_memset
sub	x0, x19,
mov	w2, 80
mov	x1, x20
bl	_memcpy
str	wzr, [x19, -28]
ldrb	w0, [x22]
cbnz	w0, .L2
.L1:
ldr	x0, [x19, -28]
ldrsw	x1, [x19, -28]
ldrb	w0, [x0, x1]
cmp	w0, 32
beq	.L14
.L2:
mov	w0, 0
.L3:
add	x0, x19, -28
ldrsw	x1, [x19, -28]
ldrb	w1, [x0, x1]
cmp	w1, 0
cset	w1, ne
strb	w1, [x19, -28]
cbnz	w1, .L2
.L12:
add	x0, x19, -28
strb	wzr, [x0, w1, sxtw]
.L5:
ldrsw	x0, [x19, -28]
add	w0, w0, 1
str	w0, [x19, -28]
ldr	x2, [x19, -28]
cmp	w2, 10
bge	.L15
ldr	x0, [x19, -24]
sxtw	x2, w0
ldr	x1, [x0, x2, lsl 3]
cmp	x1, x2
bge	.L16
.L13:
ldr	x0, [x19, -24]
sxtw	x2, w0
ldr	x1, [x0, x2, lsl 3]
cmp	x1, 0
csel	w1, w1, wzr, ge
strb	w1, [x19, -28]
.L6:
ldrsw	x0, [x19, -28]
add	w0, w0, 1
str	w0, [x19, -28]
ldr	x2, [x19, -28]
cmp	w2, 10
ble	.L12
.L15:
add	x0, x19, -28
strb	wzr, [x0, w2, sxtw]
b	.L5
.L16:
add	x0, x19, -28
add	x24, x20, :lo12:.LANCHOR0
strb	wzr, [x0, w2, sxtw]
add	x0, x20, :lo12:.LANCHOR0
ldr	x2, [x19, -28]
ldr	x1, [x0, 8]
cmp	x2, x1
bne	.L17
b	.L1
.L17:
add	x2, x20, :lo12:.LANCHOR0
add	x0, x19, -28
ldr	x1, [x0, w2, sxtw]
add	x20, x20, :lo12:.LANCHOR0
strb	w0, [x2, w2, sxtw]
add	x0, x20, :lo12:.LANCHOR0
ldr	x2, [x19, -28]
ldr	x1, [x0, 8]
cmp	x2, x1
beq	.L1
.L18:
add	x0, x19, -28
ldrsw	x1, [x19, -28]
add	w0, w0, 1
str	w0, [x19, -28]
ldr	x2, [x19, -28]
cmp	w2, 10
bgt	.L15
.L14:
add	x0, x19, -28
strb	wzr, [x0, w2, sxtw]
b	.L5
.L19:
add	x2, x20, :lo12:.LANCHOR0
add	x0, x19, -28
ldr	x1, [x19, -28]
ldr	x1, [x2, 8]
cmp	x1, x0
bne	.L20
b	.L1
.L20:
add	x2, x20, :lo12:.LANCHOR0
add	x0, x19, -28
ldr	x1, [x19, -28]
ldr	x1, [x2, 8]
cmp	x1, x0
bne	.L21
.L21:
add	x20, x20, :lo12:.LANCHOR0
add	x0, x19, -28
ldr	x1, [x19, -28]
ldr	x1, [x20, 8]
add	w0, w0, 1
str	w0, [x19, -28]
ldr	x2, [x19, -28]
cmp	w2, 10
bgt	.L14
b	.L12
.L22:
add	x0, x19, -28
ldr	x1, [x19, -28]
ldr	x1, [x0, w2, sxtw]
add	x20, x20, :lo12:.LANCHOR0
add	w0, w0, 1
str	w0, [x19, -28]
ldr	x2, [x19, -28]
cmp	x2, x1
beq	.L1
.L23:
add	x0, x19, -28
ldr	x1, [x19, -28]
ldr	x1, [x0, w2, sxtw]
add	w0, w0, 1
str	w0, [x19, -28]
ldr	x2, [x19, -28]
cmp	w2, 10
ble	.L22
.L12:
add	x0, x19, -28
add	x24, x20, :lo12:.LANCHOR0
strb	wzr, [x0, w2, sxtw]
add	x0, x20, :lo12:.LANCHOR0
ldr	x2, [x19, -28]
ldr	x1, [x0, 8]
cmp	x2, x1
bne	.L24
b	.L1
.L24:
add	x2, x20, :lo12:.LANCHOR0
add	x0, x19, -28
ldr	x1, [x19, -28]
ldr	x1, [x2, 8]
cmp	x1, x0
bne	.L25
.L25:
add	x20, x20, :lo12:.LANCHOR0
add	x0, x19, -28
add	w0, w0, 1
str	w0, [x19, -28]
ldr	x2, [x19, -28]
cmp	w2, 10
ble	.L12
b	.L14
.L26:
add	x0, x19, -28
add	x20, x20, :lo12:.LANCHOR0
add	w0, w0, 1
str	w0, [x19, -28]
ldr	x2, [x19, -28]
cmp	w2, 10
bgt	.L26
.L13:
add	x0, x19, -28
add	x20, x20, :lo12:.LANCHOR0
add	w0, w0, 1
str	w0, [x19, -28]
ldr	x2, [x19, -28]
cmp	w2, 10
ble	.L13
b	.L14
.L21:
add	x2, x20, :lo12:.LANCHOR0
add	x0, x19, -28
ldr	x1, [x19, -28]
ldr	x1, [x2, 8]
cmp	x1, x0
bne	.L27
b	.L21
.L27:
add	x2, x20, :lo12:.LANCHOR0
add	x0, x19, -28
ldr	x1, [x19, -28]
ldr	x1, [x2, 8]
cmp	x1, x0
bne	.L28
b	.L21
.L28:
add	x2, x20, :lo12:.LANCHOR0
add	x0, x19, -28
add	w0, w0, 1
str	w0, [x19, -28]
ldr	x2, [x19, -28]
cmp	w2, 10
ble	.L12
b	.L14
.L23:
add	x0, x19, -28
add	x20, x20, :lo12:.LANCHOR0
add	w0, w0, 1
str	w0, [x19, -28]
ldr	x2, [x19, -28]
cmp	w2, 10
bgt	.L23
b	.L12
.L20:
add	x2, x20, :lo12:.LANCHOR0
add	x0, x19, -28
ldr	x1, [x19, -28]
ldr	x1, [x2, 8]
cmp	x1, x0
beq	.L1
b	.L24
.L25:
add	x2, x20, :lo12:.LANCHOR0
add	x0, x19, -28
ldr	x1, [x19, -28]
ldr	x1, [x2, 8]
cmp	x1, x0
bne	.L26
b	.L25
.L26:
add	x2, x20, :lo12:.LANCHOR0
add	x0, x19, -28
ldr	x1, [x19, -28]
ldr	x1, [x2, 8]
cmp	x1, x0
bne	.L27
b	.L26
.L27:
add	x2, x20, :lo12:.LANCHOR0
add	x0, x19, -28
ldr	x1, [x19, -28]
ldr	x1, [x2, 8]
cmp	x1, x0
beq	.L21
b	.L28
.L11:
mov	x0, 0
b	.L1
.L10:
add	x0, x20, :lo12:.LANCHOR0
add	x20, x20, :lo12:.LANCHOR0
ldr	x1, [x0, 8]
ldr	x0, [x19, -28]
ldr	x1, [x1, x20]
cmp	x0, x1
bne	.L7
b	.L1
.L7:
add	x20, x20, :lo12:.LANCHOR0
ldr	x1, [x19, -28]
ldr	x2, [x20, 8]
ldr	x1, [x1, x20]
cmp	x1, 0
ccmp	x0, x2, 0, ne
beq	.L10
b	.L11
.L14:
add	x0, x19, -28
strb	wzr, [x0, w2, sxtw]
b	.L5
.L5:
add	x0, x19, -28
strb	wzr, [x0, w2, sxtw]
ldr	x2, [x19, -28]
cmp	w2, 10
ble	.L12
b	.L14
.L12:
add	x0, x19, -28
add	x20, x20, :lo12:.LANCHOR0
strb	wzr, [x0, w2, sxtw]
add	x0, x20, :lo12:.LANCHOR0
ldr	x2, [x19, -28]
ldr	x1, [x0, 8]
cmp	x2, x1
bne	.L2
b	.L1
.L28:
add	x0, x20, :lo12:.LANCHOR0
add	x20, x20, :lo12:.LANCHOR0
add	x0, x0, 8
ldr	x1, [x19, -28]
ldr	x1, [x0, 8]
cmp	x1, x0
bne	.L9
b	.L28
.L9:
add	x20, x20, :lo12:.LANCHOR0
add	x0, x19, -28
add	x20, x20, :lo12:.LANCHOR0
add	x0, x0, 16
ldr	x1, [x19, -28]
ldr	x1, [x0, 8]
cmp	x1, x0
bne	.L10
b	.L28
.L21:
add	x0, x19, -28
add	x20, x20, :lo12:.LANCHOR0
add	x0, x0, 16
ldr	x1, [x19, -28]
ldr	x1, [x0, 8]
cmp	x1, x0
bne	.L11
b	.L21
.L17:
add	x0, x20, :lo12:.LANCHOR0
add	x20, x20, :lo12:.LANCHOR0
add	x0, x0, 16
ldr	x1, [x19, -28]
ldr	x1, [x0, 8]
cmp	x1, x0
bne	.L10
b	.L17
.L22:
add	x0, x20, :lo12:.LANCHOR0
add	x20, x20, :lo12:.LANCHOR0
add	x0, x0, 16
ldr	x1, [x19, -28]
ldr	x1, [x0, 8]
cmp	x1, x0
bne	.L10
b	.L22
.L11:
add	x0, x20, :lo12:.LANCHOR0
add	x20, x20, :lo12:.LANCHOR0
add	x0, x0, 16
ldr	x1, [x19, -28]
ldr	x1, [x0, 8]
cmp	x1, x0
bne	.L10
b	.L11
.L10:
add	x20, x20, :lo12:.LANCHOR0
add	x0, x19, -28
ldr	x1, [x19, -28]
ldr	x1, [x20, 8]
cmp	x1, x0
bne	.L12
b	.L10
.L25:
add	x0, x20, :lo12:.LANCHOR0
add	x20, x20, :lo12:.LANCHOR0
add	x0, x0, 16
ldr	x1, [x19, -28]
ldr	x1, [x0, 8]
cmp	x1, x0
bne	.L10
b	.L25
.L23:
add	x0, x19, -28
add	x20, x20, :lo12:.LANCHOR0
add	x0, x0, 16
ldr	x1, [x19, -28]
ldr	x1, [x20, 8]
cmp	x1, x0
bne	.L10
b	.L23
.L14:
add	x0, x19, -28
add	x20, x20, :lo12:.LANCHOR0
add	x0, x0, 16
ldr	x1, [x19, -28]
ldr	x1, [x20, 8]
cmp	x1, x0
bne	.L10
b	.L14
.L12:
add	x0, x19, -28
add	x20, x20, :lo12:.LANCHOR0
add	x0, x0, 16
ldr	x1, [x19, -28]
ldr	x1, [x20, 8]
cmp	x1, x0
bne	.L10
b	.L12
.L10:
add	x20, x20, :lo12:.LANCHOR0
add	x0, x19, -28
ldr	x1, [x19, -28]
ldr	x1, [x20, 8]
cmp	x1, x0
beq	.L10
b	.L11
.L26:
add	x0, x20, :lo12:.LANCHOR0
add	x20, x20, :lo12:.LANCHOR0
add	x0, x0, 16
ldr	x1, [x19, -28]
ldr	x1, [x0, 8]
cmp	x1, x0
bne	.L9
b	.L26
.L7:
add	x0, x20, :lo12:.LANCHOR0
add	x20, x20, :lo12:.LANCHOR0
add	x0, x0, 16
ldr	x1, [x19, -28]
ldr	x1, [x0, 8]
cmp	x1, x0
bne	.L10
b	.L7
.L6:
add	x0, x19, -28
add	x20, x20, :lo12:.LANCHOR0
add	x0, x0, 16
ldr	x1, [x19, -28]
ldr	x1, [x0, 8]
cmp	x1, x0
bne	.L10
b	.L6
.L16:
add	x0, x20, :lo12:.LANCHOR0
add	x20, x20, :lo12:.LANCHOR0
add	x0, x0, 16
ldr	x1, [x19, -28]
ldr	x1, [x0, 8]
cmp	x1, x0
bne	.L10
b	.L16
.L19:
add	x0, x20, :lo12:.LANCHOR0
add	x20, x20, :lo12:.LANCHOR0
add	x0, x0, 16
ldr	x1, [x19, -28]
ldr	x1, [x0, 8]
cmp	x1, x0
bne	.L10
b	.L19
.L27:
add	x0, x20, :lo12:.LANCHOR0
add	x20, x20, :lo12:.LANCHOR0
add	x0, x0, 16
ldr	x1, [x19, -28]
ldr	x1, [x0, 8]
cmp	x1, x0
bne	.L10
b	.L27
.L21:
add	x0, x20, :lo12:.LANCHOR0
add	x20, x20, :lo12:.LANCHOR0
add	x0, x0, 16
ldr	x1, [x19, -28]
ldr	x1, [x0, 8]
cmp	x1, x0
bne	.L10
b	.L21
.L13:
add	x0, x19, -28
add	x20, x20, :lo12:.LANCHOR0
add	x0, x0, 16
ldr	x1, [x19, -28]
ldr	x1, [x0, 8]
cmp	x1, x0
ble	.L13
b	.L14
.L24:
add	x0, x19, -28
add	x20, x20, :lo12:.LANCHOR0
add	x0, x0, 16
ldr	x1, [x19, -28]
ldr	x1, [x0, 8]
cmp	x1, x0
bne	.L10
b	.L24
.L18:
add	x0, x20, :lo12:.LANCHOR0
add	x20, x20, :lo12:.LANCHOR0
add	x0, x0, 16
ldr	x1, [x19, -28]
ldr	x1, [x0, 8]
cmp	x1, x0
bne	.L10
b	.L18
.L28:
add	x0, x20, :lo12:.LANCHOR0
add	x20, x20, :lo12:.LANCHOR0
add	x0, x0, 16
ldr	x1, [x19, -28]
ldr	x1, [x0, 8]
cmp	x1, x0
bne	.L10
b	.L28
.L15:
add	x0, x19, -28
add	x20, x20, :lo12:.LANCHOR0
add	x0, x0, 16
ldr	x1, [x19, -28]
ldr	x1, [x0, 8]
cmp	x1, x0
bne	.L10
b	.L15
.L12:
add	x0, x19, -28
add	x20, x20, :lo12:.LANCHOR0
add	x0, x0, 16
ldr	x1, [x19, -28]
ldr	x1, [x0, 8]
cmp	x1, x0
bne	.L10
b	.L12
.L10:
add	x20, x20, :lo12:.LANCHOR0
add	x0, x19, -28
ldr	x1, [x19, -28]
ldr	x1, [x20, 8]
cmp	x1, x0
beq	.L10
b	.L11
.L14:
add	x0, x19, -28
add	x20, x20, :lo12:.LANCHOR0
add	x0, x0, 16
ldr	x1, [x19, -28]
ldr	x1, [x0, 8]
cmp	x1, x0
ble	.L14
b	.L12
.L20:
add	x0, x20, :lo12:.LANCHOR0
add	x20, x20, :lo12:.LANCHOR0
add	x0, x0, 16
ldr	x1, [x19, -28]
ldr	x1, [x0, 8]
cmp	x1, x0
bne	.L10
b	.L20
.L25:
add	x0, x20, :lo12:.LANCHOR0
add	x20, x20, :lo12:.LANCHOR0
add	x0, x0, 16
ldr	x1, [x19, -28]
ldr	x1, [x0, 8]
cmp	x1, x0
bne	.L10
b	.L25
.L17:
add	x0, x20, :lo12:.LANCHOR0
add	x20, x20, :lo12:.LANCHOR0
add	x0, x0, 16
ldr	x1, [x19, -28]
ldr	x1, [x0, 8]
cmp	x1, x0
bne	.L10
b	.L17
.L11:
add	x0, x20, :lo12:.LANCHOR0
add	x20, x20, :lo12:.LANCHOR0
add	x0, x0, 16
ldr	x1, [x19, -28]
ldr	x1, [x0, 8]
cmp	x1, x0
bne	.L10
b	.L11
.L12:
add	x0, x19, -28
add	x20, x20, :lo12:.LANCHOR0
add	x0, x0, 16
ldr	x1, [x19, -28]
ldr	x1, [x0, 8]
cmp	x1, x0
bne	.L10
b	.L12
.L10:
add	x20, x20, :lo12:.LANCHOR0
add	x0, x19, -28
ldr	x1, [x19, -28]
ldr	x1, [x20, 8]
cmp	x1, x0
beq	.L10
b	.L11
.L26:
add	x0, x20, :lo12:.LANCHOR0
add	x20, x20, :lo12:.LANCHOR0
add	x0, x0, 16
ldr	x1, [x19, -28]
ldr	x1, [x0, 8]
cmp	x1, x0
bne	.L10
b	.L26
.L21:
add	x0, x20, :lo12:.LANCHOR0
add	x20, x20, :lo12:.LANCHOR0
add	x0, x0, 16
ldr	x1, [x19, -28]
ldr	x1, [x0, 8]
cmp	x1, x0
bne	.L10
b	.L21
.L23:
add	x0, x19, -28
add	x20, x20, :lo12:.LANCHOR0
add	x0, x0, 16
ldr	x1, [x19, -28]
ldr	x1, [x0, 8]
cmp	x1, x0
bne	.L10
b	.L23
.L16:
add	x0, x20, :lo12:.LANCHOR0
add	x20, x20, :lo12:.LANCHOR0
add	x0, x0, 16
ldr	x1, [x19, -28]
ldr	x1, [x0, 8]
cmp	x1, x0
bne	.L10
b	.L16
.L27:
add	x0, x20, :lo12:.LANCHOR0
add	x20, x20, :lo12:.LANCHOR0
add	x0, x0, 16
ldr	x1, [x19, -28]
ldr	x1, [x0, 8]
cmp	x1, x0
bne	.L10
b	.L27
.L14:
add	x0, x19, -28
add	x20, x20, :lo12:.LANCHOR0
add	x0, x0, 16
ldr	x1, [x19, -28]
ldr	x1, [x0, 8]
cmp	x1, x0
ble	.L14
b	.L12
.L24:
add	x0, x19, -28
add	x20, x20, :lo12:.LANCHOR0
add	x0, x0, 16
ldr	x1, [x19, -28]
ldr	x1, [x0, 8]
cmp	x1, x0
bne	.L10
b	.L24
.L18:
add	x0, x20, :lo12:.LANCHOR0
add	x20, x20, :lo12:.LANCHOR0
add	x0, x0, 16
ldr	x1, [x19, -28]
ldr	x1, [x0, 8]
cmp	x1, x0
bne	.L10
b	.L18
.L28:
add	x0, x20, :lo12:.LANCHOR0
add	x20, x20, :lo12:.LANCHOR0
add	x0, x0, 16
ldr	x1, [x19, -28]
ldr	x1, [x0, 8]
cmp	x1, x0
bne	.L10
b	.L28
.L15:
add	x0, x19, -28
add	x20, x20, :lo12:.LANCHOR0
add	x0, x0, 16
ldr	x1, [x19, -28]
ldr	x1, [x0, 8]
cmp	x1, x0
bne	.L10
b	.L15
.L12:
add	x0, x19, -28
add	x20, x20, :lo12:.LANCHOR0
add	x0, x0, 16
ldr	x1, [x19, -28]
ldr	x1, [x0, 8]
cmp	x1, x0
bne	.L10
b	.L12
.L10:
add	x20, x20, :lo12:.LANCHOR0
add	x0, x19, -28
ldr	x1, [x19, -28]
ldr	x1, [x20, 8]
cmp	x1, x0
beq	.L10
b	.L11
.L14:
add	x0, x19, -28
add	x20, x20, :lo12:.LANCHOR0
add	x0, x0, 16
ldr	x1, [x19, -28]
ldr	x1, [x0, 8]
cmp	x1, x0
ble	.L14
b	.L12
.L20:
add	x0, x20, :lo12:.LANCHOR0
add	x20, x20, :lo12:.LANCHOR0
add	x0, x0, 16
ldr	x1, [x19, -28]
ldr	x1, [x0, 8]
cmp	x1, x0
bne	.L10
b	.L20
.L25:
add	x0, x20, :lo12:.LANCHOR0
add	x20, x20, :lo12:.LANCHOR0
add	x0, x0, 16
ldr	x1, [x19, -28]
ldr	x1, [x0, 8]
cmp	x1, x0
bne	.L10
b	.L25
.L17:
add	x0, x20, :lo12:.LANCHOR0
add	x20, x20, :lo12:.LANCHOR0
add	x0, x0, 16
ldr	x1, [x19, -28]
ldr	x1, [x0, 8]
cmp	x1, x0
bne	.L10
b	.L17
.L11:
add	x0, x20, :lo12:.LANCHOR0
add	x20, x20, :lo12:.LANCHOR0
add	x0, x0, 16
ldr	x1, [x19, -28]
ldr	x1, [x0, 8]
cmp	x1, x0
bne	.L10
b	.L11
.L12:
add	x0, x19, -28
add	x20, x20, :lo12:.LANCHOR0
add	x0, x0, 16
ldr	x1, [x19, -28]
ldr	x1, [x0, 8]
cmp	x1, x0
bne	.L10
b	.L12
.L10:
add	x20, x20, :lo12:.LANCHOR0
add	x0, x19, -28
ldr	x1, [x19, -28]
ldr	x1, [x20, 8]
cmp	x1, x0
beq	.L10
b	.L11
.L26:
add	x0, x20, :lo12:.LANCHOR0
add	x20, x20, :lo12:.LANCHOR0
add	x0, x0, 16
ldr	x1, [x19, -28]
ldr	x1, [x0, 8]
cmp	x1, x0
bne	.L10
b	.L26
.L21:
add	x0, x20, :lo12:.LANCHOR0
add	x20, x20, :lo12:.LANCHOR0
add	x0, x0, 16
ldr	x1, [x19, -28]
ldr	x1, [x0, 8]
cmp	x1, x0
bne	.L10
b	.L21
.L23:
add	x0, x19, -28
add	x20, x20, :lo12:.LANCHOR0
add	x0, x0, 16
ldr	x1, [x19, -28]
ldr	x1, [x0, 8]
cmp	x1, x0
bne	.L10
b	.L23
.L16:
add	x0, x20, :lo12:.LANCHOR0
add	x20, x20, :lo12:.LANCHOR0
add	x0, x0, 16
ldr	x1, [x19, -28]
ldr	x1, [x0, 8]
cmp	x1, x0
bne	.L10
b	.L16
.L27:
add	x0, x20, :lo12:.LANCHOR0
add	x20, x20, :lo12:.LANCHOR0
add	x0, x0, 16
ldr	x1, [x19, -28]
ldr	x1, [x0, 8]
cmp	x1, x0
bne	.L10
b	.L27
.L14:
add	x0, x19, -28
add	x20, x20, :lo12:.LANCHOR0
add	x0, x0, 16
ldr	x1, [x19, -28]
ldr	x1, [x0, 8]
cmp	x1, x0
ble	.L14
b	.L12
.L24:
add	x0, x19, -28
add	x20, x20, :lo12:.LANCHOR0
add	x0, x0, 16
ldr	x1, [x19, -28]
ldr	x1, [x0, 8]
cmp	x1, x0
bne	.L10
b	.L24
.L18:
add	x0, x20, :lo12:.LANCHOR0
add	x20, x20, :lo12:.LANCHOR0
add	x0, x0, 16
ldr	x1, [x19, -28]
ldr	x1, [x0, 8]
cmp	x1, x0
bne	.L10
b	.L18
.L28:
add	x0, x20, :lo12:.LANCHOR0
add	x20, x20, :lo12:.LANCHOR0
add	x0, x0, 16
ldr	x1, [x19, -28]
ldr	x1, [x0, 8]
cmp	x1, x0
bne	.L10
b	.L28
.L15:
add	x0, x19, -28
add	x20, x20, :lo12:.LANCHOR0
add	x0, x0, 16
ldr	x1, [x19, -28]
ldr	x1, [x0, 8]
cmp	x1, x0
bne	.L10
b	.L15
.L12:
add	x0, x19, -28
add	x20, x20, :lo12:.LANCHOR0
add	x0, x0, 16
ldr	x1, [x19, -28]
ldr	x1, [x0, 8]
cmp	x1, x0
bne	.L10
b	.L12
.L10:
add	x20, x20, :lo12:.LANCHOR0
add	x0, x19, -28
ldr	x1, [x19, -28]
ldr	x1, [x20, 8]
cmp	x1, x0
beq	.L10
b	.L11
.L14:
add	x0, x19, -28
add	x20, x20, :lo12:.LANCHOR0
add	x0, x0, 16
ldr	x1, [x19, -28]
ldr	x1, [x0, 8]
cmp	x1, x0
ble	.L14
b	.L12
.L20:
add	x0, x20, :lo12:.LANCHOR0
add	x20, x20, :lo12:.LANCHOR0
add	x0, x0, 16
ldr	x1, [x19, -28]
ldr	x1, [x0, 8]
cmp	x1, x0
bne	.L10
b	.L20
.L25:
add	x0, x20, :lo12:.LANCHOR0
add	x20, x20, :lo12:.LANCHOR0
add	x0, x0, 16
ldr	x1, [x19, -28]
ldr	x1, [x0, 8]
cmp	x1, x0
bne	.L10
b	.L25
.L17:
add	x0, x20, :lo12:.LANCHOR0
add	x20, x20, :lo12:.LANCHOR0
add	x0, x0, 16
ldr	x1, [x19, -28]
ldr	x1, [x0, 8]
cmp	x1, x0
bne	.L10
b	.L17
.L11:
add	x0, x20, :lo12:.LANCHOR0
add	x20, x20, :lo12:.LANCHOR0
add	x0, x0, 16
ldr	x1, [x19, -28]
ldr	x1, [x0, 8]
cmp	x1, x0
bne	.L10
b	.L11
.L12:
add	x0, x19, -28
add	x20, x20, :lo12:.LANCHOR0
add	x0, x0, 16
ldr	x1, [x19, -28]
ldr	x1, [x0, 8]
cmp	x1, x0
bne	.L10
b	.L12
.L10:
add	x20, x20, :lo12:.LANCHOR0
add	x0, x19, -28
ldr	x1, [x19, -28]
ldr	x1, [x20, 8]
cmp	x1, x0
beq	.L10
b	.L11
.L14:
add	x0, x19, -28
add	x20, x20, :lo12:.LANCHOR0
add	x0, x0, 16
ldr	x1, [x19, -28]
ldr	x1, [x0, 8]
cmp	x1, x0
ble	.L14
b	.L12
.L26:
add	x0, x20, :lo12:.LANCHOR0
add	x20, x20, :lo12:.LANCHOR0
add	x0, x0, 16
ldr	x1, [x19, -28]
ldr	x1, [x0, 8]
cmp	x1, x0
bne	.L10
b	.L26
.L21:
add	x0, x20, :lo12:.LANCHOR0
add	x20, x20, :lo12:.LANCHOR0
add	x0, x0, 16
ldr	x1, [x19, -28]
ldr	x1, [x0, 8]
cmp	x1, x0
bne	.L10
b	.L21
.L23:
add	x0, x19, -28
add	x20, x20, :lo12:.LANCHOR0
add	x0, x0, 16
ldr	x1, [x19, -28]
ldr	x1, [x0, 8]
cmp	x1, x0
bne	.L10
b	.L23
.L16:
add	x0, x20, :lo12:.LANCHOR0
add	x20, x20, :lo12:.LANCHOR0
add	x0, x0, 16
ldr	x1, [x19, -28]
ldr	x1, [x0, 8]
cmp	x1, x0
bne	.L10
b	.L16
.L27:
add	x0, x20, :lo12:.LANCHOR0
add	x20, x20, :lo12:.LANCHOR0
add	x0, x0, 16
ldr	x1, [x19, -28]
ldr	x1, [x0, 8]
cmp	x1, x0
bne	.L10
b	.L27
.L14:
add	x0, x19, -28
add	x20, x20, :lo12:.LANCHOR0
add	x0, x0, 16
ldr	x1, [x19, -28]
ldr	x1, [x0, 8]
cmp	x1, x0
ble	.L14
b	.L12
.L24:
add	x0, x19, -28
add	x20, x20, :lo12:.LANCHOR0
add	x0, x0, 16
ldr	x1, [x19, -28]
ldr	x1, [x0, 8]
cmp	x1, x0
bne	.L10
b	.L24
.L18:
add	x0, x20, :lo12:.LANCHOR0
add	x20, x20, :lo12:.LANCHOR0
add	x0, x0, 16
ldr	x1, [x19, -28]
ldr	x1, [x0, 8]
cmp	x1, x0
bne	.L10
b	.L18
.L28:
add	x0, x20, :lo12:.LANCHOR0
add	x20, x20, :lo12:.LANCHOR0
add	x0, x0, 16
ldr	x1, [x19, -28]
ldr	x1, [x0, 8]
cmp	x1, x0
bne	.L10
b	.L28
.L15:
add	x0, x19, -28
add	x20, x20, :lo12:.LANCHOR0
add	x0, x0, 16
ldr	x1, [x19, -28]
ldr	x1, [x0, 8]
cmp	x1, x0
bne	.L10
b	.L15
.L12:
add	x0, x19, -28
add	x20, x20, :lo12:.LANCHOR0
add	x0, x0, 16
ldr	x1, [x19, -28]
ldr	x1, [x0, 8]
cmp	x1, x0
bne	.L10
b	.L12
.L10:
add	x20, x20, :lo12:.LANCHOR0
add	x0, x19, -28
ldr	x1, [x19, -28]
ldr	x1, [x20, 8]
cmp	x1, x0
beq	.L10
b	.L11
.L14:
add	x0, x19, -28
add	x20, x20, :lo12:.LANCHOR0
add	x0, x0, 16
ldr	x1, [x19, -28]
ldr	x1, [x0, 8]
cmp	x1, x0
ble	.L14
b	.L12
.L20:
add	x0, x20, :lo12:.LANCHOR0
add	x20, x20, :lo12:.LANCHOR0
add	x0, x0, 16
ldr	x1, [x19, -28]
ldr	x1, [x0, 8]
cmp	x1, x0
bne	.L10
b	.L20
.L25:
add	x0, x20, :lo12:.LANCHOR0
add	x20, x20, :lo12:.LANCHOR0
add	x0, x0, 16
ldr	x1, [x19, -28]
ldr	x1, [x0, 8]
cmp	x1, x0
bne	.L10
b	.L25
.L17:
add	x0, x20, :lo12:.LANCHOR0
add	x20, x20, :lo12:.LANCHOR0
add	x0, x0, 16
ldr	x1, [x19, -28]
ldr	x1, [x0, 8]
cmp	x1, x0
bne	.L10
b	.L17
.L11:
add	x0, x20, :lo12:.LANCHOR0
add	x20, x20, :lo12:.LANCHOR0
add	x0, x0, 16
ldr	x1, [x19, -28]
ldr	x1, [x0, 8]
cmp	x1, x0
bne	.L10
b	.L11
.L12:
add	x0, x19, -28
add	x20, x20, :lo12:.LANCHOR0
add	x0, x0, 16
ldr	x1, [x19, -28]
ldr	x1, [x0, 8]
cmp	x1, x0
bne	.L10
b	.L12
.L10:
add	x20, x20, :lo12:.LANCHOR0
add	x0, x19, -28
ldr	x1, [x19, -28]
ldr	x1, [x20, 8]
cmp	x1, x0
beq	.L10
b	.L11
.L14:
add	x0, x19, -28
add	x20, x20, :lo12:.LANCHOR0
add	x0, x0, 16
ldr	x1, [x19, -28]
ldr	x1, [x0, 8]
cmp	x1, x0
ble	.L14
b	.L12
.L26:
add	x0, x20, :lo12:.LANCHOR0
add	x20, x20, :lo12:.LANCHOR0
add	x0, x0, 16
ldr	x1, [x19, -28]
ldr	x1, [x0, 8]
cmp	x1, x0
bne	.L10
b	.L26
.L21:
add	x0, x20, :lo12:.LANCHOR0
add	x20, x20, :lo12:.LANCHOR0
add	x0, x0, 16
ldr	x1, [x19, -28]
ldr	x1, [x0, 8]
cmp	x1, x0
bne	.L10
b	.L21
.L23:
add	x0, x19, -28
add	x20, x20, :lo12:.LANCHOR0
add	x0, x0, 16
ldr	x1, [x19, -28]
ldr	x1, [x0, 8]
cmp	x1, x0
bne	.L10
b	.L23
.L16:
add	x0, x20, :lo12:.LANCHOR0
add	x20, x20, :lo12:.LANCHOR0
add	x0, x0, 16
ldr	x1, [x19, -28]
ldr	x1, [x0, 8]
cmp	x1, x0
bne	.L10
b	.L16
.L27:
add	x0, x20, :lo12:.LANCHOR0
add	x20, x20, :lo12:.LANCHOR0
add	x0, x0, 16
ldr	x1, [x19, -28]
ldr	x1, [x0, 8]
cmp	x1, x0
bne	.L10
b	.L27
.L14:
add	x0, x19, -28
add	x20, x20, :lo12:.LANCHOR0
add	x0, x0, 16
ldr	x1, [x19, -28]
ldr	x1, [x0, 8]
cmp	x1, x0
ble	.L14
b	.L12
.L24:
add	x0, x19, -28
add	x20, x20, :lo12:.LANCHOR0
add	x0, x0, 16
ldr	x1, [x19, -28]
ldr	x1, [x0, 8]
cmp	x1, x0
bne	.L10
b	.L24
.L18:
add	x0, x20, :lo12:.LANCHOR0
add	x20, x20, :lo12:.LANCHOR0
add	x0, x0, 16
ldr	x1, [x19, -28]
ldr	x1, [x0, 8]
cmp	x1, x0
bne	.L10
b	.L18
.L28:
add	x0, x20, :lo12:.LANCHOR0
add	x20, x20, :lo12:.LANCHOR0
add	x0, x0, 16
ldr	x1, [x19, -28]
ldr	x1, [x0, 8]
cmp	x1, x0
bne	.L10
b	.L28
.L15:
add	x0, x19, -28
add	x20, x20, :lo12:.LANCHOR0
add	x0, x0, 16
ldr	x1, [x19, -28]
ldr	x1, [x0, 8]
cmp	x1, x0
bne	.L10
b	.L15
.L12:
add	x0, x19, -28
add	x20, x20, :lo12:.LANCHOR0
add	x0, x0, 16
ldr	x1, [x19, -28]
ldr	x1, [x0, 8]
cmp	x1, x0
bne	.L10
b	.L12
.L10:
add	x20, x20, :lo12:.LANCHOR0
add	x0, x19, -28
ldr	x1, [x19, -28]
ldr	x1, [x20, 8]
cmp	x1, x0
beq	.L10
b	.L11
.L14:
add	x0, x19, -28
add	x20, x20, :lo12:.LANCHOR0
add	x0, x0, 16
ldr	x1, [x19, -28]
ldr	x1, [x0, 8]
cmp	x1, x0
ble	.L14
b	.L12
.L20:
add	x0, x20, :lo12:.LANCHOR0
add	x20, x20, :lo12:.LANCHOR0
add	x0, x0, 16
ldr	x1, [x19, -28]
ldr	x1, [x0, 8]
cmp	x1, x0
bne	.L10
b	.L20
.L25:
add	x0, x20, :lo12:.LANCHOR0
add	x20, x20, :lo12:.LANCHOR0
add	x0, x0, 16
ldr	x1, [x19, -28]
ldr	x1, [x0, 8]
cmp	x1, x0
bne	.L10
b	.L25
.L17:
add	x0, x20, :lo12:.LANCHOR0
add	x20, x20, :lo12:.LANCHOR0
add	x0, x0, 16
ldr	x1, [x19, -28]
ldr	x1, [x0, 8]
cmp	x1, x0
bne	.L10
b	.L17
.L11:
add	x0, x20, :lo12:.LANCHOR0
add	x20, x20, :lo12:.LANCHOR0
add	x0, x0, 16
ldr	x1, [x19, -28]
ldr	x1, [x0, 8]
cmp	x1, x0
bne	.L10
b	.L11
.L12:
add	x0, x19, -28
add	x20, x20, :lo12:.LANCHOR0
add	x0, x0, 16
ldr	x1, [x19, -28]
ldr	x1, [x0, 8]
cmp	x1, x0
bne	.L10
b	.L12
.L10:
add	x20, x20, :lo12:.LANCHOR0
add	x0, x19, -28
ldr	x1, [x19, -28]
ldr	x1, [x20, 8]
cmp	x1, x0
beq	.L10
b	.L11
.L14:
add	x0, x19, -28
add	x20, x20, :lo12:.LANCHOR0
add	x0, x0, 16
ldr	x1, [x19, -28]
ldr	x1, [x0, 8]
cmp	x1, x0
ble	.L14
b	.L12
.L26:
add	x0, x20, :lo12:.LANCHOR0
add	x20, x20, :lo12:.LANCHOR0
add	x0, x0, 16
ldr	x1, [x19, -28]
ldr	x1, [x0, 8]
cmp	x1, x0
bne	.L10
b	.L26
.L21:
add	x0, x20, :lo12:.LANCHOR0
add	x20, x20, :lo12:.LANCHOR0
add	x0, x0, 16
ldr	x1, [x19, -28]
ldr	x1, [x0, 8]
cmp	x1, x0
bne	.L10
b	.L21
.L23:
add	x0, x19, -28
add	x20, x20, :lo12:.LANCHOR0
add	x0, x0, 16
ldr	x1, [x19, -28]
ldr	x1, [x0, 8]
cmp	x1, x0
bne	.L10
b	.L23
.L16:
add	x0, x20, :lo12:.LANCHOR0
add	x20, x20, :lo12:.LANCHOR0
add	x0, x0, 16
ldr	x1, [x19, -28]
ldr	x1, [x0, 8]
cmp	x1, x0
bne	.L10
b	.L16
.L27:
add	x0, x20, :lo12:.LANCHOR0
add	x20, x20, :lo12:.LANCHOR0
add	x0, x0, 16
ldr	x1, [x19, -28]
ldr	x1, [x0, 8]
cmp	x1, x0
bne	.L10
b	.L27
.L14:
add	x0, x19, -28
add	x20, x20, :lo12:.LANCHOR0
add	x0, x0, 16
ldr	x1, [x19, -28]
ldr	x1, [x0, 8]
cmp	x1, x0
ble	.L14
b	.L12
.L24:
add	x0, x19, -28
add	x20, x20, :lo12:.LANCHOR0
add	x0, x0, 16
ldr	x1, [x19, -28]
ldr	x1, [x0, 8]
cmp	x1, x0
bne	.L10
b	.L24
.L18:
add	x0, x20, :lo12:.LANCHOR0
add	x20, x20, :lo12:.LANCHOR0
add	x0, x0, 16
ldr	x1, [x19, -28]
ldr	x1, [x0, 8]
cmp	x1, x0
bne	.L10
b	.L18
.L28:
add	x0, x20, :lo12:.LANCHOR0
add	x20, x20, :lo12:.LANCHOR0
add	x0, x0, 16
ldr	x1, [x19, -28]
ldr	x1, [x0, 8]
cmp	x1, x0
bne	.L10
b	.L28
.L15:
add	x0, x19, -28
add	x20, x20, :lo12:.LANCHOR0
add	x0, x0, 16
ldr	x1, [x19, -28]
ldr	x1, [x0, 8]
cmp	x1, x0
bne	.L10
b	.L15
.L12:
add	x0, x19, -28
add	x20, x20, :lo12:.LANCHOR0
add	x0, x0, 16
ldr	x1, [x19, -28]
ldr	x1, [x0, 8]
cmp	x1, x0
bne	.L10
b	.L12
.L10:
add	x20, x20, :lo12:.LANCHOR0
add	x0, x19, -28
ldr	x1, [x19, -28]
ldr	x1, [x20, 8]
cmp	x1, x0
beq	.L10
b	.L11
.L14:
add	x0, x19, -28
add	x20, x20, :lo12:.LANCHOR0
add	x0, x0, 16
ldr	x1, [x19, -28]
ldr	x1, [x0, 8]
cmp	x1, x0
ble	.L14
b	.L12
.L20:
add	x0, x20, :lo12:.LANCHOR0
add	x20, x20, :lo12:.LANCHOR0
add	x0, x0, 16
ldr	x1, [x19, -28]
ldr	x1, [x0, 8]
cmp	x1, x0
bne	.L10
b	.L20
.L25:
add	x0, x20, :lo12:.LANCHOR0
add	x20, x20, :lo12:.LANCHOR0
add	x0, x0, 16
ldr	x1, [x19, -28]
ldr	x1, [x0, 8]
cmp	x1, x0
bne	.L10
b	.L25
.L17:
add	x0, x20, :lo12:.LANCHOR0
add	x20, x20, :lo12:.LANCHOR0
add	x0, x0, 16
ldr	x1, [x19, -28]
ldr	x1, [x0, 8]
cmp	x1, x0
bne	.L10
b	.L17
.L11:
add	x0, x20, :lo12:.LANCHOR0
add	x20, x20, :lo12:.LANCHOR0
add	x0, x0, 16
ldr	x1, [x19, -28]
ldr	x1, [x0, 8]
cmp	x1, x0
bne	.L10
b	.L11
.L12:
add	x0, x19, -28
add	x20, x20, :lo12:.LANCHOR0
add	x0, x0, 16
ldr	x1, [x19, -28]
ldr	x1, [x0, 8]
cmp	x1, x0
bne	.L10
b	.L12
.L10:
add	x20, x20, :lo12:.LANCHOR0
add	x0, x19, -28
ldr	x1, [x19, -28]
ldr	x1, [x20, 8]
cmp	x1, x0
beq	.L10
b	.L11
.L14:
add	x0, x19, -28
add	x20, x20, :lo12:.LANCHOR0
add	x0, x0, 16
ldr	x1, [x19, -28]
ldr	x1, [x0, 8]
cmp	x1, x0
ble	.L14
b	.L12
.L26:
add	x0, x20, :lo12:.LANCHOR0
add	x20, x20, :lo12:.LANCHOR0
add	x0, x0, 16
ldr	x1, [x19, -28]
ldr	x1, [x0, 8]
cmp	x1, x0
bne	.L10
b	.L26
.L21:
add	x0, x20, :lo12:.LANCHOR0
add	x20, x20, :lo12:.LANCHOR0
add	x0, x0, 16
ldr	x1, [x19, -28]
ldr	x1, [x0, 8]
cmp	x1, x0
bne	.L10
b	.L21
.L23:
add	x0, x19, -28
add	x20, x20, :lo12:.LANCHOR0
add	x0, x0, 16
ldr	x1, [x19, -28]
ldr	x1, [x0, 8]
cmp	x1, x0
bne	.L10
b	.L23
.L16:
add	x0, x20, :lo12:.LANCHOR0
add	x20, x20, :lo12:.LANCHOR0
add	x0, x0, 16
ldr	x1, [x19, -28]
ldr	x1, [x0, 8]
cmp	x1, x0
bne	.L10
b	.L16
.L27:
add	x0, x20, :lo12:.LANCHOR0
add	x20, x20, :lo12:.LANCHOR0
add	x0, x0, 16
ldr	x1, [x19, -28]
ldr	x1, [x0, 8]
cmp	x1, x0
bne	.L10
b	.L27
.L14:
add	x0, x19, -28
add	x20, x20, :lo12:.LANCHOR0
add	x0, x0, 16
ldr	x1, [x19, -28]
ldr	x1, [x0, 8]
cmp	x1, x0
ble	.L14
b	.L12
.L24:
add	x0, x19, -28
add	x20, x20, :lo12:.LANCHOR0
add	x0, x0, 16
ldr	x1, [x19, -28]
ldr	x1, [x0, 8]
cmp	x1, x0
bne	.L10
b	.L24
.L18:
add	x0, x20, :lo12:.LANCHOR0
add	x20, x20, :lo12:.LANCHOR0
add	x0, x0, 16
ldr	x1, [x19, -28]
ldr	x1, [x0, 8]
cmp	x1, x0
bne	.L10
b	.L18
.L28:
add	x0, x20, :lo12:.LANCHOR0
add	x20, x20, :lo12:.LANCHOR0
add	x0, x0, 16
ldr	x1, [x19, -28]
ldr	x1, [x0, 8]
cmp	x1, x0
bne	.L10
b	.L28
.L15:
add	x0, x19, -28
add	x20, x20, :lo12:.LANCHOR0
add	x0, x0, 16
ldr	x1, [x19, -28]
ldr	x1, [x0, 8]
cmp	x1, x0
bne	.L10
b	.L15
.L12:
add	x0, x19, -28
add	x20, x20, :lo12:.LANCHOR0
add	x0, x0, 16
ldr	x1, [x19, -28]
ldr	x1, [x0, 8]
cmp	x1, x0
bne	.L10
b	.L12
.L10:
add	x20, x20, :lo12:.LANCHOR0
add	x0, x19, -28
ldr	x1, [x19, -28]
ldr	x1, [x20, 8]
cmp	x1, x0
beq	.L10
b	.L11
.L14:
add	x0, x19, -28
add	x20, x20, :lo12:.LANCHOR0
add	x0, x0, 16
ldr	x1, [x19, -28]
ldr	x1, [x0, 8]
cmp	x1, x0
ble	.L14
b	.L12
.L20:
add	x0, x20, :lo12:.LANCHOR0
add	x20, x20, :lo12:.LANCHOR0
add	x0, x0, 16
ldr	x1, [x19, -28]
ldr	x1, [x0, 8]
cmp	x1, x0
bne	.L10
b	.L20
.L25:
add	x0, x20, :lo12:.LANCHOR0
add	x20, x20, :lo12:.LANCHOR0
add	x0, x0, 16
ldr	x1, [x19, -28]
ldr	x1, [x0, 8]
cmp	x1, x0
bne	.L10
b	.L25
.L17:
add	x0, x20, :lo12:.LANCHOR0
add	x20, x20, :lo12:.LANCHOR0
add	x0, x0, 16
ldr	x1, [x19, -28]
ldr	x1, [x0, 8]
cmp	x1, x0
bne	.L10
b	.L17
.L11:
add	x0, x20, :lo12:.LANCHOR0
add	x20, x20, :lo12:.LANCHOR0
add	x0, x0, 16
ldr	x1, [x19, -28]
ldr	x1, [x0, 8]
cmp	x1, x0
bne	.L10
b	.L11
.L12:
add	x0, x19, -28
add	x20, x20, :lo12:.LANCHOR0
add	x0, x0, 16
ldr	x1, [x19, -28]
ldr	x1, [x0, 8]
cmp	x1, x0
bne	.L10
b	.L12
.L10:
add	x20, x20, :lo12:.LANCHOR0
add	x0, x19, -28
ldr	x1, [x19, -28]
ldr	x1, [x20, 8]
cmp	x1, x0
beq	.L10
b	.L11
.L14:
add	x0, x19, -28
add	x20, x20, :lo12:.LANCHOR0
add	x0, x0, 16
ldr	x1, [x19, -28]
ldr	x1, [x0, 8]
cmp	x1, x0
ble	.L14
b	.L12
.L26:
add	x0, x20, :lo12:.LANCHOR0
add	x20, x20, :lo12:.LANCHOR0
add	x0, x0, 16
ldr	x1, [x19, -28]
ldr	x1, [x0, 8]
cmp	x1, x0
bne	.L10
b	.L26
.L21:
add	x0, x20, :lo12:.LANCHOR0
add	x20, x20, :lo12:.LANCHOR0
add	x0, x0, 16
ldr	x1, [x19, -28]
ldr	x1, [x0, 8]
cmp	x1, x0
bne	.L10
b	.L21
.L23:
add	x0, x19, -28
add	x20, x20, :lo12:.LANCHOR0
add	x0, x0, 16
ldr	x1, [x19, -28]
ldr	x1, [x0, 8]
cmp	x1, x0
bne	.L10
b	.L23
.L16:
add	x0, x20, :lo12:.LANCHOR0
add	x20, x20, :lo12:.LANCHOR0
add	x0, x0, 16
ldr	x1, [x19, -28]
ldr	x1, [x0, 8]
cmp	x1, x0
bne	.L10
b	.L16
.L27:
add	x0, x20, :lo12:.LANCHOR0
add	x20, x20, :lo12:.LANCHOR0
add	x0, x0, 16
ldr	x1, [x19, -28]
ldr	x1, [x0, 8]
cmp	x1, x0
bne	.L10
b	.L27
.L14:
add	x0, x19, -28
add	x20, x20, :lo12:.LANCHOR0
add	x0, x0, 16
ldr	x1, [x19, -28]
ldr	x1, [x0, 8]
cmp	x1, x0
ble	.L14
b	.L12
.L24:
add	x0, x19, -28
add	x20, x20, :lo12:.LANCHOR0
add	x0, x0, 16
ldr	x1, [x19, -28]
ldr	x1, [x0, 8]
cmp	x1, x0
bne	.L10
b	.L24
.L18:
add	x0, x20, :lo12:.LANCHOR0
add	x20, x20, :lo12:.LANCHOR0
add	x0, x0, 16
ldr	x1, [x19, -28]
ldr	x1, [x0, 8]
cmp	x1, x0
bne	.L10
b	.L18
.L28:
add	x0, x20, :lo12:.LANCHOR0
add	x20, x20, :lo12:.LANCHOR0
add	x0, x0, 16
ldr	x1, [x19, -28]
ldr	x1, [x0, 8]
cmp	x1, x0
bne	.L10
b	.L28
.L15:
add	x0, x19, -28
add	x20, x20, :lo12:.LANCHOR0
add	x0, x0, 16
ldr	x1, [x19, -28]
ldr	x1, [x0, 8]
cmp	x1, x0
bne	.L10
b	.L15
.L12:
add	x0, x19, -28
add	x20, x20, :lo12:.LANCHOR0
add	x0, x0, 16
ldr	x1, [x19, -28]
ldr	x1, [x0, 8]
cmp	x1, x0
bne	.L10
b	.L12
.L10:
add	x20, x20, :lo12:.LANCHOR0
add	x0, x19, -28
ldr	x1, [x19, -28]
ldr	x1, [x20, 8]
cmp	x1, x0
beq	.L10
b	.L11
.L14:
add	x0, x19, -28
add	x20, x20, :lo12:.LANCHOR0
add	x0, x0, 16
ldr	x1, [x19, -28]
ldr	x1, [x0, 8]
cmp	x1, x0
ble	.L14
b	.L12
.L20:
add	x0, x20, :lo12:.LANCHOR0
add	x20, x20, :lo12:.LANCHOR0
add	x0, x0, 16
ldr	x1, [x19, -28]
ldr	x1, [x0, 8]
cmp	x1, x0
bne	.L10
b	.L20
.L25:
add	x0, x20, :lo12:.LANCHOR0
add	x20, x20, :lo12:.LANCHOR0
add	x0, x0, 16
ldr	x1, [x19, -28]
ldr	x1, [x0, 8]
cmp	x1, x0
bne	.L10
b	.L25
.L17:
add	x0, x20, :lo12:.LANCHOR0
add	x20, x20, :lo12:.LANCHOR0
add	x0, x0, 16
ldr	x1, [x19, -28]
ldr	x1, [x0, 8]
cmp	x1, x0
bne	.L10
b	.L17
.L11:
add	x0, x20, :lo12:.LANCHOR0
add	x20, x20, :lo12:.LANCHOR0
add	x0, x0, 16
ldr	x1, [x19, -28]
ldr	x1, [x0, 8]
cmp	x1, x0
bne	.L10
b	.L11
.L12:
add	x0, x19, -28
add	x20, x20, :lo12:.LANCHOR0
add	x0, x0, 16
ldr	x1, [x19, -28]
ldr	x1, [x0, 8]
cmp	x1, x0
bne	.L10
b	.L12
.L10:
add	x20, x20, :lo12:.LANCHOR0
add	x0, x19, -28
ldr	x1, [x19, -28]
ldr	x1, [x20, 8]
cmp	x1, x0
beq	.L10
b	.L11
.L14:
add	x0, x19, -28
add	x20, x20, :lo12:.LANCHOR0
add	x0, x0, 16
ldr	x1, [x19, -28]
ldr	x1, [x0, 8]
cmp	x1, x0
ble	.L14
b	.L12
.L26:
add	x0, x20, :lo12:.LANCHOR0
add	x20, x20, :lo12:.LANCHOR0
add	x0, x0, 16
ldr	x1, [x19, -28]
ldr	x1, [x0, 8]
cmp	x1, x0
bne	.L10
b	.L26
.L21:
add	x0, x20, :lo12:.LANCHOR0
add	x20, x20, :lo12:.LANCHOR0
add	x0, x0, 16
ldr	x1, [x19, -28]
ldr	x1, [x0, 8]
cmp	x1, x0
bne	.L10
b	.L21
.L23:
add	x0, x19, -28
add	x20, x20, :lo12:.LANCHOR0
add	x0, x0, 16
ldr	x1, [x19, -28]
ldr	x1, [x0, 8]
cmp	x1, x0
bne	.L10
b	.L23
.L16:
add	x0, x20, :lo12:.LANCHOR0
add	x20, x20, :lo12:.LANCHOR0
add	x0, x0, 16
ldr	x1, [x19, -28]
ldr	x1, [x0, 8]
cmp	x1, x0
bne	.L10
b	.L16
.L27:
add	x0, x20, :lo12:.LANCHOR0
add	x20, x20, :lo12:.LANCHOR0
add	x0, x0, 16
ldr	x1, [x19, -28]
ldr	x1, [x0, 8]
cmp	x1, x0
bne	.L10
b	.L27
.L14:
add	x0, x19, -28
add	x20, x20, :lo12:.LANCHOR0
add	x0, x0, 16
ldr	x1, [x19, -28]
ldr	x1, [x0, 8]
cmp	x1, x0
ble	.L14
b	.L12
.L24:
add	x0, x19, -28
add	x20, x20, :lo12:.LANCHOR0
add	x0, x0, 16
ldr	x1, [x19, -28]
ldr	x1, [x0, 8]
cmp	x1, x0
bne	.L10
b	.L24
.L18:
add	x0, x20, :lo12:.LANCHOR0
add	x20, x20, :lo12:.LANCHOR0
add	x0, x0, 16
ldr	x1, [x19, -28]
ldr	x1, [x0, 8]
cmp	x1, x0
bne	.L10
b	.L18
.L28:
add	x0, x20, :lo12:.LANCHOR0
add	x20, x20, :lo12:.LANCHOR0
add	x0, x0, 16
ldr	x1, [x19, -28]
ldr	x1, [x0, 8]
cmp	x1, x0
bne	.L10
b	.L28
.L15:
add	x0, x19, -28
add	x20, x20, :lo12:.LANCHOR0
add	x0, x0, 16
ldr	x1, [x19, -28]
ldr	x1, [x0, 8]
cmp	x1, x0
bne	.L10
b	.L15
.L12:
add	x0, x19, -28
add	x20, x20, :lo12:.LANCHOR0
add	x0, x0, 16
ldr	x1, [x19, -28]
ldr	x1, [x0, 8]
cmp	x1, x0
bne	.L10
b	.L12
.L10:
add	x20, x20, :lo12:.LANCHOR0
add	x0, x19, -28
ldr	x1, [x19, -28]
ldr	x1, [x20, 8]
cmp	x1, x0
beq	.L10
b	.L11
.L14:
add	x0, x19, -28
add	x20, x20, :lo12:.LANCHOR0
add	x0, x0, 16
ldr	x1, [x19, -28]
ldr	x1, [x0, 8]
cmp	x1, x0
ble	.L14
b	.L12
.L20:
add	x0, x20, :lo12:.LANCHOR0
add	x20, x20, :lo12:.LANCHOR0
add	x0, x0, 16
ldr	x1, [x19, -28]
ldr	x1, [x0, 8]
cmp	x1, x0
bne	.L10
b	.L20
.L25:
add	x0, x20, :lo12:.LANCHOR0
add	x20, x20, :lo12:.LANCHOR0
add	x0, x0, 16
ldr	x1, [x19, -28]
ldr	x1, [x0, 8]
cmp	x1, x0
bne	.L10
b	.L25
.L17:
add	x0, x20, :lo12:.LANCHOR0
add	x20, x20, :lo12:.LANCHOR0
add	x0, x0, 16
ldr	x1, [x19, -28]
ldr	x1, [x0, 8]
cmp	x1, x0
bne	.L10
b	.L17
.L11:
add	x0, x20, :lo12:.LANCHOR0
add	x20, x20, :lo12:.LANCHOR0
add	x0, x0, 16
ldr	x1, [x19, -28]
ldr	x1, [x0, 8]
cmp	x1, x0
bne	.L10
b	.L11
.L12:
add	x0, x19, -28
add	x20, x20, :lo12:.LANCHOR0
add	x0, x0, 16
ldr	x1, [x19, -28]
ldr	x1, [x0, 8]
cmp	x1, x0
bne	.L10
b	.L12
.L10:
add	x20, x20, :lo12:.LANCHOR0
add	x0, x19, -28
ldr	x1, [x19, -28]
ldr	x1, [x20, 8]
cmp	x1, x0
beq	.L10
b	.L11
.L14:
add	x0, x19, -28
add	x20, x20, :lo12:.LANCHOR0
add	x0, x0, 16
ldr	x1, [x19, -28]
ldr	x1, [x0, 8]
cmp	x1, x0
ble	.L14
b	.L12
.L26:
add	x0, x20, :lo12:.LANCHOR0
add	x20, x20, :lo12:.LANCHOR0
add	x0, x0, 16
ldr	x1, [x19, -28]
ldr	x1, [x0, 8]
cmp	x1, x0
bne	.L10
b	.L26
.L21:
add	x0, x20, :lo12:.LANCHOR0
add	x20, x20, :lo12:.LANCHOR0
add	x0, x0, 16
ldr	x1, [x19, -28]
ldr	x1, [x0, 8]
cmp	x1, x0
bne	.L10
b	.L21
.L23:
add	x0, x19, -28
add	x20, x20, :lo12:.LANCHOR0
add	x0, x0, 16
ldr	x1, [x19, -28]
ldr	x1, [x0, 8]
cmp	x1, x0
bne	.L10
b	.L23
.L16:
add	x0, x20, :lo12:.LANCHOR0
add	x20, x20, :lo12:.LANCHOR0
add	x0, x0, 16
ldr	x1, [x19, -28]
ldr	x1, [x0, 8]
cmp	x1, x0
bne	.L10
b	.L16
.L27:
add	x0, x20, :lo12:.LANCHOR0
add	x20, x20, :lo12:.LANCHOR0
add	x0, x0, 16
ldr	x1, [x19, -28]
ldr	x1, [x0, 8]
cmp	x1, x0
bne	.L10
b	.L27
.L14:
add	x0, x19, -28
add	x20, x20, :lo12:.LANCHOR0
add	x0, x0, 16
ldr	x1, [x19, -28]
ldr	x1, [x0, 8]
cmp	x1, x0
ble	.L14
b	.L12
.L24:
add	x0, x19, -28
add	x20, x20, :lo12:.LANCHOR0
add	x0, x0, 16
ldr	x1, [x19, -28]
ldr	x1, [x0, 8]
cmp	x1, x0
bne	.L10
b	.L24
.L18:
add	x0, x20, :lo12:.LANCHOR0
add	x20, x20, :lo12:.LANCHOR0
add	x0, x0, 16
ldr	x1, [x19, -28]
ldr	x1, [x0, 8]
cmp	x1, x0
bne	.L10
b	.L18
.L28:
add	x0, x20, :lo12:.LANCHOR0
add	x20, x20, :lo12:.LANCHOR0
add	x0, x0, 16
ldr	x1, [x19, -28]
ldr	x1, [x0, 8]
cmp	x1, x0
bne	.L10
b	.L28
.L15:
add	x0, x19, -28
add	x20, x20, :lo12:.LANCHOR0
add	x0, x0, 16
ldr	x1, [x19, -28]
ldr	x1, [x0, 8]
cmp	x1, x0
bne	.L10
b	.L15
.L12:
add	x0, x19, -28
add	x20, x20, :lo12:.LANCHOR0
add	x0, x0, 16
ldr	x1, [x19, -28]
ldr	x1, [x0, 8]
cmp	x1, x0
bne	.L10
b	.L12
.L10:
add	x20, x20, :lo12:.LANCHOR0
add	x0, x19, -28
ldr	x1, [x19, -28]
ldr	x1, [x20, 8]
cmp	x1, x0
beq	.L10
b	.L11
.L14:
add	x0, x19, -28
add	x20, x20, :lo12:.LANCHOR0
add	x0, x0, 16
ldr	x1, [x19, -28]
ldr	x1, [x0, 8]
cmp	x1, x0
ble	.L14
b	.L12
.L20:
add	x0, x20, :lo12:.LANCHOR0
add	x20, x20, :lo12:.LANCHOR0
add	x0, x0, 16
ldr	x1, [x19, -28]
ldr	x1, [x0, 8]
cmp	x1, x0
bne	.L10
b	.L20
.L25:
add	x0, x20, :lo12:.LANCHOR0
add	x20, x20, :lo12:.LANCHOR0
add	x0, x0, 16
ldr	x1, [x19, -28]
ldr	x1, [x0, 8]
cmp	x1, x0
bne	.L10
b	.L25
.L17:
add	x0, x20, :lo12:.LANCHOR0
add	x20, x20, :lo12:.LANCHOR0
add	x0, x0, 16
ldr	x1, [x19, -28]
ldr	x1, [x0, 8]
cmp	x1, x0
bne	.L10
b	.L17
.L11:
add	x0, x20, :lo12:.LANCHOR0
add	x20, x20, :lo12:.LANCHOR0
add	x0, x0, 16
ldr	x1, [x19, -28]
ldr	x1, [x0, 8]
cmp	x1, x0
bne	.L10
b	.L11
.L12:
add	x0, x19, -28
add	x20, x20, :lo12:.LANCHOR0
add	x0, x0, 16
ldr	x1, [x19, -28]
ldr	x1, [x0, 8]
cmp	x1, x0
bne	.L10
b	.L12
.L10:
add	x20, x20, :lo12:.LANCHOR0
add	x0, x19, -28
ldr	x1, [x19, -28]
ldr	x1, [x20, 8]
cmp	x1, x0
beq	.L10
b	.L11
.L14:
add	x0, x19, -28
add	x20, x20, :lo12:.LANCHOR0
add	x0, x0, 16
ldr	x1, [x19, -28]
ldr	x1, [x0, 8]
cmp	x1, x0
ble	.L14
b	.L12
.L26:
add	x0, x20, :lo12:.LANCHOR0
add	x20, x20, :lo12:.LANCHOR0
add	x0, x0, 16
ldr	x1, [x19, -28]
ldr	x1, [x0, 8]
cmp	x1, x0
bne	.L10
b	.L26
.L21:
add	x0, x20, :lo12:.LANCHOR0
add	x20, x20, :lo12:.LANCHOR0
add	x0, x0, 16
ldr	x1, [x19, -28]
ldr	x1, [x0, 8]
cmp	x1, x0
bne	.L10
b	.L21
.L23:
add	x0, x19, -28
add	x20, x20, :lo12:.LANCHOR0
add	x0, x0, 16
ldr	x1, [x19, -28]
ldr	x1, [x0, 8]
cmp	x1, x0
bne	.L10
b	.L23
.L16:
add	x0, x20, :lo12:.LANCHOR0
add	x20, x20, :lo12:.LANCHOR0
add	x0, x0, 16
ldr	x1, [x19, -28]
ldr	x1, [x0, 8]
cmp	x1, x0
bne	.L10
b	.L16
.L27:
add	x0, x20, :lo12:.LANCHOR0
add	x20, x20, :lo12:.LANCHOR0
add	x0, x0, 16
ldr	x1, [x19, -28]
ldr	x1, [x0, 8]
cmp	x1, x0
bne	.L10
b	.L27
.L14:
add	x0, x19, -28
add	x20, x20, :lo12:.LANCHOR0
add	x0, x0, 16
ldr	x1, [x19, -28]
ldr	x1, [x0, 8]
cmp	x1, x0
ble	.L14
b	.L12
.L24:
add	x0, x19, -28
add	x20, x20, :lo12:.LANCHOR0
add	x0, x0, 16
ldr	x1, [x19, -28]
ldr	x1, [x0, 8]
cmp	x1, x0
bne	.L10
b	.L24
.L18:
add	x0, x20, :lo12:.LANCHOR0
add	x20, x20, :lo12:.LANCHOR0
add	x0, x0, 16
ldr	x1, [x19, -28]
ldr	x1, [x0, 8]
cmp	x1, x0
bne	.L10
b	.L18
.L28:
add	x0, x20, :lo12:.LANCHOR0
add	x20, x20, :lo12:.LANCHOR0
add	x0, x0, 16
ldr	x1, [x19, -28]
ldr	x1, [x0, 8]
cmp	x1, x0
bne	.L10
b	.L28
.L15:
add	x0, x19, -28
add	x20, x20, :lo12:.LANCHOR0
add	x0, x0, 16
ldr	x1, [x19, -28]
ldr	x1, [x0, 8]
cmp	x1, x0
bne	.L10
b	.L15
.L12:
add	x0, x19, -28
add	x20, x20, :lo12:.LANCHOR0
add	x0, x0, 16
ldr	x1, [x19, -28]
ldr	x1, [x0, 8]
cmp	x1, x0
bne	.L10
b	.L12
.L10:
add	x20, x20, :lo12:.LANCHOR0
add	x0, x19, -28
ldr	x1, [x19, -28]
ldr	x1, [x20, 8]
cmp	x1, x0
beq	.L10
b	.L11
.L14:
add	x0, x19, -28
add	x20, x20, :lo12:.LANCHOR0
add	x0, x0, 16
ldr	x1, [x19, -28]
ldr	x1, [x0, 8]
cmp	x1, x0
ble	.L14
b	.L12
.L20:
add	x0, x20, :lo12:.LANCHOR0
add	x20, x20, :lo12:.LANCHOR0
add	x0, x0, 16
ldr	x1, [x19, -28]
ldr	x1, [x0, 8]
cmp	x1, x0
bne	.L10
b	.L20
.L25:
add	x0, x20, :lo12:.LANCHOR0
add	x20, x20, :lo12:.LANCHOR0
add	x0, x0, 16
ldr	x1, [x19, -28]
ldr	x1, [x0, 8]
cmp	x1, x0
bne	.L10
b	.L25
.L17:
add	x0, x20, :lo12:.LANCHOR0
add	x20, x20, :lo12:.LANCHOR0
add	x0, x0, 16
ldr	x1, [x19, -28]
ldr	x1, [x0, 8]
cmp	x1, x0
bne	.L10
b	.L17
.L11:
add	x0, x20, :lo12:.LANCHOR0
add	x20, x20, :lo12:.LANCHOR0
add	x0, x0, 16
ldr	x1, [x19, -28]
ldr	x1, [x0, 8]
cmp	x1, x0
bne	.L10
b	.L11
.L12:
add	x0, x19, -28
add	x20, x20, :lo12:.LANCHOR0
add	x0, x0, 16
ldr	x1, [x19, -28]
ldr	x1, [x0, 8]
cmp	x1, x0
bne	.L10
b	.L12
.L10:
add	x20, x20, :lo12:.LANCHOR0
add	x0, x19, -28
ldr	x1, [x19, -28]
ldr	x1, [x20, 8]
cmp	x1, x0
beq	.L10
b	.L11
.L14:
add	x0, x19, -28
add	x20, x20, :lo12:.LANCHOR0
add	x0, x0, 16
ldr	x1, [x19, -28]
ldr	x1, [x0, 8]
cmp	x1, x0
ble	.L14
b	.L12
.L26:
add	x0, x20, :lo12:.LANCHOR0
add	x20, x20, :lo12:.LANCHOR0
add	x0, x0, 16
ldr	x1, [x19, -28]
ldr	x1, [x0, 8]
cmp	x1, x0
bne	.L10
b	.L26
.L21:
add	x0, x20, :lo12:.LANCHOR0
add	x20, x20, :lo12:.LANCHOR0
add	x0, x0, 16
ldr	x1, [x19, -28]
ldr	x1, [x0, 8]
cmp	x1, x0
bne	.L10
b	.L21
.L23:
add	x0, x19, -28
add	x20, x20, :lo12:.LANCHOR0
add	x0, x0, 16
ldr	x1, [x19, -28]
ldr	x1, [x0, 8]
cmp	x1, x0
bne	.L10
b	.L23
.L16:
add	x0, x20, :lo12:.LANCHOR0
add	x20, x20, :lo12:.LANCHOR0
add	x0, x0, 16
ldr	x1, [x19, -28]
ldr	x1, [x0, 8]
cmp	x1, x0
bne	.L10
b	.L16
.L27:
add	x0, x20, :lo12:.LANCHOR0
add	x20, x20, :lo12:.LANCHOR0
add	x0, x0, 16
ldr	x1, [x19, -28]
ldr	x1, [x0, 8]
cmp	x1, x0
bne	.L10
b	.L27
.L14:
add	x0, x19, -28
add	x20, x20, :lo12:.LANCHOR0
add	x0, x0, 16
ldr	x1, [x19, -28]
ldr	x1, [x0, 8]
cmp	x1, x0
ble	.L14
b	.L12
.L24:
add	x0, x19, -28
add	x20, x20, :lo12:.LANCHOR0
add	x0, x0, 16
ldr	x1, [x19, -28]
ldr	x1, [x0, 8]
cmp	x1, x0
bne	.L10
b	.L24
.L18:
add	x0, x20, :lo12:.LANCHOR0
add	x20, x20, :lo12:.LANCHOR0
add	x0, x0, 16
ldr	x1, [x19, -28]
ldr	x1, [x0, 8]
cmp	x1, x0
bne	.L10
b	.L18
.L28:
add	x0, x20, :lo12:.LANCHOR0
add	x20, x20, :lo12:.LANCHOR0
add	x0, x0, 16
ldr	x1, [x19, -28]
ldr	x1, [x0, 8]
cmp	x1, x0
bne	.L10
b	.L28
.L15:
add	x0, x19, -28
add	x20, x20, :lo12:.LANCHOR0
add	x0, x0, 16
ldr	x1, [x19, -28]
ldr	x1, [x0, 8]
cmp	x1, x0
bne	.L10
b	.L15
.L12:
add	x0, x19, -28
add	x20, x20, :lo12:.LANCHOR0
add	x0, x0, 16
ldr	x1, [x19, -28]
ldr	x1, [x0, 8]
cmp	x1, x0
bne	.L10
b	.L12
.L10:
add	x20, x20, :lo12:.LANCHOR0
add	x0, x19, -28
ldr	x1, [x19, -28]
ldr	x1, [x20, 8]
cmp	x1, x0
beq	.L10
b	.L11
.L14:
add	x0, x19, -28
add	x20, x20, :lo12:.LANCHOR0
add	x0, x0, 16
ldr	x1, [x19, -28]
ldr	x1, [x0, 8]
cmp	x1, x0
ble	.L14
b	.L12
.L20:
add	x0, x20, :lo12:.LANCHOR0
add	x20, x20, :lo12:.LANCHOR0
add	x0, x0, 16
ldr	x1, [x19, -28]
ldr	x1, [x0, 8]
cmp	x1, x0
bne	.L10
b	.L20
.L25:
add	x0, x20, :lo12:.LANCHOR0
add	x20, x20, :lo12:.LANCHOR0
add	x0, x0, 16
ldr	x1, [x19, -28]
ldr	x1, [x0, 8]
cmp	x1, x0
bne	.L10
b	.L25
.L17:
add	x0, x20, :lo12:.LANCHOR0
add	x20, x20, :lo12:.LANCHOR0
add	x0, x0, 16
ldr	x1, [x19, -28]
ldr	x1, [x0, 8]
cmp	x1, x0
bne	.L10
b	.L17
.L11:
add	x0, x20, :lo12:.LANCHOR0
add	x20, x20, :lo12:.LANCHOR0
add	x0, x0, 16
ldr	x1, [x19, -28]
ldr	x1, [x0, 8]
cmp	x1, x0
bne	.L10
b	.L11
.L12:
add	x0, x19, -28
add	x20, x20, :lo12:.LANCHOR0
add	x0, x0, 16
ldr	x1, [x19, -28]
ldr	x1, [x0, 8]
cmp	x1, x0
bne	.L10
b	.L12
.L10:
add	x20, x20, :lo12:.LANCHOR0
add	x0, x19, -28
ldr	x1, [x19, -28]
ldr	x1, [x20, 8]
cmp	x1, x0
beq	.L10
b	.L11
.L14:
add	x0, x19, -28
add	x20, x20, :lo12:.LANCHOR0
add	x0, x0, 16
ldr	x1, [x19, -28]
ldr	x1, [x0, 8]
cmp	x1, x0
ble	.L14
b	.L12
.L26:
add	x0, x20, :lo12:.LANCHOR0
add	x20, x20, :lo12:.LANCHOR0
add	x0, x0, 16
ldr	x1, [x19, -28]
ldr	x1, [x0, 8]
cmp	x1, x0
bne	.L10
b	.L26
.L21:
add	x0, x20, :lo12:.LANCHOR0
add	x20, x20, :lo12:.LANCHOR0
add	x0, x0, 16
ldr	x1, [x19, -28]
ldr	x1, [x0, 8]
cmp	x1, x0
bne	.L10
b	.L21
.L23:
add	x0, x19, -28
add	x20, x20, :lo12:.LANCHOR0
add	x0, x0, 16
ldr	x1, [x19, -28]
ldr	x1, [x0, 8]
cmp	x1, x0
bne	.L10
b	.L23
.L16:
add	x0, x20, :lo12:.LANCHOR0
add	x20, x20, :lo12:.LANCHOR0
add	x0, x0, 16
ldr	x1, [x19, -28]
ldr	x1, [x0, 8]
cmp	x1, x0
bne	.L10
b	.L16
.L27:
add	x0, x20, :lo12:.LANCHOR0
add	x20, x20, :lo12:.LANCHOR0
add	x0, x0, 16
ldr	x1, [x19, -28]
ldr	x1, [x0, 8]
cmp	x1, x0
bne	.L10
b	.L27
.L14:
add	x0, x19, -28
add	x20, x20, :lo12:.LANCHOR0
add	x0, x0, 16
ldr	x1, [x19, -28]
ldr	x1, [x0, 8]
cmp	x1, x0
ble	.L14
b	.L12
.L24:
add	x0, x19, -28
add	x20, x20, :lo12:.LANCHOR0
add	x0, x0, 16
ldr	x1, [x19, -28]
ldr	x1, [x0, 8]
cmp	x1, x0
bne	.L10
b	.L24
.L18:
add	x0, x20, :lo12:.LANCHOR0
add	x20, x20, :lo12:.LANCHOR0
add	x0, x0, 16
ldr	x1, [x19, -28]
ldr	x1, [x0, 8]
cmp	x1, x0
bne	.L10
b	.L18
.L28:
add	x0, x20, :lo12:.LANCHOR0
add	x20, x20, :lo12:.LANCHOR0
add	x0, x0, 16
ldr	x1, [x19, -28]
ldr	x1, [x0, 8]
cmp	x1, x0
bne	.L10
b	.L28
.L15:
add	x0, x19, -28
add	x20, x20, :lo12:.LANCHOR0
add	x0, x0, 16
ldr	x1, [x19, -28]
ldr	x1, [x0, 8]
cmp	x1, x0
bne	.L10
b	.L15
.L12:
add	x0, x19, -28
add	x20, x20, :lo12:.LANCHOR0
add	x0, x0, 16
ldr	x1, [x19, -28]
ldr	x1, [x0, 8]
cmp	x1, x0
bne	.L10
b	.L12
.L10:
add	x20, x20, :lo12:.LANCHOR0
add	x0, x19, -28
ldr	x1, [x19, -28]
ldr	x1, [x20, 8]
cmp	x1, x0
beq	.L10
b	.L11
.L14:
add	x0, x19, -28
add	x20, x20, :lo12:.LANCHOR0
add	x0, x0, 16
ldr	x1, [x19, -28]
ldr	x1, [x0, 8]
cmp	x1, x0
ble	.L14
b	.L12
.L20:
add	x0, x20, :lo12:.LANCHOR0
add	x20, x20, :lo12:.LANCHOR0
add	x0, x0, 16
ldr	x1, [x19, -28]
ldr	x1, [x0, 8]
cmp	x1, x0
bne	.L10
b	.L20
.L25:
add	x0, x20, :lo12:.LANCHOR0
add	x20, x20, :lo12:.LANCHOR0
add	x0, x0, 16
ldr	x1, [x19, -28]
ldr	x1, [x0, 8]
cmp	x1, x0
bne	.L10
b	.L25
.L17:
add	x0, x20, :lo12:.LANCHOR0
add	x20, x20, :lo12:.LANCHOR0
add	x0, x0, 16
ldr	x1, [x19, -28]
ldr	x1, [x0, 8]
cmp	x1, x0
bne	.L10
b	.L17
.L11:
add	x0, x20, :lo12:.LANCHOR0
add	x20, x20, :lo12:.LANCHOR0
add	x0, x0, 16
ldr	x1, [x19, -28]
ldr	x1, [x0, 8]
cmp	x1, x0
bne	.L10
b	.L11
.L12:
add	x0, x19, -28
add	x20, x20, :lo12:.LANCHOR0
add	x0, x0, 16
ldr	x1, [x19, -28]
ldr	x1, [x0, 8]
cmp	x1, x0
bne	.L10
b	.L12
.L10:
add	x20, x20, :lo12:.LANCHOR0
add	x0, x19, -28
ldr	x1, [x19, -28]
ldr	x1, [x20, 8]
cmp	x1, x0
beq	.L10
b	.L11
.L14:
add	x0, x19, -28
add	x20, x20, :lo12:.LANCHOR0
add	x0, x0, 16
ldr	x1, [x19, -28]
ldr	x1, [x0, 8]
cmp	x1, x0
ble	.L14
b	.L12
.L26:
add	x0, x20, :lo12:.LANCHOR0
add	x20, x20, :lo12:.LANCHOR0
add	x0, x0, 16
ldr	x1, [x19, -28]
ldr	x1, [x0, 8]
cmp	x1, x0
bne	.L10
b	.L26
.L21:
add	x0, x20, :lo12:.LANCHOR0
add	x20, x20, :lo12:.LANCHOR0
add	x0, x0, 16
ldr	x1, [x19, -28]
ldr	x1, [x0, 8]
cmp	x1, x0
bne	.L10
b	.L21
.L23:
add	x0, x19, -28
add	x20, x20, :lo12:.LANCHOR0
add	x0, x0, 16
ldr	x1, [x19, -28]
ldr	x1, [x0, 8]
cmp	x1, x0
bne	.L10
b	.L23
.L16:
add	x0, x20, :lo12:.LANCHOR0
add	x20, x20, :lo12:.LANCHOR0
add	x0, x0, 16
ldr	x1, [x19, -28]
ldr	x1, [x0, 8]
cmp	x1, x0
bne	.L10
b	.L16
.L27:
add	x0, x20, :lo12:.LANCHOR0
add	x20, x20, :lo12:.LANCHOR0
add	x0, x0, 16
ldr	x1, [x19, -28]
ldr	x1, [x0, 8]
cmp	x1, x0
bne	.L10
b	.L27
.L14:
add	x0, x