.arch armv8-a
.file     __TEXT,__text,regular,pure_instructions
.align    2
.p2align 4,,11
.global	_func0
.section	__TEXT,__text,regular,pure_instructions
.bss
.align	2
._Section0:
.word	0xc61c4000
.section	__TEXT,__text,regular,pure_instructions
.global	_func0
.p2align	2,,3
_func0:                                ## @func0
.cfi_startproc
stp	x29, x30, [sp, -32]!
.cfi_def_cfa_offset 32
.cfi_offset 29, -32
.cfi_offset 30, -24
mov	x29, sp
.cfi_def_cfa_register x29
str	w1, [x29, -12]
str	x0, [x29, -16]
stp	x19, x20, [sp, 16]
.cfi_offset 19, -16
.cfi_offset 20, -8
adrp	x20, .LANCHOR0
add	x20, x20, :lo12:.LANCHOR0
str	s0, [x29, -8]
ldr	s0, [x20]
str	s0, [x29, -16]
.LB1:
ldp	w0, w1, [x29, -12]
cmp	w0, w1
bge	.L7
ldp	s1, s0, [x29, -16]
ldr	x2, [x29, -16]
sxtw	x0, w0
ldr	s2, [x2, x0, lsl 2]
fcmp	s2, s1
bmi	.L4
.L7:
ldr	w0, [x29, -12]
ldr	w1, [x29, -16]
cmp	w0, w1
blt	.L3
.L4:
ldr	s0, [x29, -16]
ldrsw	x0, [x29, -12]
ldr	s2, [x2, x0, lsl 2]
fcmpe	s2, s0
bcc	.L3
ldr	w0, [x29, -12]
ldr	s0, [x29, -8]
add	w0, w0, 1
str	w0, [x29, -12]
ldp	x19, x20, [sp, 16]
ldp	x29, x30, [sp], 32
.cfi_remember_state
.cfi_restore 30
.cfi_restore 29
.cfi_restore 19
.cfi_restore 20
.cfi_def_cfa_offset 0
ret
.p2align 2,,3
.L3:
.cfi_restore_state
ldr	w0, [x29, -12]
ldr	x2, [x29, -16]
add	w0, w0, 1
str	w0, [x29, -12]
ldp	x19, x20, [sp, 16]
ldp	x29, x30, [sp], 32
.cfi_restore 30
.cfi_restore 29
.cfi_restore 19
.cfi_restore 20
.cfi_def_cfa_offset 0
ret
.cfi_endproc
.sect
.align	2
.set	.LANCHOR0,. + 0
.data
.lc0,
.word	0xc61c4000
.xword	0
.xword	0
.xword	0
.xword	0
.word	0
.word	0
.word	0
.word	0
.word	0
.word	0
.word	0
.word	0
.word	0
.word	0
.word	0
.word	0
.word	0
.word	0
.word	0
.word	0
.word	0
.word	0
.word	0
.word	0
.word	0
.word	0
.word	0
.word	0
.word	0
.word	0
.word	0
.word	0
.word	0
.word	0
.word	0
.word	0
.word	0
.word	0
.word	0
.word	0
.word	0
.word	0
.word	0
.word	0
.word	0
.word	0
.word	0
.word	0
.word	0
.word	0
.word	0
.word	0
.word	0
.word	0
.word	0
.word	0
.word	0
.word	0
.word	0
.word	0
.word	0
.word	0
.word	0
.word	0
.word	0
.word	0
.word	0
.word	0
.word	0
.word	0
.word	0
.word	0
.word	0
.word	0
.word	0
.word	0
.word	0
.word	0
.word	0
.word	0
.word	0
.word	0
.word	0
.word	0
.word	0
.word	0
.word	0
.word	0
.word	0
.word	0
.word	0
.word	0
.word	0
.word	0
.word	0
.word	0
.word	0
.word	0
.word	0
.word	0
.word	0
.word	0
.word	0
.word	0
.word	0
.word	0
.word	0
.word	0
.word	0
.word	0
.word	0
.word	0
.word	0
.word	0
.word	0
.word	0
.word	0
.word	0
.word	0
.word	0
.word	0
.word	0
.word	0
.word	0
.word	0
.word	0
.word	0
.word	0
.word	0
.word	0
.word	0
.word	0
.word	0
.word	0
.word	0
.word	0
.word	0
.word	0
.word	0
.word	0
.word	0
.word	0
.word	0
.word	0
.word	0
.word	0
.word	0
.word	0
.word	0
.word	0
.word	0
.word	0
.word	0
.word	0
.word	0
.word	0
.word	0
.word	0
.word	0
.word	0
.word	0
.word	0
.word	0
.word	0
.word	0
.word	0
.word	0
.word	0
.word	0
.word	0
.word	0
.word	0
.word	0
.word	0
.word	0
.word	0
.word	0
.word	0
.word	0
.word	0
.word	0
.word	0
.word	0
.word	0
.word	0
.word	0
.word	0
.word	0
.word	0
.word	0
.word	0
.word	0
.word	0
.word	0
.word	0
.word	0
.word	0
.word	0
.word	0
.word	0
.word	0
.word	0
.word	0
.word	0
.word	0
.word	0
.word	0
.word	0
.word	0
.word	0
.word	0
.word	0
.word	0
.word	0
.word	0
.word	0
.word	0
.word	0
.word	0
.word	0
.word	0
.word	0
.word	0
.word	0
.word	0
.word	0
.word	0
.word	0
.word	0
.word	0
.word	0
.word	0
.word	0
.word	0
.word	0
.word	0
.word	0
.word	0
.word	0
.word	0
.word	0
.word	0
.word	0
.word	0
.word	0
.word	0
.word	0
.word	0
.word	0
.word	0
.word	0
.word	0
.word	0
.word	0
.word	0
.word	0
.word	0
.word	0
.word	0
.word	0
.word	0
.word	0
.word	0
.word	0
.word	0
.word	0
.word	0
.word	0
.word	0
.word	0
.word	0
.word	0
.word	0
.word	0
.word	0
.word	0
.word	0
.word	0
.word	0
.word	0
.word	0
.word	0
.word	0
.word	0
.word	0
.word	0
.word	0
.word	0
.word	0
.word	0
.word	0
.word	0
.word	0
.word	0
.word	0
.word	0
.word	0
.word	0
.word	0
.word	0
.word	0
.word	0
.word	0
.word	0
.word	0
.word	0
.word	0
.word	0
.word	0
.word	0
.word	0
.word	0
.word	0
.word	0
.word	0
.word	0
.word	0
.word	0
.word	0
.word	0
.word	0
.word	0
.word	0
.word	0
.word	0
.word	0
.word	0
.word	0
.word	0
.word	0
.word	0
.word	0
.word	0
.word	0
.word	0
.word	0
.word	0
.word	0
.word	0
.word	0
.word	0
.word	0
.word	0
.word	0
.word	0
.word	0
.word	0
.word	0
.word	0
.word	0
.word	0
.word	0
.word	0
.word	0
.word	0
.word	0
.word	0
.word	0
.word	0
.word	0
.word	0
.word	0
.word	0
.word	0
.word	0
.word	0
.word	0
.word	0
.word	0
.word	0
.word	0
.word	0
.word	0
.word	0
.word	0
.word	0
.word	0
.word	0
.word	0
.word	0
.word	0
.word	0
.word	0
.word	0
.word	0
.word	0
.word	0
.word	0
.word	0
.word	0
.word	0
.word	0
.word	0
.word	0
.word	0
.word	0
.word	0
.word	0
.word	0
.word	0
.word	0
.word	0
.word	0
.word	0
.word	0
.word	0
.word	0
.word	0
.word	0
.word	0
.word	0
.word	0
.word	0
.word	0
.word	0
.word	0
.word	0
.word	0
.word	0
.word	0
.word	0
.word	0
.word	0
.word	0
.word	0
.word	0
.word	0
.word	0
.word	0
.word	0
.word	0
.word	0
.word	0
.word	0
.word	0
.word	0
.word	0
.word	0
.word	0
.word	0
.word	0
.word	0
.word	0
.word	0
.word	0
.word	0
.word	0
.word	0
.word	0
.word	0
.word	0
.word	0
.word	0
.word	0
.word	0
.word	0
.word	0
.word	0
.word	0
.word	0
.word	0
.word	0
.word	0
.word	0
.word	0
.word	0
.word	0
.word	0
.word	0
.word	0
.word	0
.word	0
.word	0
.word	0
.word	0
.word	0
.word	0
.word	0
.word	0
.word	0
.word	0
.word	0
.word	0
.word	0
.word	0
.word	0
.word	0
.word	0
.word	0
.word	0
.word	0
.word	0
.word	0
.word	0
.word	0
.word	0
.word	0
.word	0
.word	0
.word	0
.word	0
.word	0
.word	0
.word	0
.word	0
.word	0
.word	0
.word	0
.word	0
.word	0
.word	0
.word	0
.word	0
.word	0
.word	0
.word	0
.word	0
.word	0
.word	0
.word	0
.word	0
.word	0
.word	0
.word	0
.word	0
.word	0
.word	0
.word	0
.word	0
.word	0
.word	0
.word	0
.word	0
.word	0
.word	0
.word	0
.word	0
.word	0
.word	0
.word	0
.word	0
.word	0
.word	0
.word	0
.word	0
.word	0
.word	0
.word	0
.word	0
.word	0
.word	0
.word	0
.word	0
.word	0
.word	0
.word	0
.word	0
.word	0
.word	0
.word	0
.word	0
.word	0
.word	0
.word	0
.word	0
.word	0
.word	0
.word	0
.word	0
.word	0
.word	0
.word	0
.word	0
.word	0
.word	0
.word	0
.word	0
.word	0
.word	0
.word	0
.word	0
.word	0
.word	0
.word	0
.word	0
.word	0
.word	0
.word	0
.word	0
.word	0
.word	0
.word	0
.word	0
.word	0
.word	0
.word	0
.word	0
.word	0
.word	0
.word	0
.word	0
.word	0
.word	0
.word	0
.word	0
.word	0
.word	0
.word	0
.word	0
.word	0
.word	0
.word	0
.word	0
.word	0
.word	0
.word	0
.word	0
.word	0
.word	0
.word	0
.word	0
.word	0
.word	0
.word	0
.word	0
.word	0
.word	0
.word	0
.word	0
.word	0
.word	0
.word	0
.word	0
.word	0
.word	0
.word	0
.word	0
.word	0
.word	0
.word	0
.word	0
.word	0
.word	0
.word	0
.word	0
.word	0
.word	0
.word	0
.word	0
.word	0
.word	0
.word	0
.word	0
.word	0
.word	0
.word	0
.word	0
.word	0
.word	0
.word	0
.word	0
.word	0
.word	0
.word	0
.word	0
.word	0
.word	0
.word	0
.word	0
.word	0
.word	0
.word	0
.word	0
.word	0
.word	0
.word	0
.word	0
.word	0
.word	0
.word	0
.word	0
.word	0
.word	0
.word	0
.word	0
.word	0
.word	0
.word	0
.word	0
.word	0
.word	0
.word	0
.word	0
.word	0
.word	0
.word	0
.word	0
.word	0
.word	0
.word	0
.word	0
.word	0
.word	0
.word	0
.word	0
.word	0
.word	0
.word	0
.word	0
.word	0
.word	0
.word	0
.word	0
.word	0
.word	0
.word	0
.word	0
.word	0
.word	0
.word	0
.word	0
.word	0
.word	0
.word	0
.word	0
.word	0
.word	0
.word	0
.word	0
.word	0
.word	0
.word	0
.word	0
.word	0
.word	0
.word	0
.word	0
.word	0
.word	0
.word	0
.word	0
.word	0
.word	0
.word	0
.word	0
.word	0
.word	0
.word	0
.word	0
.word	0
.word	0
.word	0
.word	0
.word	0
.word	0
.word	0
.word	0
.word	0
.word	0
.word	0
.word	0
.word	0
.word	0
.word	0
.word	0
.word	0
.word	0
.word	0
.word	0
.word	0
.word	0
.word	0
.word	0
.word	0
.word	0
.word	0
.word	0
.word	0
.word	0
.word	0
.word	0
.word	0
.word	0
.word	0
.word	0
.word	0
.word	0
.word	0
.word	0
.word	0
.word	0
.word	0
.word	0
.word	0
.word	0
.word	0
.word	0
.word	0
.word	0
.word	0
.word	0
.word	0
.word	0
.word	0
.word	0
.word	0
.word	0
.word	0
.word	0
.word	0
.word	0
.word	0
.word	0
.word	0
.word	0
.word	0
.word	0
.word	0
.word	0
.word	0
.word	0
.word	0
.word	0
.word	0
.word	0
.word	0
.word	0
.word	0
.word	0
.word	0
.word	0
.word	0
.word	0
.word	0
.word	0
.word	0
.word	0
.word	0
.word	0
.word	0
.word	0
.word	0
.word	0
.word	0
.word	0
.word	0
.word	0
.word	0
.word	0
.word	0
.word	0
.word	0
.word	0
.word	0
.word	0
.word	0
.word	0
.word	0
.word	0
.word	0
.word	0
.word	0
.word	0
.word	0
.word	0
.word	0
.word	0
.word	0
.word	0
.word	0
.word	0
.word	0
.word	0
.word	0
.word	0
.word	0
.word	0
.word	0
.word	0
.word	0
.word	0
.word	0
.word	0
.word	0
.word	0
.word	0
.word	0
.word	0
.word	0
.word	0
.word	0
.word	0
.word	0
.word	0
.word	0
.word	0
.word	0
.word	0
.word	0
.word	0
.word	0
.word	0
.word	0
.word	0
.word	0
.word	0
.word	0
.word	0
.word	0
.word	0
.word	0
.word	0
.word	0
.word	0
.word	0
.word	0
.word	0
.word	0
.word	0
.word	0
.word	0
.word	0
.word	0
.word	0
.word	0
.word	0
.word	0
.word	0
.word	0
.word	0
.word	0
.word	0
.word	0
.word	0
.word	0
.word	0
.word	0
.word	0
.word	0
.word	0
.word	0
.word	0
.word	0
.word	0
.word	0
.word	0
.word	0
.word	0
.word	0
.word	0
.word	0
.word	0
.word	0
.word	0
.word	0
.word	0
.word	0
.word	0
.word	0
.word	0
.word	0
.word	0
.word	0
.word	0
.word	0
.word	0
.word	0
.word	0
.word	0
.word	0
.word	0
.word	0
.word	0
.word	0
.word	0
.word	0
.word	0
.word	0
.word	0
.word	0
.word	0
.word	0
.word	0
.word	0
.word	0
.word	0
.word	0
.word	0
.word	0
.word	0
.word	0
.word	0
.word	0
.word	0
.word	0
.word	0
.word	0
.word	0
.word	0
.word	0
.word	0
.word	0
.word	0
.word	0
.word	0
.word	0
.word	0
.word	0
.word	0
.word	0
.word	0
.word	0
.word	0
.word	0
.word	0
.word	0
.word	0
.word	0
.word	0
.word	0
.word	0
.word	0
.word	0
.word	0
.word	0
.word	0
.word	0
.word	0
.word	0
.word	0
.word	0
.word	0
.word	0
.word	0
.word	0
.word	0
.word	0
.word	0
.word	0
.word	0
.word	0
.word	0
.word	0
.word	0
.word	0
.word	0
.word	0
.word	0
.word	0
.word	0
.word	0
.word	0
.word	0
.word	0
.word	0
.word	0
.word	0
.word	0
.word	0
.word	0
.word	0
.word	0
.word	0
.word	0
.word	0
.word	0
.word	0
.word	0
.word	0
.word	0
.word	0
.word	0
.word	0
.word	0
.word	0
.word	0
.word	0
.word	0
.word	0
.word	0
.word	0
.word	0
.word	0
.word	0
.word	0
.word	0
.word	0
.word	0
.word	0
.word	0
.word	0
.word	0
.word	0
.word	0
.word	0
.word	0
.word	0
.word	0
.word	0
.word	0
.word	0
.word	0
.word	0
.word	0
.word	0
.word	0
.word	0
.word	0
.word	0
.word	0
.word	0
.word	0
.word	0
.word	0
.word	0
.word	0
.word	0
.word	0
.word	0
.word	0
.word	0
.word	0
.word	0
.word	0
.word	0
.word	0
.word	0
.word	0
.word	0
.word	0
.word	0
.word	0
.word	0
.word	0
.word	0
.word	0
.word	0
.word	0
.word	0
.word	0
.word	0
.word	0
.word	0
.word	0
.word	0
.word	0
.word	0
.word	0
.word	0
.word	0
.word	0
.word	0
.word	0
.word	0
.word	0
.word	0
.word	0
.word	0
.word	0
.word	0
.word	0
.word	0
.word	0
.word	0
.word	0
.word	0
.word	0
.word	0
.word	0
.word	0
.word	0
.word	0
.word	0
.word	0
.word	0
.word	0
.word	0
.word	0
.word	0
.word	0
.word	0
.word	0
.word	0
.word	0
.word	0
.word	0
.word	0
.word	0
.word	0
.word	0
.word	0
.word	0
.word	0
.word	0
.word	0
.word	0
.word	0
.word	0
.word	0
.word	0
.word	0
.word	0
.word	0
.word	0
.word	0
.word	0
.word	0
.word	0
.word	0
.word	0
.word	0
.word	0
.word	0
.word	0
.word	0
.word	0
.word	0
.word	0
.word	0
.word	0
.word	0
.word	0
.word	0
.word	0
.word	0
.word	0
.word	0
.word	0
.word	0
.word	0
.word	0
.word	0
.word	0
.word	0
.word	0
.word	0
.word	0
.word	0
.word	0
.word	0
.word	0
.word	0
.word	0
.word	0
.word	0
.word	0
.word	0
.word	0
.word	0
.word	0
.word	0
.word	0
.word	0
.word	0
.word	0
.word	0
.word	0
.word	0
.word	0
.word	0
.word	0
.word	0
.word	0
.word	0
.word	0
.word	0
.word	0
.word	0
.word	0
.word	0
.word	0
.word	0
.word	0
.word	0
.word	0
.word	0
.word	0
.word	0
.word	0
.word	0
.word	0
.word	0
.word	0
.word	0
.word	0
.word	0
.word	0
.word	0
.word	0
.word	0
.word	0
.word	0
.word	0
.word	0
.word	0
.word	0
.word	0
.word	0
.word	0
.word	0
.word	0
.word	0
.word	0
.word	0
.word	0
.word	0
.word	0
.word	0
.word	0
.word	0
.word	0
.word	0
.word	0
.word	0
.word	0
.word	0
.word	0
.word	0
.word	0
.word	0
.word	0
.word	0
.word	0
.word	0
.word	0
.word	0
.word	0
.word	0
.word	0
.word	0
.word	0
.word	0
.word	0
.word	0
.word	0
.word	0
.word	0
.word	0
.word	0
.word	0
.word	0
.word	0
.word	0
.word	0
.word	0
.word	0
.word	0
.word	0
.word	0
.word	0
.word	0
.word	0
.word	0
.word	0
.word	0
.word	0
.word	0
.word	0
.word	0
.word	0
.word	0
.word	0
.word	0
.word	0
.word	0
.word	0
.word	0
.word	0
.word	0
.word	0
.word	0
.word	0
.word	0
.word	0
.word	0
.word	0
.word	0
.word	0
.word	0
.word	0
.word	0
.word	0
.word	0
.word	0
.word	0
.word	0
.word	0
.word	0
.word	0
.word	0
.word	0
.word	0
.word	0
.word	0
.word	0
.word	0
.word	0
.word	0
.word	0
.word	0
.word	0
.word	0
.word	0
.word	0
.word	0
.word	0
.word	0
.word	0
.word	0
.word	0
.word	0
.word	0
.word	0
.word	0
.word	0
.word	0
.word	0
.word	0
.word	0
.word	0
.word	0
.word	0
.word	0
.word	0
.word	0
.word	0
.word	0
.word	0
.word	0
.word	0
.word	0
.word	0
.word	0
.word	0
.word	0
.word	0
.word	0
.word	0
.word	0
.word	0
.word	0
.word	0
.word	0
.word	0
.word	0
.word	0
.word	0
.word	0
.word	0
.word	0
.word	0
.word	0
.word	0
.word	0
.word	0
.word	0
.word	0
.word	0
.word	0
.word	0
.word	0
.word	0
.word	0
.word	0
.word	0
.word	0
.word	0
.word	0
.word	0
.word	0
.word	0
.word	0
.word	0
.word	0
.word	0
.word	0
.word	0
.word	0
.word	0
.word	0
.word	0
.word	0
.word	0
.word	0
.word	0
.word	0
.word	0
.word	0
.word	0
.word	0
.word	0
.word	0
.word	0
.word	0
.word	0
.word	0
.word	0
.word	0
.word	0
.word	0
.word	0
.word	0
.word	0
.word	0
.word	0
.word	0
.word	0
.word	0
.word	0
.word	0
.word	0
.word	0
.word	0
.word	0
.word	0
.word	0
.word	0
.word	0
.word	0
.word	0
.word	0
.word	0
.word	0
.word	0
.word	0
.word	0
.word	0
.word	0
.word	0
.word	0
.word	0
.word	0
.word	0
.word	0
.word	0
.word	0
.word	0
.word	0
.word	0
.word	0
.word	0
.word	0
.word	0
.word	0
.word	0
.word	0
.word	0
.word	0
.word	0
.word	0
.word	0
.word	0
.word	0
.word	0
.word	0
.word	0
.word	0
.word	0
.word	0
.word	0
.word	0
.word	0
.word	0
.word	0
.word	0
.word	0
.word	0
.word	0
.word	0
.word	0
.word	0
.word	0
.word	0
.word	0
.word	0
.word	0
.word	0
.word	0
.word	0
.word	0
.word	0
.word	0
.word	0
.word	0
.word	0
.word	0
.word	0
.word	0
.word	0
.word	0
.word	0
.word	0
.word	0
.word	0
.word	0
.word	0
.word	0
.word	0
.word	0
.word	0
.word	0
.word	0
.word	0
.word	0
.word	0
.word	0
.word	0
.word	0
.word	0
.word	0
.word	0
.word	0
.word	0
.word	0
.word	0
.word	0
.word	0
.word	0
.word	0
.word	0
.word	0
.word	0
.word	0
.word	0
.word	0
.word	0
.word	0
.word	0
.word	0
.word	0
.word	0
.word	0
.word	0
.word	0
.word	0
.word	0
.word	0
.word	0
.word	0
.word	0
.word	0
.word	0
.word	0
.word	0
.word	0
.word	0
.word	0
.word	0
.word	0
.word	0
.word	0
.word	0
.word	0
.word	0
.word	0
.word	0
.word	0
.word	0
.word	0
.word	0
.word	0
.word	0
.word	0
.word	0
.word	0
.word	0
.word	0
.word	0
.word	0
.word	0
.word	0
.word	0
.word	0
.word	0
.word	0
.word	0
.word	0
.word	0
.word	0
.word	0
.word	0
.word	0
.word	0
.word	0
.word	0
.word	0
.word	0
.word	0
.word	0
.word	0
.word	0
.word	0
.word	0
.word	0
.word	0
.word	0
.word	0
.word	0
.word	0
.word	0
.word	0
.word	0
.word	0
.word	0
.word	0
.word	0
.word	0
.word	0
.word	0
.word	0
.word	0
.word	0
.word	0
.word	0
.word	0
.word	0
.word	0
.word	0
.word	0
.word	0
.word	0
.word	0
.word	0
.word	0
.word	0
.word	0
.word	0
.word	0
.word	0
.word	0
.word	0
.word	0
.word	0
.word	0
.word	0
.word	0
.word	0
.word	0
.word	0
.word	0
.word	0
.word	0
.word	0
.word	0
.word	0
.word	0
.word	0
.word	0
.word	0
.word	0
.word	0
.word	0
.word	0
.word	0
.word	0
.word	0
.word	0
.word	0
.word	0
.word	0
.word	0
.word	0
.word	0
.word	0
.word	0
.word	0
.word	0
.word	0
.word	0
.word	0
.word	0
.word	0
.word	0
.word	0
.word	0
.word	0
.word	0
.word	0
.word	0
.word	0
.word	0
.word	0
.word	0
.word	0
.word	0
.word	0
.word	0
.word	0
.word	0
.word	0
.word	0
.word	0
.word	0
.word	0
.word	0
.word	0
.word	0
.word	0
.word	0
.word	0
.word	0
.word	0
.word	0
.word	0
.word	0
.word	0
.word	0
.word	0
.word	0
.word	0
.word	0
.word	0
.word	0
.word	0
.word	0
.word	0
.word	0
.word	0
.word	0
.word	0
.word	0
.word	0
.word	0
.word	0
.word	0
.word	0
.word	0
.word	0
.word	0
.word	0
.word	0
.word	0
.word	0
.word	0
.word	0
.word	0
.word	0
.word	0
.word	0
.word	0
.word	0
.word	0
.word	0
.word	0
.word	0
.word	0
.word	0
.word	0
.word	0
.word	0
.word	0
.word	0
.word	0
.word	0
.word	0
.word	0
.word	0
.word	0
.word	0
.word	0
.word	0
.word	0
.word	0
.word	0
.word	0
.word	0
.word	0
.word	0
.word	0
.word	0
.word	0
.word	0
.word	0
.word	0
.word	0
.word	0
.word	0
.word	0
.word	0
.word	0
.word	0
.word	0
.word	0
.word	0
.word	0
.word	0
.word	0
.word	0
.word	0
.word	0
.word	0
.word	0
.word	0
.word	0
.word	0
.word	0
.word	0
.word	0
.word	0
.word	0
.word	0
.word	0
.word	0
.word	0
.word	0
.word	0
.word	0
.word	0
.word	0
.word	0
.word	0
.word	0
.word	0
.word	0
.word	0
.word	0
.word	0
.word	0
.word	0
.word	0
.word	0
.word	0
.word	0
.word	0
.word	0
.word	0
.word	0
.word	0
.word	0
.word	0
.word	0
.word	0
.word	0
.word	0
.word	0
.word	0
.word	0
.word	0
.word	0
.word	0
.word	0
.word	0
.word	0
.word	0
.word	0
.word	0
.word	0
.word	0
.word	0
.word	0
.word	0
.word	0
.word	0
.word	0
.word	0
.word	0
.word	0
.word	0
.word	0
.word	0
.word	0
.word	0
.word	0
.word	0
.word	0
.word	0
.word	0
.word	0
.word	0
.word	0
.word	0
.word	0
.word	0
.word	0
.word	0
.word	0
.word	0
.word	0
.word	0
.word	0
.word	0
.word	0
.word	0
.word	0
.word	0
.word	0
.word	0
.word	0
.word	0
.word	0
.word	0
.word	0
.word	0
.word	0
.word	0
.word	0
.word	0
.word	0
.word	0
.word	0
.word	0
.word	0
.word	0
.word	0
.word	0
.word	0
.word	0
.word	0
.word	0
.word	0
.word	0
.word	0
.word	0
.word	0
.word	0
.word	0
.word	0
.word	0
.word	0
.word	0
.word	0
.word	0
.word	0
.word	0
.word	0
.word	0
.word	0
.word	0
.word	0
.word	0
.word	0
.word	0
.word	0
.word	0
.word	0
.word	0
.word	0
.word	0
.word	0
.word	0
.word	0
.word	0
.word	0
.word	0
.word	0
.word	0
.word	0
.word	0
.word	0
.word	0
.word	0
.word	0
.word	0
.word	0
.word	0
.word	0
.word	0
.word	0
.word	0
.word	0
.word	0
.word	0
.word	0
.word	0
.word	0
.word	0
.word	0
.word	0
.word	0
.word	0
.word	0
.word	0
.word	0
.word	0
.word	0
.word	0
.word	0
.word	0
.word	0
.word	0
.word	0
.word	0
.word	0
.word	0
.word	0
.word	0
.word	0
.word	0
.word	0
.word	0
.word	0
.word	0
.word	0
.word	0
.word	0
.word	0
.word	0
.word	0
.word	0
.word	0
.word	0
.word	0
.word	0
.word	0
.word	0
.word	0
.word	0
.word	0
.word	0
.word	0
.word	0
.word	0
.word	0
.word	0
.word	0
.word	0
.word	0
.word	0
.word	0
.word	0
.word	0
.word	0
.word	0
.word	0
.word	0
.word	0
.word	0
.word	0
.word	0
.word	0
.word	0
.word	0
.word	0
.word	0
.word	0
.word	0
.word	0
.word	0
.word	0
.word	0
.word	0
.word	0
.word	0
.word	0
.word	0
.word	0
.word	0
.word	0
.word	0
.word	0
.word	0
.word	0
.word	0
.word	0
.word	0
.word	0
.word	0
.word	0
.word	0
.word	0
.word	0
.word	0
.word	0
.word	0
.word	0
.word	0
.word	0
.word	0
.word	0
.word	0
.word	0
.word	0
.word	0
.word	0
.word	0
.word	0
.word	0
.word	0
.word	0
.word	0
.word	0
.word	0
.word	0
.word	0
.word	0
.word	0
.word	0
.word	0
.word	0
.word	0
.word	0
.word	0
.word	0
.word	0
.word	0
.word	0
.word	0
.word	0
.word	0
.word	0
.word	0
.word	0
.word	0
.word	0
.word	0
.word	0
.word	0
.word	0
.word	0
.word	0
.word	0
.word	0
.word	0
.word	0
.word	0
.word	0
.word	0
.word	0
.word	0
.word	0
.word	0
.word	0
.word	0
.word	0
.word	0
.word	0
.word	0
.word	0
.word	0
.word	0
.word	0
.word	0
.word	0
.word	0
.word	0
.word	0
.word	0
.word	0
.word	0
.word	0
.word	0
.word	0
.word	0
.word	0
.word	0
.word	0
.word	0
.word	0
.word	0
.word	0
.word	0
.word	0
.word	0
.word	0
.word	0
.word	0
.word	0
.word	0
.word	0
.word	0
.word	0
.word	0
.word	0
.word	0
.word	0
.word	0
.word	0
.word	0
.word	0
.word	0
.word	0
.word	0
.word	0
.word	0
.word	0
.word	0
.word	0
.word	0
.word	0
.word	0
.word	0
.word	0
.word	0
.word	0
.word	0
.word	0
.word	0
.word	0
.word	0
.word	0
.word	0
.word	0
.word	0
.word	0
.word	0
.word	0
.word	0
.word	0
.word	0
.word	0
.word	0
.word	0
.word	0
.word	0
.word	0
.word	0
.word	0
.word	0
.word	0
.word	0
.word	0
.word	0
.word	0
.word	0
.word	0
.word	0
.word	0
.word	0
.word	0
.word	0
.word	0
.word	0
.word	0
.word	0
.word	0
.word	0
.word	0
.word	0
.word	0
.word	0
.word	0
.word	0
.word	0
.word	0
.word	0
.word	0
.word	0
.word	0
.word	0
.word	0
.word	0
.word	0
.word	0
.word	0
.word	0
.word	0
.word	0
.word	0
.word	0
.word	0
.word	0
.word	0
.word	0
.word	0
.word	0
.word	0
.word	0
.word	0
.word	0
.word	0
.word	0
.word	0
.word	0
.word	0
.word	0
.word	0
.word	0
.word	0
.word	0
.word	0
.word	0
.word	0
.word	0
.word	0
.word	0
.word	0
.word	0
.word	0
.word	0
.word	0
.word	0
.word	0
.word	0
.word	0
.word	0
.word	0
.word	0
.word	0
.word	0
.word	0
.word	0
.word	0
.word	0
.word	0
.word	0
.word	0
.word	0
.word	0
.word	0
.word	0
.word	0
.word	0
.word	0
.word	0
.word	0
.word	0
.word	0
.word	0
.word	0
.word	0
.word	0
.word	0
.word	0
.word	0
.word	0
.word	0
.word	0
.word	0
.word	0
.word	0
.word	0
.word	0
.word	0
.word	0
.word	0
.word	0
.word	0
.word	0
.word	0
.word	0
.word	0
.word	0
.word	0
.word	0
.word	0
.word	0
.word	0
.word	0
.word	0
.word	0
.word	0
.word	0
.word	0
.word	0
.word	0
.word	0
.word	0
.word	0
.word	0
.word	0
.word	0
.word	0
.word	0
.word	0
.word	0
.word	0
.word	0
.word	0
.word	0
.word	0
.word	0
.word	0
.word	0
.word	0
.word	0
.word	0
.word	0
.word	0
.word	0
.word	0
.word	0
.word	0
.word	0
.word	0
.word	0
.word	0
.word	0
.word	0
.word	0
.word	0
.word	0
.word	0
.word	0
.word	0
.word	0
.word	0
.word	0
.word	0
.word	0
.word	0
.word	0
.word	0
.word	0
.word	0
.word	0
.word	0
.word	0
.word	0
.word	0
.word	0
.word	0
.word	0
.word	0
.word	0
.word	0
.word	0
.word	0
.word	0
.word	0
.word	0
.word	0
.word	0
.word	0
.word	0
.word	0
.word	0
.word	0
.word	0
.word	0
.word	0
.word	0
.word	0
.word	0
.word	0
.word	0
.word	0
.word	0
.word	0
.word	0
.word	0
.word	0
.word	0
.word	0
.word	0
.word	0
.word	0
.word	0
.word	0
.word	0
.word	0
.word	0
.word	0
.word	0
.word	0
.word	0
.word	0
.word	0
.word	0
.word	0
.word	0
.word	0
.word	0
.word	0
.word	0
.word	0
.word	0
.word	0
.word	0
.word	0
.word	0
.word	0
.word	0
.word	0
.word	0
.word	0
.word	0
.word	0
.word	0
.word	0
.word	0
.word	0
.word	0
.word	0
.word	0
.word	0
.word	0
.word	0
.word	0
.word	0
.word	0
.word	0
.word	0
.word	0
.word	0
.word	0
.word	0
.word	0
.word	0
.word	0
.word	0
.word	0
.word	0
.word	0
.word	0
.word	0
.word	0
.word	0
.word	0
.word	0
.word	0
.word	0
.word	0
.word	0
.word	0
.word	0
.word	0
.word	0
.word	0
.word	0
.word	0
.word	0
.word	0
.word	0
.word	0
.word	0
.word	0
.word	0
.word	0
.word	0
.word	0
.word	0
.word	0
.word	0
.word	0
.word	0
.word	0
.word	0
.word	0
.word	0
.word	0
.word	0
.word	0
.word	0
.word	0
.word	0
.word	0
.word	0
.word	0
.word	0
.word	0
.word	0
.word	0
.word	0
.word	0
.word	0
.word	0
.word	0
.word	0
.word	0
.word	0
.word	0
.word	0
.word	0
.word	0
.word	0
.word	0
.word	0
.word	0
.word	0
.word	0
.word	0
.word	0
.word	0
.word	0
.word	0
.word	0
.word	0
.word	0
.word	0
.word	0
.word	0
.word	0
.word	0
.word	0
.word	0
.word	0
.word	0
.word	0
.word	0
.word	0
.word	0
.word	0
.word	0
.word	0
.word	0
.word	0
.word	0
.word	0
.word	0
.word	0
.word	0
.word	0
.word	0
.word	0
.word	0
.word	0
.word	0
.word	0
.word	0
.word	0
.word	0
.word	0
.word	0
.word	0
.word	0
.word	0
.word	0
.word	0
.word	0
.word	0
.word	0
.word	0
.word	0
.word	0
.word	0
.word	0
.word	0
.word	0
.word	0
.word	0
.word	0
.word	0
.word	0
.word	0
.word	0
.word	0
.word	0
.word	0
.word	0
.word	0
.word	0
.word	0
.word	0
.word	0
.word	0
.word	0
.word	0
.word	0
.word	0
.word	0
.word	0
.word	0
.word	0
.word	0
.word	0
.word	0
.word	0
.word	0
.word	0
.word	0
.word	0
.word	0
.word	0
.word	0
.word	0
.word	0
.word	0
.word	0
.word	0
.word	0
.word	0
.word	0
.word	0
.word	0
.word	0
.word	0
.word	0
.word	0
.word	0
.word	0
.word	0
.word	0
.word	0
.word	0
.word	0
.word	0
.word	0
.word	0
.word	0
.word	0
.word	0
.word	0
.word	0
.word	0
.word	0
.word	0
.word	0
.word	0
.word	0
.word	0
.word	0
.word	0
.word	0
.word	0
.word	0
.word	0
.word	0
.word	0
.word	0
.word	0
.word	0
.word	0
.word	0
.word	0
.word	0
.word	0
.word	0
.word	0
.word	0
.word	0
.word	0
.word	0
.word	0
.word	0
.word	0
.word	0
.word	0
.word	0
.word	0
.word	0
.word	0
.word	0
.word	0
.word	0
.word	0
.word	0
.word	0
.word	0
.word	0
.word	0
.word	0
.word	0
.word	0
.word	0
.word	0
.word	0
.word	0
.word	0
.word	0
.word	0
.word	0
.word	0
.word	0
.word	0
.word	0
.word	0
.word	0
.word	0
.word	0
.word	0
.word	0
.word	0
.word	0
.word	0
.word	0
.word	0
.word	0
.word	0
.word	0
.word	0
.word	0
.word	0
.word	0
.word	0
.word	0
.word	0
.word	0
.word	0
.word	0
.word	0
.word	0
.word	0
.word	0
.word	0
.word	0
.word	0
.word	0
.word	0
.word	0
.word	0
.word	0
.word	0
.word	0
.word	0
.word	0
.word	0
.word	0
.word	0
.word	0
.word	0
.word	0
.word	0
.word	0
.word	0
.word	0
.word	0
.word	0
.word	0
.word	0
.word	0
.word	0
.word	0
.word	0
.word	0
.word	0
.word	0
.word	0
.word	0
.word	0
.word	0
.word	0
.word	0
.word	0
.word	0
.word	0
.word	0
.word	0
.word	0
.word	0
.word	0
.word	0
.word	0
.word	0
.word	0
.word	0
.word	0
.word	0
.word	0
.word	0
.word	0
.word	0
.word	0
.word	0
.word	0
.word	0
.word	0
.word	0
.word	0
.word	0
.word	0
.word	0
.word	0
.word	0
.word	0
.word	0
.word	0
.word	0
.word	0
.word	0
.word	0
.word	0
.word	0
.word	0
.word	0
.word	0
.word	0
.word	0
.word	0
.word	0
.word	0
.word	0
.word	0
.word	0
.word	0
.word	0
.word	0
.word	0
.word	0
.word	0
.word	0
.word	0
.word	0
.word	0
.word	0
.word	0
.word	0
.word	0
.word	0
.word	0
.word	0
.word	0
.word	0
.word	0
.word	0
.word	0
.word	0
.word	0
.word	0
.word	0
.word	0
.word	0
.word	0
.word	0
.word	0
.word	0
.word	0
.word	0
.word	0
.word	0
.word	0
.word	0
.word	0
.word	0
.word	0
.word	0
.word	0
.word	0
.word	0
.word	0
.word	0
.word	0
.word	0
.word	0
.word	0
.word	0
.word	0
.word	0
.word	0
.word	0
.word	0
.word	0
.word	0
.word	0
.word	0
.word	0
.word	0
.word	0
.word	0
.word	0
.word	0
.word	0
.word	0
.word	0
.word	0
.word	0
.word	0
.word	0
.word	0
.word	0
.word	0
.word	0
.word	0
.word	0
.word	0
.word	0
.word	0
.word	0
.word	0
.word	0
.word	0
.word	0
.word	0
.word	0
.word	0
.word	0
.word	0
.word	0
.word	0
.word	0
.word	0
.word	0
.word	0
.word	0
.word	0
.word	0
.word	0
.word	0
.word	0
.word	0
.word	0
.word	0
.word	0
.word	0
.word	0
.word	0
.word	0
.word	0
.word	0
.word	0
.word	0
.word	0
.word	0
.word	0
.word	0
.word	0
.word	0
.word	0
.word	0
.word	0
.word	0
.word	0
.word	0
.word	0
.word	0
.word	0
.word	0
.word	0
.word	0
.word	0
.word	0
.word	0
.word	0
.word	0
.word	0
.word	0
.word	0
.word	0
.word	0
.word	0
.word	0
.word	0
.word	0
.word	0
.word	0
.word	0
.word	0
.word	0
.word	0
.word	0
.word	0
.word	0
.word	0
.word	0
.word	0
.word	0
.word	0
.word	0
.word	0
.word	0
.word	0
.word	0
.word	0
.word	0
.word	0
.word	0
.word	0
.word	0
.word	0
.word	0
.word	0
.word	0
.word	0
.word	0
.word	0
.word	0
.word	0
.word	0
.word	0
.word	0
.word	0
.word	0
.word	0
.word	0
.word	0
.word	0
.word	0
.word	0
.word	0
.word	0
.word	0
.word	0
.word	0
.word	0
.word	0
.word	0
.word	0
.word	0
.word	0
.word	0
.word	0
.word	0
.word	0
.word	0
.word	0
.word	0
.word	0
.word	0
.word	0
.word	0
.word	0
.word	0
.word	0
.word	0
.word	0
.word	0
.word	0
.word	0
.word	0
.word	0
.word	0
.word	0
.word	0
.word	0
.word	0
.word	0
.word	0
.word	0
.word	0
.word	0
.word	0
.word	0
.word	0
.word	0
.word	0
.word	0
.word	0
.word	0
.word	0
.word	0
.word	0
.word	0
.word	0
.word	0
.word	0
.word	0
.word	0
.word	0
.word	0
.word	0
.word	0
.word	0
.word	0
.word	0
.word	0
.word	0
.word	0
.word	0
.word	0
.word	0
.word	0
.word	0
.word	0
.word	0
.word	0
.word	0
.word	0
.word	0
.word	0
.word	0
.word	0
.word	0
.word	0
.word	0
.word	0
.word	0
.word	0
.word	0
.word	0
.word	0
.word	0
.word	0
.word	0
.word	0
.word	0
.word	0
.word	0
.word	0
.word	0
.word	0
.word	0
.word	0
.word	0
.word	0
.word	0
.word	0
.word	0
.word	0
.word	0
.word	0
.word	0
.word	0
.word	0
.word	0
.word	0
.word	0
.word	0
.word	0
.word	0
.word	0
.word	0
.word	0
.word	0
.word	0
.word	0
.word	0
.word	0
.word	0
.word	0
.word	0
.word	0
.word	0
.word	0
.word	0
.word	0
.word	0
.word	0
.word	0
.word	0
.word	0
.word	0
.word	0
.word	0
.word	0
.word	0
.word	0
.word	0
.word	0
.word	0
.word	0
.word	0
.word	0
.word	0
.word	0
.word	0
.word	0
.word	0
.word	0
.word	0
.word	0
.word	0
.word	0
.word	0
.word	0
.word	0
.word	0
.word	0
.word	0
.word	0
.word	0
.word	0
.word	0
.word	0
.word	0
.word	0
.word	0
.word	0
.word	0
.word	0
.word	0
.word	0
.word	0
.word	0
.word	0
.word	0
.word	0
.word	0
.word	0
.word	0
.word	0
.word	0
.word	0
.word	0
.word	0
.word	0
.word	0
.word	0
.word	0
.word	0
.word	0
.word	0
.word	0
.word	0
.word	0
.word	0
.word	0
.word	0
.word	0
.word	0
.word	0
.word	0
.word	0
.word	0
.word	0
.word	0
.word	0
.word	0
.word	0
.word	0
.word	0
.word	0
.word	0
.word	0
.word	0
.word	0
.word	0
.word	0
.word	0
.word	0
.word	0
.word	0
.word	0
.word	0
.word	0
.word	0
.word	0
.word	0
.word	0
.word	0
.word	0
.word	0
.word	0
.word	0
.word	0
.word	0
.word	0
.word	0
.word	0
.word	0
.word	0
.word	0
.word	0
.word	0
.word	0
.word	0
.word	0
.word	0
.word	0
.word	0
.word	0
.word	0
.word	0
.word	0
.word	0
.word	0
.word	0
.word	0
.word	0
.word	0
.word	0
.word	0
.word	0
.word	0
.word	0
.word	0
.word	0
.word	0
.word	0
.word	0
.word	0
.word	0
.word	0
.word	0
.word	0
.word	0
.word	0
.word	0
.word	0
.word	0
.word	0
.word	0
.word	0
.word	0
.word	0
.word	0
.word	0
.word	0
.word	0
.word	0
.word	0
.word	0
.word	0
.word	0
.word	0
.word	0
.word	0
.word	0
.word	0
.word	0
.word	0
.word	0
.word	0
.word	0
.word	0
.word	0
.word	0
.word	0
.word	0
.word	0
.word	0
.word	0
.word	0
.word	0
.word	0
.word	0
.word	0
.word	0
.word	0
.word	0
.word	0
.word	0
.word	0
.word	0
.word	0
.word	0
.word	0
.word	0
.word	0
.word	0
.word	0
.word	0
.word	0
.word	0
.word	0
.word	0
.word	0
.word	0
.word	0
.word	0
.word	0
.word	0
.word	0
.word	0
.word	0
.word	0
.word	0
.word	0
.word	0
.word	0
.word	0
.word	0
.word	0
.word	0
.word	0
.word	0
.word	0
.word	0
.word	0
.word	0
.word	0
.word	0
.word	0
.word	0
.word	0
.word	0
.word	0
.word	0
.word	0
.word	0
.word	0
.word	0
.word	0
.word	0
.word	0
.word	0
.word	0
.word	0
.word	0
.word	0
.word	0
.word	0
.word	0
.word	0
.word	0
.word	0
.word	0
.word	0
.word	0
.word	0
.word	0
.word	0
.word	0
.word	0
.word	0
.word	0
.word	0
.word	0
.word	0
.word	0
.word	0
.word	0
.word	0
.word	0
.word	0
.word	0
.word	0
.word	0
.word	0
.word	0
.word	0
.word	0
.word	0
.word	0
.word	0
.word	0
.word	0
.word	0
.word	0
.word	0
.word	0
.word	0
.word	0
.word	0
.word	0
.word	0
.word	0
.word	0
.word	0
.word	0
.word	0
.word	0
.word	0
.word	0
.word	0
.word	0
.word	0
.word	0
.word	0
.word	0
.word	0
.word	0
.word	0
.word	0
.word	0
.word	0
.word	0
.word	0
.word	0
.word	0
.word	0
.word	0
.word	0
.word	0
.word	0
.word	0
.word	0
.word	0
.word	0
.word	0
.word	0
.word	0
.word	0
.word	0
.word	0
.word	0
.word	0
.word	0
.word	0
.word	0
.word	0
.word	0
.word	0
.word	0
.word	0
.word	0
.word	0
.word	0
.word	0
.word	0
.word	0
.word	0
.word	0
.word	0
.word	0
.word	0
.word	0
.word	0
.word	0
.word	0
.word	0
.word	0
.word	0
.word	0
.word	0
.word	0
.word	0
.word	0
.word	0
.word	0
.word	0
.word	0
.word	0
.word	0
.word	0
.word	0
.word	0
.word	0
.word	0
.word	0
.word	0
.word	0
.word	0
.word	0
.word	0
.word	0
.word	0
.word	0
.word	0
.word	0
.word	0
.word	0
.word	0
.word	0
.word	0
.word	0
.word	0
.word	0
.word	0
.word	0
.word	0
.word	0
.word	0
.word	0
.word	0
.word	0
.word	0
.word	0
.word	0
.word	0
.word	0
.word	0
.word	0
.word	0
.word	0
.word	0
.word	0
.word	0
.word	0
.word	0
.word	0
.word	0
.word	0
.word	0
.word	0
.word	0
.word	0
.word	0
.word	0
.word	0
.word	0
.word	0
.word	0
.word	0
.word	0
.word	0
.word	0
.word	0
.word	0
.word	0
.word	0
.word	0
.word	0
.word	0
.word	0
.word	0
.word	0
.word	0
.word	0
.word	0
.word	0
.word	0
.word	0
.word	0
.word	0
.word	0
.word	0
.word	0
.word	0
.word	0
.word	0
.word	0
.word	0
.word	0
.word	0
.word	0
.word	0
.word	0
.word	0
.word	0
.word	0
.word	0
.word	0
.word	0
.word	0
.word	0
.word	0
.word	0
.word	0
.word	0
.word	0
.word	0
.word	0
.word	0
.word	0
.word	0
.word	0
.word	0
.word	0
.word	0
.word	0
.word	0
.word	0
.word	0
.word	0
.word	0
.word	0
.word	0
.word	0
.word	0
.word	0
.word	0
.word	0
.word	0
.word	0
.word	0
.word	0
.word	0
.word	0
.word	0
.word	0
.word	0
.word	0
.word	0
.word	0
.word	0
.word	0
.word	0
.word	0
.word	0
.word	0
.word	0
.word	0
.word	0
.word	0
.word	0
.word	0
.word	0
.word	0
.word	0
.word	0
.word	0
.word	0
.word	0
.word	0
.word	0
.word	0
.word	0
.word	0
.word	0
.word	0
.word	0
.word	0
.word	0
.word	0
.word	0
.word	0
.word	0
.word	0
.word	0
.word	0
.word	0
.word	0
.word	0
.word	0
.word	0
.word	0
.word	0
.word	0
.word	0
.word	0
.word	0
.word	0
.word	0
.word	0
.word	0
.word	0
.word	0
.word	0
.word	0
.word	0
.word	0
.word	0
.word	0
.word	0
.word	0
.word	0
.word	0
.word	0
.word	0
.word	0
.word	0
.word	0
.word	0
.word	0
.word	0
.word	0
.word	0
.word	0
.word	0
.word	0
.word	0
.word	0
.word	0
.word	0
.word	0
.word	0
.word	0
.word	0
.word	0
.word	0
.word	0
.word	0
.word	0
.word	0
.word	0
.word	0
.word	0
.word	0
.word	0
.word	0
.word	0
.word	0
.word	0
.word	0
.word	0
.word	0
.word	0
.word	0
.word	0
.word	0
.word	0
.word	0
.word	0
.word	0
.word	0
.word	0
.word	0
.word	0
.word	0
.word	0
.word	0
.word	0
.word	0
.word	0
.word	0
.word	0
.word	0
.word	0
.word	0
.word	0
.word	0
.word	0
.word	0
.word	0
.word	0
.word	0
.word	0
.word	0
.word	0
.word	0
.word	0
.word	0
.word	0
.word	0
.word	0
.word	0
.word	0
.word	0
.word	0
.word	0
.word	0
.word	0
.word	0
.word	0
.word	0
.word	0
.word	0
.word	0
.word	0
.word	0
.word	0
.word	0
.word	0
.word	0
.word	0
.word	0
.word	0
.word	0
.word	0
.word	0
.word	0
.word	0
.word	0
.word	0
.word	0
.word	0
.word	0
.word	0
.word	0
.word	0
.word	0
.word	0
.word	0
.word	0
.word	0
.word	0
.word	0
.word	0
.word	0
.word	0
.word	0
.word	0
.word	0
.word	0
.word	0
.word	0
.word	0
.word	0
.word	0
.word	0
.word	0
.word	0
.word	0
.word	0
.word	0
.word	0
.word	0
.word	0
.word	0
.word	0
.word	0
.word	0
.word	0
.word	0
.word	0
.word	0
.word	0
.word	0
.word	0
.word	0
.word	0
.word	0
.word	0
.word	0
.word	0
.word	0
.word	0
.word	0
.word	0
.word	0
.word	0
.word	0
.word	0
.word	0
.word	0
.word	0
.word	0
.word	0
.word	0
.word	0
.word	0
.word	0
.word	0
.word	0
.word	0
.word	0
.word	0
.word	0
.word	0
.word	0
.word	0
.word	0
.word	0
.word	0
.word	0
.word	0
.word	0
.word	0
.word	0
.word	0
.word	0
.word	0
.word	0
.word	0
.word	0
.word	0
.word	0
.word	0
.word	0
.word	0
.word	0
.word	0
.word	0
.word	0
.word	0
.word	0
.word	0
.word	0
.word	0
.word	0
.word	0
.word	0
.word	0
.word	0
.word	0
.word	0
.word	0
.word	0
.word	0
.word	0
.word	0
.word	0
.word	0
.word	0
.word	0
.word	0
.word	0
.word	0
.word	0
.word	0
.word	0
.word	0
.word	0
.word	0
.word	0
.word	0
.word	0
.word	0
.word	0
.word	0
.word	0
.word	0
.word	0
.word	0
.word	0
.word	0
.word	0
.word	0
.word	0
.word	0
.word	0
.word	0
.word	0
.word	0
.word	0
.word	0
.word	0
.word	0
.word	0
.word	0
.word	0
.word	0
.word	0
.word	0
.word	0
.word	0
.word	0
.word	0
.word	0
.word	0
.word	0
.word	0
.word	0
.word	0
.word	0
.word	0
.word	0
.word	0
.word	0
.word	0
.word	0
.word	0
.word	0
.word	0
.word	0
.word	0
.word	0
.word	0
.word	0
.word	0
.word	0
.word	0
.word	0
.word	0
.word	0
.word	0
.word	0
.word	0
.word	0
.word	0
.word	0
.word	0
.word	0
.word	0
.word	0
.word	0
.word	0
.word	0
.word	0
.word	0
.word	0
.word	0
.word	0
.word	0
.word	0
.word	0
.word	0
.word	0
.word	0
.word	0
.word	0
.word	0
.word	0
.word	0
.word	0
.word	0
.word	0
.word	0
.word	0
.word	0
.word	0
.word	0
.word	0
.word	0
.word	0
.word	0
.word	0
.word	0
.word	0
.word	0
.word	0
.word	0
.word	0
.word	0
.word	0
.word	0
.word	0
.word	0
.word	0
.word	0
.word	0
.word	0
.word	0
.word	0
.word	0
.word	0
.word	0
.word	0
.word	0
.word	0
.word	0
.word	0
.word	0
.word	0
.word	0
.word	0
.word	0
.word	0
.word	0
.word	0
.word	0
.word	0
.word	0
.word	0
.word	0
.word	0
.word	0
.word	0
.word	0
.word	0
.word	0
.word	0
.word	0
.word	0
.word	0
.word	0
.word	0
.word	0
.word	0
.word	0
.word	0
.word	0
.word	0
.word	0
.word	0
.word	0
.word	0
.word	0
.word	0
.word	0
.word	0
.word	0
.word	0
.word	0
.word	0
.word	0
.word	0
.word	0
.word	0
.word	0
.word	0
.word	0
.word	0
.word	0
.word	0
.word	0
.word	0
.word	0
.word	0
.word	0
.word	0
.word	0
.word	0
.word	0
.word	0
.word	0
.word	0
.word	0
.word	0
.word	0
.word	0
.word	0
.word	0
.word	0
.word	0
.word	0
.word	0
.word	0
.word	0
.word	0
.word	0
.word	0
.word	0
.word	0
.word	0
.word	0
.word	0
.word	0
.word	0
.word	0
.word	0
.word	0
.word	0
.word	0
.word	0
.word	0
.word	0
.word	0
.word	0
.word	0
.word	0
.word	0
.word	0
.word	0
.word	0
.word	0
.word	0
.word	0
.word	0
.word	0
.word	0
.word	0
.word	0
.word	0
.word	0
.word	0
.word	0
.word	0
.word	0
.word	0
.word	0
.word	0
.word	0
.word	0
.word	0
.word	0
.word	0
.word	0
.word	0
.word	0
.word	0
.word	0
.word	0
.word	0
.word	0
.word	0
.word	0
.word	0
.word	0
.word	0
.word	0
.word	0
.word	0
.word	0
.word	0
.word	0
.word	0
.word	0
.word	0
.word	0
.word	0
.word	0
.word	0
.word	0
.word	0
.word	0
.word	0
.word	0
.word	0
.word	0
.word	0
.word	0
.word	0
.word	0
.word	0
.word	0
.word	0
.word	0
.word	0
.word	0
.word	0
.word	0
.word	0
.word	0
.word	0
.word	0
.word	0
.word	0
.word	0
.word	0
.word	0
.word	0
.word	0
.word	0
.word	0
.word	0
.word	0
.word	0
.word	0
.word	0
.word	0
.word	0
.word	0
.word	0
.word	0
.word	0
.word	0
.word	0
.word	0
.word	0
.word	0
.word	0
.word	0
.word	0
.word	0
.word	0
.word	0
.word	0
.word	0
.word	0
.word	0
.word	0
.word	0
.word	0
.word	0
.word	0
.word	0
.word	0
.word	0
.word	0
.word	0
.word	0
.word	0
.word	0
.word	0
.word	0
.word	0
.word	0
.word	0
.word	0
.word	0
.word	0
.word	0
.word	0
.word	0
.word	0
.word	0
.word	0
.word	0
.word	0
.word	0
.word	0
.word	0
.word	0
.word	0
.word	0
.word	0
.word	0
.word	0
.word	0
.word	0
.word	0
.word	0
.word	0
.word	0
.word	0
.word	0
.word	0
.word	0
.word	0
.word	0
.word	0
.word	0
.word	0
.word	0
.word	0
.word	0
.word	0
.word	0
.word	0
.word	0
.word	0
.word	0
.word	0
.word	0
.word	0
.word	0
.word	0
.word	0
.word	0
.word	0
.word	0
.word	0
.word	0
.word	0
.word	0
.word	0
.word	0
.word	0
.word	0
.word	0
.word	0
.word	0
.word	0
.word	0
.word	0
.word	0
.word	0
.word	0
.word	0
.word	0
.word	0
.word	0
.word	0
.word	0
.word	0
.word	0
.word	0
.word	0
.word	0
.word	0
.word	0
.word	0
.word	0
.word	0
.word	0
.word	0
.word	0
.word	0
.word	0
.word	0
.word	0
.word	0
.word	0
.word	0
.word	0
.word	0
.word	0
.word	0
.word	0
.word	0
.word	0
.word	0
.word	0
.word	0
.word	0
.word	0
.word	0
.word	0
.word	0
.word	0
.word	0
.word	0
.word	0
.word	0
.word	0
.word	0
.word	0
.word	0
.word	0
.word	0
.word	0
.word	0
.word	0
.word	0
.word	0
.word	0
.word	0
.word	0
.word	0
.word	0
.word	0
.word	0
.word	0
.word	0
.word	0
.word	0
.word	0
.word	0
.word	0
.word	0
.word	0
.word	0
.word	0
.word	0
.word	0
.word	0
.word	0
.word	0
.word	0
.word	0
.word	0
.word	0
.word	0
.word	0
.word	0
.word	0
.word	0
.word	0
.word	0
.word	0
.word	0
.word	0
.word	0
.word	0
.word	0
.word	0
.word	0
.word	0
.word	0
.word	0
.word	0
.word	0
.word	0
.word	0
.word	0
.word	0
.word	0
.word	0
.word	0
.word	0
.word	0
.word	0
.word	0
.word	0
.word	0
.word	0
.word	0
.word	0
.word	0
.word	0
.word	0
.word	0
.word	0
.word	0
.word	0
.word	0
.word	0
.word	0
.word	0
.word	0
.word	0
.word	0
.word	0
.word	0
.word	0
.word	0
.word	0
.word	0
.word	0
.word	0
.word	0
.word	0
.word	0
.word	0
.word	0
.word	0
.word	0
.word	0
.word	0
.word	0
.word	0
.word	0
.word	0
.word	0
.word	0
.word	0
.word	0
.word	0
.word	0
.word	0
.word	0
.word	0
.word	0
.word	0
.word	0
.word	0
.word	0
.word	0
.word	0
.word	0
.word	0
.word	0
.word	0
.word	0
.word	0
.word	0
.word	0
.word	0
.word	0
.word	0
.word	0
.word	0
.word	0
.word	0
.word	0
.word	0
.word	0
.word	0
.word	0
.word	0
.word	0
.word	0
.word	0
.word	0
.word	0
.word	0
.word	0
.word	0
.word	0
.word	0
.word	0
.word	0
.word	0
.word	0
.word	0
.word	0
.word	0
.word	0
.word	0
.word	0
.word	0
.word	0
.word	0
.word	0
.word	0
.word	0
.word	0
.word	0
.word	0
.word	0
.word	0
.word	0
.word	0
.word	0
.word	0
.word	0
.word	0
.word	0
.word	0
.word	0
.word	0
.word	0
.word	0
.word	0
.word	0
.word	0
.word	0
.word	0
.word	0
.word	0
.word	0
.word	0
.word	0
.word	0
.word	0
.word	0
.word	0
.word	0
.word	0
.word	0
.word	0
.word	0
.word	0
.word	0
.word	0
.word	0
.word	0
.word	0
.word	0
.word	0
.word	0
.word	0
.word	0
.word	0
.word	0
.word	0
.word	0
.word	0
.word	0
.word	0
.word	0
.word	0
.word	0
.word	0
.word	0
.word	0
.word	0
.word	0
.word	0
.word	0
.word	0
.word	0
.word	0
.word	0
.word	0
.word	0
.word	0
.word	0
.word	0
.word	0
.word	0
.word	0
.word	0
.word	0
.word	0
.word	0
.word	0
.word	0
.word	0
.word	0
.word	0
.word	0
.word	0
.word	0
.word	0
.word	0
.word	0
.word	0
.word	0
.word	0
.word	0
.word	0
.word	0
.word	0
.word	0
.word	0
.word	0
.word	0
.word	0
.word	0
.word	0
.word	0
.word	0
.word	0
.word	0
.word	0
.word	0
.word	0
.word	0
.word	0
.word	0
.word	0
.word	0
.word	0
.word	0
.word	0
.word	0
.word	0
.word	0
.word	0
.word	0
.word	0
.word	0
.word	0
.word	0
.word	0
.word	0
.word	0
.word	0
.word	0
.word	0
.word	0
.word	0
.word	0
.word	0
.word	0
.word	0
.word	0
.word	0
.word	0
.word	0
.word	0
.word	0
.word	0
.word	0
.word	0
.word	0
.word	0
.word	0
.word	0
.word	0
.word	0
.word	0
.word	0
.word	0
.word	0
.word	0
.word	0
.word	0
.word	0
.word	0
.word	0
.word	0
.word	0
.word	0
.word	0
.word	0
.word	0
.word	0
.word	0
.word	0
.word	0
.word	0
.word	0
.word	0
.word	0
.word	0
.word	0
.word	0
.word	0
.word	0
.word	0
.word	0
.word	0
.word	0
.word	0
.word	0
.word	0
.word	0
.word	0
.word	0
.word	0
.word	0
.word	0
.word	0
.word	0
.word	0
.word	0
.word	0
.word	0
.word	0
.word	0
.word	0
.word	0
.word	0
.word	0
.word	0
.word	0
.word	0
.word	0
.word	0
.word	0
.word	0
.word	0
.word	0
.word	0
.word	0
.word	0
.word	0
.word	0
.word	0
.word	0
.word	0
.word	0
.word	0
.word	0
.word	0
.word	0
.word	0
.word	0
.word	0
.word	0
.word	0
.word	0
.word	0
.word	0
.word	0
.word	0
.word	0
.word	0
.word	0
.word	0
.word	0
.word	0
.word	0
.word	0
.word	0
.word	0
.word	0
.word	0
.word	0
.word	0
.word	0
.word	0
.word	0
.word	0
.word	0
.word	0
.word	0
.word	0
.word	0
.word	0
.word	0
.word	0
.word	0
.word	0
.word	0
.word	0
.word	0
.word	0
.word	0
.word	0
.word	0
.word	0
.word	0
.word	0
.word	0
.word	0
.word	0
.word	0
.word	0
.word	0
.word	0
.word	0
.word	0
.word	0
.word	0
.word	0
.word	0
.word	0
.word	0
.word	0
.word	0
.word	0
.word	0
.word	0
.word	0
.word	0
.word	0
.word	0
.word	0
.word	0
.word	0
.word	0
.word	0
.word	0
.word	0
.word	0
.word	0
.word	0
.word	0
.word	0
.word	0
.word	0
.word	0
.word	0
.word	0
.word	0
.word	0
.word	0
.word	0
.word	0
.word	0
.word	0
.word	0
.word	0
.word	0
.word	0
.word	0
.word	0
.word	0
.word	0
.word	0
.word	0
.word	0
.word	0
.word	0
.word	0
.word	0
.word	0
.word	0
.word	0
.word	0
.word	0
.word	0
.word	0
.word	0
.word	0
.word	0
.word	0
.word	0
.word	0
.word	0
.word	0
.word	0
.word	0
.word	0
.word	0
.word	0
.word	0
.word	0
.word	0
.word	0
.word	0
.word	0
.word	0
.word	0
.word	0
.word	0
.word	0
.word	0
.word	0
.word	0
.word	0
.word	0
.word	0
.word	0
.word	0
.word	0
.word	0
.word	0
.word	0
.word	0
.word	0
.word	0
.word	0
.word	0
.word	0
.word	0
.word	0
.word	0
.word	0
.word	0
.word	0
.word	0
.word	0
.word	0
.word	0
.word	0
.word	0
.word	0
.word	0
.word	0
.word	0
.word	0
.word	0
.word	0
.word	0
.word	0
.word	0
.word	0
.word	0
.word	0
.word	0
.word	0
.word	0
.word	0
.word	0
.word	0
.word	0
.word	0
.word	0
.word	0
.word	0
.word	0
.word	0
.word	0
.word	0
.word	0
.word	0
.word	0
.word	0
.word	0
.word	0
.word	0
.word	0
.word	0
.word	0
.word	0
.word	0
.word	0
.word	0
.word	0
.word	0
.word	0
.word	0
.word	0
.word	0
.word	0
.word	0
.word	0
.word	0
.word	0
.word	0
.word	0
.word	0
.word	0
.word	0
.word	0
.word	0
.word	0
.word	0
.word	0
.word	0
.word	0
.word	0
.word	0
.word	0
.word	0
.word	0
.word	0
.word	0
.word	0
.word	0
.word	0
.word	0
.word	0
.word	0
.word	0
.word	0
.word	0
.word	0
.word	0
.word	0
.word	0
.word	0
.word	0
.word	0
.word	0
.word	0
.word	0
.word	0
.word	0
.word	0
.word	0
.word	0
.word	0
.word	0
.word	0
.word	0
.word	0
.word	0
.word	0
.word	0
.word	0
.word	0
.word	0
.word	0
.word	0
.word	0
.word	0
.word	0
.word	0
.word	0
.word	0
.word	0
.word	0
.word	0
.word	0
.word	0
.word	0
.word	0
.word	0
.word	0
.word	0
.word	0
.word	0
.word	0
.word	0
.word	0
.word	0
.word	0
.word	0
.word	0
.word	0
.word	0
.word	0
.word	0
.word	0
.word	0
.word	0
.word	0
.word	0
.word	0
.word	0
.word	0
.word	0
.word	0
.word	0
.word	0
.word	0
.word	0
.word	0
.word	0
.word	0
.word	0
.word	0
.word	0
.word	0
.word	0
.word	0
.word	0
.word	0
.word	0
.word	0
.word	0
.word	0
.word	0
.word	0
.word	0
.word	0
.word	0
.word	0
.word	0
.word	0
.word	0
.word	0
.word	0
.word	0
.word	0
.word	0
.word	0
.word	0
.word	0
.word	0
.word	0
.word	0
.word	0
.word	0
.word	0
.word	0
.word	0
.word	0
.word	0
.word	0
.word	0
.word	0
.word	0
.word	0
.word	0
.word	0
.word	0
.word	0
.word	0
.word	0
.word	0
.word	0
.word	0
.word	0
.word	0
.word	0
.word	0
.word	0
.word	0
.word	0
.word	0
.word	0
.word	0
.word	0
.word	0
.word	0
.word	0
.word	0
.word	0
.word	0
.word	0
.word	0
.word	0
.word	0
.word	0
.word	0
.word	0
.word	0
.word	0
.word	0
.word	0
.word	0
.word	0
.word	0
.word	0
.word	0
.word	0
.word	0
.word	0
.word	0
.word	0
.word	0
.word	0
.word	0
.word	0
.word	0
.word	0
.word	0
.word	0
.word	0
.word	0
.word	0
.word	0
.word	0
.word	0
.word	0
.word	0
.word	0
.word	0
.word	0
.word	0
.word	0
.word	0
.word	0
.word	0
.word	0
.word	0
.word	0
.word	0
.word	0
.word	0
.word	0
.word	0
.word	0
.word	0
.word	0
.word	0
.word	0
.word	0
.word	0
.word	0
.word	0
.word	0
.word	0
.word	0
.word	0
.word	0
.word	0
.word	0
.word	0
.word	0
.word	0
.word	0
.word	0
.word	0
.word	0
.word	0
.word	0
.word	0
.word	0
.word	0
.word	0
.word	0
.word	0
.word	0
.word	0
.word	0
.word	0
.word	0
.word	0
.word	0
.word	0
.word	0
.word	0
.word	0
.word	0
.word	0
.word	0
.word	0
.word	0
.word	0
.word	0
.word	0
.word	0
.word	0
.word	0
.word	0
.word	0
.word	0
.word	0
.word	0
.word	0
.word	0
.word	0
.word	0
.word	0
.word	0
.word	0
.word	0
.word	0
.word	0
.word	0
.word	0
.word	0
.word	0
.word	0
.word	0
.word	0
.word	0
.word	0
.word	0
.word	0
.word	0
.word	0
.word	0
.word	0
.word	0
.word	0
.word	0
.word	0
.word	0
.word	0
.word	0
.word	0
.word	0
.word	0
.word	0
.word	0
.word	0
.word	0
.word	0
.word	0
.word	0
.word	0
.word	0
.word	0
.word	0
.word	0
.word	0
.word	0
.word	0
.word	0
.word	0
.word	0
.word	0
.word	0
.word	0
.word	0
.word	0
.word	0
.word	0
.word	0
.word	0
.word	0
.word	0
.word	0
.word	0
.word	0
.word	0
.word	0
.word	0
.word	0
.word	0
.word	0
.word	0
.word	0
.word	0
.word	0
.word	0
.word	0
.word	0
.word	0
.word	0
.word	0
.word	0
.word	0
.word	0
.word	0
.word	0
.word	0
.word	0
.word	0
.word	0
.word	0
.word	0
.word	0
.word	0
.word	0
.word	0
.word	0
.word	0
.word	0
.word	0
.word	0
.word	0
.word	0
.word	0
.word	0
.word	0
.word	0
.word	0
.word	0
.word	0
.word	0
.word	0
.word	0
.word	0
.word	0
.word	0
.word	0
.word	0
.word	0
.word	0
.word	0
.word	0
.word	0
.word	0
.word	0
.word	0
.word	0
.word	0
.word	0
.word	0
.word	0
.word	0
.word	0
.word	0
.word	0
.word	0
.word	0
.word	0
.word	0
.word	0
.word	0
.word	0
.word	0
.word	0
.word	0
.word	0
.word	0
.word	0
.word	0
.word	0
.word	0
.word	0
.word	0
.word	0
.word	0
.word	0
.word	0
.word	0
.word	0
.word	0
.word	0
.word	0
.word	0
.word	0
.word	0
.word	0
.word	0
.word	0
.word	0
.word	0
.word	0
.word	0
.word	0
.word	0
.word	0
.word	0
.word	0
.word	0
.word	0
.word	0
.word	0
.word	0
.word	0
.word	0
.word	0
.word	0
.word	0
.word	0
.word	0
.word	0
.word	0
.word	0
.word	0
.word	0
.word	0
.word	0
.word	0
.word	0
.word	0
.word	0
.word	0
.word	0
.word	0
.word	0
.word	0
.word	0
.word	0
.word	0
.word	0
.word	0
.word	0
.word	0
.word	0
.word	0
.word	0
.word	0
.word	0
.word	0
.word	0
.word	0
.word	0
.word	0
.word	0
.word	0
.word	0
.word	0
.word	0
.word	0
.word	0
.word	0
.word	0
.word	0
.word	0
.word	0
.word	0
.word	0
.word	0
.word	0
.word	0
.word	0
.word	0
.word	0
.word	0
.word	0
.word	0
.word	0
.word	0
.word	0
.word	0
.word	0
.word	0
.word	0
.word	0
.word	0
.word	0
.word	0
.word	0
.word	0
.word	0
.word	0
.word	0
.word	0
.word	0
.word	0
.word	0
.word	0
.word	0
.word	0
.word	0
.word	0
.word	0
.word	0
.word	0
.word	0
.word	0
.word	0
.word	0
.word	0
.word	0
.word	0
.word	0
.word	0
.word	0
.word	0
.word	0
.word	0
.word	0
.word	0
.word	0
.word	0
.word	0
.word	0
.word	0
.word	0
.word	0
.word	0
.word	0
.word	0
.word	0
.word	0
.word	0
.word	0
.word	0
.word	0
.word	0
.word	0
.word	0
.word	0
.word	0
.word	0
.word	0
.word	0
.word	0
.word	0
.word	0
.word	0
.word	0
.word	0
.word	0
.word	0
.word	0
.word	0
.word	0
.word	0
.word	0
.word	0
.word	0
.word	0
.word	0
.word	0
.word	0
.word	0
.word	0
.word	0
.word	0
.word	0
.word	0
.word	0
.word	0
.word	0
.word	0
.word	0
.word	0
.word	0
.word	0
.word	0
.word	0
.word	0
.word	0
.word	0
.word	0
.word	0
.word	0
.word	0
.word	0
.word	0
.word	0
.word	0
.word	0
.word	0
.word	0
.word	0
.word	0
.word	0
.word	0
.word	0
.word	0
.word	0
.word	0
.word	0
.word	0
.word	0
.word	0
.word	0
.word	0
.word	0
.word	0
.word	0
.word	0
.word	0
.word	0
.word	0
.word	0
.word	0
.word	0
.word	0
.word	0
.word	0
.word	0
.word	0
.word	0
.word	0
.word	0
.word	0
.word	0
.word	0
.word	0
.word	0
.word	0
.word	0
.word	0
.word	0
.word	0
.word	0
.word	0
.word	0
.word	0
.word	0
.word	0
.word	0
.word	0
.word	0
.word	0
.word	0
.word	0
.word	0
.word	0
.word	0
.word	0
.word	0
.word	0
.word	0
.word	0
.word	0
.word	0
.word	0
.word	0
.word	0
.word	0
.word	0
.word	0
.word	0
.word	0
.word	0
.word	0
.word	0
.word	0
.word	0
.word	0
.word	0
.word	0
.word	0
.word	0
.word	0
.word	0
.word	0
.word	0
.word	0
.word	0
.word	0
.word	0
.word	0
.word	0
.word	0
.word	0
.word	0
.word	0
.word	0
.word	0
.word	0
.word	0
.word	0
.word	0
.word	0
.word	0
.word	0
.word	0
.word	0
.word	0
.word	0
.word	0
.word	0
.word	0
.word	0
.word	0
.word	0
.word	0
.word	0
.word	0
.word	0
.word	0
.word	0
.word	0
.word	0
.word	0
.word	0
.word	0
.word	0
.word	0
.word	0
.word	0
.word	0
.word	0
.word	0
.word	0
.word	0
.word	0
.word	0
.word	0
.word	0
.word	0
.word	0
.word	0
.word	0
.word	0
.word	0
.word	0
.word	0
.word	0
.word	0
.word	0
.word	0
.word	0
.word	0
.word	0
.word	0
.word	0
.word	0
.word	0
.word	0
.word	0
.word	0
.word	0
.word	0
.word	0
.word	0
.word	0
.word	0
.word	0
.word	0
.word	0
.word	0
.word	0
.word	0
.word	0
.word	0
.word	0
.word	0
.word	0
.word	0
.word	0
.word	0
.word	0
.word	0
.word	0
.word	0
.word	0
.word	0
.word	0
.word	0
.word	0
.word	0
.word	0
.word	0
.word	0
.word	0
.word	0
.word	0
.word	0
.word	0
.word	0
.word	0
.word	0
.word	0
.word	0
.word	0
.word	0
.word	0
.word	0
.word	0
.word	0
.word	0
.word	0
.word	0
.word	0
.word	0
.word	0
.word	0
.word	0
.word	0
.word	0
.word	0
.word	0
.word	0
.word	0
.word	0
.word	0
.word	0
.word	0
.word	0
.word	0
.word	0
.word	0
.word	0
.word	0
.word	0
.word	0
.word	0
.word	0
.word	0
.word	0
.word	0
.word	0
.word	0
.word	0
.word	0
.word	0
.word	0
.word	0
.word	0
.word	0
.word	0
.word	0
.word	0
.word	0
.word	0
.word	0
.word	0
.word	0
.word	0
.word	0
.word	0
.word	0
.word	0
.word	0
.word	0
.word	0
.word	0
.word	0
.word	0
.word	0
.word	0
.word	0
.word	0
.word	0
.word	0
.word	0
.word	0
.word	0
.word	0
.word	0
.word	0
.word	0
.word	0
.word	0
.word	0
.word	0
.word	0
.word	0
.word	0
.word	0
.word	0
.word	0
.word	0
.word	0
.word	0
.word	0
.word	0
.word	0
.word	0
.word	0
.word	0
.word	0
.word	0
.word	0
.word	0
.word	0
.word	0
.word	0
.word	0
.word	0
.word	0
.word	0
.word	0
.word	0
.word	0
.word	0
.word	0
.word	0
.word	0
.word	0
.word	0
.word	0
.word	0
.word	0
.word	0
.word	0
.word	0
.word	0
.word	0
.word	0
.word	0
.word	0
.word	0
.word	0
.word	0
.word	0
.word	0
.word	0
.word	0
.word	0
.word	0
.word	0
.word	0
.word	0
.word	0
.word	0
.word	0
.word	0
.word	0
.word	0
.word	0
.word	0
.word	0
.word	0
.word	0
.word	0
.word	0
.word	0
.word	0
.word	0
.word	0
.word	0
.word	0
.word	0
.word	0
.word	0
.word	0
.word	0
.word	0
.word	0
.word	0
.word	0
.word	0
.word	0
.word	0
.word	0
.word	0
.word	0
.word	0
.word	0
.word	0
.word	0
.word	0
.word	0
.word	0
.word	0
.word	0
.word	0
.word	0
.word	0
.word	0
.word	0
.word	0
.word	0
.word	0
.word	0
.word	0
.word	0
.word	0
.word	0
.word	0
.word	0
.word	0
.word	0
.word	0
.word	0
.word	0
.word	0
.word	0
.word	0
.word	0
.word	0
.word	0
.word	0
.word	0
.word	0
.word	0
.word	0
.word	0
.word	0
.word	0
.word	0
.word	0
.word	0
.word	0
.word	0
.word	0
.word	0
.word	0
.word	0
.word	0
.word	0
.word	0
.word	0
.word	0
.word	0
.word	0
.word	0
.word	0
.word	0
.word	0
.word	0
.word	0
.word	0
.word	0
.word	0
.word	0
.word	0
.word	0
.word	0
.word	0
.word	0
.word	0
.word	0
.word	0
.word	0
.word	0
.word	0
.word	0
.word	0
.word	0
.word	0
.word	0
.word	0
.word	0
.word	0
.word	0
.word	0
.word	0
.word	0
.word	0
.word	0
.word	0
.word	0
.word	0
.word	0
.word	0
.word	0
.word	0
.word	0
.word	0
.word	0
.word	0
.word	0
.word	0
.word	0
.word	0
.word	0
.word	0
.word	0
.word	0
.word	0
.word	0
.word	0
.word	0
.word	0
.word	0
.word	0
.word	0
.word	0
.word	0
.word	0
.word	0
.word	0
.word	0
.word	0
.word	0
.word	0
.word	0
.word	0
.word	0
.word	0
.word	0
.word	0
.word	0
.word	0
.word	0
.word	0
.word	0
.word	0
.word	0
.word	0
.word	0
.word	0
.word	0
.word	0
.word	0
.word	0
.word	0
.word	0
.word	0
.word	0
.word	0
.word	0
.word	0
.word	0
.word	0
.word	0
.word	0
.word	0
.word	0
.word	0
.word	0
.word	0
.word	0
.word	0
.word	0
.word	0
.word	0
.word	0
.word	0
.word	0
.word	0
.word	0
.word	0
.word	0
.word	0
.word	0
.word	0
.word	0
.word	0
.word	0
.word	0
.word	0
.word	0
.word	0
.word	0
.word	0
.word	0
.word	0
.word	0
.word	0
.word	0
.word	0
.word	0
.word	0
.word	0
.word	0
.word	0
.word	0
.word	0
.word	0
.word	0
.word	0
.word	0
.word	0
.word	0
.word	0
.word	0
.word	0
.word	0
.word	0
.word	0
.word	0
.word	0
.word	0
.word	0
.word	0
.word	0
.word	0
.word	0
.word	0
.word	0
.word	0
.word	0
.word	0
.word	0
.word	0
.word	0
.word	0
.word	0
.word	0
.word	0
.word	0
.word	0
.word	0
.word	0
.word	0
.word	0
.word	0
.word	0
.word	0
.word	0
.word	0
.word	0
.word	0
.word	0
.word	0
.word	0
.word	0
.word	0
.word	0
.word	0
.word	0
.word	0
.word	0
.word	0
.word	0
.word	0
.word	0
.word	0
.word	0
.word	0
.word	0
.word	0
.word	0
.word	0
.word	0
.word	0
.word	0
.word	0
.word	0
.word	0
.word	0
.word	0
.word	0
.word	0
.word	0
.word	0
.word	0
.word	0
.word	0
.word	0
.word	0
.word	0
.word	0
.word	0
.word	0
.word	0
.word	0
.word	0
.word	0
.word	0
.word	0
.word	0
.word	0
.word	0
.word	0
.word	0
.word	0
.word	0
.word	0
.word	0
.word	0
.word	0
.word	0
.word	0
.word	0
.word	0
.word	0
.word	0
.word	0
.word	0
.word	0
.word	0
.word	0
.word	0
.word	0
.word	0
.word	0
.word	0
.word	0
.word	0
.word	0
.word	0
.word	0
.word	0
.word	0
.word	0
.word	0
.word	0
.word	0
.word	0
.word	0
.word	0
.word	0
.word	0
.word	0
.word	0
.word	0
.word	0
.word	0
.word	0
.word	0
.word	0
.word	0
.word	0
.word	0
.word	0
.word	0
.word	0
.word	0
.word	0
.word	0
.word	0
.word	0
.word	0
.word	0
.word	0
.word	0
.word	0
.word	0
.word	0
.word	0
.word	0
.word	0
.word	0
.word	0
.word	0
.word	0
.word	0
.word	0
.word	0
.word	0
.word	0
.word	0
.word	0
.word	0
.word	0
.word	0
.word	0
.word	0
.word	0
.word	0
.word	0
.word	0
.word	0
.word	0
.word	0
.word	0
.word	0
.word	0
.word	0
.word	0
.word	0
.word	0
.word	0
.word	0
.word	0
.word	0
.word	0
.word	0
.word	0
.word	0
.word	0
.word	0
.word	0
.word	0
.word	0
.word	0
.word	0
.word	0
.word	0
.word	0
.word	0
.word	0
.word	0
.word	0
.word	0
.word	0
.word	0
.word	0
.word	0
.word	0
.word	0
.word	0
.word	0
.word	0
.word	0
.word	0
.word	0
.word	0
.word	0
.word	0
.word	0
.word	0
.word	0
.word	0
.word	0
.word	0
.word	0
.word	0
.word	0
.word	0
.word	0
.word	0
.word	0
.word	0
.word	0
.word	0
.word	0
.word	0
.word	0
.word	0
.word	0
.word	0
.word	0
.word	0
.word	0
.word	0
.word	0
.word	0
.word	0
.word	0
.word	0
.word	0
.word	0
.word	0
.word	0
.word	0
.word	0
.word	0
.word	0
.word	0
.word	0
.word	0
.word	0
.word	0
.word	0
.word	0
.word	0
.word	0
.word	0
.word	0
.word	0
.word	0
.word	0
.word	0
.word	0
.word	0
.word	0
.word	0
.word	0
.word	0
.word	0
.word	0
.word	0
.word	0
.word	0
.word	0
.word	0
.word	0
.word	0
.word	0
.word	0
.word	0
.word	0
.word	0
.word	0
.word	0
.word	0
.word	0
.word	0
.word	0
.word	0
.word	0
.word	0
.word	0
.word	0
.word	0
.word	0
.word	0
.word	0
.word	0
.word	0
.word	0
.word	0
.word	0
.word	0
.word	0
.word	0
.word	0
.word	0
.word	0
.word	0
.word	0
.word	0
.word	0
.word	0
.word	0
.word	0
.word	0
.word	0
.word	0
.word	0
.word	0
.word	0
.word	0
.word	0
.word	0
.word	0
.word	0
.word	0
.word	0
.word	0
.word	0
.word	0
.word	0
.word	0
.word	0
.word	0
.word	0
.word	0
.word	0
.word	0
.word	0
.word	0
.word	0
.word	0
.word	0
.word	0
.word	0
.word	0
.word	0
.word	0
.word	0
.word	0
.word	0
.word	0
.word	0
.word	0
.word	0
.word	0
.word	0
.word	0
.word	0
.word	0
.word	0
.word	0
.word	0
.word	0
.word	0
.word	0
.word	0
.word	0
.word	0
.word	0
.word	0
.word	0
.word	0
.word	0
.word	0
.word	0
.word	0
.word	0
.word	0
.word	0
.word	0
.word	0
.word	0
.word	0
.word	0
.word	0
.word	0
.word	0
.word	0
.word	0
.word	0
.word	0
.word	0
.word	0
.word	0
.word	0
.word	0
.word	0
.word	0
.word	0
.word	0
.word	0
.word	0
.word	0
.word	0
.word	0
.word	0
.word	0
.word	0
.word	0
.word	0
.word	0
.word	0
.word	0
.word	0
.word	0
.word	0
.word	0
.word	0
.word	0
.word	0
.word	0
.word	0
.word	0
.word	0
.word	0
.word	0
.word	0
.word	0
.word	0
.word	0
.word	0
.word	0
.word	0
.word	0
.word	0
.word	0
.word	0
.word	0
.word	0
.word	0
.word	0
.word	0
.word	0
.word	0
.word	0
.word	0
.word	0
.word	0
.word	0
.word	0
.word	0
.word	0
.word	0
.word	0
.word	0
.word	0
.word	0
.word	0
.word	0
.word	0
.word	0
.word	0
.word	0
.word	0
.word	0
.word	0
.word	0
.word	0
.word	0
.word	0
.word	0
.word	0
.word	0
.word	0
.word	0
.word	0
.word	0
.word	0
.word	0
.word	0
.word	0
.word	0
.word	0
.word	0
.word	0
.word	0
.word	0
.word	0
.word	0
.word	0
.word	0
.word	0
.word	0
.word	0
.word	0
.word	0
.word	0
.word	0
.word	0
.word	0
.word	0
.word	0
.word	0
.word	0
.word	0
.word	0
.word	0
.word	0
.word	0
.word	0
.word	0
.word	0
.word	0
.word	0
.word	0
.word	0
.word	0
.word	0
.word	0
.word	0
.word	0
.word	0
.word	0
.word	0
.word	0
.word	0
.word	0
.word	0
.word	0
.word	0
.word	0
.word	0
.word	0
.word	0
.word	0
.word	0
.word	0
.word	0
.word	0
.word	0
.word	0
.word	0
.word	0
.word	0
.word	0
.word	0
.word	0
.word	0
.word	0
.word	0
.word	0
.word	0
.word	0
.word	0
.word	0
.word	0
.word	0
.word	0
.word	0
.word	0
.word	0
.word	0
.word	0
.word	0
.word	0
.word	0
.word	0
.word	0
.word	0
.word	0
.word	0
.word	0
.word	0
.word	0
.word	0
.word	0
.word	0
.word	0
.word	0
.word	0
.word	0
.word	0
.word	0
.word	0
.word	0
.word	0
.word	0
.word	0
.word	0
.word	0
.word	0
.word	0
.word	0
.word	0
.word	0
.word	0
.word	0
.word	0
.word	0
.word	0
.word	0
.word	0
.word	0
.word	0
.word	0
.word	0
.word	0
.word	0
.word	0
.word	0
.word	0
.word	0
.word	0
.word	0
.word	0
.word	0
.word	0
.word	0
.word	0
.word	0
.word	0
.word	0
.word	0
.word	0
.word	0
.word	0
.word	0
.word	0
.word	0
.word	0
.word	0
.word	0
.word	0
.word	0
.word	0
.word	0
.word	0
.word	0
.word	0
.word	0
.word	0
.word	0
.word	0
.word	0
.word	0
.word	0
.word	0
.word	0
.word	0
.word	0
.word	0
.word	0
.word	0
.word	0
.word	0
.word	0
.word	0
.word	0
.word	0
.word	0
.word	0
.word	0
.word	0
.word	0
.word	0
.word	0
.word	0
.word	0
.word	0
.word	0
.word	0
.word	0
.word	0
.word	0
.word	0
.word	0
.word	0
.word	0
.word	0
.word	0
.word	0
.word	0
.word	0
.word	0
.word	0
.word	0
.word	0
.word	0
.word	0
.word	0
.word	0
.word	0
.word	0
.word	0
.word	0
.word	0
.word	0
.word	0
.word	0
.word	0
.word	0
.word	0
.word	0
.word	0
.word	0
.word	0
.word	0
.word	0
.word	0
.word	0
.word	0
.word	0
.word	0
.word	0
.word	0
.word	0
.word	0
.word	0
.word	0
.word	0
.word	0
.word	0
.word	0
.word	0
.word	0
.word	0
.word	0
.word	0
.word	0
.word	0
.word	0
.word	0
.word	0
.word	0
.word	0
.word	0
.word	0
.word	0
.word	0
.word	0
.word	0
.word	0
.word	0
.word	0
.word	0
.word	0
.word	0
.word	0
.word	0
.word	0
.word	0
.word	0
.word	0
.word	0
.word	0
.word	0
.word	0
.word	0
.word	0
.word	0
.word	0
.word	0
.word	0
.word	0
.word	0
.word	0
.word	0
.word	0
.word	0
.word	0
.word	0
.word	0
.word	0
.word	0
.word	0
.word	0
.word	0
.word	0
.word	0
.word	0
.word	0
.word	0
.word	0
.word	0
.word	0
.word	0
.word	0
.word	0
.word	0
.word	0
.word	0
.word	0
.word	0
.word	0
.word	0
.word	0
.word	0
.word	0
.word	0
.word	0
.word	0
.word	0
.word	0
.word	0
.word	0
.word	0
.word	0
.word	0
.word	0
.word	0
.word	0
.word	0
.word	0
.word	0
.word	0
.word	0
.word	0
.word	0
.word	0
.word	0
.word	0
.word	0
.word	0
.word	0
.word	0
.word	0
.word	0
.word	0
.word	0
.word	0
.word	0
.word	0
.word	0
.word	0
.word	0
.word	0
.word	0
.word	0
.word	0
.word	0
.word	0
.word	0
.word	0
.word	0
.word	0
.word	0
.word	0
.word	0
.word	0
.word	0
.word	0
.word	0
.word	0
.word	0
.word	0
.word	0
.word	0
.word	0
.word	0
.word	0
.word	0
.word	0
.word	0
.word	0
.word	0
.word	0
.word	0
.word	0
.word	0
.word	0
.word	0
.word	0
.word	0
.word	0
.word	0
.word	0
.word	0
.word	0
.word	0
.word	0
.word	0
.word	0
.word	0
.word	0
.word	0
.word	0
.word	0
.word	0
.word	0
.word	0
.word	0
.word	0
.word	0
.word	0
.word	0
.word	0
.word	0
.word	0
.word	0
.word	0
.word	0
.word	0
.word	0
.word	0
.word	0
.word	0
.word	0
.word	0
.word	0
.word	0
.word	0
.word	0
.word	0
.word	0
.word	0
.word	0
.word	0
.word	0
.word	0
.word	0
.word	0
.word	0
.word	0
.word	0
.word	0
.word	0
.word	0
.word	0
.word	0
.word	0
.word	0
.word	0
.word	0
.word	0
.word	0
.word	0
.word	0
.word	0
.word	0
.word	0
.word	0
.word	0
.word	0
.word	0
.word	0
.word	0
.word	0
.word	0
.word	0
.word	0
.word	0
.word	0
.word	0
.word	0
.word	0
.word	0
.word	0
.word	0
.word	0
.word	0
.word	0
.word	0
.word	0
.word	0
.word	0
.word	0
.word	0
.word	0
.word	0
.word	0
.word	0
.word	0
.word	0
.word	0
.word	0
.word	0
.word	0
.word	0
.word	0
.word	0
.word	0
.word	0
.word	0
.word	0
.word	0
.word	0
.word	0
.word	0
.word	0
.word	0
.word	0
.word	0
.word	0
.word	0
.word	0
.word	0
.word	0
.word	0
.word	0
.word	0
.word	0
.word	0
.word	0
.word	0
.word	0
.word	0
.word	0
.word	0
.word	0
.word	0
.word	0
.word	0
.word	0
.word	0
.word	0
.word	0
.word	0
.word	0
.word	0
.word	0
.word	0
.word	0
.word	0
.word	0
.word	0
.word	0
.word	0
.word	0
.word	0
.word	0
.word	0
.word	0
.word	0
.word	0
.word	0
.word	0
.word	0
.word	0
.word	0
.word	0
.word	0
.word	0
.word	0
.word	0
.word	0
.word	0
.word	0
.word	0
.word	0
.word	0
.word	0
.word	0
.word	0
.word	0
.word	0
.word	0
.word	0
.word	0
.word	0
.word	0
.word	0
.word	0
.word	0
.word	0
.word	0
.word	0
.word	0
.word	0
.word	0
.word	0
.word	0
.word	0
.word	0
.word	0
.word	0
.word	0
.word	0
.word	0
.word	0
.word	0
.word	0
.word	0
.word	0
.word	0
.word	0
.word	0
.word	0
.word	0
.word	0
.word	0
.word	0
.word	0
.word	0
.word	0
.word	0
.word	0
.word	0
.word	0
.word	0
.word	0
.word	0
.word	0
.word	0
.word	0
.word	0
.word	0
.word	0
.word	0
.word	0
.word	0
.word	0
.word	0
.word	0
.word	0
.word	0
.word	0
.word	0
.word	0
.word	0
.word	0
.word	0
.word	0
.word	0
.word	0