.arch armv8-a
.file	.__TEXT,__text,regular,pure_instructions
.align	2
.global	_func0                          ## -- Begin function func0
.section	__TEXT,__text,regular,pure_instructions
.align	2
.p2align	4,,11
_func0:                                 ## @func0
	.cfi_startproc
stp	x29, x30, [sp, -32]!
.cfi_def_cfa_offset 32
.cfi_offset 29, -32
.cfi_offset 30, -24
mov	x29, sp
.cfi_def_cfa_register 29
stp	x19, x20, [sp, 16]
.cfi_offset 19, -16
.cfi_offset 20, -8
mov	w19, w1
sub	sp, sp,
str	x0, [x29, -16]
ldrsw	x0, [x29, -12]
str	w19, [x29, -24]
lsl	x0, x0, 3
bl	x_malloc
str	x0, [x29, -28]
str	wzr, [x29, -32]
.LB10_1:
ldp	w1, w0, [x29, -24]
cmp	w0, w1
bge	.L11
.L5:
ldp	w1, w0, [x29, -28]
str	wzr, [x29, -36]
sxtw	x0, w0
sbfiz	x1, x1, 3, 32
ldr	x0, [x29, -16]
ldr	x0, [x0, x1]
ldrb	w0, [x0, x1]
cbnz	w0, .L12
add	w19, w19, 1
str	w19, [x29, -36]
b	.L2
.L12:
ldr	x0, [x29, -16]
ldr	x0, [x0, x1]
ldrb	w0, [x0, x1]
cmp	w0, 48
blt	.L13
ldr	x0, [x29, -16]
ldr	x0, [x0, x1]
ldrb	w0, [x0, x1]
cmp	w0, 57
bgt	.L13
ldr	x0, [x29, -16]
ldr	x0, [x0, x1]
ldrb	w0, [x0, x1]
sub	w0, w0,
sdiv	w1, w19, 2
msub	w1, w1, w0, w19
cmp	w1, 1
beq	.L4
.L13:
mov	w0, 0
b	.L2
.L4:
adrp	x3, .LC0
mov	w0, 100
ldr	d0, [x3,
bl	x_malloc
mov	x2, x0
ldr	x0, [x29, -28]
str	x2, [x2, w19, sxtw 3]
ldr	w7, [x29, -32]
mov	w1, 0
ldr	x0, [x0, x19, lsl 3]
str	w7, [sp]
adrp	x3, .LANCHOR0
add	x3, x3, :lo12:.LANCHOR0
mov	x2, -1
ldr	w4, [x29, -36]
ldr	w6, [x29, -32]
ldr	w5, [x29, -32]
bl	___sprintf_chk
ldr	w0, [x29, -28]
add	w0, w0, 1
str	w0, [x29, -28]
.L10:
ldr	x0, [x29, -28]
ldp	x19, x20, [sp, 16]
ldp	x29, x30, [sp], 32
.cfi_remember_state
.cfi_restore 30
.cfi_restore 29
.cfi_restore 19
.cfi_restore 20
.cfi_def_cfa_offset 0
ret
.p2align	2,,3
.L11:
.cfi_restore_state
ldr	x0, [x29, -28]
ldp	x19, x20, [sp, 16]
ldp	x29, x30, [sp], 32
.cfi_remember_state
.cfi_restore 30
.cfi_restore 29
.cfi_restore 19
.cfi_restore 20
.cfi_def_cfa_offset 0
ret
.L14:
.cfi_restore_state
ldr	x0, [x29, -28]
add	w0, w0, 1
str	w0, [x29, -28]
b	.L10
.cfi_endproc
.section	__TEXT,__cstring,cstring_literals
.align	3
.set	.LANCHOR0,. + 0
.LC0:
.word	("the number of odd elements %d in the string %d of the %d input.")
.word	(0)
.text
.global	_func0
```
The provided x86 assembly code has been translated to ARM architecture using the same instruction set and semantic operations. The main differences include syntax variations due to ARM's different instructions and data types, but overall functionality remains identical.