.arch armv8-a
.file	__TEXT,__text,regular,pure_instructions
.align	2
.sect	__TEXT,__text,regular,pure_instructions
.global	_func0
.section	__TEXT,__text,regular,pure_instructions
.align	2
.p2align	4,,11
_func0:                                 ## @func0
    .cfi_startproc
stp	x29, x30, [sp, -32]!
.cfi_def_cfa_offset 32
.cfi_offset 29, -32
.cfi_offset 30, -24
mov	w3, 2
mov	x29, sp
.cfi_def_cfa_register 29
stp	x19, x20, [sp, 16]
sub	sp, sp,
.cfi_offset 19, -16
.cfi_offset 20, -8
str	x0, [x29, -8]
str	w1, [x29, -12]
str	x2, [x29, -24]
sdiv	w4, w1, w3
add	w4, w4, 1
ldrsw	x4, [x29, -12]
lsl	x0, x4, 2
bl	_malloc
str	x0, [x29, -32]
mov	x0, x29
str	wzr, [x29, -44]
str	wzr, [x29, -36]
.LB16_1:                                     ## =>This Inner Loop Header: Depth=1
ldp	w4, w0, [x29, -36]
cmp	w0, w4
bge	.LB16_4
.L5:                                                   ##   in Loop: Header=LB16_1 Depth=1
ldr	x1, [x29, -32]
ldr	w0, [x29, -12]
ldr	s0, [x1, x4, lsl 2]
str	w4, [x29, -44]
fmov	s1, s0
mov	w4, w0
add	w0, w4, 1
str	s0, [x1, w0, sxtw 2]
b	.LB16_1
.L18:                                           ## =>This Inner Loop Header: Depth=2
ldr	w0, [x29, -36]
str	wzr, [x29, -36]
.L19:                                               ## =>This Outer Loop Header: Depth=1
ldr	w4, [x29, -44]
sub	w4, w4,
cmp	w0, w4
bge	.L20
.L6:                                                  ##   in Loop: Header=LC18 Depth=1
str	wzr, [x29, -24]
.L21:                                                   ##   Parent Loop LB19 Depth=1
ldr	w0, [x29, -24]
ldr	w4, [x29, -36]
sub	w4, w4,
sub	w0, w4, w0
sub	w0, w0,
cmp	w0, w4
ble	.L22
.L7:                                                      ##   in Loop: Header=LC18 Depth=2
ldr	x0, [x29, -32]
ldr	w4, [x29, -36]
ldr	s1, [x0, w4, sxtw 2]
str	w4, [x29, -24]
fcmpe	s1,
bgt	.L8
b	.L17
.L8:                                                   ##   in Loop: Header=LC18 Depth=2
ldr	x0, [x29, -32]
ldr	w4, [x29, -36]
ldr	s0, [x0, w4, sxtw 2]
str	s0, [x29, -16]
ldr	w4, [x29, -24]
add	w4, w4, 1
str	s0, [x0, w4, sxtw 2]
ldr	x0, [x29, -32]
ldr	w4, [x29, -36]
ldr	s0, [x0, w4, sxtw 2]
str	s0, [x29, -16]
ldr	w4, [x29, -24]
add	w4, w4, 1
str	s0, [x0, w4, sxtw 2]
b	.L21
.L17:                                            ## =>This Inner Loop Header: Depth=2
ldr	x0, [x29, -32]
ldr	w4, [x29, -36]
ldr	s0, [x0, w4, sxtw 2]
str	w4, [x29, -24]
ldr	w4, [x29, -24]
add	w4, w4, 1
str	s0, [x0, w4, sxtw 2]
b	.L5
.L22:                                             ## =>This Inner Loop Header: Depth=1
mov	w0, 0
str	wzr, [x29, -36]
b	.L19
.L20:
mov	w0, 0
str	wzr, [x29, -36]
b	.L19
.L23:                                         ## =>This Inner Loop Header: Depth=2
ldr	x0, [x29, -32]
ldr	w4, [x29, -36]
ldr	s0, [x0, w4, sxtw 2]
str	w4, [x29, -24]
ldr	x0, [x29, -32]
ldr	w4, [x29, -24]
add	w4, w4, 1
str	s0, [x0, w4, sxtw 2]
ldr	x0, [x29, -32]
ldr	w4, [x29, -36]
ldr	s0, [x0, w4, sxtw 2]
str	s0, [x29, -16]
ldr	w4, [x29, -24]
add	w4, w4, 1
str	s0, [x0, w4, sxtw 2]
b	.L21
.L24:                                           ## =>This Inner Loop Header: Depth=2
ldr	x0, [x29, -32]
ldr	w4, [x29, -36]
ldr	s0, [x0, w4, sxtw 2]
str	w4, [x29, -24]
ldr	x0, [x29, -32]
ldr	w4, [x29, -24]
add	w4, w4, 1
str	s0, [x0, w4, sxtw 2]
ldr	x0, [x29, -32]
ldr	w4, [x29, -36]
ldr	s0, [x0, w4, sxtw 2]
str	s0, [x29, -16]
ldr	w4, [x29, -24]
add	w4, w4, 1
str	s0, [x0, w4, sxtw 2]
b	.L21
.L25:                                          ## =>This Inner Loop Header: Depth=2
ldr	x0, [x29, -32]
ldr	w4, [x29, -36]
ldr	s0, [x0, w4, sxtw 2]
str	w4, [x29, -24]
ldr	x0, [x29, -32]
ldr	w4, [x29, -24]
add	w4, w4, 1
str	s0, [x0, w4, sxtw 2]
ldr	x0, [x29, -32]
ldr	w4, [x29, -36]
ldr	s0, [x0, w4, sxtw 2]
str	s0, [x29, -16]
ldr	w4, [x29, -24]
add	w4, w4, 1
str	s0, [x0, w4, sxtw 2]
b	.L21
.L26:                                          ## =>This Inner Loop Header: Depth=2
ldr	x0, [x29, -32]
ldr	w4, [x29, -36]
ldr	s0, [x0, w4, sxtw 2]
str	w4, [x29, -24]
ldr	x0, [x29, -32]
ldr	w4, [x29, -24]
add	w4, w4, 1
str	s0, [x0, w4, sxtw 2]
ldr	x0, [x29, -32]
ldr	w4, [x29, -36]
ldr	s0, [x0, w4, sxtw 2]
str	s0, [x29, -16]
ldr	w4, [x29, -24]
add	w4, w4, 1
str	s0, [x0, w4, sxtw 2]
b	.L21
.L27:                                         ## =>This Inner Loop Header: Depth=1
ldr	x0, [x29, -32]
ldr	w4, [x29, -36]
ldr	s0, [x0, w4, sxtw 2]
str	w4, [x29, -24]
ldr	x0, [x29, -32]
ldr	w4, [x29, -24]
add	w4, w4, 1
str	s0, [x0, w4, sxtw 2]
ldr	x0, [x29, -32]
ldr	w4, [x29, -36]
ldr	s0, [x0, w4, sxtw 2]
str	s0, [x29, -16]
ldr	w4, [x29, -24]
add	w4, w4, 1
str	s0, [x0, w4, sxtw 2]
b	.L21
.L28:                                         ## =>This Inner Loop Header: Depth=1
ldr	x0, [x29, -32]
ldr	w4, [x29, -36]
ldr	s0, [x0, w4, sxtw 2]
str	w4, [x29, -24]
ldr	x0, [x29, -32]
ldr	w4, [x29, -24]
add	w4, w4, 1
str	s0, [x0, w4, sxtw 2]
ldr	x0, [x29, -32]
ldr	w4, [x29, -36]
ldr	s0, [x0, w4, sxtw 2]
str	s0, [x29, -16]
ldr	w4, [x29, -24]
add	w4, w4, 1
str	s0, [x0, w4, sxtw 2]
b	.L21
.L29:                                         ## =>This Inner Loop Header: Depth=1
ldr	x0, [x29, -32]
ldr	w4, [x29, -36]
ldr	s0, [x0, w4, sxtw 2]
str	w4, [x29, -24]
ldr	x0, [x29, -32]
ldr	w4, [x29, -24]
add	w4, w4, 1
str	s0, [x0, w4, sxtw 2]
ldr	x0, [x29, -32]
ldr	w4, [x29, -36]
ldr	s0, [x0, w4, sxtw 2]
str	s0, [x29, -16]
ldr	w4, [x29, -24]
add	w4, w4, 1
str	s0, [x0, w4, sxtw 2]
b	.L21
.L30:                                          ## =>This Inner Loop Header: Depth=1
ldr	x0, [x29, -32]
ldr	w4, [x29, -36]
ldr	s0, [x0, w4, sxtw 2]
str	w4, [x29, -24]
ldr	x0, [x29, -32]
ldr	w4, [x29, -24]
add	w4, w4, 1
str	s0, [x0, w4, sxtw 2]
ldr	x0, [x29, -32]
ldr	w4, [x29, -36]
ldr	s0, [x0, w4, sxtw 2]
str	s0, [x29, -16]
ldr	w4, [x29, -24]
add	w4, w4, 1
str	s0, [x0, w4, sxtw 2]
b	.L21
.L31:                                         ## =>This Inner Loop Header: Depth=1
ldr	x0, [x29, -32]
ldr	w4, [x29, -36]
ldr	s0, [x0, w4, sxtw 2]
str	w4, [x29, -24]
ldr	x0, [x29, -32]
ldr	w4, [x29, -24]
add	w4, w4, 1
str	s0, [x0, w4, sxtw 2]
ldr	x0, [x29, -32]
ldr	w4, [x29, -36]
ldr	s0, [x0, w4, sxtw 2]
str	s0, [x29, -16]
ldr	w4, [x29, -24]
add	w4, w4, 1
str	s0, [x0, w4, sxtw 2]
b	.L21
.L32:                                         ## =>This Inner Loop Header: Depth=1
ldr	x0, [x29, -32]
ldr	w4, [x29, -36]
ldr	s0, [x0, w4, sxtw 2]
str	w4, [x29, -24]
ldr	x0, [x29, -32]
ldr	w4, [x29, -24]
add	w4, w4, 1
str	s0, [x0, w4, sxtw 2]
ldr	x0, [x29, -32]
ldr	w4, [x29, -36]
ldr	s0, [x0, w4, sxtw 2]
str	s0, [x29, -16]
ldr	w4, [x29, -24]
add	w4, w4, 1
str	s0, [x0, w4, sxtw 2]
b	.L21
.L33:                                         ## =>This Inner Loop Header: Depth=1
ldr	x0, [x29, -32]
ldr	w4, [x29, -36]
ldr	s0, [x0, w4, sxtw 2]
str	w4, [x29, -24]
ldr	x0, [x29, -32]
ldr	w4, [x29, -24]
add	w4, w4, 1
str	s0, [x0, w4, sxtw 2]
ldr	x0, [x29, -32]
ldr	w4, [x29, -36]
ldr	s0, [x0, w4, sxtw 2]
str	s0, [x29, -16]
ldr	w4, [x29, -24]
add	w4, w4, 1
str	s0, [x0, w4, sxtw 2]
b	.L21
.L34:                                         ## =>This Inner Loop Header: Depth=1
ldr	x0, [x29, -32]
ldr	w4, [x29, -36]
ldr	s0, [x0, w4, sxtw 2]
str	w4, [x29, -24]
ldr	x0, [x29, -32]
ldr	w4, [x29, -24]
add	w4, w4, 1
str	s0, [x0, w4, sxtw 2]
ldr	x0, [x29, -32]
ldr	w4, [x29, -36]
ldr	s0, [x0, w4, sxtw 2]
str	s0, [x29, -16]
ldr	w4, [x29, -24]
add	w4, w4, 1
str	s0, [x0, w4, sxtw 2]
b	.L21
.L35:                                         ## =>This Inner Loop Header: Depth=1
ldr	x0, [x29, -32]
ldr	w4, [x29, -36]
ldr	s0, [x0, w4, sxtw 2]
str	w4, [x29, -24]
ldr	x0, [x29, -32]
ldr	w4, [x29, -24]
add	w4, w4, 1
str	s0, [x0, w4, sxtw 2]
ldr	x0, [x29, -32]
ldr	w4, [x29, -36]
ldr	s0, [x0, w4, sxtw 2]
str	s0, [x29, -16]
ldr	w4, [x29, -24]
add	w4, w4, 1
str	s0, [x0, w4, sxtw 2]
b	.L21
.L36:                                         ## =>This Inner Loop Header: Depth=1
ldr	x0, [x29, -32]
ldr	w4, [x29, -36]
ldr	s0, [x0, w4, sxtw 2]
str	w4, [x29, -24]
ldr	x0, [x29, -32]
ldr	w4, [x29, -24]
add	w4, w4, 1
str	s0, [x0, w4, sxtw 2]
ldr	x0, [x29, -32]
ldr	w4, [x29, -36]
ldr	s0, [x0, w4, sxtw 2]
str	s0, [x29, -16]
ldr	w4, [x29, -24]
add	w4, w4, 1
str	s0, [x0, w4, sxtw 2]
b	.L21
.L37:                                         ## =>This Inner Loop Header: Depth=1
ldr	x0, [x29, -32]
ldr	w4, [x29, -36]
ldr	s0, [x0, w4, sxtw 2]
str	w4, [x29, -24]
ldr	x0, [x29, -32]
ldr	w4, [x29, -24]
add	w4, w4, 1
str	s0, [x0, w4, sxtw 2]
ldr	x0, [x29, -32]
ldr	w4, [x29, -36]
ldr	s0, [x0, w4, sxtw 2]
str	s0, [x29, -16]
ldr	w4, [x29, -24]
add	w4, w4, 1
str	s0, [x0, w4, sxtw 2]
b	.L21
.L38:                                         ## =>This Inner Loop Header: Depth=1
ldr	x0, [x29, -32]
ldr	w4, [x29, -36]
ldr	s0, [x0, w4, sxtw 2]
str	w4, [x29, -24]
ldr	x0, [x29, -32]
ldr	w4, [x29, -24]
add	w4, w4, 1
str	s0, [x0, w4, sxtw 2]
ldr	x0, [x29, -32]
ldr	w4, [x29, -36]
ldr	s0, [x0, w4, sxtw 2]
str	s0, [x29, -16]
ldr	w4, [x29, -24]
add	w4, w4, 1
str	s0, [x0, w4, sxtw 2]
b	.L21
.L39:                                         ## =>This Inner Loop Header: Depth=1
ldr	x0, [x29, -32]
ldr	w4, [x29, -36]
ldr	s0, [x0, w4, sxtw 2]
str	w4, [x29, -24]
ldr	x0, [x29, -32]
ldr	w4, [x29, -24]
add	w4, w4, 1
str	s0, [x0, w4, sxtw 2]
ldr	x0, [x29, -32]
ldr	w4, [x29, -36]
ldr	s0, [x0, w4, sxtw 2]
str	s0, [x29, -16]
ldr	w4, [x29, -24]
add	w4, w4, 1
str	s0, [x0, w4, sxtw 2]
b	.L21
.L40:                                         ## =>This Inner Loop Header: Depth=1
ldr	x0, [x29, -32]
ldr	w4, [x29, -36]
ldr	s0, [x0, w4, sxtw 2]
str	w4, [x29, -24]
ldr	x0, [x29, -32]
ldr	w4, [x29, -24]
add	w4, w4, 1
str	s0, [x0, w4, sxtw 2]
ldr	x0, [x29, -32]
ldr	w4, [x29, -36]
ldr	s0, [x0, w4, sxtw 2]
str	s0, [x29, -16]
ldr	w4, [x29, -24]
add	w4, w4, 1
str	s0, [x0, w4, sxtw 2]
b	.L21
.L41:                                         ## =>This Inner Loop Header: Depth=1
ldr	x0, [x29, -32]
ldr	w4, [x29, -36]
ldr	s0, [x0, w4, sxtw 2]
str	w4, [x29, -24]
ldr	x0, [x29, -32]
ldr	w4, [x29, -24]
add	w4, w4, 1
str	s0, [x0, w4, sxtw 2]
ldr	x0, [x29, -32]
ldr	w4, [x29, -36]
ldr	s0, [x0, w4, sxtw 2]
str	s0, [x29, -16]
ldr	w4, [x29, -24]
add	w4, w4, 1
str	s0, [x0, w4, sxtw 2]
b	.L21
.L42:                                         ## =>This Inner Loop Header: Depth=1
ldr	x0, [x29, -32]
ldr	w4, [x29, -36]
ldr	s0, [x0, w4, sxtw 2]
str	w4, [x29, -24]
ldr	x0, [x29, -32]
ldr	w4, [x29, -24]
add	w4, w4, 1
str	s0, [x0, w4, sxtw 2]
ldr	x0, [x29, -32]
ldr	w4, [x29, -36]
ldr	s0, [x0, w4, sxtw 2]
str	s0, [x29, -16]
ldr	w4, [x29, -24]
add	w4, w4, 1
str	s0, [x0, w4, sxtw 2]
b	.L21
.L43:                                         ## =>This Inner Loop Header: Depth=1
ldr	x0, [x29, -32]
ldr	w4, [x29, -36]
ldr	s0, [x0, w4, sxtw 2]
str	w4, [x29, -24]
ldr	x0, [x29, -32]
ldr	w4, [x29, -24]
add	w4, w4, 1
str	s0, [x0, w4, sxtw 2]
ldr	x0, [x29, -32]
ldr	w4, [x29, -36]
ldr	s0, [x0, w4, sxtw 2]
str	s0, [x29, -16]
ldr	w4, [x29, -24]
add	w4, w4, 1
str	s0, [x0, w4, sxtw 2]
b	.L21
.L44:                                         ## =>This Inner Loop Header: Depth=1
ldr	x0, [x29, -32]
ldr	w4, [x29, -36]
ldr	s0, [x0, w4, sxtw 2]
str	w4, [x29, -24]
ldr	x0, [x29, -32]
ldr	w4, [x29, -24]
add	w4, w4, 1
str	s0, [x0, w4, sxtw 2]
ldr	x0, [x29, -32]
ldr	w4, [x29, -36]
ldr	s0, [x0, w4, sxtw 2]
str	s0, [x29, -16]
ldr	w4, [x29, -24]
add	w4, w4, 1
str	s0, [x0, w4, sxtw 2]
b	.L21
.L45:                                         ## =>This Inner Loop Header: Depth=1
ldr	x0, [x29, -32]
ldr	w4, [x29, -36]
ldr	s0, [x0, w4, sxtw 2]
str	w4, [x29, -24]
ldr	x0, [x29, -32]
ldr	w4, [x29, -24]
add	w4, w4, 1
str	s0, [x0, w4, sxtw 2]
ldr	x0, [x29, -32]
ldr	w4, [x29, -36]
ldr	s0, [x0, w4, sxtw 2]
str	s0, [x29, -16]
ldr	w4, [x29, -24]
add	w4, w4, 1
str	s0, [x0, w4, sxtw 2]
b	.L21
.L46:                                         ## =>This Inner Loop Header: Depth=1
ldr	x0, [x29, -32]
ldr	w4, [x29, -36]
ldr	s0, [x0, w4, sxtw 2]
str	w4, [x29, -24]
ldr	x0, [x29, -32]
ldr	w4, [x29, -24]
add	w4, w4, 1
str	s0, [x0, w4, sxtw 2]
ldr	x0, [x29, -32]
ldr	w4, [x29, -36]
ldr	s0, [x0, w4, sxtw 2]
str	s0, [x29, -16]
ldr	w4, [x29, -24]
add	w4, w4, 1
str	s0, [x0, w4, sxtw 2]
b	.L21
.L47:                                         ## =>This Inner Loop Header: Depth=1
ldr	x0, [x29, -32]
ldr	w4, [x29, -36]
ldr	s0, [x0, w4, sxtw 2]
str	w4, [x29, -24]
ldr	x0, [x29, -32]
ldr	w4, [x29, -24]
add	w4, w4, 1
str	s0, [x0, w4, sxtw 2]
ldr	x0, [x29, -32]
ldr	w4, [x29, -36]
ldr	s0, [x0, w4, sxtw 2]
str	s0, [x29, -16]
ldr	w4, [x29, -24]
add	w4, w4, 1
str	s0, [x0, w4, sxtw 2]
b	.L21
.L48:                                         ## =>This Inner Loop Header: Depth=1
ldr	x0, [x29, -32]
ldr	w4, [x29, -36]
ldr	s0, [x0, w4, sxtw 2]
str	w4, [x29, -24]
ldr	x0, [x29, -32]
ldr	w4, [x29, -24]
add	w4, w4, 1
str	s0, [x0, w4, sxtw 2]
ldr	x0, [x29, -32]
ldr	w4, [x29, -36]
ldr	s0, [x0, w4, sxtw 2]
str	s0, [x29, -16]
ldr	w4, [x29, -24]
add	w4, w4, 1
str	s0, [x0, w4, sxtw 2]
b	.L21
.L49:                                         ## =>This Inner Loop Header: Depth=1
ldr	x0, [x29, -32]
ldr	w4, [x29, -36]
ldr	s0, [x0, w4, sxtw 2]
str	w4, [x29, -24]
ldr	x0, [x29, -32]
ldr	w4, [x29, -24]
add	w4, w4, 1
str	s0, [x0, w4, sxtw 2]
ldr	x0, [x29, -32]
ldr	w4, [x29, -36]
ldr	s0, [x0, w4, sxtw 2]
str	s0, [x29, -16]
ldr	w4, [x29, -24]
add	w4, w4, 1
str	s0, [x0, w4, sxtw 2]
b	.L21
.L50:                                         ## =>This Inner Loop Header: Depth=1
ldr	x0, [x29, -32]
ldr	w4, [x29, -36]
ldr	s0, [x0, w4, sxtw 2]
str	w4, [x29, -24]
ldr	x0, [x29, -32]
ldr	w4, [x29, -24]
add	w4, w4, 1
str	s0, [x0, w4, sxtw 2]
ldr	x0, [x29, -32]
ldr	w4, [x29, -36]
ldr	s0, [x0, w4, sxtw 2]
str	s0, [x29, -16]
ldr	w4, [x29, -24]
add	w4, w4, 1
str	s0, [x0, w4, sxtw 2]
b	.L21
.L51:                                         ## =>This Inner Loop Header: Depth=1
ldr	x0, [x29, -32]
ldr	w4, [x29, -36]
ldr	s0, [x0, w4, sxtw 2]
str	w4, [x29, -24]
ldr	x0, [x29, -32]
ldr	w4, [x29, -24]
add	w4, w4, 1
str	s0, [x0, w4, sxtw 2]
ldr	x0, [x29, -32]
ldr	w4, [x29, -36]
ldr	s0, [x0, w4, sxtw 2]
str	s0, [x29, -16]
ldr	w4, [x29, -24]
add	w4, w4, 1
str	s0, [x0, w4, sxtw 2]
b	.L21
.L52:                                         ## =>This Inner Loop Header: Depth=1
ldr	x0, [x29, -32]
ldr	w4, [x29, -36]
ldr	s0, [x0, w4, sxtw 2]
str	w4, [x29, -24]
ldr	x0, [x29, -32]
ldr	w4, [x29, -24]
add	w4, w4, 1
str	s0, [x0, w4, sxtw 2]
ldr	x0, [x29, -32]
ldr	w4, [x29, -36]
ldr	s0, [x0, w4, sxtw 2]
str	s0, [x29, -16]
ldr	w4, [x29, -24]
add	w4, w4, 1
str	s0, [x0, w4, sxtw 2]
b	.L21
.L53:                                         ## =>This Inner Loop Header: Depth=1
ldr	x0, [x29, -32]
ldr	w4, [x29, -36]
ldr	s0, [x0, w4, sxtw 2]
str	w4, [x29, -24]
ldr	x0, [x29, -32]
ldr	w4, [x29, -24]
add	w4, w4, 1
str	s0, [x0, w4, sxtw 2]
ldr	x0, [x29, -32]
ldr	w4, [x29, -36]
ldr	s0, [x0, w4, sxtw 2]
str	s0, [x29, -16]
ldr	w4, [x29, -24]
add	w4, w4, 1
str	s0, [x0, w4, sxtw 2]
b	.L21
.L54:                                         ## =>This Inner Loop Header: Depth=1
ldr	x0, [x29, -32]
ldr	w4, [x29, -36]
ldr	s0, [x0, w4, sxtw 2]
str	w4, [x29, -24]
ldr	x0, [x29, -32]
ldr	w4, [x29, -24]
add	w4, w4, 1
str	s0, [x0, w4, sxtw 2]
ldr	x0, [x29, -32]
ldr	w4, [x29, -36]
ldr	s0, [x0, w4, sxtw 2]
str	s0, [x29, -16]
ldr	w4, [x29, -24]
add	w4, w4, 1
str	s0, [x0, w4, sxtw 2]
b	.L21
.L55:                                         ## =>This Inner Loop Header: Depth=1
ldr	x0, [x29, -32]
ldr	w4, [x29, -36]
ldr	s0, [x0, w4, sxtw 2]
str	w4, [x29, -24]
ldr	x0, [x29, -32]
ldr	w4, [x29, -24]
add	w4, w4, 1
str	s0, [x0, w4, sxtw 2]
ldr	x0, [x29, -32]
ldr	w4, [x29, -36]
ldr	s0, [x0, w4, sxtw 2]
str	s0, [x29, -16]
ldr	w4, [x29, -24]
add	w4, w4, 1
str	s0, [x0, w4, sxtw 2]
b	.L21
.L56:                                         ## =>This Inner Loop Header: Depth=1
ldr	x0, [x29, -32]
ldr	w4, [x29, -36]
ldr	s0, [x0, w4, sxtw 2]
str	w4, [x29, -24]
ldr	x0, [x29, -32]
ldr	w4, [x29, -24]
add	w4, w4, 1
str	s0, [x0, w4, sxtw 2]
ldr	x0, [x29, -32]
ldr	w4, [x29, -36]
ldr	s0, [x0, w4, sxtw 2]
str	s0, [x29, -16]
ldr	w4, [x29, -24]
add	w4, w4, 1
str	s0, [x0, w4, sxtw 2]
b	.L21
.L57:                                         ## =>This Inner Loop Header: Depth=1
ldr	x0, [x29, -32]
ldr	w4, [x29, -36]
ldr	s0, [x0, w4, sxtw 2]
str	w4, [x29, -24]
ldr	x0, [x29, -32]
ldr	w4, [x29, -24]
add	w4, w4, 1
str	s0, [x0, w4, sxtw 2]
ldr	x0, [x29, -32]
ldr	w4, [x29, -36]
ldr	s0, [x0, w4, sxtw 2]
str	s0, [x29, -16]
ldr	w4, [x29, -24]
add	w4, w4, 1
str	s0, [x0, w4, sxtw 2]
b	.L21
.L58:                                         ## =>This Inner Loop Header: Depth=1
ldr	x0, [x29, -32]
ldr	w4, [x29, -36]
ldr	s0, [x0, w4, sxtw 2]
str	w4, [x29, -24]
ldr	x0, [x29, -32]
ldr	w4, [x29, -24]
add	w4, w4, 1
str	s0, [x0, w4, sxtw 2]
ldr	x0, [x29, -32]
ldr	w4, [x29, -36]
ldr	s0, [x0, w4, sxtw 2]
str	s0, [x29, -16]
ldr	w4, [x29, -24]
add	w4, w4, 1
str	s0, [x0, w4, sxtw 2]
b	.L21
.L59:                                         ## =>This Inner Loop Header: Depth=1
ldr	x0, [x29, -32]
ldr	w4, [x29, -36]
ldr	s0, [x0, w4, sxtw 2]
str	w4, [x29, -24]
ldr	x0, [x29, -32]
ldr	w4, [x29, -24]
add	w4, w4, 1
str	s0, [x0, w4, sxtw 2]
ldr	x0, [x29, -32]
ldr	w4, [x29, -36]
ldr	s0, [x0, w4, sxtw 2]
str	s0, [x29, -16]
ldr	w4, [x29, -24]
add	w4, w4, 1
str	s0, [x0, w4, sxtw 2]
b	.L21
.L60:                                         ## =>This Inner Loop Header: Depth=1
ldr	x0, [x29, -32]
ldr	w4, [x29, -36]
ldr	s0, [x0, w4, sxtw 2]
str	w4, [x29, -24]
ldr	x0, [x29, -32]
ldr	w4, [x29, -24]
add	w4, w4, 1
str	s0, [x0, w4, sxtw 2]
ldr	x0, [x29, -32]
ldr	w4, [x29, -36]
ldr	s0, [x0, w4, sxtw 2]
str	s0, [x29, -16]
ldr	w4, [x29, -24]
add	w4, w4, 1
str	s0, [x0, w4, sxtw 2]
b	.L21
.L61:                                         ## =>This Inner Loop Header: Depth=1
ldr	x0, [x29, -32]
ldr	w4, [x29, -36]
ldr	s0, [x0, w4, sxtw 2]
str	w4, [x29, -24]
ldr	x0, [x29, -32]
ldr	w4, [x29, -24]
add	w4, w4, 1
str	s0, [x0, w4, sxtw 2]
ldr	x0, [x29, -32]
ldr	w4, [x29, -36]
ldr	s0, [x0, w4, sxtw 2]
str	s0, [x29, -16]
ldr	w4, [x29, -24]
add	w4, w4, 1
str	s0, [x0, w4, sxtw 2]
b	.L21
.L62:                                         ## =>This Inner Loop Header: Depth=1
ldr	x0, [x29, -32]
ldr	w4, [x29, -36]
ldr	s0, [x0, w4, sxtw 2]
str	w4, [x29, -24]
ldr	x0, [x29, -32]
ldr	w4, [x29, -24]
add	w4, w4, 1
str	s0, [x0, w4, sxtw 2]
ldr	x0, [x29, -32]
ldr	w4, [x29, -36]
ldr	s0, [x0, w4, sxtw 2]
str	s0, [x29, -16]
ldr	w4, [x29, -24]
add	w4, w4, 1
str	s0, [x0, w4, sxtw 2]
b	.L21
.L63:                                         ## =>This Inner Loop Header: Depth=1
ldr	x0, [x29, -32]
ldr	w4, [x29, -36]
ldr	s0, [x0, w4, sxtw 2]
str	w4, [x29, -24]
ldr	x0, [x29, -32]
ldr	w4, [x29, -24]
add	w4, w4, 1
str	s0, [x0, w4, sxtw 2]
ldr	x0, [x29, -32]
ldr	w4, [x29, -36]
ldr	s0, [x0, w4, sxtw 2]
str	s0, [x29, -16]
ldr	w4, [x29, -24]
add	w4, w4, 1
str	s0, [x0, w4, sxtw 2]
b	.L21
.L64:                                         ## =>This Inner Loop Header: Depth=1
ldr	x0, [x29, -32]
ldr	w4, [x29, -36]
ldr	s0, [x0, w4, sxtw 2]
str	w4, [x29, -24]
ldr	x0, [x29, -32]
ldr	w4, [x29, -24]
add	w4, w4, 1
str	s0, [x0, w4, sxtw 2]
ldr	x0, [x29, -32]
ldr	w4, [x29, -36]
ldr	s0, [x0, w4, sxtw 2]
str	s0, [x29, -16]
ldr	w4, [x29, -24]
add	w4, w4, 1
str	s0, [x0, w4, sxtw 2]
b	.L21
.L65:                                         ## =>This Inner Loop Header: Depth=1
ldr	x0, [x29, -32]
ldr	w4, [x29, -36]
ldr	s0, [x0, w4, sxtw 2]
str	w4, [x29, -24]
ldr	x0, [x29, -32]
ldr	w4, [x29, -24]
add	w4, w4, 1
str	s0, [x0, w4, sxtw 2]
ldr	x0, [x29, -32]
ldr	w4, [x29, -36]
ldr	s0, [x0, w4, sxtw 2]
str	s0, [x29, -16]
ldr	w4, [x29, -24]
add	w4, w4, 1
str	s0, [x0, w4, sxtw 2]
b	.L21
.L66:                                         ## =>This Inner Loop Header: Depth=1
ldr	x0, [x29, -32]
ldr	w4, [x29, -36]
ldr	s0, [x0, w4, sxtw 2]
str	w4, [x29, -24]
ldr	x0, [x29, -32]
ldr	w4, [x29, -24]
add	w4, w4, 1
str	s0, [x0, w4, sxtw 2]
ldr	x0, [x29, -32]
ldr	w4, [x29, -36]
ldr	s0, [x0, w4, sxtw 2]
str	s0, [x29, -16]
ldr	w4, [x29, -24]
add	w4, w4, 1
str	s0, [x0, w4, sxtw 2]
b	.L21
.L67:                                         ## =>This Inner Loop Header: Depth=1
ldr	x0, [x29, -32]
ldr	w4, [x29, -36]
ldr	s0, [x0, w4, sxtw 2]
str	w4, [x29, -24]
ldr	x0, [x29, -32]
ldr	w4, [x29, -24]
add	w4, w4, 1
str	s0, [x0, w4, sxtw 2]
ldr	x0, [x29, -32]
ldr	w4, [x29, -36]
ldr	s0, [x0, w4, sxtw 2]
str	s0, [x29, -16]
ldr	w4, [x29, -24]
add	w4, w4, 1
str	s0, [x0, w4, sxtw 2]
b	.L21
.L68:                                         ## =>This Inner Loop Header: Depth=1
ldr	x0, [x29, -32]
ldr	w4, [x29, -36]
ldr	s0, [x0, w4, sxtw 2]
str	w4, [x29, -24]
ldr	x0, [x29, -32]
ldr	w4, [x29, -24]
add	w4, w4, 1
str	s0, [x0, w4, sxtw 2]
ldr	x0, [x29, -32]
ldr	w4, [x29, -36]
ldr	s0, [x0, w4, sxtw 2]
str	s0, [x29, -16]
ldr	w4, [x29, -24]
add	w4, w4, 1
str	s0, [x0, w4, sxtw 2]
b	.L21
.L69:                                         ## =>This Inner Loop Header: Depth=1
ldr	x0, [x29, -32]
ldr	w4, [x29, -36]
ldr	s0, [x0, w4, sxtw 2]
str	w4, [x29, -24]
ldr	x0, [x29, -32]
ldr	w4, [x29, -24]
add	w4, w4, 1
str	s0, [x0, w4, sxtw 2]
ldr	x0, [x29, -32]
ldr	w4, [x29, -36]
ldr	s0, [x0, w4, sxtw 2]
str	s0, [x29, -16]
ldr	w4, [x29, -24]
add	w4, w4, 1
str	s0, [x0, w4, sxtw 2]
b	.L21
.L70:                                         ## =>This Inner Loop Header: Depth=1
ldr	x0, [x29, -32]
ldr	w4, [x29, -36]
ldr	s0, [x0, w4, sxtw 2]
str	w4, [x29, -24]
ldr	x0, [x29, -32]
ldr	w4, [x29, -24]
add	w4, w4, 1
str	s0, [x0, w4, sxtw 2]
ldr	x0, [x29, -32]
ldr	w4, [x29, -36]
ldr	s0, [x0, w4, sxtw 2]
str	s0, [x29, -16]
ldr	w4, [x29, -24]
add	w4, w4, 1
str	s0, [x0, w4, sxtw 2]
b	.L21
.L71:                                         ## =>This Inner Loop Header: Depth=1
ldr	x0, [x29, -32]
ldr	w4, [x29, -36]
ldr	s0, [x0, w4, sxtw 2]
str	w4, [x29, -24]
ldr	x0, [x29, -32]
ldr	w4, [x29, -24]
add	w4, w4, 1
str	s0, [x0, w4, sxtw 2]
ldr	x0, [x29, -32]
ldr	w4, [x29, -36]
ldr	s0, [x0, w4, sxtw 2]
str	s0, [x29, -16]
ldr	w4, [x29, -24]
add	w4, w4, 1
str	s0, [x0, w4, sxtw 2]
b	.L21
.L72:                                         ## =>This Inner Loop Header: Depth=1
ldr	x0, [x29, -32]
ldr	w4, [x29, -36]
ldr	s0, [x0, w4, sxtw 2]
str	w4, [x29, -24]
ldr	x0, [x29, -32]
ldr	w4, [x29, -24]
add	w4, w4, 1
str	s0, [x0, w4, sxtw 2]
ldr	x0, [x29, -32]
ldr	w4, [x29, -36]
ldr	s0, [x0, w4, sxtw 2]
str	s0, [x29, -16]
ldr	w4, [x29, -24]
add	w4, w4, 1
str	s0, [x0, w4, sxtw 2]
b	.L21
.L73:                                         ## =>This Inner Loop Header: Depth=1
ldr	x0, [x29, -32]
ldr	w4, [x29, -36]
ldr	s0, [x0, w4, sxtw 2]
str	w4, [x29, -24]
ldr	x0, [x29, -32]
ldr	w4, [x29, -24]
add	w4, w4, 1
str	s0, [x0, w4, sxtw 2]
ldr	x0, [x29, -32]
ldr	w4, [x29, -36]
ldr	s0, [x0, w4, sxtw 2]
str	s0, [x29, -16]
ldr	w4, [x29, -24]
add	w4, w4, 1
str	s0, [x0, w4, sxtw 2]
b	.L21
.L74:                                         ## =>This Inner Loop Header: Depth=1
ldr	x0, [x29, -32]
ldr	w4, [x29, -36]
ldr	s0, [x0, w4, sxtw 2]
str	w4, [x29, -24]
ldr	x0, [x29, -32]
ldr	w4, [x29, -24]
add	w4, w4, 1
str	s0, [x0, w4, sxtw 2]
ldr	x0, [x29, -32]
ldr	w4, [x29, -36]
ldr	s0, [x0, w4, sxtw 2]
str	s0, [x29, -16]
ldr	w4, [x29, -24]
add	w4, w4, 1
str	s0, [x0, w4, sxtw 2]
b	.L21
.L75:                                         ## =>This Inner Loop Header: Depth=1
ldr	x0, [x29, -32]
ldr	w4, [x29, -36]
ldr	s0, [x0, w4, sxtw 2]
str	w4, [x29, -24]
ldr	x0, [x29, -32]
ldr	w4, [x29, -24]
add	w4, w4, 1
str	s0, [x0, w4, sxtw 2]
ldr	x0, [x29, -32]
ldr	w4, [x29, -36]
ldr	s0, [x0, w4, sxtw 2]
str	s0, [x29, -16]
ldr	w4, [x29, -24]
add	w4, w4, 1
str	s0, [x0, w4, sxtw 2]
b	.L21
.L76:                                         ## =>This Inner Loop Header: Depth=1
ldr	x0, [x29, -32]
ldr	w4, [x29, -36]
ldr	s0, [x0, w4, sxtw 2]
str	w4, [x29, -24]
ldr	x0, [x29, -32]
ldr	w4, [x29, -24]
add	w4, w4, 1
str	s0, [x0, w4, sxtw 2]
ldr	x0, [x29, -32]
ldr	w4, [x29, -36]
ldr	s0, [x0, w4, sxtw 2]
str	s0, [x29, -16]
ldr	w4, [x29, -24]
add	w4, w4, 1
str	s0, [x0, w4, sxtw 2]
b	.L21
.L77:                                         ## =>This Inner Loop Header: Depth=1
ldr	x0, [x29, -32]
ldr	w4, [x29, -36]
ldr	s0, [x0, w4, sxtw 2]
str	w4, [x29, -24]
ldr	x0, [x29, -32]
ldr	w4, [x29, -24]
add	w4, w4, 1
str	s0, [x0, w4, sxtw 2]
ldr	x0, [x29, -32]
ldr	w4, [x29, -36]
ldr	s0, [x0, w4, sxtw 2]
str	s0, [x29, -16]
ldr	w4, [x29, -24]
add	w4, w4, 1
str	s0, [x0, w4, sxtw 2]
b	.L21
.L78:                                         ## =>This Inner Loop Header: Depth=1
ldr	x0, [x29, -32]
ldr	w4, [x29, -36]
ldr	s0, [x0, w4, sxtw 2]
str	w4, [x29, -24]
ldr	x0, [x29, -32]
ldr	w4, [x29, -24]
add	w4, w4, 1
str	s0, [x0, w4, sxtw 2]
ldr	x0, [x29, -32]
ldr	w4, [x29, -36]
ldr	s0, [x0, w4, sxtw 2]
str	s0, [x29, -16]
ldr	w4, [x29, -24]
add	w4, w4, 1
str	s0, [x0, w4, sxtw 2]
b	.L21
.L79:                                         ## =>This Inner Loop Header: Depth=1
ldr	x0, [x29, -32]
ldr	w4, [x29, -36]
ldr	s0, [x0, w4, sxtw 2]
str	w4, [x29, -24]
ldr	x0, [x29, -32]
ldr	w4, [x29, -24]
add	w4, w4, 1
str	s0, [x0, w4, sxtw 2]
ldr	x0, [x29, -32]
ldr	w4, [x29, -36]
ldr	s0, [x0, w4, sxtw 2]
str	s0, [x29, -16]
ldr	w4, [x29, -24]
add	w4, w4, 1
str	s0, [x0, w4, sxtw 2]
b	.L21
.L80:                                         ## =>This Inner Loop Header: Depth=1
ldr	x0, [x29, -32]
ldr	w4, [x29, -36]
ldr	s0, [x0, w4, sxtw 2]
str	w4, [x29, -24]
ldr	x0, [x29, -32]
ldr	w4, [x29, -24]
add	w4, w4, 1
str	s0, [x0, w4, sxtw 2]
ldr	x0, [x29, -32]
ldr	w4, [x29, -36]
ldr	s0, [x0, w4, sxtw 2]
str	s0, [x29, -16]
ldr	w4, [x29, -24]
add	w4, w4, 1
str	s0, [x0, w4, sxtw 2]
b	.L21
.L81:                                         ## =>This Inner Loop Header: Depth=1
ldr	x0, [x29, -32]
ldr	w4, [x29, -36]
ldr	s0, [x0, w4, sxtw 2]
str	w4, [x29, -24]
ldr	x0, [x29, -32]
ldr	w4, [x29, -24]
add	w4, w4, 1
str	s0, [x0, w4, sxtw 2]
ldr	x0, [x29, -32]
ldr	w4, [x29, -36]
ldr	s0, [x0, w4, sxtw 2]
str	s0, [x29, -16]
ldr	w4, [x29, -24]
add	w4, w4, 1
str	s0, [x0, w4, sxtw 2]
b	.L21
.L82:                                         ## =>This Inner Loop Header: Depth=1
ldr	x0, [x29, -32]
ldr	w4, [x29, -36]
ldr	s0, [x0, w4, sxtw 2]
str	w4, [x29, -24]
ldr	x0, [x29, -32]
ldr	w4, [x29, -24]
add	w4, w4, 1
str	s0, [x0, w4, sxtw 2]
ldr	x0, [x29, -32]
ldr	w4, [x29, -36]
ldr	s0, [x0, w4, sxtw 2]
str	s0, [x29, -16]
ldr	w4, [x29, -24]
add	w4, w4, 1
str	s0, [x0, w4, sxtw 2]
b	.L21
.L83:                                         ## =>This Inner Loop Header: Depth=1
ldr	x0, [x29, -32]
ldr	w4, [x29, -36]
ldr	s0, [x0, w4, sxtw 2]
str	w4, [x29, -24]
ldr	x0, [x29, -32]
ldr	w4, [x29, -24]
add	w4, w4, 1
str	s0, [x0, w4, sxtw 2]
ldr	x0, [x29, -32]
ldr	w4, [x29, -36]
ldr	s0, [x0, w4, sxtw 2]
str	s0, [x29, -16]
ldr	w4, [x29, -24]
add	w4, w4, 1
str	s0, [x0, w4, sxtw 2]
b	.L21
.L84:                                         ## =>This Inner Loop Header: Depth=1
ldr	x0, [x29, -32]
ldr	w4, [x29, -36]
ldr	s0, [x0, w4, sxtw 2]
str	w4, [x29, -24]
ldr	x0, [x29, -32]
ldr	w4, [x29, -24]
add	w4, w4, 1
str	s0, [x0, w4, sxtw 2]
ldr	x0, [x29, -32]
ldr	w4, [x29, -36]
ldr	s0, [x0, w4, sxtw 2]
str	s0, [x29, -16]
ldr	w4, [x29, -24]
add	w4, w4, 1
str	s0, [x0, w4, sxtw 2]
b	.L21
.L85:                                         ## =>This Inner Loop Header: Depth=1
ldr	x0, [x29, -32]
ldr	w4, [x29, -36]
ldr	s0, [x0, w4, sxtw 2]
str	w4, [x29, -24]
ldr	x0, [x29, -32]
ldr	w4, [x29, -24]
add	w4, w4, 1
str	s0, [x0, w4, sxtw 2]
ldr	x0, [x29, -32]
ldr	w4, [x29, -36]
ldr	s0, [x0, w4, sxtw 2]
str	s0, [x29, -16]
ldr	w4, [x29, -24]
add	w4, w4, 1
str	s0, [x0, w4, sxtw 2]
b	.L21
.L86:                                         ## =>This Inner Loop Header: Depth=1
ldr	x0, [x29, -32]
ldr	w4, [x29, -36]
ldr	s0, [x0, w4, sxtw 2]
str	w4, [x29, -24]
ldr	x0, [x29, -32]
ldr	w4, [x29, -24]
add	w4, w4, 1
str	s0, [x0, w4, sxtw 2]
ldr	x0, [x29, -32]
ldr	w4, [x29, -36]
ldr	s0, [x0, w4, sxtw 2]
str	s0, [x29, -16]
ldr	w4, [x29, -24]
add	w4, w4, 1
str	s0, [x0, w4, sxtw 2]
b	.L21
.L87:                                         ## =>This Inner Loop Header: Depth=1
ldr	x0, [x29, -32]
ldr	w4, [x29, -36]
ldr	s0, [x0, w4, sxtw 2]
str	w4, [x29, -24]
ldr	x0, [x29, -32]
ldr	w4, [x29, -24]
add	w4, w4, 1
str	s0, [x0, w4, sxtw 2]
ldr	x0, [x29, -32]
ldr	w4, [x29, -36]
ldr	s0, [x0, w4, sxtw 2]
str	s0, [x29, -16]
ldr	w4, [x29, -24]
add	w4, w4, 1
str	s0, [x0, w4, sxtw 2]
b	.L21
.L88:                                         ## =>This Inner Loop Header: Depth=1
ldr	x0, [x29, -32]
ldr	w4, [x29, -36]
ldr	s0, [x0, w4, sxtw 2]
str	w4, [x29, -24]
ldr	x0, [x29, -32]
ldr	w4, [x29, -24]
add	w4, w4, 1
str	s0, [x0, w4, sxtw 2]
ldr	x0, [x29, -32]
ldr	w4, [x29, -36]
ldr	s0, [x0, w4, sxtw 2]
str	s0, [x29, -16]
ldr	w4, [x29, -24]
add	w4, w4, 1
str	s0, [x0, w4, sxtw 2]
b	.L21
.L89:                                         ## =>This Inner Loop Header: Depth=1
ldr	x0, [x29, -32]
ldr	w4, [x29, -36]
ldr	s0, [x0, w4, sxtw 2]
str	w4, [x29, -24]
ldr	x0, [x29, -32]
ldr	w4, [x29, -24]
add	w4, w4, 1
str	s0, [x0, w4, sxtw 2]
ldr	x0, [x29, -32]
ldr	w4, [x29, -36]
ldr	s0, [x0, w4, sxtw 2]
str	s0, [x29, -16]
ldr	w4, [x29, -24]
add	w4, w4, 1
str	s0, [x0, w4, sxtw 2]
b	.L21
.L90:                                         ## =>This Inner Loop Header: Depth=1
ldr	x0, [x29, -32]
ldr	w4, [x29, -36]
ldr	s0, [x0, w4, sxtw 2]
str	w4, [x29, -24]
ldr	x0, [x29, -32]
ldr	w4, [x29, -24]
add	w4, w4, 1
str	s0, [x0, w4, sxtw 2]
ldr	x0, [x29, -32]
ldr	w4, [x29, -36]
ldr	s0, [x0, w4, sxtw 2]
str	s0, [x29, -16]
ldr	w4, [x29, -24]
add	w4, w4, 1
str	s0, [x0, w4, sxtw 2]
b	.L21
.L91:                                         ## =>This Inner Loop Header: Depth=1
ldr	x0, [x29, -32]
ldr	w4, [x29, -36]
ldr	s0, [x0, w4, sxtw 2]
str	w4, [x29, -24]
ldr	x0, [x29, -32]
ldr	w4, [x29, -24]
add	w4, w4, 1
str	s0, [x0, w4, sxtw 2]
ldr	x0, [x29, -32]
ldr	w4, [x29, -36]
ldr	s0, [x0, w4, sxtw 2]
str	s0, [x29, -16]
ldr	w4, [x29, -24]
add	w4, w4, 1
str	s0, [x0, w4, sxtw 2]
b	.L21
.L92:                                         ## =>This Inner Loop Header: Depth=1
ldr	x0, [x29, -32]
ldr	w4, [x29, -36]
ldr	s0, [x0, w4, sxtw 2]
str	w4, [x29, -24]
ldr	x0, [x29, -32]
ldr	w4, [x29, -24]
add	w4, w4, 1
str	s0, [x0, w4, sxtw 2]
ldr	x0, [x29, -32]
ldr	w4, [x29, -36]
ldr	s0, [x0, w4, sxtw 2]
str	s0, [x29, -16]
ldr	w4, [x29, -24]
add	w4, w4, 1
str	s0, [x0, w4, sxtw 2]
b	.L21
.L93:                                         ## =>This Inner Loop Header: Depth=1
ldr	x0, [x29, -32]
ldr	w4, [x29, -36]
ldr	s0, [x0, w4, sxtw 2]
str	w4, [x29, -24]
ldr	x0, [x29, -32]
ldr	w4, [x29, -24]
add	w4, w4, 1
str	s0, [x0, w4, sxtw 2]
ldr	x0, [x29, -32]
ldr	w4, [x29, -36]
ldr	s0, [x0, w4, sxtw 2]
str	s0, [x29, -16]
ldr	w4, [x29, -24]
add	w4, w4, 1
str	s0, [x0, w4, sxtw 2]
b	.L21
.L94:                                         ## =>This Inner Loop Header: Depth=1
ldr	x0, [x29, -32]
ldr	w4, [x29, -36]
ldr	s0, [x0, w4, sxtw 2]
str	w4, [x29, -24]
ldr	x0, [x29, -32]
ldr	w4, [x29, -24]
add	w4, w4, 1
str	s0, [x0, w4, sxtw 2]
ldr	x0, [x29, -32]
ldr	w4, [x29, -36]
ldr	s0, [x0, w4, sxtw 2]
str	s0, [x29, -16]
ldr	w4, [x29, -24]
add	w4, w4, 1
str	s0, [x0, w4, sxtw 2]
b	.L21
.L95:                                         ## =>This Inner Loop Header: Depth=1
ldr	x0, [x29, -32]
ldr	w4, [x29, -36]
ldr	s0, [x0, w4, sxtw 2]
str	w4, [x29, -24]
ldr	x0, [x29, -32]
ldr	w4, [x29, -24]
add	w4, w4, 1
str	s0, [x0, w4, sxtw 2]
ldr	x0, [x29, -32]
ldr	w4, [x29, -36]
ldr	s0, [x0, w4, sxtw 2]
str	s0, [x29, -16]
ldr	w4, [x29, -24]
add	w4, w4, 1
str	s0, [x0, w4, sxtw 2]
b	.L21
.L96:                                         ## =>This Inner Loop Header: Depth=1
ldr	x0, [x29, -32]
ldr	w4, [x29, -36]
ldr	s0, [x0, w4, sxtw 2]
str	w4, [x29, -24]
ldr	x0, [x29, -32]
ldr	w4, [x29, -24]
add	w4, w4, 1
str	s0, [x0, w4, sxtw 2]
ldr	x0, [x29, -32]
ldr	w4, [x29, -36]
ldr	s0, [x0, w4, sxtw 2]
str	s0, [x29, -16]
ldr	w4, [x29, -24]
add	w4, w4, 1
str	s0, [x0, w4, sxtw 2]
b	.L21
.L97:                                         ## =>This Inner Loop Header: Depth=1
ldr	x0, [x29, -32]
ldr	w4, [x29, -36]
ldr	s0, [x0, w4, sxtw 2]
str	w4, [x29, -24]
ldr	x0, [x29, -32]
ldr	w4, [x29, -24]
add	w4, w4, 1
str	s0, [x0, w4, sxtw 2]
ldr	x0, [x29, -32]
ldr	w4, [x29, -36]
ldr	s0, [x0, w4, sxtw 2]
str	s0, [x29, -16]
ldr	w4, [x29, -24]
add	w4, w4, 1
str	s0, [x0, w4, sxtw 2]
b	.L21
.L98:                                         ## =>This Inner Loop Header: Depth=1
ldr	x0, [x29, -32]
ldr	w4, [x29, -36]
ldr	s0, [x0, w4, sxtw 2]
str	w4, [x29, -24]
ldr	x0, [x29, -32]
ldr	w4, [x29, -24]
add	w4, w4, 1
str	s0, [x0, w4, sxtw 2]
ldr	x0, [x29, -32]
ldr	w4, [x29, -36]
ldr	s0, [x0, w4, sxtw 2]
str	s0, [x29, -16]
ldr	w4, [x29, -24]
add	w4, w4, 1
str	s0, [x0, w4, sxtw 2]
b	.L21
.L99:                                         ## =>This Inner Loop Header: Depth=1
ldr	x0, [x29, -32]
ldr	w4, [x29, -36]
ldr	s0, [x0, w4, sxtw 2]
str	w4, [x29, -24]
ldr	x0, [x29, -32]
ldr	w4, [x29, -24]
add	w4, w4, 1
str	s0, [x0, w4, sxtw 2]
ldr	x0, [x29, -32]
ldr	w4, [x29, -36]
ldr	s0, [x0, w4, sxtw 2]
str	s0, [x29, -16]
ldr	w4, [x29, -24]
add	w4, w4, 1
str	s0, [x0, w4, sxtw 2]
b	.L21
.L100:                                    ## =>This Inner Loop Header: Depth=1
ldr	x0, [x29, -32]
ldr	w4, [x29, -36]
ldr	s0, [x0, w4, sxtw 2]
str	w4, [x29, -24]
ldr	x0, [x29, -32]
ldr	w4, [x29, -24]
add	w4, w4, 1
str	s0, [x0, w4, sxtw 2]
ldr	x0, [x29, -32]
ldr	w4, [x29, -36]
ldr	s0, [x0, w4, sxtw 2]
str	s0, [x29, -16]
ldr	w4, [x29, -24]
add	w4, w4, 1
str	s0, [x0, w4, sxtw 2]
b	.L21
.L101:                                   ## =>This Inner Loop Header: Depth=1
ldr	x0, [x29, -32]
ldr	w4, [x29, -36]
ldr	s0, [x0, w4, sxtw 2]
str	w4, [x29, -24]
ldr	x0, [x29, -32]
ldr	w4, [x29, -24]
add	w4, w4, 1
str	s0, [x0, w4, sxtw 2]
ldr	x0, [x29, -32]
ldr	w4, [x29, -36]
ldr	s0, [x0, w4, sxtw 2]
str	s0, [x29, -16]
ldr	w4, [x29, -24]
add	w4, w4, 1
str	s0, [x0, w4, sxtw 2]
b	.L21
.L102:                                   ## =>This Inner Loop Header: Depth=1
ldr	x0, [x29, -32]
ldr	w4, [x29, -36]
ldr	s0, [x0, w4, sxtw 2]
str	w4, [x29, -24]
ldr	x0, [x29, -32]
ldr	w4, [x29, -24]
add	w4, w4, 1
str	s0, [x0, w4, sxtw 2]
ldr	x0, [x29, -32]
ldr	w4, [x29, -36]
ldr	s0, [x0, w4, sxtw 2]
str	s0, [x29, -16]
ldr	w4, [x29, -24]
add	w4, w4, 1
str	s0, [x0, w4, sxtw 2]
b	.L21
.L103:                                   ## =>This Inner Loop Header: Depth=1
ldr	x0, [x29, -32]
ldr	w4, [x29, -36]
ldr	s0, [x0, w4, sxtw 2]
str	w4, [x29, -24]
ldr	x0, [x29, -32]
ldr	w4, [x29, -24]
add	w4, w4, 1
str	s0, [x0, w4, sxtw 2]
ldr	x0, [x29, -32]
ldr	w4, [x29, -36]
ldr	s0, [x0, w4, sxtw 2]
str	s0, [x29, -16]
ldr	w4, [x29, -24]
add	w4, w4, 1
str	s0, [x0, w4, sxtw 2]
b	.L21
.L104:                                   ## =>This Inner Loop Header: Depth=1
ldr	x0, [x29, -32]
ldr	w4, [x29, -36]
ldr	s0, [x0, w4, sxtw 2]
str	w4, [x29, -24]
ldr	x0, [x29, -32]
ldr	w4, [x29, -24]
add	w4, w4, 1
str	s0, [x0, w4, sxtw 2]
ldr	x0, [x29, -32]
ldr	w4, [x29, -36]
ldr	s0, [x0, w4, sxtw 2]
str	s0, [x29, -16]
ldr	w4, [x29, -24]
add	w4, w4, 1
str	s0, [x0, w4, sxtw 2]
b	.L21
.L105:                                   ## =>This Inner Loop Header: Depth=1
ldr	x0, [x29, -32]
ldr	w4, [x29, -36]
ldr	s0, [x0, w4, sxtw 2]
str	w4, [x29, -24]
ldr	x0, [x29, -32]
ldr	w4, [x29, -24]
add	w4, w4, 1
str	s0, [x0, w4, sxtw 2]
ldr	x0, [x29, -32]
ldr	w4, [x29, -36]
ldr	s0, [x0, w4, sxtw 2]
str	s0, [x29, -16]
ldr	w4, [x29, -24]
add	w4, w4, 1
str	s0, [x0, w4, sxtw 2]
b	.L21
.L106:                                   ## =>This Inner Loop Header: Depth=1
ldr	x0, [x29, -32]
ldr	w4, [x29, -36]
ldr	s0, [x0, w4, sxtw 2]
str	w4, [x29, -24]
ldr	x0, [x29, -32]
ldr	w4, [x29, -24]
add	w4, w4, 1
str	s0, [x0, w4, sxtw 2]
ldr	x0, [x29, -32]
ldr	w4, [x29, -36]
ldr	s0, [x0, w4, sxtw 2]
str	s0, [x29, -16]
ldr	w4, [x29, -24]
add	w4, w4, 1
str	s0, [x0, w4, sxtw 2]
b	.L21
.L107:                                   ## =>This Inner Loop Header: Depth=1
ldr	x0, [x29, -32]
ldr	w4, [x29, -36]
ldr	s0, [x0, w4, sxtw 2]
str	w4, [x29, -24]
ldr	x0, [x29, -32]
ldr	w4, [x29, -24]
add	w4, w4, 1
str	s0, [x0, w4, sxtw 2]
ldr	x0, [x29, -32]
ldr	w4, [x29, -36]
ldr	s0, [x0, w4, sxtw 2]
str	s0, [x29, -16]
ldr	w4, [x29, -24]
add	w4, w4, 1
str	s0, [x0, w4, sxtw 2]
b	.L21
.L108:                                   ## =>This Inner Loop Header: Depth=1
ldr	x0, [x29, -32]
ldr	w4, [x29, -36]
ldr	s0, [x0, w4, sxtw 2]
str	w4, [x29, -24]
ldr	x0, [x29, -32]
ldr	w4, [x29, -24]
add	w4, w4, 1
str	s0, [x0, w4, sxtw 2]
ldr	x0, [x29, -32]
ldr	w4, [x29, -36]
ldr	s0, [x0, w4, sxtw 2]
str	s0, [x29, -16]
ldr	w4, [x29, -24]
add	w4, w4, 1
str	s0, [x0, w4, sxtw 2]
b	.L21
.L109:                                   ## =>This Inner Loop Header: Depth=1
ldr	x0, [x29, -32]
ldr	w4, [x29, -36]
ldr	s0, [x0, w4, sxtw 2]
str	w4, [x29, -24]
ldr	x0, [x29, -32]
ldr	w4, [x29, -24]
add	w4, w4, 1
str	s0, [x0, w4, sxtw 2]
ldr	x0, [x29, -32]
ldr	w4, [x29, -36]
ldr	s0, [x0, w4, sxtw 2]
str	s0, [x29, -16]
ldr	w4, [x29, -24]
add	w4, w4, 1
str	s0, [x0, w4, sxtw 2]
b	.L21
.L110:                                  ## =>This Inner Loop Header: Depth=1
ldr	x0, [x29, -32]
ldr	w4, [x29, -36]
ldr	s0, [x0, w4, sxtw 2]
str	w4, [x29, -24]
ldr	x0, [x29, -32]
ldr	w4, [x29, -24]
add	w4, w4, 1
str	s0, [x0, w4, sxtw 2]
ldr	x0, [x29, -32]
ldr	w4, [x29, -36]
ldr	s0, [x0, w4, sxtw 2]
str	s0, [x29, -16]
ldr	w4, [x29, -24]
add	w4, w4, 1
str	s0, [x0, w4, sxtw 2]
b	.L21
.L111:                                   ## =>This Inner Loop Header: Depth=1
ldr	x0, [x29, -32]
ldr	w4, [x29, -36]
ldr	s0, [x0, w4, sxtw 2]
str	w4, [x29, -24]
ldr	x0, [x29, -32]
ldr	w4, [x29, -24]
add	w4, w4, 1
str	s0, [x0, w4, sxtw 2]
ldr	x0, [x29, -32]
ldr	w4, [x29, -36]
ldr	s0, [x0, w4, sxtw 2]
str	s0, [x29, -16]
ldr	w4, [x29, -24]
add	w4, w4, 1
str	s0, [x0, w4, sxtw 2]
b	.L21
.L112:                                   ## =>This Inner Loop Header: Depth=1
ldr	x0, [x29, -32]
ldr	w4, [x29, -36]
ldr	s0, [x0, w4, sxtw 2]
str	w4, [x29, -24]
ldr	x0, [x29, -32]
ldr	w4, [x29, -24]
add	w4, w4, 1
str	s0, [x0, w4, sxtw 2]
ldr	x0, [x29, -32]
ldr	w4, [x29, -36]
ldr	s0, [x0, w4, sxtw 2]
str	s0, [x29, -16]
ldr	w4, [x29, -24]
add	w4, w4, 1
str	s0, [x0, w4, sxtw 2]
b	.L21
.L113:                                   ## =>This Inner Loop Header: Depth=1
ldr	x0, [x29, -32]
ldr	w4, [x29, -36]
ldr	s0, [x0, w4, sxtw 2]
str	w4, [x29, -24]
ldr	x0, [x29, -32]
ldr	w4, [x29, -24]
add	w4, w4, 1
str	s0, [x0, w4, sxtw 2]
ldr	x0, [x29, -32]
ldr	w4, [x29, -36]
ldr	s0, [x0, w4, sxtw 2]
str	s0, [x29, -16]
ldr	w4, [x29, -24]
add	w4, w4, 1
str	s0, [x0, w4, sxtw 2]
b	.L21
.L114:                                   ## =>This Inner Loop Header: Depth=1
ldr	x0, [x29, -32]
ldr	w4, [x29, -36]
ldr	s0, [x0, w4, sxtw 2]
str	w4, [x29, -24]
ldr	x0, [x29, -32]
ldr	w4, [x29, -24]
add	w4, w4, 1
str	s0, [x0, w4, sxtw 2]
ldr	x0, [x29, -32]
ldr	w4, [x29, -36]
ldr	s0, [x0, w4, sxtw 2]
str	s0, [x29, -16]
ldr	w4, [x29, -24]
add	w4, w4, 1
str	s0, [x0, w4, sxtw 2]
b	.L21
.L115:                                   ## =>This Inner Loop Header: Depth=1
ldr	x0, [x29, -32]
ldr	w4, [x29, -36]
ldr	s0, [x0, w4, sxtw 2]
str	w4, [x29, -24]
ldr	x0, [x29, -32]
ldr	w4, [x29, -24]
add	w4, w4, 1
str	s0, [x0, w4, sxtw 2]
ldr	x0, [x29, -32]
ldr	w4, [x29, -36]
ldr	s0, [x0, w4, sxtw 2]
str	s0, [x29, -16]
ldr	w4, [x29, -24]
add	w4, w4, 1
str	s0, [x0, w4, sxtw 2]
b	.L21
.L116:                                   ## =>This Inner Loop Header: Depth=1
ldr	x0, [x29, -32]
ldr	w4, [x29, -36]
ldr	s0, [x0, w4, sxtw 2]
str	w4, [x29, -24]
ldr	x0, [x29, -32]
ldr	w4, [x29, -24]
add	w4, w4, 1
str	s0, [x0, w4, sxtw 2]
ldr	x0, [x29, -32]
ldr	w4, [x29, -36]
ldr	s0, [x0, w4, sxtw 2]
str	s0, [x29, -16]
ldr	w4, [x29, -24]
add	w4, w4, 1
str	s0, [x0, w4, sxtw 2]
b	.L21
.L117:                                   ## =>This Inner Loop Header: Depth=1
ldr	x0, [x29, -32]
ldr	w4, [x29, -36]
ldr	s0, [x0, w4, sxtw 2]
str	w4, [x29, -24]
ldr	x0, [x29, -32]
ldr	w4, [x29, -24]
add	w4, w4, 1
str	s0, [x0, w4, sxtw 2]
ldr	x0, [x29, -32]
ldr	w4, [x29, -36]
ldr	s0, [x0, w4, sxtw 2]
str	s0, [x29, -16]
ldr	w4, [x29, -24]
add	w4, w4, 1
str	s0, [x0, w4, sxtw 2]
b	.L21
.L118:                                   ## =>This Inner Loop Header: Depth=1
ldr	x0, [x29, -32]
ldr	w4, [x29, -36]
ldr	s0, [x0, w4, sxtw 2]
str	w4, [x29, -24]
ldr	x0, [x29, -32]
ldr	w4, [x29, -24]
add	w4, w4, 1
str	s0, [x0, w4, sxtw 2]
ldr	x0, [x29, -32]
ldr	w4, [x29, -36]
ldr	s0, [x0, w4, sxtw 2]
str	s0, [x29, -16]
ldr	w4, [x29, -24]
add	w4, w4, 1
str	s0, [x0, w4, sxtw 2]
b	.L21
.L119:                                   ## =>This Inner Loop Header: Depth=1
ldr	x0, [x29, -32]
ldr	w4, [x29, -36]
ldr	s0, [x0, w4, sxtw 2]
str	w4, [x29, -24]
ldr	x0, [x29, -32]
ldr	w4, [x29, -24]
add	w4, w4, 1
str	s0, [x0, w4, sxtw 2]
ldr	x0, [x29, -32]
ldr	w4, [x29, -36]
ldr	s0, [x0, w4, sxtw 2]
str	s0, [x29, -16]
ldr	w4, [x29, -24]
add	w4, w4, 1
str	s0, [x0, w4, sxtw 2]
b	.L21
.L120:                                  ## =>This Inner Loop Header: Depth=1
ldr	x0, [x29, -32]
ldr	w4, [x29, -36]
ldr	s0, [x0, w4, sxtw 2]
str	w4, [x29, -24]
ldr	x0, [x29, -32]
ldr	w4, [x29, -24]
add	w4, w4, 1
str	s0, [x0, w4, sxtw 2]
ldr	x0, [x29, -32]
ldr	w4, [x29, -36]
ldr	s0, [x0, w4, sxtw 2]
str	s0, [x29, -16]
ldr	w4, [x29, -24]
add	w4, w4, 1
str	s0, [x0, w4, sxtw 2]
b	.L21
.L121:                                   ## =>This Inner Loop Header: Depth=1
ldr	x0, [x29, -32]
ldr	w4, [x29, -36]
ldr	s0, [x0, w4, sxtw 2]
str	w4, [x29, -24]
ldr	x0, [x29, -32]
ldr	w4, [x29, -24]
add	w4, w4, 1
str	s0, [x0, w4, sxtw 2]
ldr	x0, [x29, -32]
ldr	w4, [x29, -36]
ldr	s0, [x0, w4, sxtw 2]
str	s0, [x29, -16]
ldr	w4, [x29, -24]
add	w4, w4, 1
str	s0, [x0, w4, sxtw 2]
b	.L21
.L122:                                   ## =>This Inner Loop Header: Depth=1
ldr	x0, [x29, -32]
ldr	w4, [x29, -36]
ldr	s0, [x0, w4, sxtw 2]
str	w4, [x29, -24]
ldr	x0, [x29, -32]
ldr	w4, [x29, -24]
add	w4, w4, 1
str	s0, [x0, w4, sxtw 2]
ldr	x0, [x29, -32]
ldr	w4, [x29, -36]
ldr	s0, [x0, w4, sxtw 2]
str	s0, [x29, -16]
ldr	w4, [x29, -24]
add	w4, w4, 1
str	s0, [x0, w4, sxtw 2]
b	.L21
.L123:                                   ## =>This Inner Loop Header: Depth=1
ldr	x0, [x29, -32]
ldr	w4, [x29, -36]
ldr	s0, [x0, w4, sxtw 2]
str	w4, [x29, -24]
ldr	x0, [x29, -32]
ldr	w4, [x29, -24]
add	w4, w4, 1
str	s0, [x0, w4, sxtw 2]
ldr	x0, [x29, -32]
ldr	w4, [x29, -36]
ldr	s0, [x0, w4, sxtw 2]
str	s0, [x29, -16]
ldr	w4, [x29, -24]
add	w4, w4, 1
str	s0, [x0, w4, sxtw 2]
b	.L21
.L124:                                   ## =>This Inner Loop Header: Depth=1
ldr	x0, [x29, -32]
ldr	w4, [x29, -36]
ldr	s0, [x0, w4, sxtw 2]
str	w4, [x29, -24]
ldr	x0, [x29, -32]
ldr	w4, [x29, -24]
add	w4, w4, 1
str	s0, [x0, w4, sxtw 2]
ldr	x0, [x29, -32]
ldr	w4, [x29, -36]
ldr	s0, [x0, w4, sxtw 2]
str	s0, [x29, -16]
ldr	w4, [x29, -24]
add	w4, w4, 1
str	s0, [x0, w4, sxtw 2]
b	.L21
.L125:                                   ## =>This Inner Loop Header: Depth=1
ldr	x0, [x29, -32]
ldr	w4, [x29, -36]
ldr	s0, [x0, w4, sxtw 2]
str	w4, [x29, -24]
ldr	x0, [x29, -32]
ldr	w4, [x29, -24]
add	w4, w4, 1
str	s0, [x0, w4, sxtw 2]
ldr	x0, [x29, -32]
ldr	w4, [x29, -36]
ldr	s0, [x0, w4, sxtw 2]
str	s0, [x29, -16]
ldr	w4, [x29, -24]
add	w4, w4, 1
str	s0, [x0, w4, sxtw 2]
b	.L21
.L126:                                   ## =>This Inner Loop Header: Depth=1
ldr	x0, [x29, -32]
ldr	w4, [x29, -36]
ldr	s0, [x0, w4, sxtw 2]
str	w4, [x29, -24]
ldr	x0, [x29, -32]
ldr	w4, [x29, -24]
add	w4, w4, 1
str	s0, [x0, w4, sxtw 2]
ldr	x0, [x29, -32]
ldr	w4, [x29, -36]
ldr	s0, [x0, w4, sxtw 2]
str	s0, [x29, -16]
ldr	w4, [x29, -24]
add	w4, w4, 1
str	s0, [x0, w4, sxtw 2]
b	.L21
.L127:                                   ## =>This Inner Loop Header: Depth=1
ldr	x0, [x29, -32]
ldr	w4, [x29, -36]
ldr	s0, [x0, w4, sxtw 2]
str	w4, [x29, -24]
ldr	x0, [x29, -32]
ldr	w4, [x29, -24]
add	w4, w4, 1
str	s0, [x0, w4, sxtw 2]
ldr	x0, [x29, -32]
ldr	w4, [x29, -36]
ldr	s0, [x0, w4, sxtw 2]
str	s0, [x29, -16]
ldr	w4, [x29, -24]
add	w4, w4, 1
str	s0, [x0, w4, sxtw 2]
b	.L21
.L128:                                   ## =>This Inner Loop Header: Depth=1
ldr	x0, [x29, -32]
ldr	w4, [x29, -36]
ldr	s0, [x0, w4, sxtw 2]
str	w4, [x29, -24]
ldr	x0, [x29, -32]
ldr	w4, [x29, -24]
add	w4, w4, 1
str	s0, [x0, w4, sxtw 2]
ldr	x0, [x29, -32]
ldr	w4, [x29, -36]
ldr	s0, [x0, w4, sxtw 2]
str	s0, [x29, -16]
ldr	w4, [x29, -24]
add	w4, w4, 1
str	s0, [x0, w4, sxtw 2]
b	.L21
.L129:                                   ## =>This Inner Loop Header: Depth=1
ldr	x0, [x29, -32]
ldr	w4, [x29, -36]
ldr	s0, [x0, w4, sxtw 2]
str	w4, [x29, -24]
ldr	x0, [x29, -32]
ldr	w4, [x29, -24]
add	w4, w4, 1
str	s0, [x0, w4, sxtw 2]
ldr	x0, [x29, -32]
ldr	w4, [x29, -36]
ldr	s0, [x0, w4, sxtw 2]
str	s0, [x29, -16]
ldr	w4, [x29, -24]
add	w4, w4, 1
str	s0, [x0, w4, sxtw 2]
b	.L21
.L130:                                   ## =>This Inner Loop Header: Depth=1
ldr	x0, [x29, -32]
ldr	w4, [x29, -36]
ldr	s0, [x0, w4, sxtw 2]
str	w4, [x29, -24]
ldr	x0, [x29, -32]
ldr	w4, [x29, -24]
add	w4, w4, 1
str	s0, [x0, w4, sxtw 2]
ldr	x0, [x29, -32]
ldr	w4, [x29, -36]
ldr	s0, [x0, w4, sxtw 2]
str	s0, [x29, -16]
ldr	w4, [x29, -24]
add	w4, w4, 1
str	s0, [x0, w4, sxtw 2]
b	.L21
.L131:                                   ## =>This Inner Loop Header: Depth=1
ldr	x0, [x29, -32]
ldr	w4, [x29, -36]
ldr	s0, [x0, w4, sxtw 2]
str	w4, [x29, -24]
ldr	x0, [x29, -32]
ldr	w4, [x29, -24]
add	w4, w4, 1
str	s0, [x0, w4, sxtw 2]
ldr	x0, [x29, -32]
ldr	w4, [x29, -36]
ldr	s0, [x0, w4, sxtw 2]
str	s0, [x29, -16]
ldr	w4, [x29, -24]
add	w4, w4, 1
str	s0, [x0, w4, sxtw 2]
b	.L21
.L132:                                   ## =>This Inner Loop Header: Depth=1
ldr	x0, [x29, -32]
ldr	w4, [x29, -36]
ldr	s0, [x0, w4, sxtw 2]
str	w4, [x29, -24]
ldr	x0, [x29, -32]
ldr	w4, [x29, -24]
add	w4, w4, 1
str	s0, [x0, w4, sxtw 2]
ldr	x0, [x29, -32]
ldr	w4, [x29, -36]
ldr	s0, [x0, w4, sxtw 2]
str	s0, [x29, -16]
ldr	w4, [x29, -24]
add	w4, w4, 1
str	s0, [x0, w4, sxtw 2]
b	.L21
.L133:                                   ## =>This Inner Loop Header: Depth=1
ldr	x0, [x29, -32]
ldr	w4, [x29, -36]
ldr	s0, [x0, w4, sxtw 2]
str	w4, [x29, -24]
ldr	x0, [x29, -32]
ldr	w4, [x29, -24]
add	w4, w4, 1
str	s0, [x0, w4, sxtw 2]
ldr	x0, [x29, -32]
ldr	w4, [x29, -36]
ldr	s0, [x0, w4, sxtw 2]
str	s0, [x29, -16]
ldr	w4, [x29, -24]
add	w4, w4, 1
str	s0, [x0, w4, sxtw 2]
b	.L21
.L134:                                   ## =>This Inner Loop Header: Depth=1
ldr	x0, [x29, -32]
ldr	w4, [x29, -36]
ldr	s0, [x0, w4, sxtw 2]
str	w4, [x29, -24]
ldr	x0, [x29, -32]
ldr	w4, [x29, -24]
add	w4, w4, 1
str	s0, [x0, w4, sxtw 2]
ldr	x0, [x29, -32]
ldr	w4, [x29, -36]
ldr	s0, [x0, w4, sxtw 2]
str	s0, [x29, -16]
ldr	w4, [x29, -24]
add	w4, w4, 1
str	s0, [x0, w4, sxtw 2]
b	.L21
.L135:                                   ## =>This Inner Loop Header: Depth=1
ldr	x0, [x29, -32]
ldr	w4, [x29, -36]
ldr	s0, [x0, w4, sxtw 2]
str	w4, [x29, -24]
ldr	x0, [x29, -32]
ldr	w4, [x29, -24]
add	w4, w4, 1
str	s0, [x0, w4, sxtw 2]
ldr	x0, [x29, -32]
ldr	w4, [x29, -36]
ldr	s0, [x0, w4, sxtw 2]
str	s0, [x29, -16]
ldr	w4, [x29, -24]
add	w4, w4, 1
str	s0, [x0, w4, sxtw 2]
b	.L21
.L136:                                   ## =>This Inner Loop Header: Depth=1
ldr	x0, [x29, -32]
ldr	w4, [x29, -36]
ldr	s0, [x0, w4, sxtw 2]
str	w4, [x29, -24]
ldr	x0, [x29, -32]
ldr	w4, [x29, -24]
add	w4, w4, 1
str	s0, [x0, w4, sxtw 2]
ldr	x0, [x29, -32]
ldr	w4, [x29, -36]
ldr	s0, [x0, w4, sxtw 2]
str	s0, [x29, -16]
ldr	w4, [x29, -24]
add	w4, w4, 1
str	s0, [x0, w4, sxtw 2]
b	.L21
.L137:                                   ## =>This Inner Loop Header: Depth=1
ldr	x0, [x29, -32]
ldr	w4, [x29, -36]
ldr	s0, [x0, w4, sxtw 2]
str	w4, [x29, -24]
ldr	x0, [x29, -32]
ldr	w4, [x29, -24]
add	w4, w4, 1
str	s0, [x0, w4, sxtw 2]
ldr	x0, [x29, -32]
ldr	w4, [x29, -36]
ldr	s0, [x0, w4, sxtw 2]
str	s0, [x29, -16]
ldr	w4, [x29, -24]
add	w4, w4, 1
str	s0, [x0, w4, sxtw 2]
b	.L21
.L138:                                   ## =>This Inner Loop Header: Depth=1
ldr	x0, [x29, -32]
ldr	w4, [x29, -36]
ldr	s0, [x0, w4, sxtw 2]
str	w4, [x29, -24]
ldr	x0, [x29, -32]
ldr	w4, [x29, -24]
add	w4, w4, 1
str	s0, [x0, w4, sxtw 2]
ldr	x0, [x29, -32]
ldr	w4, [x29, -36]
ldr	s0, [x0, w4, sxtw 2]
str	s0, [x29, -16]
ldr	w4, [x29, -24]
add	w4, w4, 1
str	s0, [x0, w4, sxtw 2]
b	.L21
.L139:                                   ## =>This Inner Loop Header: Depth=1
ldr	x0, [x29, -32]
ldr	w4, [x29, -36]
ldr	s0, [x0, w4, sxtw 2]
str	w4, [x29, -24]
ldr	x0, [x29, -32]
ldr	w4, [x29, -24]
add	w4, w4, 1
str	s0, [x0, w4, sxtw 2]
ldr	x0, [x29, -32]
ldr	w4, [x29, -36]
ldr	s0, [x0, w4, sxtw 2]
str	s0, [x29, -16]
ldr	w4, [x29, -24]
add	w4, w4, 1
str	s0, [x0, w4, sxtw 2]
b	.L21
.L140:                                   ## =>This Inner Loop Header: Depth=1
ldr	x0, [x29, -32]
ldr	w4, [x29, -36]
ldr	s0, [x0, w4, sxtw 2]
str	w4, [x29, -24]
ldr	x0, [x29, -32]
ldr	w4, [x29, -24]
add	w4, w4, 1
str	s0, [x0, w4, sxtw 2]
ldr	x0, [x29, -32]
ldr	w4, [x29, -36]
ldr	s0, [x0, w4, sxtw 2]
str	s0, [x29, -16]
ldr	w4, [x29, -24]
add	w4, w4, 1
str	s0, [x0, w4, sxtw 2]
b	.L21
.L141:                                   ## =>This Inner Loop Header: Depth=1
ldr	x0, [x29, -32]
ldr	w4, [x29, -36]
ldr	s0, [x0, w4, sxtw 2]
str	w4, [x29, -24]
ldr	x0, [x29, -32]
ldr	w4, [x29, -24]
add	w4, w4, 1
str	s0, [x0, w4, sxtw 2]
ldr	x0, [x29, -32]
ldr	w4, [x29, -36]
ldr	s0, [x0, w4, sxtw 2]
str	s0, [x29, -16]
ldr	w4, [x29, -24]
add	w4, w4, 1
str	s0, [x0, w4, sxtw 2]
b	.L21
.L142:                                   ## =>This Inner Loop Header: Depth=1
ldr	x0, [x29, -32]
ldr	w4, [x29, -36]
ldr	s0, [x0, w4, sxtw 2]
str	w4, [x29, -24]
ldr	x0, [x29, -32]
ldr	w4, [x29, -24]
add	w4, w4, 1
str	s0, [x0, w4, sxtw 2]
ldr	x0, [x29, -32]
ldr	w4, [x29, -36]
ldr	s0, [x0, w4, sxtw 2]
str	s0, [x29, -16]
ldr	w4, [x29, -24]
add	w4, w4, 1
str	s0, [x0, w4, sxtw 2]
b	.L21
.L143:                                   ## =>This Inner Loop Header: Depth=1
ldr	x0, [x29, -32]
ldr	w4, [x29, -36]
ldr	s0, [x0, w4, sxtw 2]
str	w4, [x29, -24]
ldr	x0, [x29, -32]
ldr	w4, [x29, -24]
add	w4, w4, 1
str	s0, [x0, w4, sxtw 2]
ldr	x0, [x29, -32]
ldr	w4, [x29, -36]
ldr	s0, [x0, w4, sxtw 2]
str	s0, [x29, -16]
ldr	w4, [x29, -24]
add	w4, w4, 1
str	s0, [x0, w4, sxtw 2]
b	.L21
.L144:                                   ## =>This Inner Loop Header: Depth=1
ldr	x0, [x29, -32]
ldr	w4, [x29, -36]
ldr	s0, [x0, w4, sxtw 2]
str	w4, [x29, -24]
ldr	x0, [x29, -32]
ldr	w4, [x29, -24]
add	w4, w4, 1
str	s0, [x0, w4, sxtw 2]
ldr	x0, [x29, -32]
ldr	w4, [x29, -36]
ldr	s0, [x0, w4, sxtw 2]
str	s0, [x29, -16]
ldr	w4, [x29, -24]
add	w4, w4, 1
str	s0, [x0, w4, sxtw 2]
b	.L21
.L145:                                   ## =>This Inner Loop Header: Depth=1
ldr	x0, [x29, -32]
ldr	w4, [x29, -36]
ldr	s0, [x0, w4, sxtw 2]
str	w4, [x29, -24]
ldr	x0, [x29, -32]
ldr	w4, [x29, -24]
add	w4, w4, 1
str	s0, [x0, w4, sxtw 2]
ldr	x0, [x29, -32]
ldr	w4, [x29, -36]
ldr	s0, [x0, w4, sxtw 2]
str	s0, [x29, -16]
ldr	w4, [x29, -24]
add	w4, w4, 1
str	s0, [x0, w4, sxtw 2]
b	.L21
.L146:                                   ## =>This Inner Loop Header: Depth=1
ldr	x0, [x29, -32]
ldr	w4, [x29, -36]
ldr	s0, [x0, w4, sxtw 2]
str	w4, [x29, -24]
ldr	x0, [x29, -32]
ldr	w4, [x29, -24]
add	w4, w4, 1
str	s0, [x0, w4, sxtw 2]
ldr	x0, [x29, -32]
ldr	w4, [x29, -36]
ldr	s0, [x0, w4, sxtw 2]
str	s0, [x29, -16]
ldr	w4, [x29, -24]
add	w4, w4, 1
str	s0, [x0, w4, sxtw 2]
b	.L21
.L147:                                   ## =>This Inner Loop Header: Depth=1
ldr	x0, [x29, -32]
ldr	w4, [x29, -36]
ldr	s0, [x0, w4, sxtw 2]
str	w4, [x29, -24]
ldr	x0, [x29, -32]
ldr	w4, [x29, -24]
add	w4, w4, 1
str	s0, [x0, w4, sxtw 2]
ldr	x0, [x29, -32]
ldr	w4, [x29, -36]
ldr	s0, [x0, w4, sxtw 2]
str	s0, [x29, -16]
ldr	w4, [x29, -24]
add	w4, w4, 1
str	s0, [x0, w4, sxtw 2]
b	.L21
.L148:                                   ## =>This Inner Loop Header: Depth=1
ldr	x0, [x29, -32]
ldr	w4, [x29, -36]
ldr	s0, [x0, w4, sxtw 2]
str	w4, [x29, -24]
ldr	x0, [x29, -32]
ldr	w4, [x29, -24]
add	w4, w4, 1
str	s0, [x0, w4, sxtw 2]
ldr	x0, [x29, -32]
ldr	w4, [x29, -36]
ldr	s