.arch armv8-a
.file     .tapfile/__TEXT/__text
.align	2
.global	_func0
.section	__TEXT,__text,regular,pure_instructions
    .globl	_func0
    .p2align	2,,3
_func0:                             ## @func0
    cfi_startproc
stp	x29, x30, [sp, -32]!
.cfi_def_cfa_offset 32
.cfi_offset 29, -32
.cfi_offset 30, -24
mov	x29, sp
.cfi_def_cfa_register 29
str	x0, [x29, -32]
ldr	x0, [x29, -32]
bl	xstrlen
cmp	x0, 3
bhi	.LB3
strb	wzr, [x29, -1]
b	.L3
.LB3:
str	x19, [sp, 16]
.cfi_offset 19, -16
sub	x19, x29,
str	w0, [x19, -24]
ldr	x0, [x19, -32]
bl	xstrlen
ldrsw	x1, [x19, -24]
ldr	x2, [x19, -32]
cmp	x1, x0
bhi	.LC0
ldr	x0, [x19, -32]
ldrsw	x1, [x19, -24]
ldrb	w0, [x0, x1]
ldr	x1, [x19, -32]
ldrb	w1, [x1, w0, sxtw]
subs	w1, w1,
ccmp	w0, w1, 4, ne
beq	.L8
.L5:
ldr	x0, [x19, -32]
ldrsw	x1, [x19, -24]
ldrb	w0, [x0, x1]
ldr	x1, [x19, -32]
ldrb	w1, [x1, w0, sxtw]
cbnz	w0, .L9
strb	wzr, [x19, -1]
.L3:
ldr	x19, [sp, 16]
.cfi_restore 19
.L10:
and	w0, w0, 1
ldp	x29, x30, [sp], 32
.cfi_remember_state
.cfi_restore 30
.cfi_restore 29
.cfi_def_cfa_offset 0
ret
.L8:
.cfi_restore_state
strb	wzr, [x19, -1]
ldr	x19, [sp, 16]
.cfi_remember_state
.cfi_restore 19
b	.L10
.L9:
.cfi_restore_state
ldr	x0, [x19, -32]
ldrsw	x1, [x19, -24]
ldrb	w0, [x0, x1]
ldr	x1, [x19, -32]
ldrb	w1, [x1, w0, sxtw]
bne	.L5
add	w0, w1, 1
str	w0, [x19, -24]
ldr	x19, [sp, 16]
.cfi_restore 19
b	.L3
    .cfi_endproc
    .section	__TEXT,__data,text
    .global	_func0
    .data
    .LC0:
    .word	1
```
This translates the original x86 assembly code into ARM assembly for a 64-bit architecture like AArch64. The changes include using ARM-specific instructions and syntax while maintaining the overall structure of the code.