.arch armv8-a
.file	__TEXT,__text,regular,pure_instructions
.align	2
.sp	32
.global	_func0                          ## -- Begin function func0
.section	__TEXT,__text,regular,pure_instructions
	.build_version macos, 13, 0	sdk_version 13, 3
	.global	_func0
	.align	2
.p2align	4,,11
_func0:                                 ## @func0
	.cfi_startproc
stp	x29, x30, [sp, -48]!
.cfi_def_cfa_offset 48
.cfi_offset 29, -48
.cfi_offset 30, -40
mov	x29, sp
.cfi_def_cfa_register 29
str	x19, [sp, 16]
.cfi_offset 19, -32
add	x19, sp, 40
.cfi_offset 19, -32
ldr	w4, [x0], 8
str	x0, [x19, -8]
str	w4, [x19, -12]
cmp	w4, 0
str	x2, [x19, -24]
str	x3, [x19, -32]
cset	w0, eq
csel	w0, w0, wzr, ne
cbnz	w0, .L3
.L6:
ldrsw	x0, [x19, -12]
ubfiz	x0, x0, 2, 32
bl	_malloc
ldr	x1, [x19, -24]
ldr	x2, [x1]
str	x0, [x1]
cbnz	x2, .L4
.L8:
mov	w0, 1
bl	_exit
.L4:
str	wzr, [x19, -36]
.L5:
ldp	w2, w0, [x19, -12]
cmp	w2, w0
bge	.L9
.L10:
ldr	x0, [x19, -8]
ldrsw	x2, [x19, -36]
ldr	x0, [x0]
ldrsw	x2, [x19, -36]
str	w2, [x0, x2, lsl 2]
b	.L5
.L9:
ldr	x1, [x19, -8]
sub	w4, w4,
ldr	w3, [x19, -12]
sxtw	x4, w4
add	w2, w3, w4, sxtw 2
sdiv	w0, w2, w4
msub	w0, w0, w4, w2
cmp	w0, 0
csetm	w0, eq
stp	w0, wzr, [x19, -40]
.L12:
ldr	w2, [x19, -44]
ldr	w0, [x19, -12]
add	w2, w2, 1
str	w2, [x19, -44]
cmp	w0, w2
ble	.L14
.L15:
ldr	x0, [x19, -24]
ldr	x2, [x0]
ldrsw	x0, [x19, -44]
ldr	x2, [x2]
ldrsw	x0, [x19, -48]
ldrsw	x2, [x2, x0, lsl 2]
cmp	w2, w0
ble	.L16
ldr	x0, [x19, -24]
ldr	x2, [x0]
ldrsw	x0, [x19, -44]
ldr	x2, [x2]
ldrsw	x0, [x19, -48]
ldrsw	x2, [x2, x0, lsl 2]
cmp	w2, w0
ble	.L17
ldr	x0, [x19, -24]
ldr	x2, [x0]
ldrsw	x0, [x19, -44]
ldr	x2, [x2]
ldrsw	x0, [x19, -48]
ldrsw	x2, [x2, x0, lsl 2]
cmp	w2, w0
bgt	.L18
.L16:
ldr	x0, [x19, -24]
ldr	x2, [x0]
ldrsw	x0, [x19, -44]
ldr	x2, [x2]
ldrsw	x0, [x19, -48]
ldrsw	x2, [x2, x0, lsl 2]
cmp	w2, w0
bge	.L19
.L17:
ldr	x0, [x19, -24]
ldr	x2, [x0]
ldrsw	x0, [x19, -44]
ldr	x2, [x2]
ldrsw	x0, [x19, -48]
ldrsw	x2, [x2, x0, lsl 2]
cmp	w2, w0
blt	.L18
.L18:
ldr	x0, [x19, -24]
ldr	x2, [x0]
ldrsw	x0, [x19, -44]
ldr	x2, [x2]
ldrsw	x0, [x19, -48]
ldrsw	x2, [x2, x0, lsl 2]
.L14:
ldr	x1, [x19, -8]
ldr	x0, [x1]
ldrsw	x1, [x19, -44]
ldrsw	x0, [x0, x1, lsl 2]
str	w0, [x1, x1, lsl 2]
b	.L6
.L19:
ldr	x0, [x19, -24]
ldr	x2, [x0]
ldrsw	x0, [x19, -44]
ldr	x2, [x2]
ldrsw	x0, [x19, -48]
ldrsw	x2, [x2, x0, lsl 2]
cmp	w2, w0
ble	.L20
.L18:
ldr	x0, [x19, -24]
ldr	x2, [x0]
ldrsw	x0, [x19, -44]
ldr	x2, [x2]
ldrsw	x0, [x19, -48]
ldrsw	x2, [x2, x0, lsl 2]
b	.L14
.L20:
ldr	x0, [x19, -24]
ldr	x2, [x0]
ldrsw	x0, [x19, -44]
ldr	x2, [x2]
ldrsw	x0, [x19, -48]
ldrsw	x2, [x2, x0, lsl 2]
cmp	w2, w0
bgt	.L18
b	.L16
.L3:
ldr	x1, [x19, -8]
ldr	x2, [x1]
ldrsw	x1, [x19, -44]
ldr	x2, [x2]
ldrsw	x1, [x19, -48]
ldrsw	x2, [x2, x1, lsl 2]
cmp	w2, w0
blt	.L15
b	.L12
.L15:
ldr	x0, [x19, -24]
ldr	x2, [x0]
ldrsw	x0, [x19, -44]
ldr	x2, [x2]
ldrsw	x0, [x19, -48]
ldrsw	x2, [x2, x0, lsl 2]
cmp	w2, w0
bge	.L17
b	.L18
.L12:
ldr	x1, [x19, -8]
ldr	x0, [x1]
ldrsw	x1, [x19, -44]
ldr	x0, [x0, x1, lsl 2]
str	w0, [x1, x1, lsl 2]
b	.L6
.L16:
ldr	x0, [x19, -24]
ldr	x2, [x0]
ldrsw	x0, [x19, -44]
ldr	x2, [x2]
ldrsw	x0, [x19, -48]
ldrsw	x2, [x2, x0, lsl 2]
b	.L14
.L18:
ldr	x0, [x19, -24]
ldr	x2, [x0]
ldrsw	x0, [x19, -44]
ldr	x2, [x2]
ldrsw	x0, [x19, -48]
ldrsw	x2, [x2, x0, lsl 2]
b	.L12
.L17:
ldr	x0, [x19, -24]
ldr	x2, [x0]
ldrsw	x0, [x19, -44]
ldr	x2, [x2]
ldrsw	x0, [x19, -48]
ldrsw	x2, [x2, x0, lsl 2]
b	.L14
.L14:
ldr	x1, [x19, -8]
ldr	x0, [x1]
ldrsw	x1, [x19, -44]
ldr	x0, [x0, x1, lsl 2]
str	w0, [x1, x1, lsl 2]
b	.L6
.L4:
ldr	x1, [x19, -24]
str	wzr, [x19, -36]
b	.L5
.L7:
ldr	x0, [x19, -8]
ldr	x2, [x19, -24]
ldr	x1, [x0]
ldrsw	x0, [x19, -44]
ldr	x2, [x2]
ldrsw	x0, [x1, x0, lsl 2]
cmp	w2, w0
bgt	.L18
b	.L16
.L18:
ldr	x0, [x19, -24]
ldr	x2, [x0]
ldrsw	x0, [x19, -44]
ldr	x2, [x2]
ldrsw	x0, [x19, -48]
ldrsw	x2, [x2, x0, lsl 2]
b	.L14
.L19:
ldr	x0, [x19, -24]
ldr	x2, [x0]
ldrsw	x0, [x19, -44]
ldr	x2, [x2]
ldrsw	x0, [x19, -48]
ldrsw	x2, [x2, x0, lsl 2]
b	.L14
.L21:
ldr	x1, [x19, -8]
ldr	x0, [x1]
ldrsw	x1, [x19, -44]
ldr	x0, [x0, x1, lsl 2]
str	w0, [x1, x1, lsl 2]
b	.L6
.L13:
ldr	x0, [x19, -24]
ldr	x2, [x19, -8]
ldr	x1, [x0]
ldrsw	x0, [x19, -44]
ldr	x2, [x2]
ldrsw	x0, [x1, x0, lsl 2]
cmp	w2, w0
bgt	.L18
b	.L16
.L16:
ldr	x0, [x19, -24]
ldr	x2, [x0]
ldrsw	x0, [x19, -44]
ldr	x2, [x2]
ldrsw	x0, [x19, -48]
ldrsw	x2, [x2, x0, lsl 2]
b	.L14
.L22:
ldr	x0, [x19, -24]
ldr	x2, [x0]
ldrsw	x0, [x19, -44]
ldr	x2, [x2]
ldrsw	x0, [x19, -48]
ldrsw	x2, [x2, x0, lsl 2]
b	.L14
.L23:
ldr	x0, [x19, -24]
ldr	x2, [x0]
ldrsw	x0, [x19, -44]
ldr	x2, [x2]
ldrsw	x0, [x19, -48]
ldrsw	x2, [x2, x0, lsl 2]
b	.L14
.L24:
ldr	x0, [x19, -24]
ldr	x2, [x0]
ldrsw	x0, [x19, -44]
ldr	x2, [x2]
ldrsw	x0, [x19, -48]
ldrsw	x2, [x2, x0, lsl 2]
b	.L14
.L25:
ldr	x0, [x19, -24]
ldr	x2, [x0]
ldrsw	x0, [x19, -44]
ldr	x2, [x2]
ldrsw	x0, [x19, -48]
ldrsw	x2, [x2, x0, lsl 2]
b	.L14
.L26:
ldr	x0, [x19, -24]
ldr	x2, [x0]
ldrsw	x0, [x19, -44]
ldr	x2, [x2]
ldrsw	x0, [x19, -48]
ldrsw	x2, [x2, x0, lsl 2]
b	.L14
.L27:
ldr	x0, [x19, -24]
ldr	x2, [x0]
ldrsw	x0, [x19, -44]
ldr	x2, [x2]
ldrsw	x0, [x19, -48]
ldrsw	x2, [x2, x0, lsl 2]
b	.L14
.L28:
ldr	x0, [x19, -24]
ldr	x2, [x0]
ldrsw	x0, [x19, -44]
ldr	x2, [x2]
ldrsw	x0, [x19, -48]
ldrsw	x2, [x2, x0, lsl 2]
b	.L14
.L29:
ldr	x0, [x19, -24]
ldr	x2, [x0]
ldrsw	x0, [x19, -44]
ldr	x2, [x2]
ldrsw	x0, [x19, -48]
ldrsw	x2, [x2, x0, lsl 2]
b	.L14
.L30:
ldr	x0, [x19, -24]
ldr	x2, [x0]
ldrsw	x0, [x19, -44]
ldr	x2, [x2]
ldrsw	x0, [x19, -48]
ldrsw	x2, [x2, x0, lsl 2]
b	.L14
.L31:
ldr	x0, [x19, -24]
ldr	x2, [x0]
ldrsw	x0, [x19, -44]
ldr	x2, [x2]
ldrsw	x0, [x19, -48]
ldrsw	x2, [x2, x0, lsl 2]
b	.L14
.L32:
ldr	x0, [x19, -24]
ldr	x2, [x0]
ldrsw	x0, [x19, -44]
ldr	x2, [x2]
ldrsw	x0, [x19, -48]
ldrsw	x2, [x2, x0, lsl 2]
b	.L14
.L33:
ldr	x0, [x19, -24]
ldr	x2, [x0]
ldrsw	x0, [x19, -44]
ldr	x2, [x2]
ldrsw	x0, [x19, -48]
ldrsw	x2, [x2, x0, lsl 2]
b	.L14
.L34:
ldr	x0, [x19, -24]
ldr	x2, [x0]
ldrsw	x0, [x19, -44]
ldr	x2, [x2]
ldrsw	x0, [x19, -48]
ldrsw	x2, [x2, x0, lsl 2]
b	.L14
.L35:
ldr	x0, [x19, -24]
ldr	x2, [x0]
ldrsw	x0, [x19, -44]
ldr	x2, [x2]
ldrsw	x0, [x19, -48]
ldrsw	x2, [x2, x0, lsl 2]
b	.L14
.L36:
ldr	x0, [x19, -24]
ldr	x2, [x0]
ldrsw	x0, [x19, -44]
ldr	x2, [x2]
ldrsw	x0, [x19, -48]
ldrsw	x2, [x2, x0, lsl 2]
b	.L14
.L37:
ldr	x0, [x19, -24]
ldr	x2, [x0]
ldrsw	x0, [x19, -44]
ldr	x2, [x2]
ldrsw	x0, [x19, -48]
ldrsw	x2, [x2, x0, lsl 2]
b	.L14
.L38:
ldr	x0, [x19, -24]
ldr	x2, [x0]
ldrsw	x0, [x19, -44]
ldr	x2, [x2]
ldrsw	x0, [x19, -48]
ldrsw	x2, [x2, x0, lsl 2]
b	.L14
.L39:
ldr	x0, [x19, -24]
ldr	x2, [x0]
ldrsw	x0, [x19, -44]
ldr	x2, [x2]
ldrsw	x0, [x19, -48]
ldrsw	x2, [x2, x0, lsl 2]
b	.L14
.L40:
ldr	x0, [x19, -24]
ldr	x2, [x0]
ldrsw	x0, [x19, -44]
ldr	x2, [x2]
ldrsw	x0, [x19, -48]
ldrsw	x2, [x2, x0, lsl 2]
b	.L14
.L41:
ldr	x0, [x19, -24]
ldr	x2, [x0]
ldrsw	x0, [x19, -44]
ldr	x2, [x2]
ldrsw	x0, [x19, -48]
ldrsw	x2, [x2, x0, lsl 2]
b	.L14
.L42:
ldr	x0, [x19, -24]
ldr	x2, [x0]
ldrsw	x0, [x19, -44]
ldr	x2, [x2]
ldrsw	x0, [x19, -48]
ldrsw	x2, [x2, x0, lsl 2]
b	.L14
.L43:
ldr	x0, [x19, -24]
ldr	x2, [x0]
ldrsw	x0, [x19, -44]
ldr	x2, [x2]
ldrsw	x0, [x19, -48]
ldrsw	x2, [x2, x0, lsl 2]
b	.L14
.L44:
ldr	x0, [x19, -24]
ldr	x2, [x0]
ldrsw	x0, [x19, -44]
ldr	x2, [x2]
ldrsw	x0, [x19, -48]
ldrsw	x2, [x2, x0, lsl 2]
b	.L14
.L45:
ldr	x0, [x19, -24]
ldr	x2, [x0]
ldrsw	x0, [x19, -44]
ldr	x2, [x2]
ldrsw	x0, [x19, -48]
ldrsw	x2, [x2, x0, lsl 2]
b	.L14
.L46:
ldr	x0, [x19, -24]
ldr	x2, [x0]
ldrsw	x0, [x19, -44]
ldr	x2, [x2]
ldrsw	x0, [x19, -48]
ldrsw	x2, [x2, x0, lsl 2]
b	.L14
.L47:
ldr	x0, [x19, -24]
ldr	x2, [x0]
ldrsw	x0, [x19, -44]
ldr	x2, [x2]
ldrsw	x0, [x19, -48]
ldrsw	x2, [x2, x0, lsl 2]
b	.L14
.L48:
ldr	x0, [x19, -24]
ldr	x2, [x0]
ldrsw	x0, [x19, -44]
ldr	x2, [x2]
ldrsw	x0, [x19, -48]
ldrsw	x2, [x2, x0, lsl 2]
b	.L14
.L49:
ldr	x0, [x19, -24]
ldr	x2, [x0]
ldrsw	x0, [x19, -44]
ldr	x2, [x2]
ldrsw	x0, [x19, -48]
ldrsw	x2, [x2, x0, lsl 2]
b	.L14
.L50:
ldr	x0, [x19, -24]
ldr	x2, [x0]
ldrsw	x0, [x19, -44]
ldr	x2, [x2]
ldrsw	x0, [x19, -48]
ldrsw	x2, [x2, x0, lsl 2]
b	.L14
.L51:
ldr	x0, [x19, -24]
ldr	x2, [x0]
ldrsw	x0, [x19, -44]
ldr	x2, [x2]
ldrsw	x0, [x19, -48]
ldrsw	x2, [x2, x0, lsl 2]
b	.L14
.L52:
ldr	x0, [x19, -24]
ldr	x2, [x0]
ldrsw	x0, [x19, -44]
ldr	x2, [x2]
ldrsw	x0, [x19, -48]
ldrsw	x2, [x2, x0, lsl 2]
b	.L14
.L53:
ldr	x0, [x19, -24]
ldr	x2, [x0]
ldrsw	x0, [x19, -44]
ldr	x2, [x2]
ldrsw	x0, [x19, -48]
ldrsw	x2, [x2, x0, lsl 2]
b	.L14
.L54:
ldr	x0, [x19, -24]
ldr	x2, [x0]
ldrsw	x0, [x19, -44]
ldr	x2, [x2]
ldrsw	x0, [x19, -48]
ldrsw	x2, [x2, x0, lsl 2]
b	.L14
.L55:
ldr	x0, [x19, -24]
ldr	x2, [x0]
ldrsw	x0, [x19, -44]
ldr	x2, [x2]
ldrsw	x0, [x19, -48]
ldrsw	x2, [x2, x0, lsl 2]
b	.L14
.L56:
ldr	x0, [x19, -24]
ldr	x2, [x0]
ldrsw	x0, [x19, -44]
ldr	x2, [x2]
ldrsw	x0, [x19, -48]
ldrsw	x2, [x2, x0, lsl 2]
b	.L14
.L57:
ldr	x0, [x19, -24]
ldr	x2, [x0]
ldrsw	x0, [x19, -44]
ldr	x2, [x2]
ldrsw	x0, [x19, -48]
ldrsw	x2, [x2, x0, lsl 2]
b	.L14
.L58:
ldr	x0, [x19, -24]
ldr	x2, [x0]
ldrsw	x0, [x19, -44]
ldr	x2, [x2]
ldrsw	x0, [x19, -48]
ldrsw	x2, [x2, x0, lsl 2]
b	.L14
.L59:
ldr	x0, [x19, -24]
ldr	x2, [x0]
ldrsw	x0, [x19, -44]
ldr	x2, [x2]
ldrsw	x0, [x19, -48]
ldrsw	x2, [x2, x0, lsl 2]
b	.L14
.L60:
ldr	x0, [x19, -24]
ldr	x2, [x0]
ldrsw	x0, [x19, -44]
ldr	x2, [x2]
ldrsw	x0, [x19, -48]
ldrsw	x2, [x2, x0, lsl 2]
b	.L14
.L61:
ldr	x0, [x19, -24]
ldr	x2, [x0]
ldrsw	x0, [x19, -44]
ldr	x2, [x2]
ldrsw	x0, [x19, -48]
ldrsw	x2, [x2, x0, lsl 2]
b	.L14
.L62:
ldr	x0, [x19, -24]
ldr	x2, [x0]
ldrsw	x0, [x19, -44]
ldr	x2, [x2]
ldrsw	x0, [x19, -48]
ldrsw	x2, [x2, x0, lsl 2]
b	.L14
.L63:
ldr	x0, [x19, -24]
ldr	x2, [x0]
ldrsw	x0, [x19, -44]
ldr	x2, [x2]
ldrsw	x0, [x19, -48]
ldrsw	x2, [x2, x0, lsl 2]
b	.L14
.L64:
ldr	x0, [x19, -24]
ldr	x2, [x0]
ldrsw	x0, [x19, -44]
ldr	x2, [x2]
ldrsw	x0, [x19, -48]
ldrsw	x2, [x2, x0, lsl 2]
b	.L14
.L65:
ldr	x0, [x19, -24]
ldr	x2, [x0]
ldrsw	x0, [x19, -44]
ldr	x2, [x2]
ldrsw	x0, [x19, -48]
ldrsw	x2, [x2, x0, lsl 2]
b	.L14
.L66:
ldr	x0, [x19, -24]
ldr	x2, [x0]
ldrsw	x0, [x19, -44]
ldr	x2, [x2]
ldrsw	x0, [x19, -48]
ldrsw	x2, [x2, x0, lsl 2]
b	.L14
.L67:
ldr	x0, [x19, -24]
ldr	x2, [x0]
ldrsw	x0, [x19, -44]
ldr	x2, [x2]
ldrsw	x0, [x19, -48]
ldrsw	x2, [x2, x0, lsl 2]
b	.L14
.L68:
ldr	x0, [x19, -24]
ldr	x2, [x0]
ldrsw	x0, [x19, -44]
ldr	x2, [x2]
ldrsw	x0, [x19, -48]
ldrsw	x2, [x2, x0, lsl 2]
b	.L14
.L69:
ldr	x0, [x19, -24]
ldr	x2, [x0]
ldrsw	x0, [x19, -44]
ldr	x2, [x2]
ldrsw	x0, [x19, -48]
ldrsw	x2, [x2, x0, lsl 2]
b	.L14
.L70:
ldr	x0, [x19, -24]
ldr	x2, [x0]
ldrsw	x0, [x19, -44]
ldr	x2, [x2]
ldrsw	x0, [x19, -48]
ldrsw	x2, [x2, x0, lsl 2]
b	.L14
.L71:
ldr	x0, [x19, -24]
ldr	x2, [x0]
ldrsw	x0, [x19, -44]
ldr	x2, [x2]
ldrsw	x0, [x19, -48]
ldrsw	x2, [x2, x0, lsl 2]
b	.L14
.L72:
ldr	x0, [x19, -24]
ldr	x2, [x0]
ldrsw	x0, [x19, -44]
ldr	x2, [x2]
ldrsw	x0, [x19, -48]
ldrsw	x2, [x2, x0, lsl 2]
b	.L14
.L73:
ldr	x0, [x19, -24]
ldr	x2, [x0]
ldrsw	x0, [x19, -44]
ldr	x2, [x2]
ldrsw	x0, [x19, -48]
ldrsw	x2, [x2, x0, lsl 2]
b	.L14
.L74:
ldr	x0, [x19, -24]
ldr	x2, [x0]
ldrsw	x0, [x19, -44]
ldr	x2, [x2]
ldrsw	x0, [x19, -48]
ldrsw	x2, [x2, x0, lsl 2]
b	.L14
.L75:
ldr	x0, [x19, -24]
ldr	x2, [x0]
ldrsw	x0, [x19, -44]
ldr	x2, [x2]
ldrsw	x0, [x19, -48]
ldrsw	x2, [x2, x0, lsl 2]
b	.L14
.L76:
ldr	x0, [x19, -24]
ldr	x2, [x0]
ldrsw	x0, [x19, -44]
ldr	x2, [x2]
ldrsw	x0, [x19, -48]
ldrsw	x2, [x2, x0, lsl 2]
b	.L14
.L77:
ldr	x0, [x19, -24]
ldr	x2, [x0]
ldrsw	x0, [x19, -44]
ldr	x2, [x2]
ldrsw	x0, [x19, -48]
ldrsw	x2, [x2, x0, lsl 2]
b	.L14
.L78:
ldr	x0, [x19, -24]
ldr	x2, [x0]
ldrsw	x0, [x19, -44]
ldr	x2, [x2]
ldrsw	x0, [x19, -48]
ldrsw	x2, [x2, x0, lsl 2]
b	.L14
.L79:
ldr	x0, [x19, -24]
ldr	x2, [x0]
ldrsw	x0, [x19, -44]
ldr	x2, [x2]
ldrsw	x0, [x19, -48]
ldrsw	x2, [x2, x0, lsl 2]
b	.L14
.L80:
ldr	x0, [x19, -24]
ldr	x2, [x0]
ldrsw	x0, [x19, -44]
ldr	x2, [x2]
ldrsw	x0, [x19, -48]
ldrsw	x2, [x2, x0, lsl 2]
b	.L14
.L81:
ldr	x0, [x19, -24]
ldr	x2, [x0]
ldrsw	x0, [x19, -44]
ldr	x2, [x2]
ldrsw	x0, [x19, -48]
ldrsw	x2, [x2, x0, lsl 2]
b	.L14
.L82:
ldr	x0, [x19, -24]
ldr	x2, [x0]
ldrsw	x0, [x19, -44]
ldr	x2, [x2]
ldrsw	x0, [x19, -48]
ldrsw	x2, [x2, x0, lsl 2]
b	.L14
.L83:
ldr	x0, [x19, -24]
ldr	x2, [x0]
ldrsw	x0, [x19, -44]
ldr	x2, [x2]
ldrsw	x0, [x19, -48]
ldrsw	x2, [x2, x0, lsl 2]
b	.L14
.L84:
ldr	x0, [x19, -24]
ldr	x2, [x0]
ldrsw	x0, [x19, -44]
ldr	x2, [x2]
ldrsw	x0, [x19, -48]
ldrsw	x2, [x2, x0, lsl 2]
b	.L14
.L85:
ldr	x0, [x19, -24]
ldr	x2, [x0]
ldrsw	x0, [x19, -44]
ldr	x2, [x2]
ldrsw	x0, [x19, -48]
ldrsw	x2, [x2, x0, lsl 2]
b	.L14
.L86:
ldr	x0, [x19, -24]
ldr	x2, [x0]
ldrsw	x0, [x19, -44]
ldr	x2, [x2]
ldrsw	x0, [x19, -48]
ldrsw	x2, [x2, x0, lsl 2]
b	.L14
.L87:
ldr	x0, [x19, -24]
ldr	x2, [x0]
ldrsw	x0, [x19, -44]
ldr	x2, [x2]
ldrsw	x0, [x19, -48]
ldrsw	x2, [x2, x0, lsl 2]
b	.L14
.L88:
ldr	x0, [x19, -24]
ldr	x2, [x0]
ldrsw	x0, [x19, -44]
ldr	x2, [x2]
ldrsw	x0, [x19, -48]
ldrsw	x2, [x2, x0, lsl 2]
b	.L14
.L89:
ldr	x0, [x19, -24]
ldr	x2, [x0]
ldrsw	x0, [x19, -44]
ldr	x2, [x2]
ldrsw	x0, [x19, -48]
ldrsw	x2, [x2, x0, lsl 2]
b	.L14
.L90:
ldr	x0, [x19, -24]
ldr	x2, [x0]
ldrsw	x0, [x19, -44]
ldr	x2, [x2]
ldrsw	x0, [x19, -48]
ldrsw	x2, [x2, x0, lsl 2]
b	.L14
.L91:
ldr	x0, [x19, -24]
ldr	x2, [x0]
ldrsw	x0, [x19, -44]
ldr	x2, [x2]
ldrsw	x0, [x19, -48]
ldrsw	x2, [x2, x0, lsl 2]
b	.L14
.L92:
ldr	x0, [x19, -24]
ldr	x2, [x0]
ldrsw	x0, [x19, -44]
ldr	x2, [x2]
ldrsw	x0, [x19, -48]
ldrsw	x2, [x2, x0, lsl 2]
b	.L14
.L93:
ldr	x0, [x19, -24]
ldr	x2, [x0]
ldrsw	x0, [x19, -44]
ldr	x2, [x2]
ldrsw	x0, [x19, -48]
ldrsw	x2, [x2, x0, lsl 2]
b	.L14
.L94:
ldr	x0, [x19, -24]
ldr	x2, [x0]
ldrsw	x0, [x19, -44]
ldr	x2, [x2]
ldrsw	x0, [x19, -48]
ldrsw	x2, [x2, x0, lsl 2]
b	.L14
.L95:
ldr	x0, [x19, -24]
ldr	x2, [x0]
ldrsw	x0, [x19, -44]
ldr	x2, [x2]
ldrsw	x0, [x19, -48]
ldrsw	x2, [x2, x0, lsl 2]
b	.L14
.L96:
ldr	x0, [x19, -24]
ldr	x2, [x0]
ldrsw	x0, [x19, -44]
ldr	x2, [x2]
ldrsw	x0, [x19, -48]
ldrsw	x2, [x2, x0, lsl 2]
b	.L14
.L97:
ldr	x0, [x19, -24]
ldr	x2, [x0]
ldrsw	x0, [x19, -44]
ldr	x2, [x2]
ldrsw	x0, [x19, -48]
ldrsw	x2, [x2, x0, lsl 2]
b	.L14
.L98:
ldr	x0, [x19, -24]
ldr	x2, [x0]
ldrsw	x0, [x19, -44]
ldr	x2, [x2]
ldrsw	x0, [x19, -48]
ldrsw	x2, [x2, x0, lsl 2]
b	.L14
.L99:
ldr	x0, [x19, -24]
ldr	x2, [x0]
ldrsw	x0, [x19, -44]
ldr	x2, [x2]
ldrsw	x0, [x19, -48]
ldrsw	x2, [x2, x0, lsl 2]
b	.L14
.L100:
ldr	x0, [x19, -24]
ldr	x2, [x0]
ldrsw	x0, [x19, -44]
ldr	x2, [x2]
ldrsw	x0, [x19, -48]
ldrsw	x2, [x2, x0, lsl 2]
b	.L14
.L101:
ldr	x0, [x19, -24]
ldr	x2, [x0]
ldrsw	x0, [x19, -44]
ldr	x2, [x2]
ldrsw	x0, [x19, -48]
ldrsw	x2, [x2, x0, lsl 2]
b	.L14
.L102:
ldr	x0, [x19, -24]
ldr	x2, [x0]
ldrsw	x0, [x19, -44]
ldr	x2, [x2]
ldrsw	x0, [x19, -48]
ldrsw	x2, [x2, x0, lsl 2]
b	.L14
.L103:
ldr	x0, [x19, -24]
ldr	x2, [x0]
ldrsw	x0, [x19, -44]
ldr	x2, [x2]
ldrsw	x0, [x19, -48]
ldrsw	x2, [x2, x0, lsl 2]
b	.L14
.L104:
ldr	x0, [x19, -24]
ldr	x2, [x0]
ldrsw	x0, [x19, -44]
ldr	x2, [x2]
ldrsw	x0, [x19, -48]
ldrsw	x2, [x2, x0, lsl 2]
b	.L14
.L105:
ldr	x0, [x19, -24]
ldr	x2, [x0]
ldrsw	x0, [x19, -44]
ldr	x2, [x2]
ldrsw	x0, [x19, -48]
ldrsw	x2, [x2, x0, lsl 2]
b	.L14
.L106:
ldr	x0, [x19, -24]
ldr	x2, [x0]
ldrsw	x0, [x19, -44]
ldr	x2, [x2]
ldrsw	x0, [x19, -48]
ldrsw	x2, [x2, x0, lsl 2]
b	.L14
.L107:
ldr	x0, [x19, -24]
ldr	x2, [x0]
ldrsw	x0, [x19, -44]
ldr	x2, [x2]
ldrsw	x0, [x19, -48]
ldrsw	x2, [x2, x0, lsl 2]
b	.L14
.L108:
ldr	x0, [x19, -24]
ldr	x2, [x0]
ldrsw	x0, [x19, -44]
ldr	x2, [x2]
ldrsw	x0, [x19, -48]
ldrsw	x2, [x2, x0, lsl 2]
b	.L14
.L109:
ldr	x0, [x19, -24]
ldr	x2, [x0]
ldrsw	x0, [x19, -44]
ldr	x2, [x2]
ldrsw	x0, [x19, -48]
ldrsw	x2, [x2, x0, lsl 2]
b	.L14
.L110:
ldr	x0, [x19, -24]
ldr	x2, [x0]
ldrsw	x0, [x19, -44]
ldr	x2, [x2]
ldrsw	x0, [x19, -48]
ldrsw	x2, [x2, x0, lsl 2]
b	.L14
.L111:
ldr	x0, [x19, -24]
ldr	x2, [x0]
ldrsw	x0, [x19, -44]
ldr	x2, [x2]
ldrsw	x0, [x19, -48]
ldrsw	x2, [x2, x0, lsl 2]
b	.L14
.L112:
ldr	x0, [x19, -24]
ldr	x2, [x0]
ldrsw	x0, [x19, -44]
ldr	x2, [x2]
ldrsw	x0, [x19, -48]
ldrsw	x2, [x2, x0, lsl 2]
b	.L14
.L113:
ldr	x0, [x19, -24]
ldr	x2, [x0]
ldrsw	x0, [x19, -44]
ldr	x2, [x2]
ldrsw	x0, [x19, -48]
ldrsw	x2, [x2, x0, lsl 2]
b	.L14
.L114:
ldr	x0, [x19, -24]
ldr	x2, [x0]
ldrsw	x0, [x19, -44]
ldr	x2, [x2]
ldrsw	x0, [x19, -48]
ldrsw	x2, [x2, x0, lsl 2]
b	.L14
.L115:
ldr	x0, [x19, -24]
ldr	x2, [x0]
ldrsw	x0, [x19, -44]
ldr	x2, [x2]
ldrsw	x0, [x19, -48]
ldrsw	x2, [x2, x0, lsl 2]
b	.L14
.L116:
ldr	x0, [x19, -24]
ldr	x2, [x0]
ldrsw	x0, [x19, -44]
ldr	x2, [x2]
ldrsw	x0, [x19, -48]
ldrsw	x2, [x2, x0, lsl 2]
b	.L14
.L117:
ldr	x0, [x19, -24]
ldr	x2, [x0]
ldrsw	x0, [x19, -44]
ldr	x2, [x2]
ldrsw	x0, [x19, -48]
ldrsw	x2, [x2, x0, lsl 2]
b	.L14
.L118:
ldr	x0, [x19, -24]
ldr	x2, [x0]
ldrsw	x0, [x19, -44]
ldr	x2, [x2]
ldrsw	x0, [x19, -48]
ldrsw	x2, [x2, x0, lsl 2]
b	.L14
.L119:
ldr	x0, [x19, -24]
ldr	x2, [x0]
ldrsw	x0, [x19, -44]
ldr	x2, [x2]
ldrsw	x0, [x19, -48]
ldrsw	x2, [x2, x0, lsl 2]
b	.L14
.L120:
ldr	x0, [x19, -24]
ldr	x2, [x0]
ldrsw	x0, [x19, -44]
ldr	x2, [x2]
ldrsw	x0, [x19, -48]
ldrsw	x2, [x2, x0, lsl 2]
b	.L14
.L121:
ldr	x0, [x19, -24]
ldr	x2, [x0]
ldrsw	x0, [x19, -44]
ldr	x2, [x2]
ldrsw	x0, [x19, -48]
ldrsw	x2, [x2, x0, lsl 2]
b	.L14
.L122:
ldr	x0, [x19, -24]
ldr	x2, [x0]
ldrsw	x0, [x19, -44]
ldr	x2, [x2]
ldrsw	x0, [x19, -48]
ldrsw	x2, [x2, x0, lsl 2]
b	.L14
.L123:
ldr	x0, [x19, -24]
ldr	x2, [x0]
ldrsw	x0, [x19, -44]
ldr	x2, [x2]
ldrsw	x0, [x19, -48]
ldrsw	x2, [x2, x0, lsl 2]
b	.L14
.L124:
ldr	x0, [x19, -24]
ldr	x2, [x0]
ldrsw	x0, [x19, -44]
ldr	x2, [x2]
ldrsw	x0, [x19, -48]
ldrsw	x2, [x2, x0, lsl 2]
b	.L14
.L125:
ldr	x0, [x19, -24]
ldr	x2, [x0]
ldrsw	x0, [x19, -44]
ldr	x2, [x2]
ldrsw	x0, [x19, -48]
ldrsw	x2, [x2, x0, lsl 2]
b	.L14
.L126:
ldr	x0, [x19, -24]
ldr	x2, [x0]
ldrsw	x0, [x19, -44]
ldr	x2, [x2]
ldrsw	x0, [x19, -48]
ldrsw	x2, [x2, x0, lsl 2]
b	.L14
.L127:
ldr	x0, [x19, -24]
ldr	x2, [x0]
ldrsw	x0, [x19, -44]
ldr	x2, [x2]
ldrsw	x0, [x19, -48]
ldrsw	x2, [x2, x0, lsl 2]
b	.L14
.L128:
ldr	x0, [x19, -24]
ldr	x2, [x0]
ldrsw	x0, [x19, -44]
ldr	x2, [x2]
ldrsw	x0, [x19, -48]
ldrsw	x2, [x2, x0, lsl 2]
b	.L14
.L129:
ldr	x0, [x19, -24]
ldr	x2, [x0]
ldrsw	x0, [x19, -44]
ldr	x2, [x2]
ldrsw	x0, [x19, -48]
ldrsw	x2, [x2, x0, lsl 2]
b	.L14
.L130:
ldr	x0, [x19, -24]
ldr	x2, [x0]
ldrsw	x0, [x19, -44]
ldr	x2, [x2]
ldrsw	x0, [x19, -48]
ldrsw	x2, [x2, x0, lsl 2]
b	.L14
.L131:
ldr	x0, [x19, -24]
ldr	x2, [x0]
ldrsw	x0, [x19, -44]
ldr	x2, [x2]
ldrsw	x0, [x19, -48]
ldrsw	x2, [x2, x0, lsl 2]
b	.L14
.L132:
ldr	x0, [x19, -24]
ldr	x2, [x0]
ldrsw	x0, [x19, -44]
ldr	x2, [x2]
ldrsw	x0, [x19, -48]
ldrsw	x2, [x2, x0, lsl 2]
b	.L14
.L133:
ldr	x0, [x19, -24]
ldr	x2, [x0]
ldrsw	x0, [x19, -44]
ldr	x2, [x2]
ldrsw	x0, [x19, -48]
ldrsw	x2, [x2, x0, lsl 2]
b	.L14
.L134:
ldr	x0, [x19, -24]
ldr	x2, [x0]
ldrsw	x0, [x19, -44]
ldr	x2, [x2]
ldrsw	x0, [x19, -48]
ldrsw	x2, [x2, x0, lsl 2]
b	.L14
.L135:
ldr	x0, [x19, -24]
ldr	x2, [x0]
ldrsw	x0, [x19, -44]
ldr	x2, [x2]
ldrsw	x0, [x19, -48]
ldrsw	x2, [x2, x0, lsl 2]
b	.L14
.L136:
ldr	x0, [x19, -24]
ldr	x2, [x0]
ldrsw	x0, [x19, -44]
ldr	x2, [x2]
ldrsw	x0, [x19, -48]
ldrsw	x2, [x2, x0, lsl 2]
b	.L14
.L137:
ldr	x0, [x19, -24]
ldr	x2, [x0]
ldrsw	x0, [x19, -44]
ldr	x2, [x2]
ldrsw	x0, [x19, -48]
ldrsw	x2, [x2, x0, lsl 2]
b	.L14
.L138:
ldr	x0, [x19, -24]
ldr	x2, [x0]
ldrsw	x0, [x19, -44]
ldr	x2, [x2]
ldrsw	x0, [x19, -48]
ldrsw	x2, [x2, x0, lsl 2]
b	.L14
.L139:
ldr	x0, [x19, -24]
ldr	x2, [x0]
ldrsw	x0, [x19, -44]
ldr	x2, [x2]
ldrsw	x0, [x19, -48]
ldrsw	x2, [x2, x0, lsl 2]
b	.L14
.L140:
ldr	x0, [x19, -24]
ldr	x2, [x0]
ldrsw	x0, [x19, -44]
ldr	x2, [x2]
ldrsw	x0, [x19, -48]
ldrsw	x2, [x2, x0, lsl 2]
b	.L14
.L141:
ldr	x0, [x19, -24]
ldr	x2, [x0]
ldrsw	x0, [x19, -44]
ldr	x2, [x2]
ldrsw	x0, [x19, -48]
ldrsw	x2, [x2, x0, lsl 2]
b	.L14
.L142:
ldr	x0, [x19, -24]
ldr	x2, [x0]
ldrsw	x0, [x19, -44]
ldr	x2, [x2]
ldrsw	x0, [x19, -48]
ldrsw	x2, [x2, x0, lsl 2]
b	.L14
.L143:
ldr	x0, [x19, -24]
ldr	x2, [x0]
ldrsw	x0, [x19, -44]
ldr	x2, [x2]
ldrsw	x0, [x19, -48]
ldrsw	x2, [x2, x0, lsl 2]
b	.L14
.L144:
ldr	x0, [x19, -24]
ldr	x2, [x0]
ldrsw	x0, [x19, -44]
ldr	x2, [x2]
ldrsw	x0, [x19, -48]
ldrsw	x2, [x2, x0, lsl 2]
b	.L14
.L145:
ldr	x0, [x19, -24]
ldr	x2, [x0]
ldrsw	x0, [x19, -44]
ldr	x2, [x2]
ldrsw	x0, [x19, -48]
ldrsw	x2, [x2, x0, lsl 2]
b	.L14
.L146:
ldr	x0, [x19, -24]
ldr	x2, [x0]
ldrsw	x0, [x19, -44]
ldr	x2, [x2]
ldrsw	x0, [x19, -48]
ldrsw	x2, [x2, x0, lsl 2]
b	.L14
.L147:
ldr	x0, [x19, -24]
ldr	x2, [x0]
ldrsw	x0, [x19, -44]
ldr	x2, [x2]
ldrsw	x0, [x19, -48]
ldrsw	x2, [x2, x0, lsl 2]
b	.L14
.L148:
ldr	x0, [x19, -24]
ldr	x2, [x0]
ldrsw	x0, [x19, -44]
ldr	x2, [x2]
ldrsw	x0, [x19, -48]
ldrsw	x2, [x2, x0, lsl 2]
b	.L14
.L149:
ldr	x0, [x19, -24]
ldr	x2, [x0]
ldrsw	x0, [x19, -44]
ldr	x2, [x2]
ldrsw	x0, [x19, -48]
ldrsw	x2, [x2, x0, lsl 2]
b	.L14
.L150:
ldr	x0, [x19, -24]
ldr	x2, [x0]
ldrsw	x0, [x19, -44]
ldr	x2, [x2]
ldrsw	x0, [x19, -48]
ldrsw	x2, [x2, x0, lsl 2]
b	.L14
.L151:
ldr	x0, [x19, -24]
ldr	x2, [x0]
ldrsw	x0, [x19, -44]
ldr	x2, [x2]
ldrsw	x0, [x19, -48]
ldrsw	x2, [x2, x0, lsl 2]
b	.L14
.L152:
ldr	x0, [x19, -24]
ldr	x2, [x0]
ldrsw	x0, [x19, -44]
ldr	x2, [x2]
ldrsw	x0, [x19, -48]
ldrsw	x2, [x2, x0, lsl 2]
b	.L14
.L153:
ldr	x0, [x19, -24]
ldr	x2, [x0]
ldrsw	x0, [x19, -44]
ldr	x2, [x2]
ldrsw	x0, [x19, -48]
ldrsw	x2, [x2, x0, lsl 2]
b	.L14
.L154:
ldr	x0, [x19, -24]
ldr	x2, [x0]
ldrsw	x0, [x19, -44]
ldr	x2, [x2]
ldrsw	x0, [x19, -48]
ldrsw	x2, [x2, x0, lsl 2]
b	.L14
.L155:
ldr	x0, [x19, -24]
ldr	x2, [x0]
ldrsw	x0, [x19, -44]
ldr	x2, [x2]
ldrsw	x0, [x19, -48]
ldrsw	x2, [x2, x0, lsl 2]
b	.L14
.L156:
ldr	x0, [x19, -24]
ldr	x2, [x0]
ldrsw	x0, [x19, -44]
ldr	x2, [x2]
ldrsw	x0, [x19, -48]
ldrsw	x2, [x2, x0, lsl 2]
b	.L14
.L157:
ldr	x0, [x19, -24]
ldr	x2, [x0]
ldrsw	x0, [x19, -44]
ldr	x2, [x2]
ldrsw	x0, [x19, -48]
ldrsw	x2, [x2, x0, lsl 2]
b	.L14
.L158:
ldr	x0, [x19, -24]
ldr	x2, [x0]
ldrsw	x0, [x19, -44]
ldr	x2, [x2]
ldrsw	x0, [x19, -48]
ldrsw	x2, [x2, x0, lsl 2]
b	.L14
.L159:
ldr	x0, [x19, -24]
ldr	x2, [x0]
ldrsw	x0, [x19, -44]
ldr	x2, [x2]
ldrsw	x0, [x19, -48]
ldrsw	x2, [x2, x0, lsl 2]
b	.L14
.L160:
ldr	x0, [x19, -24]
ldr	x2, [x0]
ldrsw	x0, [x19, -44]
ldr	x2, [x2]
ldrsw	x0, [x19, -48]
ldrsw	x2, [x2, x0, lsl 2]
b	.L14
.L161:
ldr	x0, [x19, -24]
ldr	x2, [x0]
ldrsw	x0, [x19, -44]
ldr	x2, [x2]
ldrsw	x0, [x19, -48]
ldrsw	x2, [x2, x0, lsl 2]
b	.L14
.L162:
ldr	x0, [x19, -24]
ldr	x2, [x0]
ldrsw	x0, [x19, -44]
ldr	x2, [x2]
ldrsw	x0, [x19, -48]
ldrsw	x2, [x2, x0, lsl 2]
b	.L14
.L163:
ldr	x0, [x19, -24]
ldr	x2, [x0]
ldrsw	x0, [x19, -44]
ldr	x2, [x2]
ldrsw	x0, [x19, -48]
ldrsw	x2, [x2, x0, lsl 2]
b	.L14
.L164:
ldr	x0, [x19, -24]
ldr	x2, [x0]
ldrsw	x0, [x19, -44]
ldr	x2, [x2]
ldrsw	x0, [x19, -48]
ldrsw	x2, [x2, x0, lsl 2]
b	.L14
.L165:
ldr	x0, [x19, -24]
ldr	x2, [x0]
ldrsw	x0, [x19, -44]
ldr	x2, [x2]
ldrsw	x0, [x19, -48]
ldrsw	x2, [x2, x0, lsl 2]
b	.L14
.L166:
ldr	x0, [x19, -24]
ldr	x2, [x0]
ldrsw	x0, [x19, -44]
ldr	x2, [x2]
ldrsw	x0, [x19, -48]
ldrsw	x2, [x2, x0, lsl 2]
b	.L14
.L167:
ldr	x0, [x19, -24]
ldr	x2, [x0]
ldrsw	x0, [x19, -44]
ldr	x2, [x2]
ldrsw	x0, [x19, -48]
ldrsw	x2, [x2, x0, lsl 2]
b	.L14
.L168:
ldr	x0, [x19, -24]
ldr	x2, [x0]
ldrsw	x0, [x19, -44]
ldr	x2, [x2]
ldrsw	x0, [x19, -48]
ldrsw	x2, [x2, x0, lsl 2]
b	.L14
.L169:
ldr	x0, [x19, -24]
ldr	x2, [x0]
ldrsw	x0, [x19, -44]
ldr	x2, [x2]
ldrsw	x0, [x19, -48]
ldrsw	x2, [x2, x0, lsl 2]
b	.L14
.L170:
ldr	x0, [x19, -24]
ldr	x2, [x0]
ldrsw	x0, [x19, -44]
ldr	x2, [x2]
ldrsw	x0, [x19, -48]
ldrsw	x2, [x2, x0, lsl 2]
b	.L14
.L171:
ldr	x0, [x19, -24]
ldr	x2, [x0]
ldrsw	x0, [x19, -44]
ldr	x2, [x2]
ldrsw	x0, [x19, -48]
ldrsw	x2, [x2, x0, lsl 2]
b	.L14
.L172:
ldr	x0, [x19, -24]
ldr	x2, [x0]
ldrsw	x0, [x19, -44]
ldr	x2, [x2]
ldrsw	x0, [x19, -48]
ldrsw	x2, [x2, x0, lsl 2]
b	.L14
.L173:
ldr	x0, [x19, -24]
ldr	x2, [x0]
ldrsw	x0, [x19, -44]
ldr	x2, [x2]
ldrsw	x0, [x19, -48]
ldrsw	x2, [x2, x0, lsl 2]
b	.L14
.L174:
ldr	x0, [x19, -24]
ldr	x2, [x0]
ldrsw	x0, [x19, -44]
ldr	x2, [x2]
ldrsw	x0, [x19, -48]
ldrsw	x2, [x2, x0, lsl 2]
b	.L14
.L175:
ldr	x0, [x19, -24]
ldr	x2, [x0]
ldrsw	x0, [x19, -44]
ldr	x2, [x2]
ldrsw	x0, [x19, -48]
ldrsw	x2, [x2, x0, lsl 2]
b	.L14
.L176:
ldr	x0, [x19, -24]
ldr	x2, [x0]
ldrsw	x0, [x19, -44]
ldr	x2, [x2]
ldrsw	x0, [x19, -48]
ldrsw	x2, [x2, x0, lsl 2]
b	.L14
.L177:
ldr	x0, [x19, -24]
ldr	x2, [x0]
ldrsw	x0, [x19, -44]
ldr	x2, [x2]
ldrsw	x0, [x19, -48]
ldrsw	x2, [x2, x0, lsl 2]
b	.L14
.L178:
ldr	x0, [x19, -24]
ldr	x2, [x0]
ldrsw	x0, [x19, -44]
ldr	x2, [x2]
ldrsw	x0, [x19, -48]
ldrsw	x2, [x2, x0, lsl 2]
b	.L14
.L179:
ldr	x0, [x19, -24]
ldr	x2, [x0]
ldrsw	x0, [x19, -44]
ldr	x2, [x2]
ldrsw	x0, [x19, -48]
ldrsw	x2, [x2, x0, lsl 2]
b	.L14
.L180:
ldr	x0, [x19, -24]
ldr	x2, [x0]
ldrsw	x0, [x19, -44]
ldr	x2, [x2]
ldrsw	x0, [x19, -48]
ldrsw	x2, [x2, x0, lsl 2]
b	.L14
.L181:
ldr	x0, [x19, -24]
ldr	x2, [x0]
ldrsw	x0, [x19, -44]
ldr	x2, [x2]
ldrsw	x0, [x19, -48]
ldrsw	x2, [x2, x0, lsl 2]
b	.L14
.L182:
ldr	x0, [x19, -24]
ldr	x2, [x0]
ldrsw	x0, [x19, -44]
ldr	x2, [x2]
ldrsw	x0, [x19, -48]
ldrsw	x2, [x2, x0, lsl 2]
b	.L14
.L183:
ldr	x0, [x19, -24]
ldr	x2, [x0]
ldrsw	x0, [x19, -44]
ldr	x2, [x2]
ldrsw	x0, [x19, -48]
ldrsw	x2, [x2, x0, lsl 2]
b	.L14
.L184:
ldr	x0, [x19, -24]
ldr	x2, [x0]
ldrsw	x0, [x19, -44]
ldr	x2, [x2]
ldrsw	x0, [x19, -48]
ldrsw	x2, [x2, x0, lsl 2]
b	.L14
.L185:
ldr	x0, [x19, -24]
ldr	x2, [x0]
ldrsw	x0, [x19, -44]
ldr	x2, [x2]
ldrsw	x0, [x19, -48]
ldrsw	x2, [x2, x0, lsl 2]
b	.L14
.L186:
ldr	x0, [x19, -24]
ldr	x2, [x0]
ldrsw	x0, [x19, -44]
ldr	x2, [x2]
ldrsw	x0, [x19, -48]
ldrsw	x2, [x2, x0, lsl 2]
b	.L14
.L187:
ldr	x0, [x19, -24]
ldr	x2, [x0]
ldrsw	x0, [x19, -44]
ldr	x2, [x2]
ldrsw	x0, [x19, -48]
ldrsw	x2, [x2, x0, lsl 2]
b	.L14
.L188:
ldr	x0, [x19, -24]
ldr	x2, [x0]
ldrsw	x0, [x19, -44]
ldr	x2, [x2]
ldrsw	x0, [x19, -48]
ldrsw	x2, [x2, x0, lsl 2]
b	.L14
.L189:
ldr	x0, [x19, -24]
ldr	x2, [x0]
ldrsw	x0, [x19, -44]
ldr	x2, [x2]
ldrsw	x0, [x19, -48]
ldrsw	x2, [x2, x0, lsl 2]
b	.L14
.L190:
ldr	x0, [x19, -24]
ldr	x2, [x0]
ldrsw	x0, [x19, -44]
ldr	x2, [x2]
ldrsw	x0, [x19, -48]
ldrsw	x2, [x2, x0, lsl 2]
b	.L14
.L191:
ldr	x0, [x19, -24]
ldr	x2, [x0]
ldrsw	x0, [x19, -44]
ldr	x2, [x2]
ldrsw	x0, [x19, -48]
ldrsw	x2, [x2, x0, lsl 2]
b	.L14
.L192:
ldr	x0, [x19, -24]
ldr	x2, [x0]
ldrsw	x0, [x19, -44]
ldr	x2, [x2]
ldrsw	x0, [x19, -48]
ldrsw	x2, [x2, x0, lsl 2]
b	.L14
.L193:
ldr	x0, [x19, -24]
ldr	x2, [x0]
ldrsw	x0, [x19, -44]
ldr	x2, [x2]
ldrsw	x0, [x19, -48]
ldrsw	x2, [x2, x0, lsl 2]
b	.L14
.L194:
ldr	x0, [x19, -24]
ldr	x2, [x0]
ldrsw	x0, [x19, -44]
ldr	x2, [x2]
ldrsw	x0, [x19, -48]
ldrsw	x2, [x2, x0, lsl 2]
b	.L14
.L195:
ldr	x0, [x19, -24]
ldr	x2, [x0]
ldrsw	x0, [x19, -44]
ldr	x2, [x2]
ldrsw	x0, [x19, -48]
ldrsw	x2, [x2, x0, lsl 2]
b	.L14
.L196:
ldr	x0, [x19, -24]
ldr	x2, [x0]
ldrsw	x0, [x19, -44]
ldr	x2, [x2]
ldrsw	x0, [x19, -48]
ldrsw	x2, [x2, x0, lsl 2]
b	.L14
.L197:
ldr	x0, [x19, -24]
ldr	x2, [x0]
ldrsw	x0, [x19, -44]
ldr	x2, [x2]
ldrsw	x0, [x19, -48]
ldrsw	x2, [x2, x0, lsl 2]
b	.L14
.L198:
ldr	x0, [x19, -24]
ldr	x2, [x0]
ldrsw	x0, [x19, -44]
ldr	x2, [x2]
ldrsw	x0, [x19, -48]
ldrsw	x2, [x2, x0, lsl 2]
b	.L14
.L199:
ldr	x0, [x19, -24]
ldr	x2, [x0]
ldrsw	x0, [x19, -44]
ldr	x2, [x2]
ldrsw	x0, [x19, -48]
ldrsw	x2, [x2, x0, lsl 2]
b	.L14
.L200:
ldr	x0, [x19, -24]
ldr	x2, [x0]
ldrsw	x0, [x19, -44]
ldr	x2, [x2]
ldrsw	x0, [x19, -48]
ldrsw	x2, [x2, x0, lsl 2]
b	.L14
.L201:
ldr	x0, [x19, -24]
ldr	x2, [x0]
ldrsw	x0, [x19, -44]
ldr	x2, [x2]
ldrsw	x0, [x19, -48]
ldrsw	x2, [x2, x0, lsl 2]
b	.L14
.L202:
ldr	x0, [x19, -24]
ldr	x2, [x0]
ldrsw	x0, [x19, -44]
ldr	x2, [x2]
ldrsw	x0, [x19, -48]
ldrsw	x2, [x2, x0, lsl 2]
b	.L14
.L203:
ldr	x0, [x19, -24]
ldr	x2, [x0]
ldrsw	x0, [x19, -44]
ldr	x2, [x2]
ldrsw	x0, [x19, -48]
ldrsw	x2, [x2, x0, lsl 2]
b	.L14
.L204:
ldr	x0, [x19, -24]
ldr	x2, [x0]
ldrsw	x0, [x19, -44]
ldr	x2, [x2]
ldrsw	x0, [x19, -48]
ldrsw	x2, [x2, x0, lsl 2]
b	.L14
.L205:
ldr	x0, [x19, -24]
ldr	x2, [x0]
ldrsw	x0, [x19, -44]
ldr	x2, [x2]
ldrsw	x0, [x19, -48]
ldrsw	x2, [x2, x0, lsl 2]
b	.L14
.L206:
ldr	x0, [x19, -24]
ldr	x2, [x0]
ldrsw	x0, [x19, -44]
ldr	x2, [x2]
ldrsw	x0, [x19, -48]
ldrsw	x2, [x2, x0, lsl 2]
b	.L14
.L207:
ldr	x0, [x19, -24]
ldr	x2, [x0]
ldrsw	x0, [x19, -44]
ldr	x2, [x2]
ldrsw	x0, [x19, -48]
ldrsw	x2, [x2, x0, lsl 2]
b	.L14
.L208:
ldr	x0, [x19, -24]
ldr	x2, [x0]
ldrsw	x0, [x19, -44]
ldr	x2, [x2]
ldrsw	x0, [x19, -48]
ldrsw	x2, [x2, x0, lsl 2]
b	.L14
.L209:
ldr	x0, [x19, -24]
ldr	x2, [x0]
ldrsw	x0, [x19, -44]
ldr	x2, [x2]
ldrsw	x0, [x19, -48]
ldrsw	x2, [x2, x0, lsl 2]
b	.L14
.L210:
ldr	x0, [x19, -24]
ldr	x2, [x0]
ldrsw	x0, [x19, -44]
ldr	x2, [x2]
ldrsw	x0, [x19, -48]
ldrsw	x2, [x2, x0, lsl 2]
b	.L14
.L211:
ldr	x0, [x19, -24]
ldr	x2, [x0]
ldrsw	x0, [x19, -44]
ldr	x2, [x2]
ldrsw	x0, [x19, -48]
ldrsw	x2, [x2, x0, lsl 2]
b	.L14
.L212:
ldr	x0, [x19, -24]
ldr	x2, [x0]
ldrsw	x0, [x19, -44]
ldr	x2, [x2]
ldrsw	x0, [x19, -48]
ldrsw	x2, [x2, x0, lsl 2]
b	.L14
.L213:
ldr	x0, [x19, -24]
ldr	x2, [x0]
ldrsw	x0, [x19, -44]
ldr	x2, [x2]
ldrsw	x0, [x19, -48]
ldrsw	x2, [x2, x0, lsl 2]
b	.L14
.L214:
ldr	x0, [x19, -24]
ldr	x2, [x0]
ldrsw	x0, [x19, -44]
ldr	x2, [x2]
ldrsw	x0, [x19, -48]
ldrsw	x2, [x2, x0, lsl 2]
b	.L14
.L215:
ldr	x0, [x19, -24]
ldr	x2, [x0]
ldrsw	x0, [x19, -44]
ldr	x2, [x2]
ldrsw	x0, [x19, -48]
ldrsw	x2, [x2, x0, lsl 2]
b	.L14
.L216:
ldr	x0, [x19, -24]
ldr	x2, [x0]
ldrsw	x0, [x19, -44]
ldr	x2, [x2]
ldrsw	x0, [x19, -48]
ldrsw	x2, [x2, x0, lsl 2]
b	.L14
.L217:
ldr	x0, [x19, -24]
ldr	x2, [x0]
ldrsw	x0, [x19, -44]
ldr	x2, [x2]
ldrsw	x0, [x19, -48]
ldrsw	x2, [x2, x0, lsl 2]
b	.L14
.L218:
ldr	x0, [x19, -24]
ldr	x2, [x0]
ldrsw	x0, [x19, -44]
ldr	x2, [x2]
ldrsw	x0, [x19, -48]
ldrsw	x2, [x2, x0, lsl 2]
b	.L14
.L219:
ldr	x0, [x19, -24]
ldr	x2, [x0]
ldrsw	x0, [x19, -44]
ldr	x2, [x2]
ldrsw	x0, [x19, -48]
ldrsw	x2, [x2, x0, lsl 2]
b	.L14
.L220:
ldr	x0, [x19, -24]
ldr	x2, [x0]
ldrsw	x0, [x19, -44]
ldr	x2, [x2]
ldrsw	x0, [x19, -48]
ldrsw	x2, [x2, x0, lsl 2]
b	.L14
.L221:
ldr	x0, [x19, -24]
ldr	x2, [x0]
ldrsw	x0, [x19, -44]
ldr	x2, [x2]
ldrsw	x0, [x19, -48]
ldrsw	x2, [x2, x0, lsl 2]
b	.L14
.L222:
ldr	x0, [x19, -24]
ldr	x2, [x0]
ldrsw	x0, [x19, -44]
ldr	x2, [x2]
ldrsw	x0, [x19, -48]
ldrsw	x2, [x2, x0, lsl 2]
b	.L14
.L223:
ldr	x0, [x19, -24]
ldr	x2, [x0]
ldrsw	x0, [x19, -44]
ldr	x2, [x2]
ldrsw	x0, [x19, -48]
ldrsw	x2, [x2, x0, lsl 2]
b	.L14
.L224:
ldr	x0, [x19, -24]
ldr	x2, [x0]
ldrsw	x0, [x19, -44]
ldr	x2, [x2]
ldrsw	x0, [x19, -48]
ldrsw	x2, [x2, x0, lsl 2]
b	.L14
.L225:
ldr	x0, [x19, -24]
ldr	x2, [x0]
ldrsw	x0, [x19, -44]
ldr	x2, [x2]
ldrsw	x0, [x19, -48]
ldrsw	x2, [x2, x0, lsl 2]
b	.L14
.L226:
ldr	x0, [x19, -24]
ldr	x2, [x0]
ldrsw	x0, [x19, -44]
ldr	x2, [x2]
ldrsw	x0, [x19, -48]
ldrsw	x2, [x2, x0, lsl 2]
b	.L14
.L227:
ldr	x0, [x19, -24]
ldr	x2, [x0]
ldrsw	x0, [x19, -44]
ldr	x2, [x2]
ldrsw	x0, [x19, -48]
ldrsw	x2, [x2, x0, lsl 2]
b	.L14
.L228:
ldr	x0, [x19, -24]
ldr	x2, [x0]
ldrsw	x0, [x19, -44]
ldr	x2, [x2]
ldrsw	x0, [x19, -48]
ldrsw	x2, [x2, x0, lsl 2]
b	.L14
.L229:
ldr	x0, [x19, -24]
ldr	x2, [x0]
ldrsw	x0, [x19, -44]
ldr	x2, [x2]
ldrsw	x0, [x19, -48]
ldrsw	x2, [x2, x0, lsl 2]
b	.L14
.L230:
ldr	x0, [x19, -24]
ldr	x2, [x0]
ldrsw	x0, [x19, -44]
ldr	x2, [x2]
ldrsw	x0, [x19, -48]
ldrsw	x2, [x2, x0, lsl 2]
b	.L14
.L231:
ldr	x0, [x19, -24]
ldr	x2, [x0]
ldrsw	x0, [x19, -44]
ldr	x2, [x2]
ldrsw	x0, [x19, -48]
ldrsw	x2, [x2, x0, lsl 2]
b	.L14
.L232:
ldr	x0, [x19, -24]
ldr	x2, [x0]
ldrsw	x0, [x19, -44]
ldr	x2, [x2]
ldrsw	x0, [x19, -48]
ldrsw	x2, [x2, x0, lsl 2]
b	.L14
.L233:
ldr	x0, [x19, -24]
ldr	x2, [x0]
ldrsw	x0, [x19, -44]
ldr	x2, [x2]
ldrsw	x0, [x19, -48]
ldrsw	x2, [x2, x0, lsl 2]
b	.L14
.L234:
ldr	x0, [x19, -24]
ldr	x2, [x0]
ldrsw	x0, [x19, -44]
ldr	x2, [x2]
ldrsw	x0, [x19, -48]
ldrsw	x2, [x2, x0, lsl 2]
b	.L14
.L235:
ldr	x0, [x19, -24]
ldr	x2, [x0]
ldrsw	x0, [x19, -44]
ldr	x2, [x2]
ldrsw	x0, [x19, -48]
ldrsw	x2, [x2, x0, lsl 2]
b	.L14
.L236:
ldr	x0, [x19, -24]
ldr	x2, [x0]
ldrsw	x0, [x19, -44]
ldr	x2, [x2]
ldrsw	x0, [x19, -48]
ldrsw	x2, [x2, x0, lsl 2]
b	.L14
.L237:
ldr	x0, [x19, -24]
ldr	x2, [x0]
ldrsw	x0, [x19, -44]
ldr	x2, [x2]
ldrsw	x0, [x19, -48]
ldrsw	x2, [x2, x0, lsl 2]
b	.L14
.L238:
ldr	x0, [x19, -24]
ldr	x2, [x0]
ldrsw	x0, [x19, -44]
ldr	x2, [x2]
ldrsw	x0, [x19, -48]
ldrsw	x2, [x2, x0, lsl 2]
b	.L14
.L239:
ldr	x0, [x19, -24]
ldr	x2, [x0]
ldrsw	x0, [x19, -44]
ldr	x2, [x2]
ldrsw	x0, [x19, -48]
ldrsw	x2, [x2, x0, lsl 2]
b	.L14
.L240:
ldr	x0, [x19, -24]
ldr	x2, [x0]
ldrsw	x0, [x19, -44]
ldr	x2, [x2]
ldrsw	x0, [x19, -48]
ldrsw	x2, [x2, x0, lsl 2]
b	.L14
.L241:
ldr	x0, [x19, -24]
ldr	x2, [x0]
ldrsw	x0, [x19, -44]
ldr	x2, [x2]
ldrsw	x0, [x19, -48]
ldrsw	x2, [x2, x0, lsl 2]
b	.L14
.L242:
ldr	x0, [x19, -24]
ldr	x2, [x0]
ldrsw	x0, [x19, -44]
ldr	x2, [x2]
ldrsw	x0, [x19, -48]
ldrsw	x2, [x2, x0, lsl 2]
b	.L14
.L243:
ldr	x0, [x19, -24]
ldr	x2, [x0]
ldrsw	x0, [x19, -44]
ldr	x2, [x2]
ldrsw	x0, [x19, -48]
ldrsw	x2, [x2, x0, lsl 2]
b	.L14
.L244:
ldr	x0, [x19, -24]
ldr	x2, [x0]
ldrsw	x0, [x19, -44]
ldr	x2, [x2]
ldrsw	x0, [x19, -48]
ldrsw	x2, [x2, x0, lsl 2]
b	.L14
.L245:
ldr	x0, [x19, -24]
ldr	x2, [x0]
ldrsw	x0, [x19, -44]
ldr	x2, [x2]
ldrsw	x0, [x19, -48]
ldrsw	x2, [x2, x0, lsl 2]
b	.L14
.L246:
ldr	x0, [x19, -24]
ldr	x2, [x0]
ldrsw	x0, [x19, -44]
ldr	x2, [x2]
ldrsw	x0, [x19, -48]
ldrsw	x2, [x2, x0, lsl 2]
b	.L14
.L247:
ldr	x0, [x19, -24]
ldr	x2, [x0]
ldrsw	x0, [x19, -44]
ldr	x2, [x2]
ldrsw	x0, [x19, -48]
ldrsw	x2, [x2, x0, lsl 2]
b	.L14
.L248:
ldr	x0, [x19, -24]
ldr	x2, [x0]
ldrsw	x0, [x19, -44]
ldr	x2, [x2]
ldrsw	x0, [x19, -48]
ldrsw	x2, [x2, x0, lsl 2]
b	.L14
.L249:
ldr	x0, [x19, -24]
ldr	x2, [x0]
ldrsw	x0, [x19, -44]
ldr	x2, [x2]
ldrsw	x0, [x19, -48]
ldrsw	x2, [x2, x0, lsl 2]
b	.L14
.L250:
ldr	x0, [x19, -24]
ldr	x2, [x0]
ldrsw	x0, [x19, -44]
ldr	x2, [x2]
ldrsw	x0, [x19, -48]
ldrsw	x2, [x2, x0, lsl 2]
b	.L14
.L251:
ldr	x0, [x19, -24]
ldr	x2, [x0]
ldrsw	x0, [x19, -44]
ldr	x2, [x2]
ldrsw	x0, [x19, -48]
ldrsw	x2, [x2, x0, lsl 2]
b	.L14
.L252:
ldr	x0, [x19, -24]
ldr	x2, [x0]
ldrsw	x0, [x19, -44]
ldr	x2, [x2]
ldrsw	x0, [x19, -48]
ldrsw	x2, [x2, x0, lsl 2]
b	.L14
.L253:
ldr	x0, [x19, -24]
ldr	x2, [x0]
ldrsw	x0, [x19, -44]
ldr	x2, [x2]
ldrsw	x0, [x19, -48]
ldrsw	x2, [x2, x0, lsl 2]
b	.L14
.L254:
ldr	x0, [x19, -24]
ldr	x2, [x0]
ldrsw	x0, [x19, -44]
ldr	x2, [x2]
ldrsw	x0, [x19, -48]
ldrsw	x2, [x2, x0, lsl 2]
b	.L14
.L255:
ldr	x0, [x19, -24]
ldr	x2, [x0]
ldrsw	x0, [x19, -44]
ldr	x2, [x2]
ldrsw	x0, [x19, -48]
ldrsw	x2, [x2, x0, lsl 2]
b	.L14
.L256:
ldr	x0, [x19, -24]
ldr	x2, [x0]
ldrsw	x0, [x19, -44]
ldr	x2, [x2]
ldrsw	x0, [x19, -48]
ldrsw	x2, [x2, x0, lsl 2]
b	.L14
.L257:
ldr	x0, [x19, -24]
ldr	x2, [x0]
ldrsw	x0, [x19, -44]
ldr	x2, [x2]
ldrsw	x0, [x19, -48]
ldrsw	x2, [x2, x0, lsl 2]
b	.L14
.L258:
ldr	x0, [x19, -24]
ldr	x2, [x0]
ldrsw	x0, [x19, -44]
ldr	x2, [x2]
ldrsw	x0, [x19, -48]
ldrsw	x2, [x2, x0, lsl 2]
b	.L14
.L259:
ldr	x0, [x19, -24]
ldr	x2, [x0]
ldrsw	x0, [x19, -44]
ldr	x2, [x2]
ldrsw	x0, [x19, -48]
ldrsw	x2, [x2, x0, lsl 2]
b	.L14
.L260:
ldr	x0, [x19, -24]
ldr	x2, [x0]
ldrsw	x0, [x19, -44]
ldr	x2, [x2]
ldrsw	x0, [x19, -48]
ldrsw	x2, [x2, x0, lsl 2]
b	.L14
.L261:
ldr	x0, [x19, -24]
ldr	x2, [x0]
ldrsw	x0, [x19, -44]
ldr	x2, [x2]
ldrsw	x0, [x19, -48]
ldrsw	x2, [x2, x0, lsl 2]
b	.L14
.L262:
ldr	x0, [x19, -24]
ldr	x2, [x0]
ldrsw	x0, [x19, -44]
ldr	x2, [x2]
ldrsw	x0, [x19, -48]
ldrsw	x2, [x2, x0, lsl 2]
b	.L14
.L263:
ldr	x0, [x19, -24]
ldr	x2, [x0]
ldrsw	x0, [x19, -44]
ldr	x2, [x2]
ldrsw	x0, [x19, -48]
ldrsw	x2, [x2, x0, lsl 2]
b	.L14
.L264:
ldr	x0, [x19, -24]
ldr	x2, [x0]
ldrsw	x0, [x19, -44]
ldr	x2, [x2]
ldrsw	x0, [x19, -48]
ldrsw	x2, [x2, x0, lsl 2]
b	.L14
.L265:
ldr	x0, [x19, -24]
ldr	x2, [x0]
ldrsw	x0, [x19, -44]
ldr	x2, [x2]
ldrsw	x0, [x19, -48]
ldrsw	x2, [x2, x0, lsl 2]
b	.L14
.L266:
ldr	x0, [x19, -24]
ldr	x2, [x0]
ldrsw	x0, [x19, -44]
ldr	x2, [x2]
ldrsw	x0, [x19, -48]
ldrsw	x2, [x2, x0, lsl 2]
b	.L14
.L267:
ldr	x0, [x19, -24]
ldr	x2, [x0]
ldrsw	x0, [x19, -44]
ldr	x2, [x2]
ldrsw	x0, [x19, -48]
ldrsw	x2, [x2, x0, lsl 2]
b	.L14
.L268:
ldr	x0, [x19, -24]
ldr	x2, [x0]
ldrsw	x0, [x19, -44]
ldr	x2, [x2]
ldrsw	x0, [x19, -48]
ldrsw	x2, [x2, x0, lsl 2]
b	.L14
.L269:
ldr	x0, [x19, -24]
ldr	x2, [x0]
ldrsw	x0, [x19, -44]
ldr	x2, [x2]
ldrsw	x0, [x19, -48]
ldrsw	x2, [x2, x0, lsl 2]
b	.L14
.L270:
ldr	x0, [x19, -24]
ldr	x2, [x0]
ldrsw	x0, [x19, -44]
ldr	x2, [x2]
ldrsw	x0, [x19, -48]
ldrsw	x2, [x2, x0, lsl 2]
b	.L14
.L271:
ldr	x0, [x19, -24]
ldr	x2, [x0]
ldrsw	x0, [x19, -44]
ldr	x2, [x2]
ldrsw	x0, [x19, -48]
ldrsw	x2, [x2, x0, lsl 2]
b	.L14
.L272:
ldr	x0, [x19, -24]
ldr	x2, [x0]
ldrsw	x0, [x19, -44]
ldr	x2, [x2]
ldrsw	x0, [x19, -48]
ldrsw	x2, [x2, x0, lsl 2]
b	.L14
.L273:
ldr	x0, [x19, -24]
ldr	x2, [x0]
ldrsw	x0, [x19, -44]
ldr	x2, [x2]
ldrsw	x0, [x19, -48]
ldrsw	x2, [x2, x0, lsl 2]
b	.L14
.L274:
ldr	x0, [x19, -24]
ldr	x2, [x0]
ldrsw	x0, [x19, -44]
ldr	x2, [x2]
ldrsw	x0, [x19, -48]
ldrsw	x2, [x2, x0, lsl 2]
b	.L14
.L275:
ldr	x0, [x19, -24]
ldr	x2, [x0]
ldrsw	x0, [x19, -44]
ldr	x2, [x2]
ldrsw	x0, [x19, -48]
ldrsw	x2, [x2, x0, lsl 2]
b	.L14
.L276:
ldr	x0, [x19, -24]
ldr	x2, [x0]
ldrsw	x0, [x19, -44]
ldr	x2, [x2]
ldrsw	x0, [x19, -48]
ldrsw	x2, [x2, x0, lsl 2]
b	.L14
.L277:
ldr	x0, [x19, -24]
ldr	x2, [x0]
ldrsw	x0, [x19, -44]
ldr	x2, [x2]
ldrsw	x0, [x19, -48]
ldrsw	x2, [x2, x0, lsl 2]
b	.L14
.L278:
ldr	x0, [x19, -24]
ldr	x2, [x0]
ldrsw	x0, [x19, -44]
ldr	x2, [x2]
ldrsw	x0, [x19, -48]
ldrsw	x2, [x2, x0, lsl 2]
b	.L14
.L279:
ldr	x0, [x19, -24]
ldr	x2, [x0]
ldrsw	x0, [x19, -44]
ldr	x2, [x2]
ldrsw	x0, [x19, -48]
ldrsw	x2, [x2, x0, lsl 2]
b	.L14
.L280:
ldr	x0, [x19, -24]
ldr	x2, [x0]
ldrsw	x0, [x19, -44]
ldr	x2, [x2]
ldrsw	x0, [x19, -48]
ldrsw	x2, [x2, x0, lsl 2]
b	.L14
.L281:
ldr	x0, [x19, -24]
ldr	x2, [x0]
ldrsw	x0, [x19, -44]
ldr	x2, [x2]
ldrsw	x0, [x19, -48]
ldrsw	x2, [x2, x0, lsl 2]
b	.L14
.L282:
ldr	x0, [x19, -24]
ldr	x2, [x0]
ldrsw	x0, [x19, -44]
ldr	x2, [x2]
ldrsw	x0, [x19, -48]
ldrsw	x2, [x2, x0, lsl 2]
b	.L14
.L283:
ldr	x0, [x19, -24]
ldr	x2, [x0]
ldrsw	x0, [x19, -44]
ldr	x2, [x2]
ldrsw	x0, [x19, -48]
ldrsw	x2, [x2, x0, lsl 2]
b	.L14
.L284:
ldr	x0, [x19, -24]
ldr	x2, [x0]
ldrsw	x0, [x19, -44]
ldr	x2, [x2]
ldrsw	x0, [x19, -48]
ldrsw	x2, [x2, x0, lsl 2]
b	.L14
.L285:
ldr	x0, [x19, -24]
ldr	x2, [x0]
ldrsw	x0, [x19, -44]
ldr	x2, [x2]
ldrsw	x0, [x19, -48]
ldrsw	x2, [x2, x0, lsl 2]
b	.L14
.L286:
ldr	x0, [x19, -24]
ldr	x2, [x0]
ldrsw	x0, [x19, -44]
ldr	x2, [x2]
ldrsw	x0, [x19, -48]
ldrsw	x2, [x2, x0, lsl 2]
b	.L14
.L287:
ldr	x0, [x19, -24]
ldr	x2, [x0]
ldrsw	x0, [x19, -44]
ldr	x2, [x2]
ldrsw	x0, [x19, -48]
ldrsw	x2, [x2, x0, lsl 2]
b	.L14
.L288:
ldr	x0, [x19, -24]
ldr	x2, [x0]
ldrsw	x0, [x19, -44]
ldr	x2, [x2]
ldrsw	x0, [x19, -48]
ldrsw	x2, [x2, x0, lsl 2]
b	.L14
.L289:
ldr	x0, [x19, -24]
ldr	x2, [x0]
ldrsw	x0, [x19, -44]
ldr	x2, [x2]
ldrsw	x0, [x19, -48]
ldrsw	x2, [x2, x0, lsl 2]
b	.L14
.L290:
ldr	x0, [x19, -24]
ldr	x2, [x0]
ldrsw	x0, [x19, -44]
ldr	x2, [x2]
ldrsw	x0, [x19, -48]
ldrsw	x2, [x2, x0, lsl 2]
b	.L14
.L291:
ldr	x0, [x19, -24]
ldr	x2, [x0]
ldrsw	x0, [x19, -44]
ldr	x2, [x2]
ldrsw	x0, [x19, -48]
ldrsw	x2, [x2, x0, lsl 2]
b	.L14
.L292:
ldr	x0, [x19, -24]
ldr	x2, [x0]
ldrsw	x0, [x19, -44]
ldr	x2, [x2]
ldrsw	x0, [x19, -48]
ldrsw	x2, [x2, x0, lsl 2]
b	.L14
.L293:
ldr	x0, [x19, -24]
ldr	x2, [x0]
ldrsw	x0, [x19, -44]
ldr	x2, [x2]
ldrsw	x0, [x19, -48]
ldrsw	x2, [x2, x0, lsl 2]
b	.L14
.L294:
ldr	x0, [x19, -24]
ldr	x2, [x0]
ldrsw	x0, [x19, -44]
ldr	x2, [x2]
ldrsw	x0, [x19, -48]
ldrsw	x2, [x2, x0, lsl 2]
b	.L14
.L295:
ldr	x0, [x19, -24]
ldr	x2, [x0]
ldrsw	x0, [x19, -44]
ldr	x2, [x2]
ldrsw	x0, [x19, -48]
ldrsw	x2, [x2, x0, lsl 2]
b	.L14
.L296:
ldr	x0, [x19, -24]
ldr	x2, [x0]
ldrsw	x0, [x19, -44]
ldr	x2, [x2]
ldrsw	x0, [x19, -48]
ldrsw	x2, [x2, x0, lsl 2]
b	.L14
.L297:
ldr	x0, [x19, -24]
ldr	x2, [x0]
ldrsw	x0, [x19, -44]
ldr	x2, [x2]
ldrsw	x0, [x19, -48]
ldrsw	x2, [x2, x0, lsl 2]
b	.L14
.L298:
ldr	x0, [x19, -24]
ldr	x2, [x0]
ldrsw	x0, [x19, -44]
ldr	x2, [x2]
ldrsw	x0, [x19, -48]
ldrsw	x2, [x2, x0, lsl 2]
b	.L14
.L299:
ldr	x0, [x19, -24]
ldr	x2, [x0]
ldrsw	x0, [x19, -44]
ldr	x2, [x2]
ldrsw	x0, [x19, -48]
ldrsw	x2, [x2, x0, lsl 2]
b	.L14
.L300:
ldr	x0, [x19, -24]
ldr	x2, [x0]
ldrsw	x0, [x19, -44]
ldr	x2, [x2]
ldrsw	x0, [x19, -48]
ldrsw	x2, [x2, x0, lsl 2]
b	.L14
.L301:
ldr	x0, [x19, -24]
ldr	x2, [x0]
ldrsw	x0, [x19, -44]
ldr	x2, [x2]
ldrsw	x0, [x19, -48]
ldrsw	x2, [x2, x0, lsl 2]
b	.L14
.L302:
ldr	x0, [x19, -24]
ldr	x2, [x0]
ldrsw	x0, [x19, -44]
ldr	x2, [x2]
ldrsw	x0, [x19, -48]
ldrsw	x2, [x2, x0, lsl 2]
b	.L14
.L303:
ldr	x0, [x19, -24]
ldr	x2, [x0]
ldrsw	x0, [x19, -44]
ldr	x2, [x2]
ldrsw	x0, [x19, -48]
ldrsw	x2, [x2, x0, lsl 2]
b	.L14
.L304:
ldr	x0, [x19, -24]
ldr	x2, [x0]
ldrsw	x0, [x19, -44]
ldr	x2, [x2]
ldrsw	x0, [x19, -48]
ldrsw	x2, [x2, x0, lsl 2]
b	.L14
.L305:
ldr	x0, [x19, -24]
ldr	x2, [x0]
ldrsw	x0, [x19, -44]
ldr	x2, [x2]
ldrsw	x0, [x19, -48]
ldrsw	x2, [x2, x0, lsl 2]
b	.L14
.L306:
ldr	x0, [x19, -24]
ldr	x2, [x0]
ldrsw	x0, [x19, -44]
ldr	x2, [x2]
ldrsw	x0, [x19, -48]
ldrsw	x2, [x2, x0, lsl 2]
b	.L14
.L307:
ldr	x0, [x19, -24]
ldr	x2, [x0]
ldrsw	x0, [x19, -44]
ldr	x2, [x2]
ldrsw	x0, [x19, -48]
ldrsw	x2, [x2, x0, lsl 2]
b	.L14
.L308:
ldr	x0, [x19, -24]
ldr	x2, [x0]
ldrsw	x0, [x19, -44]
ldr	x2, [x2]
ldrsw	x0, [x19, -48]
ldrsw	x2, [x2, x0, lsl 2]
b	.L14
.L309:
ldr	x0, [x19, -24]
ldr	x2, [x0]
ldrsw	x0, [x19, -44]
ldr	x2, [x2]
ldrsw	x0, [x19, -48]
ldrsw	x2, [x2, x0, lsl 2]
b	.L14
.L310:
ldr	x0, [x19, -24]
ldr	x2, [x0]
ldrsw	x0, [x19, -44]
ldr	x2, [x2]
ldrsw	x0, [x19, -48]
ldrsw	x2, [x2, x0, lsl 2]
b	.L14
.L311:
ldr	x0, [x19, -24]
ldr	x2, [x0]
ldrsw	x0, [x19, -44]
ldr	x2, [x2]
ldrsw	x0, [x19, -48]
ldrsw	x2, [x2, x0, lsl 2]
b	.L14
.L312:
ldr	x0, [x19, -24]
ldr	x2, [x0]
ldrsw	x0, [x19, -44]
ldr	x2, [x2]
ldrsw	x0, [x19, -48]
ldrsw	x2, [x2, x0, lsl 2]
b	.L14
.L313:
ldr	x0, [x19, -24]
ldr	x2, [x0]
ldrsw	x0, [x19, -44]
ldr	x2, [x2]
ldrsw	x0, [x19, -48]
ldrsw	x2, [x2, x0, lsl 2]
b	.L14
.L314:
ldr	x0, [x19, -24]
ldr	x2, [x0]
ldrsw	x0, [x19, -44]
ldr	x2, [x2]
ldrsw	x0, [x19, -48]
ldrsw	x2, [x2, x0, lsl 2]
b	.L14
.L315:
ldr	x0, [x19, -24]
ldr	x2, [x0]
ldrsw	x0, [x19, -44]
ldr	x2, [x2]
ldrsw	x0, [x19, -48]
ldrsw	x2, [x2, x0, lsl 2]
b	.L14
.L316:
ldr	x0, [x19, -24]
ldr	x2, [x0]
ldrsw	x0, [x19, -44]
ldr	x2, [x2]
ldrsw	x0, [x19, -48]
ldrsw	x2, [x2, x0, lsl 2]
b	.L14
.L317:
ldr	x0, [x19, -24]
ldr	x2, [x0]
ldrsw	x0, [x19, -44]
ldr	x2, [x2]
ldrsw	x0, [x19, -48]
ldrsw	x2, [x2, x0, lsl 2]
b	.L14
.L318:
ldr	x0, [x19, -24]
ldr	x2, [x0]
ldrsw	x0, [x19, -44]
ldr	x2, [x2]
ldrsw	x0, [x19, -48]
ldrsw	x2, [x2, x0, lsl 2]
b	.L14
.L319:
ldr	x0, [x19, -24]
ldr	x2, [x0]
ldrsw	x0, [x19, -44]
ldr	x2, [x2]
ldrsw	x0, [x19, -48]
ldrsw	x2, [x2, x0, lsl 2]
b	.L14
.L320:
ldr	x0, [x19, -24]
ldr	x2, [x0]
ldrsw	x0, [x19, -44]
ldr	x2, [x2]
ldrsw	x0, [x19, -48]
ldrsw	x2, [x2, x0, lsl 2]
b	.L14
.L321:
ldr	x0, [x19, -24]
ldr	x2, [x0]
ldrsw	x0, [x19, -44]
ldr	x2, [x2]
ldrsw	x0, [x19, -48]
ldrsw	x2, [x2, x0, lsl 2]
b	.L14
.L322:
ldr	x0, [x19, -24]
ldr	x2, [x0]
ldrsw	x0, [x19, -44]
ldr	x2, [x2]
ldrsw	x0, [x19, -48]
ldrsw	x2, [x2, x0, lsl 2]
b	.L14
.L323:
ldr	x0, [x19, -24]
ldr	x2, [x0]
ldrsw	x0, [x19, -44]
ldr	x2, [x2]
ldrsw	x0, [x19, -48]
ldrsw	x2, [x2, x0, lsl 2]
b	.L14
.L324:
ldr	x0, [x19, -24]
ldr	x2, [x0]
ldrsw	x0, [x19, -44]
ldr	x2, [x2]
ldrsw	x0, [x19, -48]
ldrsw	x2, [x2, x0, lsl 2]
b	.L14
.L325:
ldr	x0, [x19, -24]
ldr	x2, [x0]
ldrsw	x0, [x19, -44]
ldr	x2, [x2]
ldrsw	x0, [x19, -48]
ldrsw	x2, [x2, x0, lsl 2]
b	.L14
.L326:
ldr	x0, [x19, -24]
ldr	x2, [x0]
ldrsw	x0, [x19, -44]
ldr	x2, [x2]
ldrsw	x0, [x19, -48]
ldrsw	x2, [x2, x0, lsl 2]
b	.L14
.L327:
ldr	x0, [x19, -24]
ldr	x2, [x0]
ldrsw	x0, [x19, -44]
ldr	x2, [x2]
ldrsw	x0, [x19, -48]
ldrsw	x2, [x2, x0, lsl 2]
b	.L14
.L328:
ldr	x0, [x19, -24]
ldr	x2, [x0]
ldrsw	x0, [x19, -44]
ldr	x2, [x2]
ldrsw	x0, [x19, -48]
ldrsw	x2, [x2, x0, lsl 2]
b	.L14
.L329:
ldr	x0, [x19, -24]
ldr	x2, [x0]
ldrsw	x0, [x19, -44]
ldr	x2, [x2]
ldrsw	x0, [x19, -48]
ldrsw	x2, [x2, x0, lsl 2]
b	.L14
.L330:
ldr	x0, [x19, -24]
ldr	x2, [x0]
ldrsw	x0, [x19, -44]
ldr	x2, [x2]
ldrsw	x0, [x19, -48]
ldrsw	x2, [x2, x0, lsl 2]
b	.L14
.L331:
ldr	x0, [x19, -24]
ldr	x2, [x0]
ldrsw	x0, [x19, -44]
ldr	x2, [x2]
ldrsw	x0, [x19, -48]
ldrsw	x2, [x2, x0, lsl 2]
b	.L14
.L332:
ldr	x0, [x19, -24]
ldr	x2, [x0]
ldrsw	x0, [x19, -44]
ldr	x2, [x2]
ldrsw	x0, [x19, -48]
ldrsw	x2, [x2, x0, lsl 2]
b	.L14
.L333:
ldr	x0, [x19, -24]
ldr	x2, [x0]
ldrsw	x0, [x19, -44]
ldr	x2, [x2]
ldrsw	x0, [x19, -48]
ldrsw	x2, [x2, x0, lsl 2]
b	.L14
.L334:
ldr	x0, [x19, -24]
ldr	x2, [x0]
ldrsw	x0, [x19, -44]
ldr	x2, [x2]
ldrsw	x0, [x19, -48]
ldrsw	x2, [x2, x0, lsl 2]
b	.L14
.L335:
ldr	x0, [x19, -24]
ldr	x2, [x0]
ldrsw	x0, [x19, -44]
ldr	x2, [x2]
ldrsw	x0, [x19, -48]
ldrsw	x2, [x2, x0, lsl 2]
b	.L14
.L336:
ldr	x0, [x19, -24]
ldr	x2, [x0]
ldrsw	x0, [x19, -44]
ldr	x2, [x2]
ldrsw	x0, [x19, -48]
ldrsw	x2, [x2, x0, lsl 2]
b	.L14
.L337:
ldr	x0, [x19, -24]
ldr	x2, [x0]
ldrsw	x0, [x19, -44]
ldr	x2, [x2]
ldrsw	x0, [x19, -48]
ldrsw	x2, [x2, x0, lsl 2]
b	.L14
.L338:
ldr	x0, [x19, -24]
ldr	x2, [x0]
ldrsw	x0, [x19, -44]
ldr	x2, [x2]
ldrsw	x0, [x19, -48]
ldrsw	x2, [x2, x0, lsl 2]
b	.L14
.L339:
ldr	x0, [x19, -24]
ldr	x2, [x0]
ldrsw	x0, [x19, -44]
ldr	x2, [x2]
ldrsw	x0, [x19, -48]
ldrsw	x2, [x2, x0, lsl 2]
b	.L14
.L340:
ldr	x0, [x19, -24]