.arch armv8-a
.file	__TEXT,__text,regular,pure_instructions
.align	2
.p2align 4,,11
.global	_func0                          ## -- Begin function func0
.section	__TEXT,__text,regular,pure_instructions
.align	2
.p2align 4,,11
_func0:                                 ## @func0
    .cfi_startproc
    ## %bb.0:
    mov	x2, x0
    mov	w0, 47
    str	x2, [sp]
    b	.LB1
LBB0_22:
ldr	x0, [sp]
str	x1, [x2], 16
.L3:
ldrsw	x3, [sp, 48]
ldrb	w0, [x0, x3]
cmp	w0, w0, uxtb
beq	.LB1
mov	w0, 47
ldr	x1, [sp]
str	wzr, [x2, 8]
.L20:
ldrsw	x3, [sp, 48]
add	x2, x2, 8
ldrb	w0, [x1, x3]
str	w0, [x2, -16]
b	.L3
.LB1:
ldr	w0, [sp, 48]
sxtw	x2, w0
sub	x0, sp,
str	wzr, [x2, x2]
bl	x26
str	wzr, [x2, 16]
b	.L20
sub	sp, sp,
.cfi_def_cfa_offset 112
stp	x29, x30, [sp, 16]
.cfi_offset 29, -96
.cfi_offset 30, -88
add	x29, sp, 16
stp	x19, x20, [sp, 32]
.cfi_offset 19, -80
.cfi_offset 20, -72
mov	x20, x1
mov	x19, x0
stp	x21, x22, [sp, 48]
.cfi_offset 21, -64
.cfi_offset 22, -56
adrp	x22, :got:__stack_chk_guard
ldr	x22, [x22, :got_lo12:__stack_chk_guard]
str	x23, [sp, 64]
sub	w23, w0,
.cfi_offset 23, -48
ldr	x1, [x22]
str	x1, [x29, -8]
str	wzr, [x29, -24]
.L1:
ldr	w0, [x29, -24]
ldr	x2, [x29, -16]
ldrb	w1, [x2, x0]
cbnz	w1, .L21
.L7:
ldr	w0, [x29, -24]
sub	x0, x29,
str	wzr, [x0, x0]
bl	x25
str	wzr, [x29, -20]
b	.L7
.L21:
ldr	x0, [x29, -16]
sxtw	x1, w0
sxtw	x2, w23
ldr	w0, [x29, -20]
ldrb	w1, [x0, x1]
str	w1, [x29, -32]
sxtw	x1, w0
sxtw	x2, w23
add	x1, x1, 8
add	x2, x2, 8
ldr	w0, [x29, -20]
ldrb	w1, [x1, x2]
str	w1, [x29, -28]
b	.L1
.L23:
ldr	x0, [x29, -16]
sxtw	x1, w0
sxtw	x2, w23
ldr	w0, [x29, -20]
ldrb	w1, [x0, x1]
str	w1, [x29, -32]
sxtw	x1, w0
add	x2, x2, 8
add	x1, x1, 8
ldr	w0, [x29, -20]
ldrb	w1, [x1, x2]
str	w1, [x29, -28]
b	.L1
.L25:
ldr	x0, [x29, -16]
sxtw	x1, w0
sxtw	x2, w23
ldr	w0, [x29, -20]
ldrb	w1, [x0, x1]
str	w1, [x29, -32]
sxtw	x1, w0
sub	x2, x2,
add	x1, x1, 8
add	x2, x2, 8
ldr	w0, [x29, -20]
ldrb	w1, [x1, x2]
str	w1, [x29, -28]
b	.L1
.L27:
ldr	x0, [x29, -16]
sxtw	x1, w0
sxtw	x2, w23
ldr	w0, [x29, -20]
ldrb	w1, [x0, x1]
str	w1, [x29, -32]
sxtw	x1, w0
sub	x2, x2,
add	x1, x1, 8
add	x2, x2, 8
ldr	w0, [x29, -20]
ldrb	w1, [x1, x2]
str	w1, [x29, -28]
b	.L1
.L29:
ldr	x0, [x29, -16]
sxtw	x1, w0
sxtw	x2, w23
ldr	w0, [x29, -20]
ldrb	w1, [x0, x1]
str	w1, [x29, -32]
sxtw	x1, w0
sub	x2, x2,
add	x1, x1, 8
add	x2, x2, 8
ldr	w0, [x29, -20]
ldrb	w1, [x1, x2]
str	w1, [x29, -28]
b	.L1
.L31:
ldr	x0, [x29, -16]
sxtw	x1, w0
sxtw	x2, w23
ldr	w0, [x29, -20]
ldrb	w1, [x0, x1]
str	w1, [x29, -32]
sxtw	x1, w0
sub	x2, x2,
add	x1, x1, 8
add	x2, x2, 8
ldr	w0, [x29, -20]
ldrb	w1, [x1, x2]
str	w1, [x29, -28]
b	.L1
.L33:
ldr	x0, [x29, -16]
sxtw	x1, w0
sxtw	x2, w23
ldr	w0, [x29, -20]
ldrb	w1, [x0, x1]
str	w1, [x29, -32]
sxtw	x1, w0
sub	x2, x2,
add	x1, x1, 8
add	x2, x2, 8
ldr	w0, [x29, -20]
ldrb	w1, [x1, x2]
str	w1, [x29, -28]
b	.L1
.L35:
ldr	x0, [x29, -16]
sxtw	x1, w0
sxtw	x2, w23
ldr	w0, [x29, -20]
ldrb	w1, [x0, x1]
str	w1, [x29, -32]
sxtw	x1, w0
sub	x2, x2,
add	x1, x1, 8
add	x2, x2, 8
ldr	w0, [x29, -20]
ldrb	w1, [x1, x2]
str	w1, [x29, -28]
b	.L1
.L37:
ldr	x0, [x29, -16]
sxtw	x1, w0
sxtw	x2, w23
ldr	w0, [x29, -20]
ldrb	w1, [x0, x1]
str	w1, [x29, -32]
sxtw	x1, w0
sub	x2, x2,
add	x1, x1, 8
add	x2, x2, 8
ldr	w0, [x29, -20]
ldrb	w1, [x1, x2]
str	w1, [x29, -28]
b	.L1
.L39:
ldr	x0, [x29, -16]
sxtw	x1, w0
sxtw	x2, w23
ldr	w0, [x29, -20]
ldrb	w1, [x0, x1]
str	w1, [x29, -32]
sxtw	x1, w0
sub	x2, x2,
add	x1, x1, 8
add	x2, x2, 8
ldr	w0, [x29, -20]
ldrb	w1, [x1, x2]
str	w1, [x29, -28]
b	.L1
.L41:
ldr	x0, [x29, -16]
sxtw	x1, w0
sxtw	x2, w23
ldr	w0, [x29, -20]
ldrb	w1, [x0, x1]
str	w1, [x29, -32]
sxtw	x1, w0
sub	x2, x2,
add	x1, x1, 8
add	x2, x2, 8
ldr	w0, [x29, -20]
ldrb	w1, [x1, x2]
str	w1, [x29, -28]
b	.L1
.L43:
ldr	x0, [x29, -16]
sxtw	x1, w0
sxtw	x2, w23
ldr	w0, [x29, -20]
ldrb	w1, [x0, x1]
str	w1, [x29, -32]
sxtw	x1, w0
sub	x2, x2,
add	x1, x1, 8
add	x2, x2, 8
ldr	w0, [x29, -20]
ldrb	w1, [x1, x2]
str	w1, [x29, -28]
b	.L1
.L45:
ldr	x0, [x29, -16]
sxtw	x1, w0
sxtw	x2, w23
ldr	w0, [x29, -20]
ldrb	w1, [x0, x1]
str	w1, [x29, -32]
sxtw	x1, w0
sub	x2, x2,
add	x1, x1, 8
add	x2, x2, 8
ldr	w0, [x29, -20]
ldrb	w1, [x1, x2]
str	w1, [x29, -28]
b	.L1
.L47:
ldr	x0, [x29, -16]
sxtw	x1, w0
sxtw	x2, w23
ldr	w0, [x29, -20]
ldrb	w1, [x0, x1]
str	w1, [x29, -32]
sxtw	x1, w0
sub	x2, x2,
add	x1, x1, 8
add	x2, x2, 8
ldr	w0, [x29, -20]
ldrb	w1, [x1, x2]
str	w1, [x29, -28]
b	.L1
.L49:
ldr	x0, [x29, -16]
sxtw	x1, w0
sxtw	x2, w23
ldr	w0, [x29, -20]
ldrb	w1, [x0, x1]
str	w1, [x29, -32]
sxtw	x1, w0
sub	x2, x2,
add	x1, x1, 8
add	x2, x2, 8
ldr	w0, [x29, -20]
ldrb	w1, [x1, x2]
str	w1, [x29, -28]
b	.L1
.L51:
ldr	x0, [x29, -16]
sxtw	x1, w0
sxtw	x2, w23
ldr	w0, [x29, -20]
ldrb	w1, [x0, x1]
str	w1, [x29, -32]
sxtw	x1, w0
sub	x2, x2,
add	x1, x1, 8
add	x2, x2, 8
ldr	w0, [x29, -20]
ldrb	w1, [x1, x2]
str	w1, [x29, -28]
b	.L1
.L53:
ldr	x0, [x29, -16]
sxtw	x1, w0
sxtw	x2, w23
ldr	w0, [x29, -20]
ldrb	w1, [x0, x1]
str	w1, [x29, -32]
sxtw	x1, w0
sub	x2, x2,
add	x1, x1, 8
add	x2, x2, 8
ldr	w0, [x29, -20]
ldrb	w1, [x1, x2]
str	w1, [x29, -28]
b	.L1
.L55:
ldr	x0, [x29, -16]
sxtw	x1, w0
sxtw	x2, w23
ldr	w0, [x29, -20]
ldrb	w1, [x0, x1]
str	w1, [x29, -32]
sxtw	x1, w0
sub	x2, x2,
add	x1, x1, 8
add	x2, x2, 8
ldr	w0, [x29, -20]
ldrb	w1, [x1, x2]
str	w1, [x29, -28]
b	.L1
.L57:
ldr	x0, [x29, -16]
sxtw	x1, w0
sxtw	x2, w23
ldr	w0, [x29, -20]
ldrb	w1, [x0, x1]
str	w1, [x29, -32]
sxtw	x1, w0
sub	x2, x2,
add	x1, x1, 8
add	x2, x2, 8
ldr	w0, [x29, -20]
ldrb	w1, [x1, x2]
str	w1, [x29, -28]
b	.L1
.L59:
ldr	x0, [x29, -16]
sxtw	x1, w0
sxtw	x2, w23
ldr	w0, [x29, -20]
ldrb	w1, [x0, x1]
str	w1, [x29, -32]
sxtw	x1, w0
sub	x2, x2,
add	x1, x1, 8
add	x2, x2, 8
ldr	w0, [x29, -20]
ldrb	w1, [x1, x2]
str	w1, [x29, -28]
b	.L1
.L61:
ldr	x0, [x29, -16]
sxtw	x1, w0
sxtw	x2, w23
ldr	w0, [x29, -20]
ldrb	w1, [x0, x1]
str	w1, [x29, -32]
sxtw	x1, w0
sub	x2, x2,
add	x1, x1, 8
add	x2, x2, 8
ldr	w0, [x29, -20]
ldrb	w1, [x1, x2]
str	w1, [x29, -28]
b	.L1
.L63:
ldr	x0, [x29, -16]
sxtw	x1, w0
sxtw	x2, w23
ldr	w0, [x29, -20]
ldrb	w1, [x0, x1]
str	w1, [x29, -32]
sxtw	x1, w0
sub	x2, x2,
add	x1, x1, 8
add	x2, x2, 8
ldr	w0, [x29, -20]
ldrb	w1, [x1, x2]
str	w1, [x29, -28]
b	.L1
.L65:
ldr	x0, [x29, -16]
sxtw	x1, w0
sxtw	x2, w23
ldr	w0, [x29, -20]
ldrb	w1, [x0, x1]
str	w1, [x29, -32]
sxtw	x1, w0
sub	x2, x2,
add	x1, x1, 8
add	x2, x2, 8
ldr	w0, [x29, -20]
ldrb	w1, [x1, x2]
str	w1, [x29, -28]
b	.L1
.L67:
ldr	x0, [x29, -16]
sxtw	x1, w0
sxtw	x2, w23
ldr	w0, [x29, -20]
ldrb	w1, [x0, x1]
str	w1, [x29, -32]
sxtw	x1, w0
sub	x2, x2,
add	x1, x1, 8
add	x2, x2, 8
ldr	w0, [x29, -20]
ldrb	w1, [x1, x2]
str	w1, [x29, -28]
b	.L1
.L69:
ldr	x0, [x29, -16]
sxtw	x1, w0
sxtw	x2, w23
ldr	w0, [x29, -20]
ldrb	w1, [x0, x1]
str	w1, [x29, -32]
sxtw	x1, w0
sub	x2, x2,
add	x1, x1, 8
add	x2, x2, 8
ldr	w0, [x29, -20]
ldrb	w1, [x1, x2]
str	w1, [x29, -28]
b	.L1
.L71:
ldr	x0, [x29, -16]
sxtw	x1, w0
sxtw	x2, w23
ldr	w0, [x29, -20]
ldrb	w1, [x0, x1]
str	w1, [x29, -32]
sxtw	x1, w0
sub	x2, x2,
add	x1, x1, 8
add	x2, x2, 8
ldr	w0, [x29, -20]
ldrb	w1, [x1, x2]
str	w1, [x29, -28]
b	.L1
.L73:
ldr	x0, [x29, -16]
sxtw	x1, w0
sxtw	x2, w23
ldr	w0, [x29, -20]
ldrb	w1, [x0, x1]
str	w1, [x29, -32]
sxtw	x1, w0
sub	x2, x2,
add	x1, x1, 8
add	x2, x2, 8
ldr	w0, [x29, -20]
ldrb	w1, [x1, x2]
str	w1, [x29, -28]
b	.L1
.L75:
ldr	x0, [x29, -16]
sxtw	x1, w0
sxtw	x2, w23
ldr	w0, [x29, -20]
ldrb	w1, [x0, x1]
str	w1, [x29, -32]
sxtw	x1, w0
sub	x2, x2,
add	x1, x1, 8
add	x2, x2, 8
ldr	w0, [x29, -20]
ldrb	w1, [x1, x2]
str	w1, [x29, -28]
b	.L1
.L77:
ldr	x0, [x29, -16]
sxtw	x1, w0
sxtw	x2, w23
ldr	w0, [x29, -20]
ldrb	w1, [x0, x1]
str	w1, [x29, -32]
sxtw	x1, w0
sub	x2, x2,
add	x1, x1, 8
add	x2, x2, 8
ldr	w0, [x29, -20]
ldrb	w1, [x1, x2]
str	w1, [x29, -28]
b	.L1
.L79:
ldr	x0, [x29, -16]
sxtw	x1, w0
sxtw	x2, w23
ldr	w0, [x29, -20]
ldrb	w1, [x0, x1]
str	w1, [x29, -32]
sxtw	x1, w0
sub	x2, x2,
add	x1, x1, 8
add	x2, x2, 8
ldr	w0, [x29, -20]
ldrb	w1, [x1, x2]
str	w1, [x29, -28]
b	.L1
.L81:
ldr	x0, [x29, -16]
sxtw	x1, w0
sxtw	x2, w23
ldr	w0, [x29, -20]
ldrb	w1, [x0, x1]
str	w1, [x29, -32]
sxtw	x1, w0
sub	x2, x2,
add	x1, x1, 8
add	x2, x2, 8
ldr	w0, [x29, -20]
ldrb	w1, [x1, x2]
str	w1, [x29, -28]
b	.L1
.L83:
ldr	x0, [x29, -16]
sxtw	x1, w0
sxtw	x2, w23
ldr	w0, [x29, -20]
ldrb	w1, [x0, x1]
str	w1, [x29, -32]
sxtw	x1, w0
sub	x2, x2,
add	x1, x1, 8
add	x2, x2, 8
ldr	w0, [x29, -20]
ldrb	w1, [x1, x2]
str	w1, [x29, -28]
b	.L1
.L85:
ldr	x0, [x29, -16]
sxtw	x1, w0
sxtw	x2, w23
ldr	w0, [x29, -20]
ldrb	w1, [x0, x1]
str	w1, [x29, -32]
sxtw	x1, w0
sub	x2, x2,
add	x1, x1, 8
add	x2, x2, 8
ldr	w0, [x29, -20]
ldrb	w1, [x1, x2]
str	w1, [x29, -28]
b	.L1
.L87:
ldr	x0, [x29, -16]
sxtw	x1, w0
sxtw	x2, w23
ldr	w0, [x29, -20]
ldrb	w1, [x0, x1]
str	w1, [x29, -32]
sxtw	x1, w0
sub	x2, x2,
add	x1, x1, 8
add	x2, x2, 8
ldr	w0, [x29, -20]
ldrb	w1, [x1, x2]
str	w1, [x29, -28]
b	.L1
.L89:
ldr	x0, [x29, -16]
sxtw	x1, w0
sxtw	x2, w23
ldr	w0, [x29, -20]
ldrb	w1, [x0, x1]
str	w1, [x29, -32]
sxtw	x1, w0
sub	x2, x2,
add	x1, x1, 8
add	x2, x2, 8
ldr	w0, [x29, -20]
ldrb	w1, [x1, x2]
str	w1, [x29, -28]
b	.L1
.L91:
ldr	x0, [x29, -16]
sxtw	x1, w0
sxtw	x2, w23
ldr	w0, [x29, -20]
ldrb	w1, [x0, x1]
str	w1, [x29, -32]
sxtw	x1, w0
sub	x2, x2,
add	x1, x1, 8
add	x2, x2, 8
ldr	w0, [x29, -20]
ldrb	w1, [x1, x2]
str	w1, [x29, -28]
b	.L1
.L93:
ldr	x0, [x29, -16]
sxtw	x1, w0
sxtw	x2, w23
ldr	w0, [x29, -20]
ldrb	w1, [x0, x1]
str	w1, [x29, -32]
sxtw	x1, w0
sub	x2, x2,
add	x1, x1, 8
add	x2, x2, 8
ldr	w0, [x29, -20]
ldrb	w1, [x1, x2]
str	w1, [x29, -28]
b	.L1
.L95:
ldr	x0, [x29, -16]
sxtw	x1, w0
sxtw	x2, w23
ldr	w0, [x29, -20]
ldrb	w1, [x0, x1]
str	w1, [x29, -32]
sxtw	x1, w0
sub	x2, x2,
add	x1, x1, 8
add	x2, x2, 8
ldr	w0, [x29, -20]
ldrb	w1, [x1, x2]
str	w1, [x29, -28]
b	.L1
.L97:
ldr	x0, [x29, -16]
sxtw	x1, w0
sxtw	x2, w23
ldr	w0, [x29, -20]
ldrb	w1, [x0, x1]
str	w1, [x29, -32]
sxtw	x1, w0
sub	x2, x2,
add	x1, x1, 8
add	x2, x2, 8
ldr	w0, [x29, -20]
ldrb	w1, [x1, x2]
str	w1, [x29, -28]
b	.L1
.L99:
ldr	x0, [x29, -16]
sxtw	x1, w0
sxtw	x2, w23
ldr	w0, [x29, -20]
ldrb	w1, [x0, x1]
str	w1, [x29, -32]
sxtw	x1, w0
sub	x2, x2,
add	x1, x1, 8
add	x2, x2, 8
ldr	w0, [x29, -20]
ldrb	w1, [x1, x2]
str	w1, [x29, -28]
b	.L1
.L101:
ldr	x0, [x29, -16]
sxtw	x1, w0
sxtw	x2, w23
ldr	w0, [x29, -20]
ldrb	w1, [x0, x1]
str	w1, [x29, -32]
sxtw	x1, w0
sub	x2, x2,
add	x1, x1, 8
add	x2, x2, 8
ldr	w0, [x29, -20]
ldrb	w1, [x1, x2]
str	w1, [x29, -28]
b	.L1
.L103:
ldr	x0, [x29, -16]
sxtw	x1, w0
sxtw	x2, w23
ldr	w0, [x29, -20]
ldrb	w1, [x0, x1]
str	w1, [x29, -32]
sxtw	x1, w0
sub	x2, x2,
add	x1, x1, 8
add	x2, x2, 8
ldr	w0, [x29, -20]
ldrb	w1, [x1, x2]
str	w1, [x29, -28]
b	.L1
.L105:
ldr	x0, [x29, -16]
sxtw	x1, w0
sxtw	x2, w23
ldr	w0, [x29, -20]
ldrb	w1, [x0, x1]
str	w1, [x29, -32]
sxtw	x1, w0
sub	x2, x2,
add	x1, x1, 8
add	x2, x2, 8
ldr	w0, [x29, -20]
ldrb	w1, [x1, x2]
str	w1, [x29, -28]
b	.L1
.L107:
ldr	x0, [x29, -16]
sxtw	x1, w0
sxtw	x2, w23
ldr	w0, [x29, -20]
ldrb	w1, [x0, x1]
str	w1, [x29, -32]
sxtw	x1, w0
sub	x2, x2,
add	x1, x1, 8
add	x2, x2, 8
ldr	w0, [x29, -20]
ldrb	w1, [x1, x2]
str	w1, [x29, -28]
b	.L1
.L109:
ldr	x0, [x29, -16]
sxtw	x1, w0
sxtw	x2, w23
ldr	w0, [x29, -20]
ldrb	w1, [x0, x1]
str	w1, [x29, -32]
sxtw	x1, w0
sub	x2, x2,
add	x1, x1, 8
add	x2, x2, 8
ldr	w0, [x29, -20]
ldrb	w1, [x1, x2]
str	w1, [x29, -28]
b	.L1
.L111:
ldr	x0, [x29, -16]
sxtw	x1, w0
sxtw	x2, w23
ldr	w0, [x29, -20]
ldrb	w1, [x0, x1]
str	w1, [x29, -32]
sxtw	x1, w0
sub	x2, x2,
add	x1, x1, 8
add	x2, x2, 8
ldr	w0, [x29, -20]
ldrb	w1, [x1, x2]
str	w1, [x29, -28]
b	.L1
.L113:
ldr	x0, [x29, -16]
sxtw	x1, w0
sxtw	x2, w23
ldr	w0, [x29, -20]
ldrb	w1, [x0, x1]
str	w1, [x29, -32]
sxtw	x1, w0
sub	x2, x2,
add	x1, x1, 8
add	x2, x2, 8
ldr	w0, [x29, -20]
ldrb	w1, [x1, x2]
str	w1, [x29, -28]
b	.L1
.L115:
ldr	x0, [x29, -16]
sxtw	x1, w0
sxtw	x2, w23
ldr	w0, [x29, -20]
ldrb	w1, [x0, x1]
str	w1, [x29, -32]
sxtw	x1, w0
sub	x2, x2,
add	x1, x1, 8
add	x2, x2, 8
ldr	w0, [x29, -20]
ldrb	w1, [x1, x2]
str	w1, [x29, -28]
b	.L1
.L117:
ldr	x0, [x29, -16]
sxtw	x1, w0
sxtw	x2, w23
ldr	w0, [x29, -20]
ldrb	w1, [x0, x1]
str	w1, [x29, -32]
sxtw	x1, w0
sub	x2, x2,
add	x1, x1, 8
add	x2, x2, 8
ldr	w0, [x29, -20]
ldrb	w1, [x1, x2]
str	w1, [x29, -28]
b	.L1
.L119:
ldr	x0, [x29, -16]
sxtw	x1, w0
sxtw	x2, w23
ldr	w0, [x29, -20]
ldrb	w1, [x0, x1]
str	w1, [x29, -32]
sxtw	x1, w0
sub	x2, x2,
add	x1, x1, 8
add	x2, x2, 8
ldr	w0, [x29, -20]
ldrb	w1, [x1, x2]
str	w1, [x29, -28]
b	.L1
.L121:
ldr	x0, [x29, -16]
sxtw	x1, w0
sxtw	x2, w23
ldr	w0, [x29, -20]
ldrb	w1, [x0, x1]
str	w1, [x29, -32]
sxtw	x1, w0
sub	x2, x2,
add	x1, x1, 8
add	x2, x2, 8
ldr	w0, [x29, -20]
ldrb	w1, [x1, x2]
str	w1, [x29, -28]
b	.L1
.L123:
ldr	x0, [x29, -16]
sxtw	x1, w0
sxtw	x2, w23
ldr	w0, [x29, -20]
ldrb	w1, [x0, x1]
str	w1, [x29, -32]
sxtw	x1, w0
sub	x2, x2,
add	x1, x1, 8
add	x2, x2, 8
ldr	w0, [x29, -20]
ldrb	w1, [x1, x2]
str	w1, [x29, -28]
b	.L1
.L125:
ldr	x0, [x29, -16]
sxtw	x1, w0
sxtw	x2, w23
ldr	w0, [x29, -20]
ldrb	w1, [x0, x1]
str	w1, [x29, -32]
sxtw	x1, w0
sub	x2, x2,
add	x1, x1, 8
add	x2, x2, 8
ldr	w0, [x29, -20]
ldrb	w1, [x1, x2]
str	w1, [x29, -28]
b	.L1
.L127:
ldr	x0, [x29, -16]
sxtw	x1, w0
sxtw	x2, w23
ldr	w0, [x29, -20]
ldrb	w1, [x0, x1]
str	w1, [x29, -32]
sxtw	x1, w0
sub	x2, x2,
add	x1, x1, 8
add	x2, x2, 8
ldr	w0, [x29, -20]
ldrb	w1, [x1, x2]
str	w1, [x29, -28]
b	.L1
.L129:
ldr	x0, [x29, -16]
sxtw	x1, w0
sxtw	x2, w23
ldr	w0, [x29, -20]
ldrb	w1, [x0, x1]
str	w1, [x29, -32]
sxtw	x1, w0
sub	x2, x2,
add	x1, x1, 8
add	x2, x2, 8
ldr	w0, [x29, -20]
ldrb	w1, [x1, x2]
str	w1, [x29, -28]
b	.L1
.L131:
ldr	x0, [x29, -16]
sxtw	x1, w0
sxtw	x2, w23
ldr	w0, [x29, -20]
ldrb	w1, [x0, x1]
str	w1, [x29, -32]
sxtw	x1, w0
sub	x2, x2,
add	x1, x1, 8
add	x2, x2, 8
ldr	w0, [x29, -20]
ldrb	w1, [x1, x2]
str	w1, [x29, -28]
b	.L1
.L133:
ldr	x0, [x29, -16]
sxtw	x1, w0
sxtw	x2, w23
ldr	w0, [x29, -20]
ldrb	w1, [x0, x1]
str	w1, [x29, -32]
sxtw	x1, w0
sub	x2, x2,
add	x1, x1, 8
add	x2, x2, 8
ldr	w0, [x29, -20]
ldrb	w1, [x1, x2]
str	w1, [x29, -28]
b	.L1
.L135:
ldr	x0, [x29, -16]
sxtw	x1, w0
sxtw	x2, w23
ldr	w0, [x29, -20]
ldrb	w1, [x0, x1]
str	w1, [x29, -32]
sxtw	x1, w0
sub	x2, x2,
add	x1, x1, 8
add	x2, x2, 8
ldr	w0, [x29, -20]
ldrb	w1, [x1, x2]
str	w1, [x29, -28]
b	.L1
.L137:
ldr	x0, [x29, -16]
sxtw	x1, w0
sxtw	x2, w23
ldr	w0, [x29, -20]
ldrb	w1, [x0, x1]
str	w1, [x29, -32]
sxtw	x1, w0
sub	x2, x2,
add	x1, x1, 8
add	x2, x2, 8
ldr	w0, [x29, -20]
ldrb	w1, [x1, x2]
str	w1, [x29, -28]
b	.L1
.L139:
ldr	x0, [x29, -16]
sxtw	x1, w0
sxtw	x2, w23
ldr	w0, [x29, -20]
ldrb	w1, [x0, x1]
str	w1, [x29, -32]
sxtw	x1, w0
sub	x2, x2,
add	x1, x1, 8
add	x2, x2, 8
ldr	w0, [x29, -20]
ldrb	w1, [x1, x2]
str	w1, [x29, -28]
b	.L1
.L141:
ldr	x0, [x29, -16]
sxtw	x1, w0
sxtw	x2, w23
ldr	w0, [x29, -20]
ldrb	w1, [x0, x1]
str	w1, [x29, -32]
sxtw	x1, w0
sub	x2, x2,
add	x1, x1, 8
add	x2, x2, 8
ldr	w0, [x29, -20]
ldrb	w1, [x1, x2]
str	w1, [x29, -28]
b	.L1
.L143:
ldr	x0, [x29, -16]
sxtw	x1, w0
sxtw	x2, w23
ldr	w0, [x29, -20]
ldrb	w1, [x0, x1]
str	w1, [x29, -32]
sxtw	x1, w0
sub	x2, x2,
add	x1, x1, 8
add	x2, x2, 8
ldr	w0, [x29, -20]
ldrb	w1, [x1, x2]
str	w1, [x29, -28]
b	.L1
.L145:
ldr	x0, [x29, -16]
sxtw	x1, w0
sxtw	x2, w23
ldr	w0, [x29, -20]
ldrb	w1, [x0, x1]
str	w1, [x29, -32]
sxtw	x1, w0
sub	x2, x2,
add	x1, x1, 8
add	x2, x2, 8
ldr	w0, [x29, -20]
ldrb	w1, [x1, x2]
str	w1, [x29, -28]
b	.L1
.L147:
ldr	x0, [x29, -16]
sxtw	x1, w0
sxtw	x2, w23
ldr	w0, [x29, -20]
ldrb	w1, [x0, x1]
str	w1, [x29, -32]
sxtw	x1, w0
sub	x2, x2,
add	x1, x1, 8
add	x2, x2, 8
ldr	w0, [x29, -20]
ldrb	w1, [x1, x2]
str	w1, [x29, -28]
b	.L1
.L149:
ldr	x0, [x29, -16]
sxtw	x1, w0
sxtw	x2, w23
ldr	w0, [x29, -20]
ldrb	w1, [x0, x1]
str	w1, [x29, -32]
sxtw	x1, w0
sub	x2, x2,
add	x1, x1, 8
add	x2, x2, 8
ldr	w0, [x29, -20]
ldrb	w1, [x1, x2]
str	w1, [x29, -28]
b	.L1
.L151:
ldr	x0, [x29, -16]
sxtw	x1, w0
sxtw	x2, w23
ldr	w0, [x29, -20]
ldrb	w1, [x0, x1]
str	w1, [x29, -32]
sxtw	x1, w0
sub	x2, x2,
add	x1, x1, 8
add	x2, x2, 8
ldr	w0, [x29, -20]
ldrb	w1, [x1, x2]
str	w1, [x29, -28]
b	.L1
.L153:
ldr	x0, [x29, -16]
sxtw	x1, w0
sxtw	x2, w23
ldr	w0, [x29, -20]
ldrb	w1, [x0, x1]
str	w1, [x29, -32]
sxtw	x1, w0
sub	x2, x2,
add	x1, x1, 8
add	x2, x2, 8
ldr	w0, [x29, -20]
ldrb	w1, [x1, x2]
str	w1, [x29, -28]
b	.L1
.L155:
ldr	x0, [x29, -16]
sxtw	x1, w0
sxtw	x2, w23
ldr	w0, [x29, -20]
ldrb	w1, [x0, x1]
str	w1, [x29, -32]
sxtw	x1, w0
sub	x2, x2,
add	x1, x1, 8
add	x2, x2, 8
ldr	w0, [x29, -20]
ldrb	w1, [x1, x2]
str	w1, [x29, -28]
b	.L1
.L157:
ldr	x0, [x29, -16]
sxtw	x1, w0
sxtw	x2, w23
ldr	w0, [x29, -20]
ldrb	w1, [x0, x1]
str	w1, [x29, -32]
sxtw	x1, w0
sub	x2, x2,
add	x1, x1, 8
add	x2, x2, 8
ldr	w0, [x29, -20]
ldrb	w1, [x1, x2]
str	w1, [x29, -28]
b	.L1
.L159:
ldr	x0, [x29, -16]
sxtw	x1, w0
sxtw	x2, w23
ldr	w0, [x29, -20]
ldrb	w1, [x0, x1]
str	w1, [x29, -32]
sxtw	x1, w0
sub	x2, x2,
add	x1, x1, 8
add	x2, x2, 8
ldr	w0, [x29, -20]
ldrb	w1, [x1, x2]
str	w1, [x29, -28]
b	.L1
.L161:
ldr	x0, [x29, -16]
sxtw	x1, w0
sxtw	x2, w23
ldr	w0, [x29, -20]
ldrb	w1, [x0, x1]
str	w1, [x29, -32]
sxtw	x1, w0
sub	x2, x2,
add	x1, x1, 8
add	x2, x2, 8
ldr	w0, [x29, -20]
ldrb	w1, [x1, x2]
str	w1, [x29, -28]
b	.L1
.L163:
ldr	x0, [x29, -16]
sxtw	x1, w0
sxtw	x2, w23
ldr	w0, [x29, -20]
ldrb	w1, [x0, x1]
str	w1, [x29, -32]
sxtw	x1, w0
sub	x2, x2,
add	x1, x1, 8
add	x2, x2, 8
ldr	w0, [x29, -20]
ldrb	w1, [x1, x2]
str	w1, [x29, -28]
b	.L1
.L165:
ldr	x0, [x29, -16]
sxtw	x1, w0
sxtw	x2, w23
ldr	w0, [x29, -20]
ldrb	w1, [x0, x1]
str	w1, [x29, -32]
sxtw	x1, w0
sub	x2, x2,
add	x1, x1, 8
add	x2, x2, 8
ldr	w0, [x29, -20]
ldrb	w1, [x1, x2]
str	w1, [x29, -28]
b	.L1
.L167:
ldr	x0, [x29, -16]
sxtw	x1, w0
sxtw	x2, w23
ldr	w0, [x29, -20]
ldrb	w1, [x0, x1]
str	w1, [x29, -32]
sxtw	x1, w0
sub	x2, x2,
add	x1, x1, 8
add	x2, x2, 8
ldr	w0, [x29, -20]
ldrb	w1, [x1, x2]
str	w1, [x29, -28]
b	.L1
.L169:
ldr	x0, [x29, -16]
sxtw	x1, w0
sxtw	x2, w23
ldr	w0, [x29, -20]
ldrb	w1, [x0, x1]
str	w1, [x29, -32]
sxtw	x1, w0
sub	x2, x2,
add	x1, x1, 8
add	x2, x2, 8
ldr	w0, [x29, -20]
ldrb	w1, [x1, x2]
str	w1, [x29, -28]
b	.L1
.L171:
ldr	x0, [x29, -16]
sxtw	x1, w0
sxtw	x2, w23
ldr	w0, [x29, -20]
ldrb	w1, [x0, x1]
str	w1, [x29, -32]
sxtw	x1, w0
sub	x2, x2,
add	x1, x1, 8
add	x2, x2, 8
ldr	w0, [x29, -20]
ldrb	w1, [x1, x2]
str	w1, [x29, -28]
b	.L1
.L173:
ldr	x0, [x29, -16]
sxtw	x1, w0
sxtw	x2, w23
ldr	w0, [x29, -20]
ldrb	w1, [x0, x1]
str	w1, [x29, -32]
sxtw	x1, w0
sub	x2, x2,
add	x1, x1, 8
add	x2, x2, 8
ldr	w0, [x29, -20]
ldrb	w1, [x1, x2]
str	w1, [x29, -28]
b	.L1
.L175:
ldr	x0, [x29, -16]
sxtw	x1, w0
sxtw	x2, w23
ldr	w0, [x29, -20]
ldrb	w1, [x0, x1]
str	w1, [x29, -32]
sxtw	x1, w0
sub	x2, x2,
add	x1, x1, 8
add	x2, x2, 8
ldr	w0, [x29, -20]
ldrb	w1, [x1, x2]
str	w1, [x29, -28]
b	.L1
.L177:
ldr	x0, [x29, -16]
sxtw	x1, w0
sxtw	x2, w23
ldr	w0, [x29, -20]
ldrb	w1, [x0, x1]
str	w1, [x29, -32]
sxtw	x1, w0
sub	x2, x2,
add	x1, x1, 8
add	x2, x2, 8
ldr	w0, [x29, -20]
ldrb	w1, [x1, x2]
str	w1, [x29, -28]
b	.L1
.L179:
ldr	x0, [x29, -16]
sxtw	x1, w0
sxtw	x2, w23
ldr	w0, [x29, -20]
ldrb	w1, [x0, x1]
str	w1, [x29, -32]
sxtw	x1, w0
sub	x2, x2,
add	x1, x1, 8
add	x2, x2, 8
ldr	w0, [x29, -20]
ldrb	w1, [x1, x2]
str	w1, [x29, -28]
b	.L1
.L181:
ldr	x0, [x29, -16]
sxtw	x1, w0
sxtw	x2, w23
ldr	w0, [x29, -20]
ldrb	w1, [x0, x1]
str	w1, [x29, -32]
sxtw	x1, w0
sub	x2, x2,
add	x1, x1, 8
add	x2, x2, 8
ldr	w0, [x29, -20]
ldrb	w1, [x1, x2]
str	w1, [x29, -28]
b	.L1
.L183:
ldr	x0, [x29, -16]
sxtw	x1, w0
sxtw	x2, w23
ldr	w0, [x29, -20]
ldrb	w1, [x0, x1]
str	w1, [x29, -32]
sxtw	x1, w0
sub	x2, x2,
add	x1, x1, 8
add	x2, x2, 8
ldr	w0, [x29, -20]
ldrb	w1, [x1, x2]
str	w1, [x29, -28]
b	.L1
.L185:
ldr	x0, [x29, -16]
sxtw	x1, w0
sxtw	x2, w23
ldr	w0, [x29, -20]
ldrb	w1, [x0, x1]
str	w1, [x29, -32]
sxtw	x1, w0
sub	x2, x2,
add	x1, x1, 8
add	x2, x2, 8
ldr	w0, [x29, -20]
ldrb	w1, [x1, x2]
str	w1, [x29, -28]
b	.L1
.L187:
ldr	x0, [x29, -16]
sxtw	x1, w0
sxtw	x2, w23
ldr	w0, [x29, -20]
ldrb	w1, [x0, x1]
str	w1, [x29, -32]
sxtw	x1, w0
sub	x2, x2,
add	x1, x1, 8
add	x2, x2, 8
ldr	w0, [x29, -20]
ldrb	w1, [x1, x2]
str	w1, [x29, -28]
b	.L1
.L189:
ldr	x0, [x29, -16]
sxtw	x1, w0
sxtw	x2, w23
ldr	w0, [x29, -20]
ldrb	w1, [x0, x1]
str	w1, [x29, -32]
sxtw	x1, w0
sub	x2, x2,
add	x1, x1, 8
add	x2, x2, 8
ldr	w0, [x29, -20]
ldrb	w1, [x1, x2]
str	w1, [x29, -28]
b	.L1
.L191:
ldr	x0, [x29, -16]
sxtw	x1, w0
sxtw	x2, w23
ldr	w0, [x29, -20]
ldrb	w1, [x0, x1]
str	w1, [x29, -32]
sxtw	x1, w0
sub	x2, x2,
add	x1, x1, 8
add	x2, x2, 8
ldr	w0, [x29, -20]
ldrb	w1, [x1, x2]
str	w1, [x29, -28]
b	.L1
.L193:
ldr	x0, [x29, -16]
sxtw	x1, w0
sxtw	x2, w23
ldr	w0, [x29, -20]
ldrb	w1, [x0, x1]
str	w1, [x29, -32]
sxtw	x1, w0
sub	x2, x2,
add	x1, x1, 8
add	x2, x2, 8
ldr	w0, [x29, -20]
ldrb	w1, [x1, x2]
str	w1, [x29, -28]
b	.L1
.L195:
ldr	x0, [x29, -16]
sxtw	x1, w0
sxtw	x2, w23
ldr	w0, [x29, -20]
ldrb	w1, [x0, x1]
str	w1, [x29, -32]
sxtw	x1, w0
sub	x2, x2,
add	x1, x1, 8
add	x2, x2, 8
ldr	w0, [x29, -20]
ldrb	w1, [x1, x2]
str	w1, [x29, -28]
b	.L1
.L197:
ldr	x0, [x29, -16]
sxtw	x1, w0
sxtw	x2, w23
ldr	w0, [x29, -20]
ldrb	w1, [x0, x1]
str	w1, [x29, -32]
sxtw	x1, w0
sub	x2, x2,
add	x1, x1, 8
add	x2, x2, 8
ldr	w0, [x29, -20]
ldrb	w1, [x1, x2]
str	w1, [x29, -28]
b	.L1
.L199:
ldr	x0, [x29, -16]
sxtw	x1, w0
sxtw	x2, w23
ldr	w0, [x29, -20]
ldrb	w1, [x0, x1]
str	w1, [x29, -32]
sxtw	x1, w0
sub	x2, x2,
add	x1, x1, 8
add	x2, x2, 8
ldr	w0, [x29, -20]
ldrb	w1, [x1, x2]
str	w1, [x29, -28]
b	.L1
.L201:
ldr	x0, [x29, -16]
sxtw	x1, w0
sxtw	x2, w23
ldr	w0, [x29, -20]
ldrb	w1, [x0, x1]
str	w1, [x29, -32]
sxtw	x1, w0
sub	x2, x2,
add	x1, x1, 8
add	x2, x2, 8
ldr	w0, [x29, -20]
ldrb	w1, [x1, x2]
str	w1, [x29, -28]
b	.L1
.L203:
ldr	x0, [x29, -16]
sxtw	x1, w0
sxtw	x2, w23
ldr	w0, [x29, -20]
ldrb	w1, [x0, x1]
str	w1, [x29, -32]
sxtw	x1, w0
sub	x2, x2,
add	x1, x1, 8
add	x2, x2, 8
ldr	w0, [x29, -20]
ldrb	w1, [x1, x2]
str	w1, [x29, -28]
b	.L1
.L205:
ldr	x0, [x29, -16]
sxtw	x1, w0
sxtw	x2, w23
ldr	w0, [x29, -20]
ldrb	w1, [x0, x1]
str	w1, [x29, -32]
sxtw	x1, w0
sub	x2, x2,
add	x1, x1, 8
add	x2, x2, 8
ldr	w0, [x29, -20]
ldrb	w1, [x1, x2]
str	w1, [x29, -28]
b	.L1
.L207:
ldr	x0, [x29, -16]
sxtw	x1, w0
sxtw	x2, w23
ldr	w0, [x29, -20]
ldrb	w1, [x0, x1]
str	w1, [x29, -32]
sxtw	x1, w0
sub	x2, x2,
add	x1, x1, 8
add	x2, x2, 8
ldr	w0, [x29, -20]
ldrb	w1, [x1, x2]
str	w1, [x29, -28]
b	.L1
.L209:
ldr	x0, [x29, -16]
sxtw	x1, w0
sxtw	x2, w23
ldr	w0, [x29, -20]
ldrb	w1, [x0, x1]
str	w1, [x29, -32]
sxtw	x1, w0
sub	x2, x2,
add	x1, x1, 8
add	x2, x2, 8
ldr	w0, [x29, -20]
ldrb	w1, [x1, x2]
str	w1, [x29, -28]
b	.L1
.L211:
ldr	x0, [x29, -16]
sxtw	x1, w0
sxtw	x2, w23
ldr	w0, [x29, -20]
ldrb	w1, [x0, x1]
str	w1, [x29, -32]
sxtw	x1, w0
sub	x2, x2,
add	x1, x1, 8
add	x2, x2, 8
ldr	w0, [x29, -20]
ldrb	w1, [x1, x2]
str	w1, [x29, -28]
b	.L1
.L213:
ldr	x0, [x29, -16]
sxtw	x1, w0
sxtw	x2, w23
ldr	w0, [x29, -20]
ldrb	w1, [x0, x1]
str	w1, [x29, -32]
sxtw	x1, w0
sub	x2, x2,
add	x1, x1, 8
add	x2, x2, 8
ldr	w0, [x29, -20]
ldrb	w1, [x1, x2]
str	w1, [x29, -28]
b	.L1
.L215:
ldr	x0, [x29, -16]
sxtw	x1, w0
sxtw	x2, w23
ldr	w0, [x29, -20]
ldrb	w1, [x0, x1]
str	w1, [x29, -32]
sxtw	x1, w0
sub	x2, x2,
add	x1, x1, 8
add	x2, x2, 8
ldr	w0, [x29, -20]
ldrb	w1, [x1, x2]
str	w1, [x29, -28]
b	.L1
.L217:
ldr	x0, [x29, -16]
sxtw	x1, w0
sxtw	x2, w23
ldr	w0, [x29, -20]
ldrb	w1, [x0, x1]
str	w1, [x29, -32]
sxtw	x1, w0
sub	x2, x2,
add	x1, x1, 8
add	x2, x2, 8
ldr	w0, [x29, -20]
ldrb	w1, [x1, x2]
str	w1, [x29, -28]
b	.L1
.L219:
ldr	x0, [x29, -16]
sxtw	x1, w0
sxtw	x2, w23
ldr	w0, [x29, -20]
ldrb	w1, [x0, x1]
str	w1, [x29, -32]
sxtw	x1, w0
sub	x2, x2,
add	x1, x1, 8
add	x2, x2, 8
ldr	w0, [x29, -20]
ldrb	w1, [x1, x2]
str	w1, [x29, -28]
b	.L1
.L221:
ldr	x0, [x29, -16]
sxtw	x1, w0
sxtw	x2, w23
ldr	w0, [x29, -20]
ldrb	w1, [x0, x1]
str	w1, [x29, -32]
sxtw	x1, w0
sub	x2, x2,
add	x1, x1, 8
add	x2, x2, 8
ldr	w0, [x29, -20]
ldrb	w1, [x1, x2]
str	w1, [x29, -28]
b	.L1
.L223:
ldr	x0, [x29, -16]
sxtw	x1, w0
sxtw	x2, w23
ldr	w0, [x29, -20]
ldrb	w1, [x0, x1]
str	w1, [x29, -32]
sxtw	x1, w0
sub	x2, x2,
add	x1, x1, 8
add	x2, x2, 8
ldr	w0, [x29, -20]
ldrb	w1, [x1, x2]
str	w1, [x29, -28]
b	.L1
.L225:
ldr	x0, [x29, -16]
sxtw	x1, w0
sxtw	x2, w23
ldr	w0, [x29, -20]
ldrb	w1, [x0, x1]
str	w1, [x29, -32]
sxtw	x1, w0
sub	x2, x2,
add	x1, x1, 8
add	x2, x2, 8
ldr	w0, [x29, -20]
ldrb	w1, [x1, x2]
str	w1, [x29, -28]
b	.L1
.L227:
ldr	x0, [x29, -16]
sxtw	x1, w0
sxtw	x2, w23
ldr	w0, [x29, -20]
ldrb	w1, [x0, x1]
str	w1, [x29, -32]
sxtw	x1, w0
sub	x2, x2,
add	x1, x1, 8
add	x2, x2, 8
ldr	w0, [x29, -20]
ldrb	w1, [x1, x2]
str	w1, [x29, -28]
b	.L1
.L229:
ldr	x0, [x29, -16]
sxtw	x1, w0
sxtw	x2, w23
ldr	w0, [x29, -20]
ldrb	w1, [x0, x1]
str	w1, [x29, -32]
sxtw	x1, w0
sub	x2, x2,
add	x1, x1, 8
add	x2, x2, 8
ldr	w0, [x29, -20]
ldrb	w1, [x1, x2]
str	w1, [x29, -28]
b	.L1
.L231:
ldr	x0, [x29, -16]
sxtw	x1, w0
sxtw	x2, w23
ldr	w0, [x29, -20]
ldrb	w1, [x0, x1]
str	w1, [x29, -32]
sxtw	x1, w0
sub	x2, x2,
add	x1, x1, 8
add	x2, x2, 8
ldr	w0, [x29, -20]
ldrb	w1, [x1, x2]
str	w1, [x29, -28]
b	.L1
.L233:
ldr	x0, [x29, -16]
sxtw	x1, w0
sxtw	x2, w23
ldr	w0, [x29, -20]
ldrb	w1, [x0, x1]
str	w1, [x29, -32]
sxtw	x1, w0
sub	x2, x2,
add	x1, x1, 8
add	x2, x2, 8
ldr	w0, [x29, -20]
ldrb	w1, [x1, x2]
str	w1, [x29, -28]
b	.L1
.L235:
ldr	x0, [x29, -16]
sxtw	x1, w0
sxtw	x2, w23
ldr	w0, [x29, -20]
ldrb	w1, [x0, x1]
str	w1, [x29, -32]
sxtw	x1, w0
sub	x2, x2,
add	x1, x1, 8
add	x2, x2, 8
ldr	w0, [x29, -20]
ldrb	w1, [x1, x2]
str	w1, [x29, -28]
b	.L1
.L237:
ldr	x0, [x29, -16]
sxtw	x1, w0
sxtw	x2, w23
ldr	w0, [x29, -20]
ldrb	w1, [x0, x1]
str	w1, [x29, -32]
sxtw	x1, w0
sub	x2, x2,
add	x1, x1, 8
add	x2, x2, 8
ldr	w0, [x29, -20]
ldrb	w1, [x1, x2]
str	w1, [x29, -28]
b	.L1
.L239:
ldr	x0, [x29, -16]
sxtw	x1, w0
sxtw	x2, w23
ldr	w0, [x29, -20]
ldrb	w1, [x0, x1]
str	w1, [x29, -32]
sxtw	x1, w0
sub	x2, x2,
add	x1, x1, 8
add	x2, x2, 8
ldr	w0, [x29, -20]
ldrb	w1, [x1, x2]
str	w1, [x29, -28]
b	.L1
.L241:
ldr	x0, [x29, -16]
sxtw	x1, w0
sxtw	x2, w23
ldr	w0, [x29, -20]
ldrb	w1, [x0, x1]
str	w1, [x29, -32]
sxtw	x1, w0
sub	x2, x2,
add	x1, x1, 8
add	x2, x2, 8
ldr	w0, [x29, -20]
ldrb	w1, [x1, x2]
str	w1, [x29, -28]
b	.L1
.L243:
ldr	x0, [x29, -16]
sxtw	x1, w0
sxtw	x2, w23
ldr	w0, [x29, -20]
ldrb	w1, [x0, x1]
str	w1, [x29, -32]
sxtw	x1, w0
sub	x2, x2,
add	x1, x1, 8
add	x2, x2, 8
ldr	w0, [x29, -20]
ldrb	w1, [x1, x2]
str	w1, [x29, -28]
b	.L1
.L245:
ldr	x0, [x29, -16]
sxtw	x1, w0
sxtw	x2, w23
ldr	w0, [x29, -20]
ldrb	w1, [x0, x1]
str	w1, [x29, -32]
sxtw	x1, w0
sub	x2, x2,
add	x1, x1, 8
add	x2, x2, 8
ldr	w0, [x29, -20]
ldrb	w1, [x1, x2]
str	w1, [x29, -28]
b	.L1
.L247:
ldr	x0, [x29, -16]
sxtw	x1, w0
sxtw	x2, w23
ldr	w0, [x29, -20]
ldrb	w1, [x0, x1]
str	w1, [x29, -32]
sxtw	x1, w0
sub	x2, x2,
add	x1, x1, 8
add	x2, x2, 8
ldr	w0, [x29, -20]
ldrb	w1, [x1, x2]
str	w1, [x29, -28]
b	.L1
.L249:
ldr	x0, [x29, -16]
sxtw	x1, w0
sxtw	x2, w23
ldr	w0, [x29, -20]
ldrb	w1, [x0, x1]
str	w1, [x29, -32]
sxtw	x1, w0
sub	x2, x2,
add	x1, x1, 8
add	x2, x2, 8
ldr	w0, [x29, -20]
ldrb	w1, [x1, x2]
str	w1, [x29, -28]
b	.L1
.L251:
ldr	x0, [x29, -16]
sxtw	x1, w0
sxtw	x2, w23
ldr	w0, [x29, -20]
ldrb	w1, [x0, x1]
str	w1, [x29, -32]
sxtw	x1, w0
sub	x2, x2,
add	x1, x1, 8
add	x2, x2, 8
ldr	w0, [x29, -20]
ldrb	w1, [x1, x2]
str	w1, [x29, -28]
b	.L1
.L253:
ldr	x0, [x29, -16]
sxtw	x1, w0
sxtw	x2, w23
ldr	w0, [x29, -20]
ldrb	w1, [x0, x1]
str	w1, [x29, -32]
sxtw	x1, w0
sub	x2, x2,
add	x1, x1, 8
add	x2, x2, 8
ldr	w0, [x29, -20]
ldrb	w1, [x1, x2]
str	w1, [x29, -28]
b	.L1
.L255:
ldr	x0, [x29, -16]
sxtw	x1, w0
sxtw	x2, w23
ldr	w0, [x29, -20]
ldrb	w1, [x0, x1]
str	w1, [x29, -32]
sxtw	x1, w0
sub	x2, x2,
add	x1, x1, 8
add	x2, x2, 8
ldr	w0, [x29, -20]
ldrb	w1, [x1, x2]
str	w1, [x29, -28]
b	.L1
.L257:
ldr	x0, [x29, -16]
sxtw	x1, w0
sxtw	x2, w23
ldr	w0, [x29, -20]
ldrb	w1, [x0, x1]
str	w1, [x29, -32]
sxtw	x1, w0
sub	x2, x2,
add	x1, x1, 8
add	x2, x2, 8
ldr	w0, [x29, -20]
ldrb	w1, [x1, x2]
str	w1, [x29, -28]
b	.L1
.L259:
ldr	x0, [x29, -16]
sxtw	x1, w0
sxtw	x2, w23
ldr	w0, [x29, -20]
ldrb	w1, [x0, x1]
str	w1, [x29, -32]
sxtw	x1, w0
sub	x2, x2,
add	x1, x1, 8
add	x2, x2, 8
ldr	w0, [x29, -20]
ldrb	w1, [x1, x2]
str	w1, [x29, -28]
b	.L1
.L261:
ldr	x0, [x29, -16]
sxtw	x1, w0
sxtw	x2, w23
ldr	w0, [x29, -20]
ldrb	w1, [x0, x1]
str	w1, [x29, -32]
sxtw	x1, w0
sub	x2, x2,
add	x1, x1, 8
add	x2, x2, 8
ldr	w0, [x29, -20]
ldrb	w1, [x1, x2]
str	w1, [x29, -28]
b	.L1
.L263:
ldr	x0, [x29, -16]
sxtw	x1, w0
sxtw	x2, w23
ldr	w0, [x29, -20]
ldrb	w1, [x0, x1]
str	w1, [x29, -32]
sxtw	x1, w0
sub	x2, x2,
add	x1, x1, 8
add	x2, x2, 8
ldr	w0, [x29, -20]
ldrb	w1, [x1, x2]
str	w1, [x29, -28]
b	.L1
.L265:
ldr	x0, [x29, -16]
sxtw	x1, w0
sxtw	x2, w23
ldr	w0, [x29, -20]
ldrb	w1, [x0, x1]
str	w1, [x29, -32]
sxtw	x1, w0
sub	x2, x2,
add	x1, x1, 8
add	x2, x2, 8
ldr	w0, [x29, -20]
ldrb	w1, [x1, x2]
str	w1, [x29, -28]
b	.L1
.L267:
ldr	x0, [x29, -16]
sxtw	x1, w0
sxtw	x2, w23
ldr	w0, [x29, -20]
ldrb	w1, [x0, x1]
str	w1, [x29, -32]
sxtw	x1, w0
sub	x2, x2,
add	x1, x1, 8
add	x2, x2, 8
ldr	w0, [x29, -20]
ldrb	w1, [x1, x2]
str	w1, [x29, -28]
b	.L1
.L269:
ldr	x0, [x29, -16]
sxtw	x1, w0
sxtw	x2, w23
ldr	w0, [x29, -20]
ldrb	w1, [x0, x1]
str	w1, [x29, -32]
sxtw	x1, w0
sub	x2, x2,
add	x1, x1, 8
add	x2, x2, 8
ldr	w0, [x29, -20]
ldrb	w1, [x1, x2]
str	w1, [x29, -28]
b	.L1
.L271:
ldr	x0, [x29, -16]
sxtw	x1, w0
sxtw	x2, w23
ldr	w0, [x29, -20]
ldrb	w1, [x0, x1]
str	w1, [x29, -32]
sxtw	x1, w0
sub	x2, x2,
add	x1, x1, 8
add	x2, x2, 8
ldr	w0, [x29, -20]
ldrb	w1, [x1, x2]
str	w1, [x29, -28]
b	.L1
.L273:
ldr	x0, [x29, -16]
sxtw	x1, w0
sxtw	x2, w23
ldr	w0, [x29, -20]
ldrb	w1, [x0, x1]
str	w1, [x29, -32]
sxtw	x1, w0
sub	x2, x2,
add	x1, x1, 8
add	x2, x2, 8
ldr	w0, [x29, -20]
ldrb	w1, [x1, x2]
str	w1, [x29, -28]
b	.L1
.L275:
ldr	x0, [x29, -16]
sxtw	x1, w0
sxtw	x2, w23
ldr	w0, [x29, -20]
ldrb	w1, [x0, x1]
str	w1, [x29, -32]
sxtw	x1, w0
sub	x2, x2,
add	x1, x1, 8
add	x2, x2, 8
ldr	w0, [x29, -20]
ldrb	w1, [x1, x2]
str	w1, [x29, -28]
b	.L1
.L277:
ldr	x0, [x29, -16]
sxtw	x1, w0
sxtw	x2, w23
ldr	w0, [x29, -20]
ldrb	w1, [x0, x1]
str	w1, [x29, -32]
sxtw	x1, w0
sub	x2, x2,
add	x1, x1, 8
add	x2, x2, 8
ldr	w0, [x29, -20]
ldrb	w1, [x1, x2]
str	w1, [x29, -28]
b	.L1
.L279:
ldr	x0, [x29, -16]
sxtw	x1, w0
sxtw	x2, w23
ldr	w0, [x29, -20]
ldrb	w1, [x0, x1]
str	w1, [x29, -32]
sxtw	x1, w0
sub	x2, x2,
add	x1, x1, 8
add	x2, x2, 8
ldr	w0, [x29, -20]
ldrb	w1, [x1, x2]
str	w1, [x29, -28]
b	.L1
.L281:
ldr	x0, [x29, -16]
sxtw	x1, w0
sxtw	x2, w23
ldr	w0, [x29, -20]
ldrb	w1, [x0, x1]
str	w1, [x29, -32]
sxtw	x1, w0
sub	x2, x2,
add	x1, x1, 8
add	x2, x2, 8
ldr	w0, [x29, -20]
ldrb	w1, [x1, x2]
str	w1, [x29, -28]
b	.L1
.L283:
ldr	x0, [x29, -16]
sxtw	x1, w0
sxtw	x2, w23
ldr	w0, [x29, -20]
ldrb	w1, [x0, x1]
str	w1, [x29, -32]
sxtw	x1, w0
sub	x2, x2,
add	x1, x1, 8
add	x2, x2, 8
ldr	w0, [x29, -20]
ldrb	w1, [x1, x2]
str	w1, [x29, -28]
b	.L1
.L285:
ldr	x0, [x29, -16]
sxtw	x1, w0
sxtw	x2, w23
ldr	w0, [x29, -20]
ldrb	w1, [x0, x1]
str	w1, [x29, -32]
sxtw	x1, w0
sub	x2, x2,
add	x1, x1, 8
add	x2, x2, 8
ldr	w0, [x29, -20]
ldrb	w1, [x1, x2]
str	w1, [x29, -28]
b	.L1
.L287:
ldr	x0, [x29, -16]
sxtw	x1, w0
sxtw	x2, w23
ldr	w0, [x29, -20]
ldrb	w1, [x0, x1]
str	w1, [x29, -32]
sxtw	x1, w0
sub	x2, x2,
add	x1, x1, 8
add	x2, x2, 8
ldr	w0, [x29, -20]
ldrb	w1, [x1, x2]
str	w1, [x29, -28]
b	.L1
.L289:
ldr	x0, [x29, -16]
sxtw	x1, w0
sxtw	x2, w23
ldr	w0, [x29, -20]
ldrb	w1, [x0, x1]
str	w1, [x29, -32]
sxtw	x1, w0
sub	x2, x2,
add	x1, x1, 8
add	x2, x2, 8
ldr	w0, [x29, -20]
ldrb	w1, [x1, x2]
str	w1, [x29, -28]
b	.L1
.L291:
ldr	x0, [x29, -16]
sxtw	x1, w0
sxtw	x2, w23
ldr	w0, [x29, -20]
ldrb	w1, [x0, x1]
str	w1, [x29, -32]
sxtw	x1, w0
sub	x2, x2,
add	x1, x1, 8
add	x2, x2, 8
ldr	w0, [x29, -20]
ldrb	w1, [x1, x2]
str	w1, [x29, -28]
b	.L1
.L293:
ldr	x0, [x29, -16]
sxtw	x1, w0
sxtw	x2, w23
ldr	w0, [x29, -20]
ldrb	w1, [x0, x1]
str	w1, [x29, -32]
sxtw	x1, w0
sub	x2, x2,
add	x1, x1, 8
add	x2, x2, 8
ldr	w0, [x29, -20]
ldrb	w1, [x1, x2]
str	w1, [x29, -28]
b	.L1
.L295:
ldr	x0, [x29, -16]
sxtw	x1, w0
sxtw	x2, w23
ldr	w0, [x29, -20]
ldrb	w1, [x0, x1]
str	w1, [x29, -32]
sxtw	x1, w0
sub	x2, x2,
add	x1, x1, 8
add	x2, x2, 8
ldr	w0, [x29, -20]
ldrb	w1, [x1, x2]
str	w1, [x29, -28]
b	.L1
.L297:
ldr	x0, [x29, -16]
sxtw	x1, w0
sxtw	x2, w23
ldr	w0, [x29, -20]
ldrb	w1, [x0, x1]
str	w1, [x29, -32]
sxtw	x1, w0
sub	x2, x2,
add	x1, x1, 8
add	x2, x2, 8
ldr	w0, [x29, -20]
ldrb	w1, [x1, x2]
str	w1, [x29, -28]
b	.L1
.L301:
ldr	x0, [x29, -16]
sxtw	x1, w0
sxtw	x2, w23
ldr	w0, [x29, -20]
ldrb	w1, [x0, x1]
str	w1, [x29, -32]
sxtw	x1, w0
sub	x2, x2,
add	x1, x1, 8
add	x2, x2, 8
ldr	w0, [x29, -20]
ldrb	w1, [x1, x2]
str	w1, [x29, -28]
b	.L1
.L303:
ldr	x0, [x29, -16]
sxtw	x1, w0
sxtw	x2, w23
ldr	w0, [x29, -20]
ldrb	w1, [x0, x1]
str	w1, [x29, -32]
sxtw	x1, w0
sub	x2, x2,
add	x1, x1, 8
add	x2, x2, 8
ldr	w0, [x29, -20]
ldrb	w1, [x1, x2]
str	w1, [x29, -28]
b	.L1
.L305:
ldr	x0, [x29, -16]
sxtw	x1, w0
sxtw	x2, w23
ldr	w0, [x29, -20]
ldrb	w1, [x0, x1]
str	w1, [x29, -32]
sxtw	x1, w0
sub	x2, x2,
add	x1, x1, 8
add	x2, x2, 8
ldr	w0, [x29, -20]
ldrb	w1, [x1, x2]
str	w1, [x29, -28]
b	.L1
.L307:
ldr	x0, [x29, -16]
sxtw	x1, w0
sxtw	x2, w23
ldr	w0, [x29, -20]
ldrb	w1, [x0, x1]
str	w1, [x29, -32]
sxtw	x1, w0
sub	x2, x2,
add	x1, x1, 8
add	x2, x2, 8
ldr	w0, [x29, -20]
ldrb	w1, [x1, x2]
str	w1, [x29, -28]
b	.L1
.L309:
ldr	x0, [x29, -16]
sxtw	x1, w0
sxtw	x2, w23
ldr	w0, [x29, -20]
ldrb	w1, [x0, x1]
str	w1, [x29, -32]
sxtw	x1, w0
sub	x2, x2,
add	x1, x1, 8
add	x2, x2, 8
ldr	w0, [x29, -20]
ldrb	w1, [x1, x2]
str	w1, [x29, -28]
b	.L1
.L311:
ldr	x0, [x29, -16]
sxtw	x1, w0
sxtw	x2, w23
ldr	w0, [x29, -20]
ldrb	w1, [x0, x1]
str	w1, [x29, -32]
sxtw	x1, w0
sub	x2, x2,
add	x1, x1, 8
add	x2, x2, 8
ldr	w0, [x29, -20]
ldrb	w1, [x1, x2]
str	w1, [x29, -28]
b	.L1
.L313:
ldr	x0, [x29, -16]
sxtw	x1, w0
sxtw	x2, w23
ldr	w0, [x29, -20]
ldrb	w1, [x0, x1]
str	w1, [x29, -32]
sxtw	x1, w0
sub	x2, x2,
add	x1, x1, 8
add	x2, x2, 8
ldr	w0, [x29, -20]
ldrb	w1, [x1, x2]
str	w1, [x29, -28]
b	.L1
.L315:
ldr	x0, [x29, -16]
sxtw	x1, w0
sxtw	x2, w23
ldr	w0, [x29, -20]
ldrb	w1, [x0, x1]
str	w1, [x29, -32]
sxtw	x1, w0
sub	x2, x2,
add	x1, x1, 8
add	x2, x2, 8
ldr	w0, [x29, -20]
ldrb	w1, [x1, x2]
str	w1, [x29, -28]
b	.L1
.L317:
ldr	x0, [x29, -16]
sxtw	x1, w0
sxtw	x2, w23
ldr	w0, [x29, -20]
ldrb	w1, [x0, x1]
str	w1, [x29, -32]
sxtw	x1, w0
sub	x2, x2,
add	x1, x1, 8
add	x2, x2, 8
ldr	w0, [x29, -20]
ldrb	w1, [x1, x2]
str	w1, [x29, -28]
b	.L1
.L319:
ldr	x0, [x29, -16]
sxtw	x1, w0
sxtw	x2, w23
ldr	w0, [x29, -20]
ldrb	w1, [x0, x1]
str	w1, [x29, -32]
sxtw	x1, w0
sub	x2, x2,
add	x1, x1, 8
add	x2, x2, 8
ldr	w0, [x29, -20]
ldrb	w1, [x1, x2]
str	w1, [x29, -28]
b	.L1
.L321:
ldr	x0, [x29, -16]
sxtw	x1, w0
sxtw	x2, w23
ldr	w0, [x29, -20]
ldrb	w1, [x0, x1]
str	w1, [x29, -32]
sxtw	x1, w0
sub	x2, x2,
add	x1, x1, 8
add	x2, x2, 8
ldr	w0, [x29, -20]
ldrb	w1, [x1, x2]
str	w1, [x29, -28]
b	.L1
.L323:
ldr	x0, [x29, -16]
sxtw	x1, w0
sxtw	x2, w23
ldr	w0, [x29, -20]
ldrb	w1, [x0, x1]
str	w1, [x29, -32]
sxtw	x1, w0
sub	x2, x2,
add	x1, x1, 8
add	x2, x2, 8
ldr	w0, [x29, -20]
ldrb	w1, [x1, x2]
str	w1, [x29, -28]
b	.L1
.L325:
ldr	x0, [x29, -16]
sxtw	x1, w0
sxtw	x2, w23
ldr	w0, [x29, -20]
ldrb	w1, [x0, x1]
str	w1, [x29, -32]
sxtw	x1, w0
sub	x2, x2,
add	x1, x1, 8
add	x2, x2, 8
ldr	w0, [x29, -20]
ldrb	w1, [x1, x2]
str	w1, [x29, -28]
b	.L1
.L327:
ldr	x0, [x29, -16]
sxtw	x1, w0
sxtw	x2, w23
ldr	w0, [x29, -20]
ldrb	w1, [x0, x1]
str	w1, [x29, -32]
sxtw	x1, w0
sub	x2, x2,
add	x1, x1, 8
add	x2, x2, 8
ldr	w0, [x29, -20]
ldrb	w1, [x1, x2]
str	w1, [x29, -28]
b	.L1
.L329:
ldr	x0, [x29, -16]
sxtw	x1, w0
sxtw	x2, w23
ldr	w0, [x29, -20]
ldrb	w1, [x0, x1]
str	w1, [x29, -32]
sxtw	x1, w0
sub	x2, x2,
add	x1, x1, 8
add	x2, x2, 8
ldr	w0, [x29, -20]
ldrb	w1, [x1, x2]
str	w1, [x29, -28]
b	.L1
.L331:
ldr	x0, [x29, -16]
sxtw	x1, w0
sxtw	x2, w23
ldr	w0, [x29, -20]
ldrb	w1, [x0, x1]
str	w1, [x29, -32]
sxtw	x1, w0
sub	x2, x2,
add	x1, x1, 8
add	x2, x2, 8
ldr	w0, [x29, -20]
ldrb	w1, [x1, x2]
str	w1, [x29, -28]
b	.L1
.L333:
ldr	x0, [x29, -16]
sxtw	x1, w0
sxtw	x2, w23
ldr	w0, [x29, -20]
ldrb	w1, [x0, x1]
str	w1, [x29, -32]
sxtw	x1, w0
sub	x2, x2,
add	x1, x1, 8
add	x2, x2, 8
ldr	w0, [x29, -20]
ldrb	w1, [x1, x2]
str	w1, [x29, -28]
b	.L1
.L335:
ldr	x0, [x29, -16]
sxtw	x1, w0
sxtw	x2, w23
ldr	w0, [x29, -20]
ldrb	w1, [x0, x1]
str	w1, [x29, -32]
sxtw	x1, w0
sub	x2, x2,
add	x1, x1, 8
add	x2, x2, 8
ldr	w0, [x29, -20]
ldrb	w1, [x1, x2]
str	w1, [x29, -28]
b	.L1
.L337:
ldr	x0, [x29, -16]
sxtw	x1, w0
sxtw	x2, w23
ldr	w0, [x29, -20]
ldrb	w1, [x0, x1]
str	w1, [x29, -32]
sxtw	x1, w0
sub	x2, x2,
add	x1, x1, 8
add	x2, x2, 8
ldr	w0, [x29, -20]
ldrb	w1, [x1, x2]
str	w1, [x29, -28]
b	.L1
.L339:
ldr	x0, [x29, -16]
sxtw	x1, w0
sxtw	x2, w23
ldr	w0, [x29, -20]
ldrb	w1, [x0, x1]
str	w1, [x29, -32]
sxtw	x1, w0
sub	x2, x2,
add	x1, x1, 8
add	x2, x2, 8
ldr	w0, [x29, -20]
ldrb	w1, [x1, x2]
str	w1, [x29, -28]
b	.L1
.L341:
ldr	x0, [x29, -16]
sxtw	x1, w0
sxtw	x2, w23
ldr	w0, [x29, -20]
ldrb	w1, [x0, x1]
str	w1, [x29, -32]
sxtw	x1, w0
sub	x2, x2,
add	x1, x1, 8
add	x2, x2, 8
ldr	w0, [x29, -20]
ldrb	w1, [x1, x2]
str	w1, [x29, -28]
b	.L1
.L343:
ldr	x0, [x29, -16]
sxtw	x1, w0
sxtw	x2, w23
ldr	w0, [x29, -20]
ldrb	w1, [x0, x1]
str	w1, [x29, -32]
sxtw	x1, w0
sub	x2, x2,
add	x1, x1, 8
add	x2, x2, 8
ldr	w0, [x29, -20]
ldrb	w1, [x1, x2]
str	w1, [x29, -28]
b	.L1
.L345:
ldr	x0, [x29, -16]
sxtw	x1, w0
sxtw	x2, w23
ldr	w0, [x29, -20]
ldrb	w1, [x0, x1]
str	w1, [x29, -32]
sxtw	x1, w0
sub	x2, x2,
add	x1, x1, 8
add	x2, x2, 8
ldr	w0, [x29, -20]
ldrb	w1, [x1, x2]
str	w1, [x29, -28]
b	.L1
.L347:
ldr	x0, [x29, -16]
sxtw	x1, w0
sxtw	x2, w23
ldr	w0, [x29, -20]
ldrb	w1, [x0, x1]
str	w1, [x29, -32]
sxtw	x1, w0
sub	x2, x2,
add	x1, x1, 8
add	x2, x2, 8
ldr	w0, [x29, -20]
ldrb	w1, [x1, x2]
str	w1, [x29, -28]
b	.L1
.L349:
ldr	x0, [x29, -16]
sxtw	x1, w0
sxtw	x2, w23
ldr	w0, [x29, -20]
ldrb	w1, [x0, x1]
str	w1, [x29, -32]
sxtw	x1, w0
sub	x2, x2,
add	x1, x1, 8
add	x2, x2, 8
ldr	w0, [x29, -20]
ldrb	w1, [x1, x2]
str	w1, [x29, -28]
b	.L1
.L351:
ldr	x0, [x29, -16]
sxtw	x1, w0
sxtw	x2, w23
ldr	w0, [x29, -20]
ldrb	w1, [x0, x1]
str	w1, [x29, -32]
sxtw	x1, w0
sub	x2, x2,
add	x1, x1, 8
add	x2, x2, 8
ldr	w0, [x29, -20]
ldrb	w1, [x1, x2]
str	w1, [x29, -28]
b	.L1
.L353:
ldr	x0, [x29, -16]
sxtw	x1, w0
sxtw	x2, w23
ldr	w0, [x29, -20]
ldrb	w1, [x0, x1]
str	w1, [x29, -32]
sxtw	x1, w0
sub	x2, x2,
add	x1, x1, 8
add	x2, x2, 8
ldr	w0, [x29, -20]
ldrb	w1, [x1, x2]
str	w1, [x29, -28]
b	.L1
.L355:
ldr	x0, [x29, -16]
sxtw	x1, w0
sxtw	x2, w23
ldr	w0, [x29, -20]
ldrb	w1, [x0, x1]
str	w1, [x29, -32]
sxtw	x1, w0
sub	x2, x2,
add	x1, x1, 8
add	x2, x2, 8
ldr	w0, [x29, -20]
ldrb	w1, [x1, x2]
str	w1, [x29, -28]
b	.L1
.L357:
ldr	x0, [x29, -16]
sxtw	x1, w0
sxtw	x2, w23
ldr	w0, [x29, -20]
ldrb	w1, [x0, x1]
str	w1, [x29, -32]
sxtw	x1, w0
sub	x2, x2,
add	x1, x1, 8
add	x2, x2, 8
ldr	w0, [x29, -20]
ldrb	w1, [x1, x2]
str	w1, [x29, -28]
b	.L1
.L359:
ldr	x0, [x29, -16]
sxtw	x1, w0
sxtw	x2, w23
ldr	w0, [x29, -20]
ldrb	w1, [x0, x1]
str	w1, [x29, -32]
sxtw	x1, w0
sub	x2, x2,
add	x1, x1, 8
add	x2, x2, 8
ldr	w0, [x29, -20]
ldrb	w1, [x1, x2]
str	w1, [x29, -28]
b	.L1
.L361:
ldr	x0, [x29, -16]
sxtw	x1, w0
sxtw	x2, w23
ldr	w0, [x29, -20]
ldrb	w1, [x0, x1]
str	w1, [x29, -32]
sxtw	x1, w0
sub	x2, x2,
add	x1, x1, 8
add	x2, x2, 8
ldr	w0, [x29, -20]
ldrb	w1, [x1, x2]
str	w1, [x29, -28]
b	.L1
.L363:
ldr	x0, [x29, -16]
sxtw	x1, w0
sxtw	x2, w23
ldr	w0, [x29, -20]
ldrb	w1, [x0, x1]
str	w1, [x29, -32]
sxtw	x1, w0
sub	x2, x2,
add	x1, x1, 8
add	x2, x2, 8
ldr	w0, [x29, -20]
ldrb	w1, [x1, x2]
str	w1, [x29, -28]
b	.L1
.L365:
ldr	x0, [x29, -16]
sxtw	x1, w0
sxtw	x2, w23
ldr	w0, [x29, -20]
ldrb	w1, [x0, x1]
str	w1, [x29, -32]
sxtw	x1, w0
sub	x2, x2,
add	x1, x1, 8
add	x2, x2, 8
ldr	w0, [x29, -20]
ldrb	w1, [x1, x2]
str	w1, [x29, -28]
b	.L1
.L367:
ldr	x0, [x29, -16]
sxtw	x1, w0
sxtw	x2, w23
ldr	w0, [x29, -20]
ldrb	w1, [x0, x1]
str	w1, [x29, -32]
sxtw	x1, w0
sub	x2, x2,
add	x1, x1, 8
add	x2, x2, 8
ldr	w0, [x29, -20]
ldrb	w1, [x1, x2]
str	w1, [x29, -28]
b	.L1
.L369:
ldr	x0, [x29, -16]
sxtw	x1, w0
sxtw	x2, w23
ldr	w0, [x29, -20]
ldrb	w1, [x0, x1]
str	w1, [x29, -32]
sxtw	x1, w0
sub	x2, x2,
add	x1, x1, 8
add	x2, x2, 8
ldr	w0, [x29, -20]
ldrb	w1, [x1, x2]
str	w1, [x29, -28]
b	.L1
.L371:
ldr	x0, [x29, -16]
sxtw	x1, w0
sxtw	x2, w23
ldr	w0, [x29, -20]
ldrb	w1, [x0, x1]
str	w1, [x29, -32]
sxtw	x1, w0
sub	x2, x2,
add	x1, x1, 8
add	x2, x2, 8
ldr	w0, [x29, -20]
ldrb	w1, [x1, x2]
str	w1, [x29, -28]
b	.L1
.L373:
ldr	x0, [x29, -16]
sxtw	x1, w0
sxtw	x2, w23
ldr	w0, [x29, -20]
ldrb	w1, [x0, x1]
str	w1, [x29, -32]
sxtw	x1, w0
sub	x2, x2,
add	x1, x1, 8
add	x2, x2, 8
ldr	w0, [x29, -20]
ldrb	w1, [x1, x2]
str	w1, [x29, -28]
b	.L1
.L375:
ldr	x0, [x29, -16]
sxtw	x1, w0
sxtw	x2, w23
ldr	w0, [x29, -20]
ldrb	w1, [x0, x1]
str	w1, [x29, -32]
sxtw	x1, w0
sub	x2, x2,
add	x1, x1, 8
add	x2, x2, 8
ldr	w0, [x29, -20]
ldrb	w1, [x1, x2]
str	w1, [x29, -28]
b	.L1
.L377:
ldr	x0, [x29, -16]
sxtw	x1, w0
sxtw	x2, w23
ldr	w0, [x29, -20]
ldrb	w1, [x0, x1]
str	w1, [x29, -32]
sxtw	x1, w0
sub	x2, x2,
add	x1, x1, 8
add	x2, x2, 8
ldr	w0, [x29, -20]
ldrb	w1, [x1, x2]
str	w1, [x29, -28]
b	.L1
.L379:
ldr	x0, [x29, -16]
sxtw	x1, w0
sxtw	x2, w23
ldr	w0, [x29, -20]
ldrb	w1, [x0, x1]
str	w1, [x29, -32]
sxtw	x1, w0
sub	x2, x2,
add	x1, x1, 8
add	x2, x2, 8
ldr	w0, [x29, -20]
ldrb	w1, [x1, x2]
str	w1, [x29, -28]
b	.L1
.L381:
ldr	x0, [x29, -16]
sxtw	x1, w0
sxtw	x2, w23
ldr	w0, [x29, -20]
ldrb	w1, [x0, x1]
str	w1, [x29, -32]
sxtw	x1, w0
sub	x2, x2,
add	x1, x1, 8
add	x2, x2, 8
ldr	w0, [x29, -20]
ldrb	w1, [x1, x2]
str	w1, [x29, -28]
b	.L1
.L383:
ldr	x0, [x29, -16]
sxtw	x1, w0
sxtw	x2, w23
ldr	w0, [x29, -20]
ldrb	w1, [x0, x1]
str	w1, [x29, -32]
sxtw	x1, w0
sub	x2, x2,
add	x1, x1, 8
add	x2, x2, 8
ldr	w0, [x29, -20]
ldrb	w1, [x1, x2]
str	w1, [x29, -28]
b	.L1
.L385:
ldr	x0, [x29, -16]
sxtw	x1, w0
sxtw	x2, w23
ldr	w0, [x29, -20]
ldrb	w1, [x0, x1]
str	w1, [x29, -32]
sxtw	x1, w0
sub	x2, x2,
add	x1, x1, 8
add	x2, x2, 8
ldr	w0, [x29, -20]
ldrb	w1, [x1, x2]
str	w1, [x29, -28]
b	.L1
.L387:
ldr	x0, [x29, -16]
sxtw	x1, w0
sxtw	x2, w23
ldr	w0, [x29, -20]
ldrb	w1, [x0, x1]
str	w1, [x29, -32]
sxtw	x1, w0
sub	x2, x2,
add	x1, x1, 8
add	x2, x2, 8
ldr	w0, [x29, -20]
ldrb	w1, [x1, x2]
str	w1, [x29, -28]
b	.L1
.L389:
ldr	x0, [x29, -16]
sxtw	x1, w0
sxtw	x2, w23
ldr	w0, [x29, -20]
ldrb	w1, [x0, x1]
str	w1, [x29, -32]
sxtw	x1, w0
sub	x2, x2,
add	x1, x1, 8
add	x2, x2, 8
ldr	w0, [x29, -20]
ldrb	w1, [x1, x2]
str	w1, [x29, -28]
b	.L1
.L391:
ldr	x0, [x29, -16]
sxtw	x1, w0
sxtw	x2, w23
ldr	w0, [x29, -20]
ldrb	w1, [x0, x1]
str	w1, [x29, -32]
sxtw	x1, w0
sub	x2, x2,
add	x1, x1, 8
add	x2, x2, 8
ldr	w0, [x29, -20]
ldrb	w1, [x1, x2]
str	w1, [x29, -28]
b	.L1
.L393:
ldr	x0, [x29, -16]
sxtw	x1, w0
sxtw	x2, w23
ldr	w0, [x29, -20]
ldrb	w1, [x0, x1]
str	w1, [x29, -32]
sxtw	x1, w0
sub	x2, x2,
add	x1, x1, 8
add	x2, x2, 8
ldr	w0, [x29, -20]
ldrb	w1, [x1, x2]
str	w1, [x29, -28]
b	.L1
.L395:
ldr	x0, [x29, -16]
sxtw	x1, w0
sxtw	x2, w23
ldr	w0, [x29, -20]
ldrb	w1, [x0, x1]
str	w1, [x29, -32]
sxtw	x1, w0
sub	x2, x2,
add	x1, x1, 8
add	x2, x2, 8
ldr	w0, [x29, -20]
ldrb	w1, [x1, x2]
str	w1, [x29, -28]
b	.L1
.L397:
ldr	x0, [x29, -16]
sxtw	x1, w0
sxtw	x2, w23
ldr	w0, [x29, -20]
ldrb	w1, [x0, x1]
str	w1, [x29, -32]
sxtw	x1, w0
sub	x2, x2,
add	x1, x1, 8
add	x2, x2, 8
ldr	w0, [x29, -20]
ldrb	w1, [x1, x2]
str	w1, [x29, -28]
b	.L1
.L399:
ldr	x0, [x29, -16]
sxtw	x1, w0
sxtw	x2, w23
ldr	w0, [x29, -20]
ldrb	w1, [x0, x1]
str	w1, [x29, -32]
sxtw	x1, w0
sub	x2, x2,
add	x1, x1, 8
add	x2, x2, 8
ldr	w0, [x29, -20]
ldrb	w1, [x1, x2]
str	w1, [x29, -28]
b	.L1
.L401:
ldr	x0, [x29, -16]
sxtw	x1, w0
sxtw	x2, w23
ldr	w0, [x29, -20]
ldrb	w1, [x0, x1]
str	w1, [x29, -32]
sxtw	x1, w0
sub	x2,