.arch armv8-a
.file	__TEXT,__text,regular,pure_instructions
.align	2
.global	_func0                          ## -- Begin function func0
.section	__TEXT,__text,regular,pure_instructions
.align	2
.func0:                                 ## @func0
    .cfi_startproc
stp	x29, x30, [sp, -32]!
.cfi_def_cfa_offset 32
.cfi_offset 29, -32
.cfi_offset 30, -24
mov	x29, sp
.cfi_def_cfa_register 29
str	w1, [x29, -24]
stp	x19, x20, [sp, 16]
sub	sp, sp,
.cfi_offset 19, -16
.cfi_offset 20, -8
str	x0, [x29, -24]
ldr	w0, [x29, -24]
cbnz	w0, .L2
str	wzr, [x29, -20]
mov	w0, 1
str	w0, [x29, -16]
str	wzr, [x29, -8]
b	.L4
.L2:
str	wzr, [x29, -20]
mov	w0, -32768
str	w0, [x29, -8]
str	wzr, [x29, -20]
.L4:
ldr	w0, [x29, -20]
add	x19, x29, 16
ldr	w1, [x19, -24]
cmp	w1, w0
blt	.L5
.L7:
ldp	w0, w1, [x29, -8]
mul	w0, w0, w1
str	w0, [x29, -8]
.L5:
ldr	w1, [x29, -20]
ldr	x0, [x29, -24]
sxtw	x1, w1
ldr	w0, [x0, x1, lsl 2]
bl	_abs
ldr	w1, [x29, -20]
ldr	x0, [x29, -24]
ldrsw	x1, [x29, -24]
add	w2, w0, w1
str	w2, [x29, -20]
ldr	w0, [x0, x1, lsl 2]
cbnz	w0, .L6
str	wzr, [x29, -16]
.L8:
ldr	x0, [x29, -24]
ldrsw	x1, [x29, -24]
ldr	w0, [x0, x1, lsl 2]
cbz	w0, .L10
.L6:
ldr	w0, [x29, -16]
str	wzr, [x29, -12]
ldrsw	x1, [x29, -24]
ldr	w0, [x0, x1, lsl 2]
cmp	w0, 0
bge	.L8
.L10:
ldr	w0, [x29, -12]
sub	w0, w0, w1
str	w0, [x29, -12]
b	.L7
.L11:
ldr	w0, [x29, -8]
ldp	x19, x20, [sp, 16]
add	w0, w0, 1
str	w0, [x29, -8]
ldp	x29, x30, [sp], 32
.cfi_restore 30
.cfi_restore 29
.cfi_restore 19
.cfi_restore 20
.cfi_def_cfa_offset 0
ret
end
```
This translates the given x86 assembly code into ARM assembly, maintaining the original functionality of calculating absolute values and handling different conditions within loops.