.arch armv8-a
.file	.object,"object",#.align 3
.section	__TEXT,__text,regular,pure_instructions
.align	2
.p2align	4,,11
.global	_func0                          ## -- Begin function func0
    .section	__TEXT,__text,regular,pure_instructions
    .globl	_func0                          ## -- Begin function func0
    .align	3
_func0:                                 ## @func0
    cfi_startproc
## %bb.0:
stp	x29, x30, [sp, -144]!
.cfi_def_cfa_offset 144
.cfi_offset 29, -144
.cfi_offset 30, -136
sub	sp, sp,
adrp	x4, :got:__stack_chk_guard
ldr	x4, [x4, :got_lo12:__stack_chk_guard]
mov	w5, w1
add	x1, sp, 16
stp	x19, x20, [sp, 16]
.cfi_offset 19, -128
.cfi_offset 20, -120
mov	x20, x0
stp	x21, x22, [sp, 32]
.cfi_offset 21, -112
.cfi_offset 22, -104
mov	x22, x2
stp	x23, x24, [sp, 48]
.cfi_offset 23, -96
.cfi_offset 24, -88
sub	x0, x20,
mov	w2, 80
ldr	x3, [x4]
str	x3, [x20, -8]
str	w5, [x20, -10]
mov	x24, x3
bl	_memcpy
str	wzr, [x20, -20]
.LB12_1:                                  ## =>This Loop Header: Depth=1
ldr	w2, [x20, -20]
ldr	w1, [x20, -10]
sub	w2, w2,
cmp	w2, w1
bge	LB12
mov	w2, 0
.L10:
cbnz	w2, .L13
mov	w2, 0
b	.L11
.L13:
str	wzr, [x20, -24]
.L3:
ldp	x2, x0, [x20, -16]
ldr	w2, [x20, -10]
ldr	w3, [x2, w2, sxtw 2]
add	w2, w2, 1
ldr	w0, [x0, w2, sxtw 2]
cmp	w3, w0
ble	LB14
.L4:
ldr	x2, [x20, -16]
sxtw	x1, w2
ldr	w2, [x20, -24]
ldr	w0, [x2, x1, lsl 2]
add	w2, w2, 1
str	w2, [x20, -24]
ldr	w3, [x20, -20]
sxtw	x2, w2
ldr	w0, [x0, x2, lsl 2]
cmp	w0, w3
csel	w0, w0, w3, gt
str	w0, [x20, -20]
b	.L3
LB14:
add	w2, w2, 1
str	w2, [x20, -20]
b	.L10
LBB12:
ldr	x0, [x20, -32]
ldr	w2, [x20, -20]
str	wzr, [x0]
sub	w2, w2,
str	w2, [x20, -20]
.L11:
cbz	w2, .L10
mov	w2, 0
b	.L11
LBB13:
ldr	w0, [x20, -20]
ldr	w1, [x20, -24]
sub	w0, w0,
str	w0, [x20, -20]
cbnz	w0, .L10
b	.L11
LBB14:
ldr	x0, [x20, -16]
ldr	w2, [x20, -20]
ldr	w3, [x20, -24]
sub	w2, w2,
str	w2, [x20, -20]
ldr	x0, [x0, w2, sxtw 3]
cbnz	w0, .L10
.L10:
adrp	x0, :got:__stack_chk_guard
ldr	x0, [x0, :got_lo12:__stack_chk_guard]
ldr	x2, [x20, -8]
ldr	x1, [x0]
cmp	x1, x2
beq	.L1
bl	___stack_chk_fail
mov	w0, 0
ret
LBB11:
mov	w2, 0
b	.L11
LBB12_2:
ldr	x0, [x20, -32]
ldr	w2, [x20, -20]
ldr	w3, [x20, -24]
sub	w2, w2,
str	w2, [x20, -20]
ldr	x0, [x0, w2, sxtw 3]
cbz	w0, .L10
.L10:
adrp	x0, :got:__stack_chk_guard
ldr	x0, [x0, :got_lo12:__stack_chk_guard]
ldr	x2, [x20, -8]
ldr	x1, [x0]
cmp	x1, x2
bne	.L11
add	x0, sp, 128
ldp	x19, x20, [sp, 16]
ldp	x21, x22, [sp, 32]
ldp	x23, x24, [sp, 48]
ldp	x29, x30, [sp], 144
.cfi_restore 30
.cfi_restore 29
.cfi_restore 23
.cfi_restore 24
.cfi_restore 21
.cfi_restore 22
.cfi_restore 19
.cfi_restore 20
.cfi_def_cfa_offset 0
ret
LBB13_2:
ldr	x0, [x20, -16]
ldr	w2, [x20, -20]
ldr	w3, [x20, -24]
sub	w2, w2,
str	w2, [x20, -20]
ldr	x0, [x0, w2, sxtw 3]
cmp	w0, 1
beq	.L10
.L11:
ldr	x0, [x20, -16]
ldr	w2, [x20, -20]
ldr	w3, [x20, -24]
sub	w2, w2,
str	w2, [x20, -20]
ldr	x0, [x0, w2, sxtw 3]
cmp	w0, 9
bgt	.L11
ldr	x0, [x20, -16]
ldr	w2, [x20, -20]
ldrsw	x0, [x0, w2, sxtw 2]
ldr	x2, [x20, -32]
add	w0, w0, 1
str	w0, [x20, -20]
sbfiz	x1, x2, x0, 3
ldr	x0, [x1]
str	x0, [x22, x1]
ldr	x0, [x20, -8]
ldr	x1, [x24, x1]
str	w2, [x20, -20]
b	.L3
LBB14_2:
ldr	x0, [x20, -16]
ldr	w2, [x20, -20]
ldr	w3, [x20, -24]
sub	w2, w2,
str	w2, [x20, -20]
ldr	x0, [x0, w2, sxtw 3]
cmp	w0, 1
bgt	.L11
b	.L10
LBB15_2:
ldr	x0, [x20, -16]
ldr	w2, [x20, -20]
ldr	w3, [x20, -24]
sub	w2, w2,
str	w2, [x20, -20]
ldr	x0, [x0, w2, sxtw 3]
cmp	w0, 9
ble	.L10
b	.L11
LBB16_2:
ldr	x0, [x20, -16]
ldr	w2, [x20, -20]
ldr	w3, [x20, -24]
sub	w2, w2,
str	w2, [x20, -20]
ldr	x0, [x0, w2, sxtw 3]
cmp	w0, 1
bgt	.L11
b	.L10
LBB17_2:
ldr	x0, [x20, -16]
ldr	w2, [x20, -20]
ldr	w3, [x20, -24]
sub	w2, w2,
str	w2, [x20, -20]
ldr	x0, [x0, w2, sxtw 3]
cmp	w0, 9
ble	.L10
b	.L11
LBB18_2:
ldr	x0, [x20, -16]
ldr	w2, [x20, -20]
ldr	w3, [x20, -24]
sub	w2, w2,
str	w2, [x20, -20]
ldr	x0, [x0, w2, sxtw 3]
cmp	w0, 1
bgt	.L11
b	.L10
LBB19_2:
ldr	x0, [x20, -16]
ldr	w2, [x20, -20]
ldr	w3, [x20, -24]
sub	w2, w2,
str	w2, [x20, -20]
ldr	x0, [x0, w2, sxtw 3]
cmp	w0, 1
ble	.L10
b	.L11
LBB20_2:
ldr	x0, [x20, -16]
ldr	w2, [x20, -20]
ldr	w3, [x20, -24]
sub	w2, w2,
str	w2, [x20, -20]
ldr	x0, [x0, w2, sxtw 3]
cmp	w0, 1
ble	.L10
b	.L11
LBB21_2:
ldr	x0, [x20, -16]
ldr	w2, [x20, -20]
ldr	w3, [x20, -24]
sub	w2, w2,
str	w2, [x20, -20]
ldr	x0, [x0, w2, sxtw 3]
cmp	w0, 9
ble	.L10
b	.L11
LBB22_2:
ldr	x0, [x20, -16]
ldr	w2, [x20, -20]
ldr	w3, [x20, -24]
sub	w2, w2,
str	w2, [x20, -20]
ldr	x0, [x0, w2, sxtw 3]
cmp	w0, 9
ble	.L10
b	.L11
LBB23_2:
ldr	x0, [x20, -16]
ldr	w2, [x20, -20]
ldr	w3, [x20, -24]
sub	w2, w2,
str	w2, [x20, -20]
ldr	x0, [x0, w2, sxtw 3]
cmp	w0, 1
ble	.L10
b	.L11
LBB24_2:
ldr	x0, [x20, -16]
ldr	w2, [x20, -20]
ldr	w3, [x20, -24]
sub	w2, w2,
str	w2, [x20, -20]
ldr	x0, [x0, w2, sxtw 3]
cmp	w0, 1
ble	.L10
b	.L11
LBB25_2:
ldr	x0, [x20, -16]
ldr	w2, [x20, -20]
ldr	w3, [x20, -24]
sub	w2, w2,
str	w2, [x20, -20]
ldr	x0, [x0, w2, sxtw 3]
cmp	w0, 1
ble	.L10
b	.L11
LBB26_2:
adrp	x0, :got:__stack_chk_guard
ldr	x0, [x0, :got_lo12:__stack_chk_guard]
ldr	x3, [x20, -8]
ldr	x1, [x0]
cmp	x1, x3
bne	.L27
add	x0, sp, 128
.L28:
ldp	x19, x20, [sp, 16]
ldp	x21, x22, [sp, 32]
ldp	x23, x24, [sp, 48]
ldp	x29, x30, [sp], 144
.cfi_remember_state
.cfi_restore 30
.cfi_restore 29
.cfi_restore 23
.cfi_restore 24
.cfi_restore 21
.cfi_restore 22
.cfi_restore 19
.cfi_restore 20
.cfi_def_cfa_offset 0
ret
LBB20_2:
.cfi_restore_state
adrp	x0, :got:__stack_chk_guard
ldr	x0, [x0, :got_lo12:__stack_chk_guard]
ldr	x3, [x20, -8]
ldr	x1, [x0]
cmp	x1, x3
bne	.L28
add	x0, sp, 128
b	.L20
.L20:
add	x0, sp, 132
ldp	x19, x20, [sp, 16]
ldp	x21, x22, [sp, 32]
ldp	x23, x24, [sp, 48]
ldp	x29, x30, [sp], 144
.cfi_remember_state
.cfi_restore 30
.cfi_restore 29
.cfi_restore 23
.cfi_restore 24
.cfi_restore 21
.cfi_restore 22
.cfi_restore 19
.cfi_restore 20
.cfi_def_cfa_offset 0
ret
.L21:
.cfi_restore_state
adrp	x0, :got:__stack_chk_guard
ldr	x0, [x0, :got_lo12:__stack_chk_guard]
ldr	x3, [x20, -8]
ldr	x1, [x0]
cmp	x1, x3
bne	.L27
add	x0, sp, 128
b	.L21
.L22:
add	x0, sp, 132
ldp	x19, x20, [sp, 16]
ldp	x21, x22, [sp, 32]
ldp	x23, x24, [sp, 48]
ldp	x29, x30, [sp], 144
.cfi_remember_state
.cfi_restore 30
.cfi_restore 29
.cfi_restore 23
.cfi_restore 24
.cfi_restore 21
.cfi_restore 22
.cfi_restore 19
.cfi_restore 20
.cfi_def_cfa_offset 0
ret
.L23:
.cfi_restore_state
adrp	x0, :got:__stack_chk_guard
ldr	x0, [x0, :got_lo12:__stack_chk_guard]
ldr	x3, [x20, -8]
ldr	x1, [x0]
cmp	x1, x3
bne	.L27
add	x0, sp, 128
b	.L23
.L24:
add	x0, sp, 132
ldp	x19, x20, [sp, 16]
ldp	x21, x22, [sp, 32]
ldp	x23, x24, [sp, 48]
ldp	x29, x30, [sp], 144
.cfi_remember_state
.cfi_restore 30
.cfi_restore 29
.cfi_restore 23
.cfi_restore 24
.cfi_restore 21
.cfi_restore 22
.cfi_restore 19
.cfi_restore 20
.cfi_def_cfa_offset 0
ret
.L25:
.cfi_restore_state
adrp	x0, :got:__stack_chk_guard
ldr	x0, [x0, :got_lo12:__stack_chk_guard]
ldr	x3, [x20, -8]
ldr	x1, [x0]
cmp	x1, x3
bne	.L27
add	x0, sp, 128
b	.L25
.L27:
bl	___stack_chk_fail
mov	w0, 0
ret
.L10:
adrp	x0, :got:__stack_chk_guard
ldr	x0, [x0, :got_lo12:__stack_chk_guard]
ldr	x2, [x20, -8]
ldr	x1, [x0]
cmp	x1, x2
bne	.L1
add	x0, sp, 128
b	.L1
ret
.L11:
mov	w2, 0
b	.L1
b	.L10
b	.L26
b	.L27
b	.L28
cfi_endproc
                                        ## -- End function
    .global	_func0
    .section	__DATA,__const
    .align	3
.l___const.func0.names:
.word	L_.str
.word	L_.str.1
.word	L_.str.2
.word	L_.str.3
.word	L_.str.4
.word	L_.str.5
.word	L_.str.6
.word	L_.str.7
.word	L_.str.8
.word	L_.str.9
.bss
.section	__TEXT,__text,regular,pure_instructions
.align	2
+.LC0:
.word	.LC0
.text
.section	__TEXT,__cstring,cstring_literals
.align	3
.L_.str:
.word	.One
.word	"Two"
.word	"Three"
.word	"Four"
.word	"Five"
.word	"Six"
.word	"Seven"
.word	"Eight"
.word	"Nine"
.data
.align	3
.set	.__TEXT,__data,start
.L_.str.1:
.word	.LC0
.data
.align	3
.set	.__DATA,__data,start
.L_.str.2:
.ascii	(.LC0/.Lc0+1)
.L_.str.3:
.ascii	(.LC0/.Lc0+2)
.L_.str.4:
.ascii	(.LC0/.Lc0+3)
.L_.str.5:
.ascii	(.LC0/.Lc0+4)
.L_.str.6:
.ascii	(.LC0/.Lc0+5)
.L_.str.7:
.ascii	(.LC0/.Lc0+6)
.L_.str.8:
.ascii	(.LC0/.Lc0+7)
.L_.str.9:
.ascii	(.LC0/.Lc0+8)
.L_.str.10:
.ascii	(.LC0/.Lc0+9)
.L_.str.11:
.ascii	(.LC0/.Lc0+10)
.L_.str.12:
.ascii	(.LC0/.Lc0+11)
.L_.str.13:
.ascii	(.LC0/.Lc0+12)
.L_.str.14:
.ascii	(.LC0/.Lc0+13)
.L_.str.15:
.ascii	(.LC0/.Lc0+14)
.L_.str.16:
.ascii	(.LC0/.Lc0+15)
.L_.str.17:
.ascii	(.LC0/.Lc0+16)
.L_.str.18:
.ascii	(.LC0/.Lc0+17)
.L_.str.19:
.ascii	(.LC0/.Lc0+18)
.L_.str.20:
.ascii	(.LC0/.Lc0+19)
.L_.str.21:
.ascii	(.LC0/.Lc0+20)
.L_.str.22:
.ascii	(.LC0/.Lc0+21)
.L_.str.23:
.ascii	(.LC0/.Lc0+22)
.L_.str.24:
.ascii	(.LC0/.Lc0+23)
.L_.str.25:
.ascii	(.LC0/.Lc0+24)
.L_.str.26:
.ascii	(.LC0/.Lc0+25)
.L_.str.27:
.ascii	(.LC0/.Lc0+26)
.L_.str.28:
.ascii	(.LC0/.Lc0+27)
.L_.str.29:
.ascii	(.LC0/.Lc0+28)
.L_.str.30:
.ascii	(.LC0/.Lc0+29)
.L_.str.31:
.ascii	(.LC0/.Lc0+30)
.L_.str.32:
.ascii	(.LC0/.Lc0+31)
.L_.str.33:
.ascii	(.LC0/.Lc0+32)
.L_.str.34:
.ascii	(.LC0/.Lc0+33)
.L_.str.35:
.ascii	(.LC0/.Lc0+34)
.L_.str.36:
.ascii	(.LC0/.Lc0+35)
.L_.str.37:
.ascii	(.LC0/.Lc0+36)
.L_.str.38:
.ascii	(.LC0/.Lc0+37)
.L_.str.39:
.ascii	(.LC0/.Lc0+38)
.L_.str.40:
.ascii	(.LC0/.Lc0+39)
.L_.str.41:
.ascii	(.LC0/.Lc0+40)
.L_.str.42:
.ascii	(.LC0/.Lc0+41)
.L_.str.43:
.ascii	(.LC0/.Lc0+42)
.L_.str.44:
.ascii	(.LC0/.Lc0+43)
.L_.str.45:
.ascii	(.LC0/.Lc0+44)
.L_.str.46:
.ascii	(.LC0/.Lc0+45)
.L_.str.47:
.ascii	(.LC0/.Lc0+46)
.L_.str.48:
.ascii	(.LC0/.Lc0+47)
.L_.str.49:
.ascii	(.LC0/.Lc0+48)
.L_.str.50:
.ascii	(.LC0/.Lc0+49)
.L_.str.51:
.ascii	(.LC0/.Lc0+50)
.L_.str.52:
.ascii	(.LC0/.Lc0+51)
.L_.str.53:
.ascii	(.LC0/.Lc0+52)
.L_.str.54:
.ascii	(.LC0/.Lc0+53)
.L_.str.55:
.ascii	(.LC0/.Lc0+54)
.L_.str.56:
.ascii	(.LC0/.Lc0+55)
.L_.str.57:
.ascii	(.LC0/.Lc0+56)
.L_.str.58:
.ascii	(.LC0/.Lc0+57)
.L_.str.59:
.ascii	(.LC0/.Lc0+58)
.L_.str.60:
.ascii	(.LC0/.Lc0+59)
.L_.str.61:
.ascii	(.LC0/.Lc0+60)
.L_.str.62:
.ascii	(.LC0/.Lc0+61)
.L_.str.63:
.ascii	(.LC0/.Lc0+62)
.L_.str.64:
.ascii	(.LC0/.Lc0+63)
.L_.str.65:
.ascii	(.LC0/.Lc0+64)
.L_.str.66:
.ascii	(.LC0/.Lc0+65)
.L_.str.67:
.ascii	(.LC0/.Lc0+66)
.L_.str.68:
.ascii	(.LC0/.Lc0+67)
.L_.str.69:
.ascii	(.LC0/.Lc0+68)
.L_.str.70:
.ascii	(.LC0/.Lc0+69)
.L_.str.71:
.ascii	(.LC0/.Lc0+70)
.L_.str.72:
.ascii	(.LC0/.Lc0+71)
.L_.str.73:
.ascii	(.LC0/.Lc0+72)
.L_.str.74:
.ascii	(.LC0/.Lc0+73)
.L_.str.75:
.ascii	(.LC0/.Lc0+74)
.L_.str.76:
.ascii	(.LC0/.Lc0+75)
.L_.str.77:
.ascii	(.LC0/.Lc0+76)
.L_.str.78:
.ascii	(.LC0/.Lc0+77)
.L_.str.79:
.ascii	(.LC0/.Lc0+78)
.L_.str.80:
.ascii	(.LC0/.Lc0+79)
.L_.str.81:
.ascii	(.LC0/.Lc0+80)
.L_.str.82:
.ascii	(.LC0/.Lc0+81)
.L_.str.83:
.ascii	(.LC0/.Lc0+82)
.L_.str.84:
.ascii	(.LC0/.Lc0+83)
.L_.str.85:
.ascii	(.LC0/.Lc0+84)
.L_.str.86:
.ascii	(.LC0/.Lc0+85)
.L_.str.87:
.ascii	(.LC0/.Lc0+86)
.L_.str.88:
.ascii	(.LC0/.Lc0+87)
.L_.str.89:
.ascii	(.LC0/.Lc0+88)
.L_.str.90:
.ascii	(.LC0/.Lc0+89)
.L_.str.91:
.ascii	(.LC0/.Lc0+90)
.L_.str.92:
.ascii	(.LC0/.Lc0+91)
.L_.str.93:
.ascii	(.LC0/.Lc0+92)
.L_.str.94:
.ascii	(.LC0/.Lc0+93)
.L_.str.95:
.ascii	(.LC0/.Lc0+94)
.L_.str.96:
.ascii	(.LC0/.Lc0+95)
.L_.str.97:
.ascii	(.LC0/.Lc0+96)
.L_.str.98:
.ascii	(.LC0/.Lc0+97)
.L_.str.99:
.ascii	(.LC0/.Lc0+98)
.L_.str.100:
.ascii	(.LC0/.Lc0+99)
.L_.str.101:
.ascii	(.LC0/.Lc0+100)
.L_.str.102:
.ascii	(.LC0/.Lc0+101)
.L_.str.103:
.ascii	(.LC0/.Lc0+102)
.L_.str.104:
.ascii	(.LC0/.Lc0+103)
.L_.str.105:
.ascii	(.LC0/.Lc0+104)
.L_.str.106:
.ascii	(.LC0/.Lc0+105)
.L_.str.107:
.ascii	(.LC0/.Lc0+106)
.L_.str.108:
.ascii	(.LC0/.Lc0+107)
.L_.str.109:
.ascii	(.LC0/.Lc0+108)
.L_.str.110:
.ascii	(.LC0/.Lc0+109)
.L_.str.111:
.ascii	(.LC0/.Lc0+110)
.L_.str.112:
.ascii	(.LC0/.Lc0+111)
.L_.str.113:
.ascii	(.LC0/.Lc0+112)
.L_.str.114:
.ascii	(.LC0/.Lc0+113)
.L_.str.115:
.ascii	(.LC0/.Lc0+114)
.L_.str.116:
.ascii	(.LC0/.Lc0+115)
.L_.str.117:
.ascii	(.LC0/.Lc0+116)
.L_.str.118:
.ascii	(.LC0/.Lc0+117)
.L_.str.119:
.ascii	(.LC0/.Lc0+118)
.L_.str.120:
.ascii	(.LC0/.Lc0+119)
.L_.str.121:
.ascii	(.LC0/.Lc0+120)
.L_.str.122:
.ascii	(.LC0/.Lc0+121)
.L_.str.123:
.ascii	(.LC0/.Lc0+122)
.L_.str.124:
.ascii	(.LC0/.Lc0+123)
.L_.str.125:
.ascii	(.LC0/.Lc0+124)
.L_.str.126:
.ascii	(.LC0/.Lc0+125)
.L_.str.127:
.ascii	(.LC0/.Lc0+126)
.L_.str.128:
.ascii	(.LC0/.Lc0+127)
.L_.str.129:
.ascii	(.LC0/.Lc0+128)
.L_.str.130:
.ascii	(.LC0/.Lc0+129)
.L_.str.131:
.ascii	(.LC0/.Lc0+130)
.L_.str.132:
.ascii	(.LC0/.Lc0+131)
.L_.str.133:
.ascii	(.LC0/.Lc0+132)
.L_.str.134:
.ascii	(.LC0/.Lc0+133)
.L_.str.135:
.ascii	(.LC0/.Lc0+134)
.L_.str.136:
.ascii	(.LC0/.Lc0+135)
.L_.str.137:
.ascii	(.LC0/.Lc0+136)
.L_.str.138:
.ascii	(.LC0/.Lc0+137)
.L_.str.139:
.ascii	(.LC0/.Lc0+138)
.L_.str.140:
.ascii	(.LC0/.Lc0+139)
.L_.str.141:
.ascii	(.LC0/.Lc0+140)
.L_.str.142:
.ascii	(.LC0/.Lc0+141)
.L_.str.143:
.ascii	(.LC0/.Lc0+142)
.L_.str.144:
.ascii	(.LC0/.Lc0+143)
.L_.str.145:
.ascii	(.LC0/.Lc0+144)
.L_.str.146:
.ascii	(.LC0/.Lc0+145)
.L_.str.147:
.ascii	(.LC0/.Lc0+146)
.L_.str.148:
.ascii	(.LC0/.Lc0+147)
.L_.str.149:
.ascii	(.LC0/.Lc0+148)
.L_.str.150:
.ascii	(.LC0/.Lc0+149)
.L_.str.151:
.ascii	(.LC0/.Lc0+150)
.L_.str.152:
.ascii	(.LC0/.Lc0+151)
.L_.str.153:
.ascii	(.LC0/.Lc0+152)
.L_.str.154:
.ascii	(.LC0/.Lc0+153)
.L_.str.155:
.ascii	(.LC0/.Lc0+154)
.L_.str.156:
.ascii	(.LC0/.Lc0+155)
.L_.str.157:
.ascii	(.LC0/.Lc0+156)
.L_.str.158:
.ascii	(.LC0/.Lc0+157)
.L_.str.159:
.ascii	(.LC0/.Lc0+158)
.L_.str.160:
.ascii	(.LC0/.Lc0+159)
.L_.str.161:
.ascii	(.LC0/.Lc0+160)
.L_.str.162:
.ascii	(.LC0/.Lc0+161)
.L_.str.163:
.ascii	(.LC0/.Lc0+162)
.L_.str.164:
.ascii	(.LC0/.Lc0+163)
.L_.str.165:
.ascii	(.LC0/.Lc0+164)
.L_.str.166:
.ascii	(.LC0/.Lc0+165)
.L_.str.167:
.ascii	(.LC0/.Lc0+166)
.L_.str.168:
.ascii	(.LC0/.Lc0+167)
.L_.str.169:
.ascii	(.LC0/.Lc0+168)
.L_.str.170:
.ascii	(.LC0/.Lc0+169)
.L_.str.171:
.ascii	(.LC0/.Lc0+170)
.L_.str.172:
.ascii	(.LC0/.Lc0+171)
.L_.str.173:
.ascii	(.LC0/.Lc0+172)
.L_.str.174:
.ascii	(.LC0/.Lc0+173)
.L_.str.175:
.ascii	(.LC0/.Lc0+174)
.L_.str.176:
.ascii	(.LC0/.Lc0+175)
.L_.str.177:
.ascii	(.LC0/.Lc0+176)
.L_.str.178:
.ascii	(.LC0/.Lc0+177)
.L_.str.179:
.ascii	(.LC0/.Lc0+178)
.L_.str.180:
.ascii	(.LC0/.Lc0+179)
.L_.str.181:
.ascii	(.LC0/.Lc0+180)
.L_.str.182:
.ascii	(.LC0/.Lc0+181)
.L_.str.183:
.ascii	(.LC0/.Lc0+182)
.L_.str.184:
.ascii	(.LC0/.Lc0+183)
.L_.str.185:
.ascii	(.LC0/.Lc0+184)
.L_.str.186:
.ascii	(.LC0/.Lc0+185)
.L_.str.187:
.ascii	(.LC0/.Lc0+186)
.L_.str.188:
.ascii	(.LC0/.Lc0+187)
.L_.str.189:
.ascii	(.LC0/.Lc0+188)
.L_.str.190:
.ascii	(.LC0/.Lc0+189)
.L_.str.191:
.ascii	(.LC0/.Lc0+190)
.L_.str.192:
.ascii	(.LC0/.Lc0+191)
.L_.str.193:
.ascii	(.LC0/.Lc0+192)
.L_.str.194:
.ascii	(.LC0/.Lc0+193)
.L_.str.195:
.ascii	(.LC0/.Lc0+194)
.L_.str.196:
.ascii	(.LC0/.Lc0+195)
.L_.str.197:
.ascii	(.LC0/.Lc0+196)
.L_.str.198:
.ascii	(.LC0/.Lc0+197)
.L_.str.199:
.ascii	(.LC0/.Lc0+198)
.L_.str.200:
.ascii	(.LC0/.Lc0+199)
.L_.str.201:
.ascii	(.LC0/.Lc0+200)
.L_.str.202:
.ascii	(.LC0/.Lc0+201)
.L_.str.203:
.ascii	(.LC0/.Lc0+202)
.L_.str.204:
.ascii	(.LC0/.Lc0+203)
.L_.str.205:
.ascii	(.LC0/.Lc0+204)
.L_.str.206:
.ascii	(.LC0/.Lc0+205)
.L_.str.207:
.ascii	(.LC0/.Lc0+206)
.L_.str.208:
.ascii	(.LC0/.Lc0+207)
.L_.str.209:
.ascii	(.LC0/.Lc0+208)
.L_.str.210:
.ascii	(.LC0/.Lc0+209)
.L_.str.211:
.ascii	(.LC0/.Lc0+210)
.L_.str.212:
.ascii	(.LC0/.Lc0+211)
.L_.str.213:
.ascii	(.LC0/.Lc0+212)
.L_.str.214:
.ascii	(.LC0/.Lc0+213)
.L_.str.215:
.ascii	(.LC0/.Lc0+214)
.L_.str.216:
.ascii	(.LC0/.Lc0+215)
.L_.str.217:
.ascii	(.LC0/.Lc0+216)
.L_.str.218:
.ascii	(.LC0/.Lc0+217)
.L_.str.219:
.ascii	(.LC0/.Lc0+218)
.L_.str.220:
.ascii	(.LC0/.Lc0+219)
.L_.str.221:
.ascii	(.LC0/.Lc0+220)
.L_.str.222:
.ascii	(.LC0/.Lc0+221)
.L_.str.223:
.ascii	(.LC0/.Lc0+222)
.L_.str.224:
.ascii	(.LC0/.Lc0+223)
.L_.str.225:
.ascii	(.LC0/.Lc0+224)
.L_.str.226:
.ascii	(.LC0/.Lc0+225)
.L_.str.227:
.ascii	(.LC0/.Lc0+226)
.L_.str.228:
.ascii	(.LC0/.Lc0+227)
.L_.str.229:
.ascii	(.LC0/.Lc0+228)
.L_.str.230:
.ascii	(.LC0/.Lc0+229)
.L_.str.231:
.ascii	(.LC0/.Lc0+230)
.L_.str.232:
.ascii	(.LC0/.Lc0+231)
.L_.str.233:
.ascii	(.LC0/.Lc0+232)
.L_.str.234:
.ascii	(.LC0/.Lc0+233)
.L_.str.235:
.ascii	(.LC0/.Lc0+234)
.L_.str.236:
.ascii	(.LC0/.Lc0+235)
.L_.str.237:
.ascii	(.LC0/.Lc0+236)
.L_.str.238:
.ascii	(.LC0/.Lc0+237)
.L_.str.239:
.ascii	(.LC0/.Lc0+238)
.L_.str.240:
.ascii	(.LC0/.Lc0+239)
.L_.str.241:
.ascii	(.LC0/.Lc0+240)
.L_.str.242:
.ascii	(.LC0/.Lc0+241)
.L_.str.243:
.ascii	(.LC0/.Lc0+242)
.L_.str.244:
.ascii	(.LC0/.Lc0+243)
.L_.str.245:
.ascii	(.LC0/.Lc0+244)
.L_.str.246:
.ascii	(.LC0/.Lc0+245)
.L_.str.247:
.ascii	(.LC0/.Lc0+246)
.L_.str.248:
.ascii	(.LC0/.Lc0+247)
.L_.str.249:
.ascii	(.LC0/.Lc0+248)
.L_.str.250:
.ascii	(.LC0/.Lc0+249)
.L_.str.251:
.ascii	(.LC0/.Lc0+250)
.L_.str.252:
.ascii	(.LC0/.Lc0+251)
.L_.str.253:
.ascii	(.LC0/.Lc0+252)
.L_.str.254:
.ascii	(.LC0/.Lc0+253)
.L_.str.255:
.ascii	(.LC0/.Lc0+254)
.L_.str.256:
.ascii	(.LC0/.Lc0+255)
.L_.str.257:
.ascii	(.LC0/.Lc0+256)
.L_.str.258:
.ascii	(.LC0/.Lc0+257)
.L_.str.259:
.ascii	(.LC0/.Lc0+258)
.L_.str.260:
.ascii	(.LC0/.Lc0+259)
.L_.str.261:
.ascii	(.LC0/.Lc0+260)
.L_.str.262:
.ascii	(.LC0/.Lc0+261)
.L_.str.263:
.ascii	(.LC0/.Lc0+262)
.L_.str.264:
.ascii	(.LC0/.Lc0+263)
.L_.str.265:
.ascii	(.LC0/.Lc0+264)
.L_.str.266:
.ascii	(.LC0/.Lc0+265)
.L_.str.267:
.ascii	(.LC0/.Lc0+266)
.L_.str.268:
.ascii	(.LC0/.Lc0+267)
.L_.str.269:
.ascii	(.LC0/.Lc0+268)
.L_.str.270:
.ascii	(.LC0/.Lc0+269)
.L_.str.271:
.ascii	(.LC0/.Lc0+270)
.L_.str.272:
.ascii	(.LC0/.Lc0+271)
.L_.str.273:
.ascii	(.LC0/.Lc0+272)
.L_.str.274:
.ascii	(.LC0/.Lc0+273)
.L_.str.275:
.ascii	(.LC0/.Lc0+274)
.L_.str.276:
.ascii	(.LC0/.Lc0+275)
.L_.str.277:
.ascii	(.LC0/.Lc0+276)
.L_.str.278:
.ascii	(.LC0/.Lc0+277)
.L_.str.279:
.ascii	(.LC0/.Lc0+278)
.L_.str.280:
.ascii	(.LC0/.Lc0+279)
.L_.str.281:
.ascii	(.LC0/.Lc0+280)
.L_.str.282:
.ascii	(.LC0/.Lc0+281)
.L_.str.283:
.ascii	(.LC0/.Lc0+282)
.L_.str.284:
.ascii	(.LC0/.Lc0+283)
.L_.str.285:
.ascii	(.LC0/.Lc0+284)
.L_.str.286:
.ascii	(.LC0/.Lc0+285)
.L_.str.287:
.ascii	(.LC0/.Lc0+286)
.L_.str.288:
.ascii	(.LC0/.Lc0+287)
.L_.str.289:
.ascii	(.LC0/.Lc0+288)
.L_.str.290:
.ascii	(.LC0/.Lc0+289)
.L_.str.291:
.ascii	(.LC0/.Lc0+290)
.L_.str.292:
.ascii	(.LC0/.Lc0+291)
.L_.str.293:
.ascii	(.LC0/.Lc0+292)
.L_.str.294:
.ascii	(.LC0/.Lc0+293)
.L_.str.295:
.ascii	(.LC0/.Lc0+294)
.L_.str.296:
.ascii	(.LC0/.Lc0+295)
.L_.str.297:
.ascii	(.LC0/.Lc0+296)
.L_.str.298:
.ascii	(.LC0/.Lc0+297)
.L_.str.299:
.ascii	(.LC0/.Lc0+298)
.L_.str.300:
.ascii	(.LC0/.Lc0+299)
.L_.str.301:
.ascii	(.LC0/.Lc0+300)
.L_.str.302:
.ascii	(.LC0/.Lc0+301)
.L_.str.303:
.ascii	(.LC0/.Lc0+302)
.L_.str.304:
.ascii	(.LC0/.Lc0+303)
.L_.str.305:
.ascii	(.LC0/.Lc0+304)
.L_.str.306:
.ascii	(.LC0/.Lc0+305)
.L_.str.307:
.ascii	(.LC0/.Lc0+306)
.L_.str.308:
.ascii	(.LC0/.Lc0+307)
.L_.str.309:
.ascii	(.LC0/.Lc0+308)
.L_.str.310:
.ascii	(.LC0/.Lc0+309)
.L_.str.311:
.ascii	(.LC0/.Lc0+310)
.L_.str.312:
.ascii	(.LC0/.Lc0+311)
.L_.str.313:
.ascii	(.LC0/.Lc0+312)
.L_.str.314:
.ascii	(.LC0/.Lc0+313)
.L_.str.315:
.ascii	(.LC0/.Lc0+314)
.L_.str.316:
.ascii	(.LC0/.Lc0+315)
.L_.str.317:
.ascii	(.LC0/.Lc0+316)
.L_.str.318:
.ascii	(.LC0/.Lc0+317)
.L_.str.319:
.ascii	(.LC0/.Lc0+318)
.L_.str.320:
.ascii	(.LC0/.Lc0+319)
.L_.str.321:
.ascii	(.LC0/.Lc0+320)
.L_.str.322:
.ascii	(.LC0/.Lc0+321)
.L_.str.323:
.ascii	(.LC0/.Lc0+322)
.L_.str.324:
.ascii	(.LC0/.Lc0+323)
.L_.str.325:
.ascii	(.LC0/.Lc0+324)
.L_.str.326:
.ascii	(.LC0/.Lc0+325)
.L_.str.327:
.ascii	(.LC0/.Lc0+326)
.L_.str.328:
.ascii	(.LC0/.Lc0+327)
.L_.str.329:
.ascii	(.LC0/.Lc0+328)
.L_.str.330:
.ascii	(.LC0/.Lc0+329)
.L_.str.331:
.ascii	(.LC0/.Lc0+330)
.L_.str.332:
.ascii	(.LC0/.Lc0+331)
.L_.str.333:
.ascii	(.LC0/.Lc0+332)
.L_.str.334:
.ascii	(.LC0/.Lc0+333)
.L_.str.335:
.ascii	(.LC0/.Lc0+334)
.L_.str.336:
.ascii	(.LC0/.Lc0+335)
.L_.str.337:
.ascii	(.LC0/.Lc0+336)
.L_.str.338:
.ascii	(.LC0/.Lc0+337)
.L_.str.339:
.ascii	(.LC0/.Lc0+338)
.L_.str.340:
.ascii	(.LC0/.Lc0+339)
.L_.str.341:
.ascii	(.LC0/.Lc0+340)
.L_.str.342:
.ascii	(.LC0/.Lc0+341)
.L_.str.343:
.ascii	(.LC0/.Lc0+342)
.L_.str.344:
.ascii	(.LC0/.Lc0+343)
.L_.str.345:
.ascii	(.LC0/.Lc0+344)
.L_.str.346:
.ascii	(.LC0/.Lc0+345)
.L_.str.347:
.ascii	(.LC0/.Lc0+346)
.L_.str.348:
.ascii	(.LC0/.Lc0+347)
.L_.str.349:
.ascii	(.LC0/.Lc0+348)
.L_.str.350:
.ascii	(.LC0/.Lc0+349)
.L_.str.351:
.ascii	(.LC0/.Lc0+350)
.L_.str.352:
.ascii	(.LC0/.Lc0+351)
.L_.str.353:
.ascii	(.LC0/.Lc0+352)
.L_.str.354:
.ascii	(.LC0/.Lc0+353)
.L_.str.355:
.ascii	(.LC0/.Lc0+354)
.L_.str.356:
.ascii	(.LC0/.Lc0+355)
.L_.str.357:
.ascii	(.LC0/.Lc0+356)
.L_.str.358:
.ascii	(.LC0/.Lc0+357)
.L_.str.359:
.ascii	(.LC0/.Lc0+358)
.L_.str.360:
.ascii	(.LC0/.Lc0+359)
.L_.str.361:
.ascii	(.LC0/.Lc0+360)
.L_.str.362:
.ascii	(.LC0/.Lc0+361)
.L_.str.363:
.ascii	(.LC0/.Lc0+362)
.L_.str.364:
.ascii	(.LC0/.Lc0+363)
.L_.str.365:
.ascii	(.LC0/.Lc0+364)
.L_.str.366:
.ascii	(.LC0/.Lc0+365)
.L_.str.367:
.ascii	(.LC0/.Lc0+366)
.L_.str.368:
.ascii	(.LC0/.Lc0+367)
.L_.str.369:
.ascii	(.LC0/.Lc0+368)
.L_.str.370:
.ascii	(.LC0/.Lc0+369)
.L_.str.371:
.ascii	(.LC0/.Lc0+370)
.L_.str.372:
.ascii	(.LC0/.Lc0+371)
.L_.str.373:
.ascii	(.LC0/.Lc0+372)
.L_.str.374:
.ascii	(.LC0/.Lc0+373)
.L_.str.375:
.ascii	(.LC0/.Lc0+374)
.L_.str.376:
.ascii	(.LC0/.Lc0+375)
.L_.str.377:
.ascii	(.LC0/.Lc0+376)
.L_.str.378:
.ascii	(.LC0/.Lc0+377)
.L_.str.379:
.ascii	(.LC0/.Lc0+378)
.L_.str.380:
.ascii	(.LC0/.Lc0+379)
.L_.str.381:
.ascii	(.LC0/.Lc0+380)
.L_.str.382:
.ascii	(.LC0/.Lc0+381)
.L_.str.383:
.ascii	(.LC0/.Lc0+382)
.L_.str.384:
.ascii	(.LC0/.Lc0+383)
.L_.str.385:
.ascii	(.LC0/.Lc0+384)
.L_.str.386:
.ascii	(.LC0/.Lc0+385)
.L_.str.387:
.ascii	(.LC0/.Lc0+386)
.L_.str.388:
.ascii	(.LC0/.Lc0+387)
.L_.str.389:
.ascii	(.LC0/.Lc0+388)
.L_.str.390:
.ascii	(.LC0/.Lc0+389)
.L_.str.391:
.ascii	(.LC0/.Lc0+390)
.L_.str.392:
.ascii	(.LC0/.Lc0+391)
.L_.str.393:
.ascii	(.LC0/.Lc0+392)
.L_.str.394:
.ascii	(.LC0/.Lc0+393)
.L_.str.395:
.ascii	(.LC0/.Lc0+394)
.L_.str.396:
.ascii	(.LC0/.Lc0+395)
.L_.str.397:
.ascii	(.LC0/.Lc0+396)
.L_.str.398:
.ascii	(.LC0/.Lc0+397)
.L_.str.399:
.ascii	(.LC0/.Lc0+398)
.L_.str.400:
.ascii	(.LC0/.Lc0+399)
.L_.str.401:
.ascii	(.LC0/.Lc0+400)
.L_.str.402:
.ascii	(.LC0/.Lc0+401)
.L_.str.403:
.ascii	(.LC0/.Lc0+402)
.L_.str.404:
.ascii	(.LC0/.Lc0+403)
.L_.str.405:
.ascii	(.LC0/.Lc0+404)
.L_.str.406:
.ascii	(.LC0/.Lc0+405)
.L_.str.407:
.ascii	(.LC0/.Lc0+406)
.L_.str.408:
.ascii	(.LC0/.Lc0+407)
.L_.str.409:
.ascii	(.LC0/.Lc0+408)
.L_.str.410:
.ascii	(.LC0/.Lc0+409)
.L_.str.411:
.ascii	(.LC0/.Lc0+410)
.L_.str.412:
.ascii	(.LC0/.Lc0+411)
.L_.str.413:
.ascii	(.LC0/.Lc0+412)
.L_.str.414:
.ascii	(.LC0/.Lc0+413)
.L_.str.415:
.ascii	(.LC0/.Lc0+414)
.L_.str.416:
.ascii	(.LC0/.Lc0+415)
.L_.str.417:
.ascii	(.LC0/.Lc0+416)
.L_.str.418:
.ascii	(.LC0/.Lc0+417)
.L_.str.419:
.ascii	(.LC0/.Lc0+418)
.L_.str.420:
.ascii	(.LC0/.Lc0+419)
.L_.str.421:
.ascii	(.LC0/.Lc0+420)
.L_.str.422:
.ascii	(.LC0/.Lc0+421)
.L_.str.423:
.ascii	(.LC0/.Lc0+422)
.L_.str.424:
.ascii	(.LC0/.Lc0+423)
.L_.str.425:
.ascii	(.LC0/.Lc0+424)
.L_.str.426:
.ascii	(.LC0/.Lc0+425)
.L_.str.427:
.ascii	(.LC0/.Lc0+426)
.L_.str.428:
.ascii	(.LC0/.Lc0+427)
.L_.str.429:
.ascii	(.LC0/.Lc0+428)
.L_.str.430:
.ascii	(.LC0/.Lc0+429)
.L_.str.431:
.ascii	(.LC0/.Lc0+430)
.L_.str.432:
.ascii	(.LC0/.Lc0+431)
.L_.str.433:
.ascii	(.LC0/.Lc0+432)
.L_.str.434:
.ascii	(.LC0/.Lc0+433)
.L_.str.435:
.ascii	(.LC0/.Lc0+434)
.L_.str.436:
.ascii	(.LC0/.Lc0+435)
.L_.str.437:
.ascii	(.LC0/.Lc0+436)
.L_.str.438:
.ascii	(.LC0/.Lc0+437)
.L_.str.439:
.ascii	(.LC0/.Lc0+438)
.L_.str.440:
.ascii	(.LC0/.Lc0+439)
.L_.str.441:
.ascii	(.LC0/.Lc0+440)
.L_.str.442:
.ascii	(.LC0/.Lc0+441)
.L_.str.443:
.ascii	(.LC0/.Lc0+442)
.L_.str.444:
.ascii	(.LC0/.Lc0+443)
.L_.str.445:
.ascii	(.LC0/.Lc0+444)
.L_.str.446:
.ascii	(.LC0/.Lc0+445)
.L_.str.447:
.ascii	(.LC0/.Lc0+446)
.L_.str.448:
.ascii	(.LC0/.Lc0+447)
.L_.str.449:
.ascii	(.LC0/.Lc0+448)
.L_.str.450:
.ascii	(.LC0/.Lc0+449)
.L_.str.451:
.ascii	(.LC0/.Lc0+450)
.L_.str.452:
.ascii	(.LC0/.Lc0+451)
.L_.str.453:
.ascii	(.LC0/.Lc0+452)
.L_.str.454:
.ascii	(.LC0/.Lc0+453)
.L_.str.455:
.ascii	(.LC0/.Lc0+454)
.L_.str.456:
.ascii	(.LC0/.Lc0+455)
.L_.str.457:
.ascii	(.LC0/.Lc0+456)
.L_.str.458:
.ascii	(.LC0/.Lc0+457)
.L_.str.459:
.ascii	(.LC0/.Lc0+458)
.L_.str.460:
.ascii	(.LC0/.Lc0+459)
.L_.str.461:
.ascii	(.LC0/.Lc0+460)
.L_.str.462:
.ascii	(.LC0/.Lc0+461)
.L_.str.463:
.ascii	(.LC0/.Lc0+462)
.L_.str.464:
.ascii	(.LC0/.Lc0+463)
.L_.str.465:
.ascii	(.LC0/.Lc0+464)
.L_.str.466:
.ascii	(.LC0/.Lc0+465)
.L_.str.467:
.ascii	(.LC0/.Lc0+466)
.L_.str.468:
.ascii	(.LC0/.Lc0+467)
.L_.str.469:
.ascii	(.LC0/.Lc0+468)
.L_.str.470:
.ascii	(.LC0/.Lc0+469)
.L_.str.471:
.ascii	(.LC0/.Lc0+470)
.L_.str.472:
.ascii	(.LC0/.Lc0+471)
.L_.str.473:
.ascii	(.LC0/.Lc0+472)
.L_.str.474:
.ascii	(.LC0/.Lc0+473)
.L_.str.475:
.ascii	(.LC0/.Lc0+474)
.L_.str.476:
.ascii	(.LC0/.Lc0+475)
.L_.str.477:
.ascii	(.LC0/.Lc0+476)
.L_.str.478:
.ascii	(.LC0/.Lc0+477)
.L_.str.479:
.ascii	(.LC0/.Lc0+478)
.L_.str.480:
.ascii	(.LC0/.Lc0+479)
.L_.str.481:
.ascii	(.LC0/.Lc0+480)
.L_.str.482:
.ascii	(.LC0/.Lc0+481)
.L_.str.483:
.ascii	(.LC0/.Lc0+482)
.L_.str.484:
.ascii	(.LC0/.Lc0+483)
.L_.str.485:
.ascii	(.LC0/.Lc0+484)
.L_.str.486:
.ascii	(.LC0/.Lc0+485)
.L_.str.487:
.ascii	(.LC0/.Lc0+486)
.L_.str.488:
.ascii	(.LC0/.Lc0+487)
.L_.str.489:
.ascii	(.LC0/.Lc0+488)
.L_.str.490:
.ascii	(.LC0/.Lc0+489)
.L_.str.491:
.ascii	(.LC0/.Lc0+490)
.L_.str.492:
.ascii	(.LC0/.Lc0+491)
.L_.str.493:
.ascii	(.LC0/.Lc0+492)
.L_.str.494:
.ascii	(.LC0/.Lc0+493)
.L_.str.495:
.ascii	(.LC0/.Lc0+494)
.L_.str.496:
.ascii	(.LC0/.Lc0+495)
.L_.str.497:
.ascii	(.LC0/.Lc0+496)
.L_.str.498:
.ascii	(.LC0/.Lc0+497)
.L_.str.499:
.ascii	(.LC0/.Lc0+498)
.L_.str.500:
.ascii	(.LC0/.Lc0+499)
.L_.str.501:
.ascii	(.LC0/.Lc0+500)
.L_.str.502:
.ascii	(.LC0/.Lc0+501)
.L_.str.503:
.ascii	(.LC0/.Lc0+502)
.L_.str.504:
.ascii	(.LC0/.Lc0+503)
.L_.str.505:
.ascii	(.LC0/.Lc0+504)
.L_.str.506:
.ascii	(.LC0/.Lc0+505)
.L_.str.507:
.ascii	(.LC0/.Lc0+506)
.L_.str.508:
.ascii	(.LC0/.Lc0+507)
.L_.str.509:
.ascii	(.LC0/.Lc0+508)
.L_.str.510:
.ascii	(.LC0/.Lc0+509)
.L_.str.511:
.ascii	(.LC0/.Lc0+510)
.L_.str.512:
.ascii	(.LC0/.Lc0+511)
.L_.str.513:
.ascii	(.LC0/.Lc0+512)
.L_.str.514:
.ascii	(.LC0/.Lc0+513)
.L_.str.515:
.ascii	(.LC0/.Lc0+514)
.L_.str.516:
.ascii	(.LC0/.Lc0+515)
.L_.str.517:
.ascii	(.LC0/.Lc0+516)
.L_.str.518:
.ascii	(.LC0/.Lc0+517)
.L_.str.519:
.ascii	(.LC0/.Lc0+518)
.L_.str.520:
.ascii	(.LC0/.Lc0+519)
.L_.str.521:
.ascii	(.LC0/.Lc0+520)
.L_.str.522:
.ascii	(.LC0/.Lc0+521)
.L_.str.523:
.ascii	(.LC0/.Lc0+522)
.L_.str.524:
.ascii	(.LC0/.Lc0+523)
.L_.str.525:
.ascii	(.LC0/.Lc0+524)
.L_.str.526:
.ascii	(.LC0/.Lc0+525)
.L_.str.527:
.ascii	(.LC0/.Lc0+526)
.L_.str.528:
.ascii	(.LC0/.Lc0+527)
.L_.str.529:
.ascii	(.LC0/.Lc0+528)
.L_.str.530:
.ascii	(.LC0/.Lc0+529)
.L_.str.531:
.ascii	(.LC0/.Lc0+530)
.L_.str.532:
.ascii	(.LC0/.Lc0+531)
.L_.str.533:
.ascii	(.LC0/.Lc0+532)
.L_.str.534:
.ascii	(.LC0/.Lc0+533)
.L_.str.535:
.ascii	(.LC0/.Lc0+534)
.L_.str.536:
.ascii	(.LC0/.Lc0+535)
.L_.str.537:
.ascii	(.LC0/.Lc0+536)
.L_.str.538:
.ascii	(.LC0/.Lc0+537)
.L_.str.539:
.ascii	(.LC0/.Lc0+538)
.L_.str.540:
.ascii	(.LC0/.Lc0+539)
.L_.str.541:
.ascii	(.LC0/.Lc0+540)
.L_.str.542:
.ascii	(.LC0/.Lc0+541)
.L_.str.543:
.ascii	(.LC0/.Lc0+542)
.L_.str.544:
.ascii	(.LC0/.Lc0+543)
.L_.str.545:
.ascii	(.LC0/.Lc0+544)
.L_.str.546:
.ascii	(.LC0/.Lc0+545)
.L_.str.547:
.ascii	(.LC0/.Lc0+546)
.L_.str.548:
.ascii	(.LC0/.Lc0+547)
.L_.str.549:
.ascii	(.LC0/.Lc0+548)
.L_.str.550:
.ascii	(.LC0/.Lc0+549)
.L_.str.551:
.ascii	(.LC0/.Lc0+550)
.L_.str.552:
.ascii	(.LC0/.Lc0+551)
.L_.str.553:
.ascii	(.LC0/.Lc0+552)
.L_.str.554:
.ascii	(.LC0/.Lc0+553)
.L_.str.555:
.ascii	(.LC0/.Lc0+554)
.L_.str.556:
.ascii	(.LC0/.Lc0+555)
.L_.str.557:
.ascii	(.LC0/.Lc0+556)
.L_.str.558:
.ascii	(.LC0/.Lc0+557)
.L_.str.559:
.ascii	(.LC0/.Lc0+558)
.L_.str.560:
.ascii	(.LC0/.Lc0+559)
.L_.str.561:
.ascii	(.LC0/.Lc0+560)
.L_.str.562:
.ascii	(.LC0/.Lc0+561)
.L_.str.563:
.ascii	(.LC0/.Lc0+562)
.L_.str.564:
.ascii	(.LC0/.Lc0+563)
.L_.str.565:
.ascii	(.LC0/.Lc0+564)
.L_.str.566:
.ascii	(.LC0/.Lc0+565)
.L_.str.567:
.ascii	(.LC0/.Lc0+566)
.L_.str.568:
.ascii	(.LC0/.Lc0+567)
.L_.str.569:
.ascii	(.LC0/.Lc0+568)
.L_.str.570:
.ascii	(.LC0/.Lc0+569)
.L_.str.571:
.ascii	(.LC0/.Lc0+570)
.L_.str.572:
.ascii	(.LC0/.Lc0+571)
.L_.str.573:
.ascii	(.LC0/.Lc0+572)
.L_.str.574:
.ascii	(.LC0/.Lc0+573)
.L_.str.575:
.ascii	(.LC0/.Lc0+574)
.L_.str.576:
.ascii	(.LC0/.Lc0+575)
.L_.str.577:
.ascii	(.LC0/.Lc0+576)
.L_.str.578:
.ascii	(.LC0/.Lc0+577)
.L_.str.579:
.ascii	(.LC0/.Lc0+578)
.L_.str.580:
.ascii	(.LC0/.Lc0+579)
.L_.str.581:
.ascii	(.LC0/.Lc0+580)
.L_.str.582:
.ascii	(.LC0/.Lc0+581)
.L_.str.583:
.ascii	(.LC0/.Lc0+582)
.L_.str.584:
.ascii	(.LC0/.Lc0+583)
.L_.str.585:
.ascii	(.LC0/.Lc0+584)
.L_.str.586:
.ascii	(.LC0/.Lc0+585)
.L_.str.587:
.ascii	(.LC0/.Lc0+586)
.L_.str.588:
.ascii	(.LC0/.Lc0+587)
.L_.str.589:
.ascii	(.LC0/.Lc0+588)
.L_.str.590:
.ascii	(.LC0/.Lc0+589)
.L_.str.591:
.ascii	(.LC0/.Lc0+590)
.L_.str.592:
.ascii	(.LC0/.Lc0+591)
.L_.str.593:
.ascii	(.LC0/.Lc0+592)
.L_.str.594:
.ascii	(.LC0/.Lc0+593)
.L_.str.595:
.ascii	(.LC0/.Lc0+594)
.L_.str.596:
.ascii	(.LC0/.Lc0+595)
.L_.str.597:
.ascii	(.LC0/.Lc0+596)
.L_.str.598:
.ascii	(.LC0/.Lc0+597)
.L_.str.599:
.ascii	(.LC0/.Lc0+598)
.L_.str.600:
.ascii	(.LC0/.Lc0+599)
.L_.str.601:
.ascii	(.LC0/.Lc0+600)
.L_.str.602:
.ascii	(.LC0/.Lc0+601)
.L_.str.603:
.ascii	(.LC0/.Lc0+602)
.L_.str.604:
.ascii	(.LC0/.Lc0+603)
.L_.str.605:
.ascii	(.LC0/.Lc0+604)
.L_.str.606:
.ascii	(.LC0/.Lc0+605)
.L_.str.607:
.ascii	(.LC0/.Lc0+606)
.L_.str.608:
.ascii	(.LC0/.Lc0+607)
.L_.str.609:
.ascii	(.LC0/.Lc0+608)
.L_.str.610:
.ascii	(.LC0/.Lc0+609)
.L_.str.611:
.ascii	(.LC0/.Lc0+610)
.L_.str.612:
.ascii	(.LC0/.Lc0+611)
.L_.str.613:
.ascii	(.LC0/.Lc0+612)
.L_.str.614:
.ascii	(.LC0/.Lc0+613)
.L_.str.615:
.ascii	(.LC0/.Lc0+614)
.L_.str.616:
.ascii	(.LC0/.Lc0+615)
.L_.str.617:
.ascii	(.LC0/.Lc0+616)
.L_.str.618:
.ascii	(.LC0/.Lc0+617)
.L_.str.619:
.ascii	(.LC0/.Lc0+618)
.L_.str.620:
.ascii	(.LC0/.Lc0+619)
.L_.str.621:
.ascii	(.LC0/.Lc0+620)
.L_.str.622:
.ascii	(.LC0/.Lc0+621)
.L_.str.623:
.ascii	(.LC0/.Lc0+622)
.L_.str.624:
.ascii	(.LC0/.Lc0+623)
.L_.str.625:
.ascii	(.LC0/.Lc0+624)
.L_.str.626:
.ascii	(.LC0/.Lc0+625)
.L_.str.627:
.ascii	(.LC0/.Lc0+626)
.L_.str.628:
.ascii	(.LC0/.Lc0+627)
.L_.str.629:
.ascii	(.LC0/.Lc0+628)
.L_.str.630:
.ascii	(.LC0/.Lc0+629)
.L_.str.631:
.ascii	(.LC0/.Lc0+630)
.L_.str.632:
.ascii	(.LC0/.Lc0+631)
.L_.str.633:
.ascii	(.LC0/.Lc0+632)
.L_.str.634:
.ascii	(.LC0/.Lc0+633)
.L_.str.635:
.ascii	(.LC0/.Lc0+634)
.L_.str.636:
.ascii	(.LC0/.Lc0+635)
.L_.str.637:
.ascii	(.LC0/.Lc0+636)
.L_.str.638:
.ascii	(.LC0/.Lc0+637)
.L_.str.639:
.ascii	(.LC0/.Lc0+638)
.L_.str.640:
.ascii	(.LC0/.Lc0+639)
.L_.str.641:
.ascii	(.LC0/.Lc0+640)
.L_.str.642:
.ascii	(.LC0/.Lc0+641)
.L_.str.643:
.ascii	(.LC0/.Lc0+642)
.L_.str.644:
.ascii	(.LC0/.Lc0+643)
.L_.str.645:
.ascii	(.LC0/.Lc0+644)
.L_.str.646:
.ascii	(.LC0/.Lc0+645)
.L_.str.647:
.ascii	(.LC0/.Lc0+646)
.L_.str.648:
.ascii	(.LC0/.Lc0+647)
.L_.str.649:
.ascii	(.LC0/.Lc0+648)
.L_.str.650:
.ascii	(.LC0/.Lc0+649)
.L_.str.651:
.ascii	(.LC0/.Lc0+650)
.L_.str.652:
.ascii	(.LC0/.Lc0+651)
.L_.str.653:
.ascii	(.LC0/.Lc0+652)
.L_.str.654:
.ascii	(.LC0/.Lc0+653)
.L_.str.655:
.ascii	(.LC0/.Lc0+654)
.L_.str.656:
.ascii	(.LC0/.Lc0+655)
.L_.str.657:
.ascii	(.LC0/.Lc0+656)
.L_.str.658:
.ascii	(.LC0/.Lc0+657)
.L_.str.659:
.ascii	(.LC0/.Lc0+658)
.L_.str.660:
.ascii	(.LC0/.Lc0+659)
.L_.str.661:
.ascii	(.LC0/.Lc0+660)
.L_.str.662:
.ascii	(.LC0/.Lc0+661)
.L_.str.663:
.ascii	(.LC0/.Lc0+662)
.L_.str.664:
.ascii	(.LC0/.Lc0+663)
.L_.str.665:
.ascii	(.LC0/.Lc0+664)
.L_.str.666:
.ascii	(.LC0/.Lc0+665)
.L_.str.667:
.ascii	(.LC0/.Lc0+666)
.L_.str.668:
.ascii	(.LC0/.Lc0+667)
.L_.str.669:
.ascii	(.LC0/.Lc0+668)
.L_.str.670:
.ascii	(.LC0/.Lc0+669)
.L_.str.671:
.ascii	(.LC0/.Lc0+670)
.L_.str.672:
.ascii	(.LC0/.Lc0+671)
.L_.str.673:
.ascii	(.LC0/.Lc0+672)
.L_.str.674:
.ascii	(.LC0/.Lc0+673)
.L_.str.675:
.ascii	(.LC0/.Lc0+674)
.L_.str.676:
.ascii	(.LC0/.Lc0+675)
.L_.str.677:
.ascii	(.LC0/.Lc0+676)
.L_.str.678:
.ascii	(.LC0/.Lc0+677)
.L_.str.679:
.ascii	(.LC0/.Lc0+678)
.L_.str.680:
.ascii	(.LC0/.Lc0+679)
.L_.str.681:
.ascii	(.LC0/.Lc0+680)
.L_.str.682:
.ascii	(.LC0/.Lc0+681)
.L_.str.683:
.ascii	(.LC0/.Lc0+682)
.L_.str.684:
.ascii	(.LC0/.Lc0+683)
.L_.str.685:
.ascii	(.LC0/.Lc0+684)
.L_.str.686:
.ascii	(.LC0/.Lc0+685)
.L_.str.687:
.ascii	(.LC0/.Lc0+686)
.L_.str.688:
.ascii	(.LC0/.Lc0+687)
.L_.str.689:
.ascii	(.LC0/.Lc0+688)
.L_.str.690:
.ascii	(.LC0/.Lc0+689)
.L_.str.691:
.ascii	(.LC0/.Lc0+690)
.L_.str.692:
.ascii	(.LC0/.Lc0+691)
.L_.str.693:
.ascii	(.LC0/.Lc0+692)
.L_.str.694:
.ascii	(.LC0/.Lc0+693)
.L_.str.695:
.ascii	(.LC0/.Lc0+694)
.L_.str.696:
.ascii	(.LC0/.Lc0+695)
.L_.str.697:
.ascii	(.LC0/.Lc0+696)
.L_.str.698:
.ascii	(.LC0/.Lc0+697)
.L_.str.699:
.ascii	(.LC0/.Lc0+698)
.L_.str.700:
.ascii	(.LC0/.Lc0+699)
.L_.str.701:
.ascii	(.LC0/.Lc0+700)
.L_.str.702:
.ascii	(.LC0/.Lc0+701)
.L_.str.703:
.ascii	(.LC0/.Lc0+702)
.L_.str.704:
.ascii	(.LC0/.Lc0+703)
.L_.str.705:
.ascii	(.LC0/.Lc0+704)
.L_.str.706:
.ascii	(.LC0/.Lc0+705)
.L_.str.707:
.ascii	(.LC0/.Lc0+706)
.L_.str.708:
.ascii	(.LC0/.Lc0+707)
.L_.str.709:
.ascii	(.LC0/.Lc0+708)
.L_.str.710:
.ascii	(.LC0/.Lc0+709)
.L_.str.711:
.ascii	(.LC0/.Lc0+710)
.L_.str.712:
.ascii	(.LC0/.Lc0+711)
.L_.str.713:
.ascii	(.LC0/.Lc0+712)
.L_.str.714:
.ascii	(.LC0/.Lc0+713)
.L_.str.715:
.ascii	(.LC0/.Lc0+714)
.L_.str.716:
.ascii	(.LC0/.Lc0+715)
.L_.str.717:
.ascii	(.LC0/.Lc0+716)
.L_.str.718:
.ascii	(.LC0/.Lc0+717)
.L_.str.719:
.ascii	(.LC0/.Lc0+718)
.L_.str.720:
.ascii	(.LC0/.Lc0+719)
.L_.str.721:
.ascii	(.LC0/.Lc0+720)
.L_.str.722:
.ascii	(.LC0/.Lc0+721)
.L_.str.723:
.ascii	(.LC0/.Lc0+722)
.L_.str.724:
.ascii	(.LC0/.Lc0+723)
.L_.str.725:
.ascii	(.LC0/.Lc0+724)
.L_.str.726:
.ascii	(.LC0/.Lc0+725)
.L_.str.727:
.ascii	(.LC0/.Lc0+726)
.L_.str.728:
.ascii	(.LC0/.Lc0+727)
.L_.str.729:
.ascii	(.LC0/.Lc0+728)
.L_.str.730:
.ascii	(.LC0/.Lc0+729)
.L_.str.731:
.ascii	(.LC0/.Lc0+730)
.L_.str.732:
.ascii	(.LC0/.Lc0+731)
.L_.str.733:
.ascii	(.LC0/.Lc0+732)
.L_.str.734:
.ascii	(.LC0/.Lc0+733)
.L_.str.735:
.ascii	(.LC0/.Lc0+734)
.L_.str.736:
.ascii	(.LC0/.Lc0+735)
.L_.str.737:
.ascii	(.LC0/.Lc0+736)
.L_.str.738:
.ascii	(.LC0/.Lc0+737)
.L_.str.739:
.ascii	(.LC0/.Lc0+738)
.L_.str.740:
.ascii	(.LC0/.Lc0+739)
.L_.str.741:
.ascii	(.LC0/.Lc0+740)
.L_.str.742:
.ascii	(.LC0/.Lc0+741)
.L_.str.743:
.ascii	(.LC0/.Lc0+742)
.L_.str.744:
.ascii	(.LC0/.Lc0+743)
.L_.str.745:
.ascii	(.LC0/.Lc0+744)
.L_.str.746:
.ascii	(.LC0/.Lc0+745)
.L_.str.747:
.ascii	(.LC0/.Lc0+746)
.L_.str.748:
.ascii	(.LC0/.Lc0+747)
.L_.str.749:
.ascii	(.LC0/.Lc0+748)
.L_.str.750:
.ascii	(.LC0/.Lc0+749)
.L_.str.751:
.ascii	(.LC0/.Lc0+750)
.L_.str.752:
.ascii	(.LC0/.Lc0+751)
.L_.str.753:
.ascii	(.LC0/.Lc0+752)
.L_.str.754:
.ascii	(.LC0/.Lc0+753)
.L_.str.755:
.ascii	(.LC0/.Lc0+754)
.L_.str.756:
.ascii	(.LC0/.Lc0+755)
.L_.str.757:
.ascii	(.LC0/.Lc0+756)
.L_.str.758:
.ascii	(.LC0/.Lc0+757)
.L_.str.759:
.ascii	(.LC0/.Lc0+758)
.L_.str.760:
.ascii	(.LC0/.Lc0+759)
.L_.str.761:
.ascii	(.LC0/.Lc0+760)
.L_.str.762:
.ascii	(.LC0/.Lc0+761)
.L_.str.763:
.ascii	(.LC0/.Lc0+762)
.L_.str.764:
.ascii	(.LC0/.Lc0+763)
.L_.str.765:
.ascii	(.LC0/.Lc0+764)
.L_.str.766:
.ascii	(.LC0/.Lc0+765)
.L_.str.767:
.ascii	(.LC0/.Lc0+766)
.L_.str.768:
.ascii	(.LC0/.Lc0+767)
.L_.str.769:
.ascii	(.LC0/.Lc0+768)
.L_.str.770:
.ascii	(.LC0/.Lc0+769)
.L_.str.771:
.ascii	(.LC0/.Lc0+770)
.L_.str.772:
.ascii	(.LC0/.Lc0+771)
.L_.str.773:
.ascii	(.LC0/.Lc0+772)
.L_.str.774:
.ascii	(.LC0/.Lc0+773)
.L_.str.775:
.ascii	(.LC0/.Lc0+774)
.L_.str.776:
.ascii	(.LC0/.Lc0+775)
.L_.str.777:
.ascii	(.LC0/.Lc0+776)
.L_.str.778:
.ascii	(.LC0/.Lc0+777)
.L_.str.779:
.ascii	(.LC0/.Lc0+778)
.L_.str.780:
.ascii	(.LC0/.Lc0+779)
.L_.str.781:
.ascii	(.LC0/.Lc0+780)
.L_.str.782:
.ascii	(.LC0/.Lc0+781)
.L_.str.783:
.ascii	(.LC0/.Lc0+782)
.L_.str.784:
.ascii	(.LC0/.Lc0+783)
.L_.str.785:
.ascii	(.LC0/.Lc0+784)
.L_.str.786:
.ascii	(.LC0/.Lc0+785)
.L_.str.787:
.ascii	(.LC0/.Lc0+786)
.L_.str.788:
.ascii	(.LC0/.Lc0+787)
.L_.str.789:
.ascii	(.LC0/.Lc0+788)
.L_.str.790:
.ascii	(.LC0/.Lc0+789)
.L_.str.791:
.ascii	(.LC0/.Lc0+790)
.L_.str.792:
.ascii	(.LC0/.Lc0+791)
.L_.str.793:
.ascii	(.LC0/.Lc0+792)
.L_.str.794:
.ascii	(.LC0/.Lc0+793)
.L_.str.795:
.ascii	(.LC0/.Lc0+794)
.L_.str.796:
.ascii	(.LC0/.Lc0+795)
.L_.str.797:
.ascii	(.LC0/.Lc0+796)
.L_.str.798:
.ascii	(.LC0/.Lc0+797)
.L_.str.799:
.ascii	(.LC0/.Lc0+798)
.L_.str.800:
.ascii	(.LC0/.Lc0+799)
.L_.str.801:
.ascii	(.LC0/.Lc0+800)
.L_.str.802:
.ascii	(.LC0/.Lc0+801)
.L_.str.803:
.ascii	(.LC0/.Lc0+802)
.L_.str.804:
.ascii	(.LC0/.Lc0+803)
.L_.str.805:
.ascii	(.LC0/.Lc0+804)
.L_.str.806:
.ascii	(.LC0/.Lc0+805)
.L_.str.807:
.ascii	(.LC0/.Lc0+806)
.L_.str.808:
.ascii	(.LC0/.Lc0+807)
.L_.str.809:
.ascii	(.LC0/.Lc0+808)
.L_.str.810:
.ascii	(.LC0/.Lc0+809)
.L_.str.811:
.ascii	(.LC0/.Lc0+810)
.L_.str.812:
.ascii	(.LC0/.Lc0+811)
.L_.str.813:
.ascii	(.LC0/.Lc0+812)
.L_.str.814:
.ascii	(.LC0/.Lc0+813)
.L_.str.815:
.ascii	(.LC0/.Lc0+814)
.L_.str.816:
.ascii	(.LC0/.Lc0+815)
.L_.str.817:
.ascii	(.LC0/.Lc0+816)
.L_.str.818:
.ascii	(.LC0/.Lc0+817)
.L_.str.819:
.ascii	(.LC0/.Lc0+818)
.L_.str.820:
.ascii	(.LC0/.Lc0+819)
.L_.str.821:
.ascii	(.LC0/.Lc0+820)
.L_.str.822:
.ascii	(.LC0/.Lc0+821)
.L_.str.823:
.ascii	(.LC0/.Lc0+822)
.L_.str.824:
.ascii	(.LC0/.Lc0+823)
.L_.str.825:
.ascii	(.LC0/.Lc0+824)
.L_.str.826:
.ascii	(.LC0/.Lc0+825)
.L_.str.827:
.ascii	(.LC0/.Lc0+826)
.L_.str.828:
.ascii	(.LC0/.Lc0+827)
.L_.str.829:
.ascii	(.LC0/.Lc0+828)
.L_.str.830:
.ascii	(.LC0/.Lc0+829)
.L_.str.831:
.ascii	(.LC0/.Lc0+830)
.L_.str.832:
.ascii	(.LC0/.Lc0+831)
.L_.str.833:
.ascii	(.LC0/.Lc0+832)
.L_.str.834:
.ascii	(.LC0/.Lc0+833)
.L_.str.835:
.ascii	(.LC0/.Lc0+834)
.L_.str.836:
.ascii	(.LC0/.Lc0+835)
.L_.str.837:
.ascii	(.LC0/.Lc0+836)
.L_.str.838:
.ascii	(.LC0/.Lc0+837)
.L_.str.839:
.ascii	(.LC0/.Lc0+838)
.L_.str.840:
.ascii	(.LC0/.Lc0+839)
.L_.str.841:
.ascii	(.LC0/.Lc0+840)
.L_.str.842:
.ascii	(.LC0/.Lc0+841)
.L_.str.843:
.ascii	(.LC0/.Lc0+842)
.L_.str.844:
.ascii	(.LC0/.Lc0+843)
.L_.str.845:
.ascii	(.LC0/.Lc0+844)
.L_.str.846:
.ascii	(.LC0/.Lc0+845)
.L_.str.847:
.ascii	(.LC0/.Lc0+846)
.L_.str.848:
.ascii	(.LC0/.Lc0+847)
.L_.str.849:
.ascii	(.LC0/.Lc0+848)
.L_.str.850:
.ascii	(.LC0/.Lc0+849)
.L_.str.851:
.ascii	(.LC0/.Lc0+850)
.L_.str.852:
.ascii	(.LC0/.Lc0+851)
.L_.str.853:
.ascii	(.LC0/.Lc0+852)
.L_.str.854:
.ascii	(.LC0/.Lc0+853)
.L_.str.855:
.ascii	(.LC0/.Lc0+854)
.L_.str.856:
.ascii	(.LC0/.Lc0+855)
.L_.str.857:
.ascii	(.LC0/.Lc0+856)
.L_.str.858:
.ascii	(.LC0/.Lc0+857)
.L_.str.859:
.ascii	(.LC0/.Lc0+858)
.L_.str.860:
.ascii	(.LC0/.Lc0+859)
.L_.str.861:
.ascii	(.LC0/.Lc0+860)
.L_.str.862:
.ascii	(.LC0/.Lc0+861)
.L_.str.863:
.ascii	(.LC0/.Lc0+862)
.L_.str.864:
.ascii	(.LC0/.Lc0+863)
.L_.str.865:
.ascii	(.LC0/.Lc0+864)
.L_.str.866:
.ascii	(.LC0/.Lc0+865)
.L_.str.867:
.ascii	(.LC0/.Lc0+866)
.L_.str.868:
.ascii	(.LC0/.Lc0+867)
.L_.str.869:
.ascii	(.LC0/.Lc0+868)
.L_.str.870:
.ascii	(.LC0/.Lc0+869)
.L_.str.871:
.ascii	(.LC0/.Lc0+870)
.L_.str.872:
.ascii	(.LC0/.Lc0+871)
.L_.str.873:
.ascii	(.LC0/.Lc0+872)
.L_.str.874:
.ascii	(.LC0/.Lc0+873)
.L_.str.875:
.ascii	(.LC0/.Lc0+874)
.L_.str.876:
.ascii	(.LC0/.Lc0+875)
.L_.str.877:
.ascii	(.LC0/.Lc0+876)
.L_.str.878:
.ascii	(.LC0/.Lc0+877)
.L_.str.879:
.ascii	(.LC0/.Lc0+878)
.L_.str.880:
.ascii	(.LC0/.Lc0+879)
.L_.str.881:
.ascii	(.LC0/.Lc0+880)
.L_.str.882:
.ascii	(.LC0/.Lc0+881)
.L_.str.883:
.ascii	(.LC0/.Lc0+882)
.L_.str.884:
.ascii	(.LC0/.Lc0+883)
.L_.str.885:
.ascii	(.LC0/.Lc0+884)
.L_.str.886:
.ascii	(.LC0/.Lc0+885)
.L_.str.887:
.ascii	(.LC0/.Lc0+886)
.L_.str.888:
.ascii	(.LC0/.Lc0+887)
.L_.str.889:
.ascii	(.LC0/.Lc0+888)
.L_.str.890:
.ascii	(.LC0/.Lc0+889)
.L_.str.891:
.ascii	(.LC0/.Lc0+890)
.L_.str.892:
.ascii	(.LC0/.Lc0+891)
.L_.str.893:
.ascii	(.LC0/.Lc0+892)
.L_.str.894:
.ascii	(.LC0/.Lc0+893)
.L_.str.895:
.ascii	(.LC0/.Lc0+894)
.L_.str.896:
.ascii	(.LC0/.Lc0+895)
.L_.str.897:
.ascii	(.LC0/.Lc0+896)
.L_.str.898:
.ascii	(.LC0/.Lc0+897)
.L_.str.899:
.ascii	(.LC0/.Lc0+898)
.L_.str.900:
.ascii	(.LC0/.Lc0+899)
.L_.str.901:
.ascii	(.LC0/.Lc0+900)
.L_.str.902:
.ascii	(.LC0/.Lc0+901)
.L_.str.903:
.ascii	(.LC0/.Lc0+902)
.L_.str.904:
.ascii	(.LC0/.Lc0+903)
.L_.str.905:
.ascii	(.LC0/.Lc0+904)
.L_.str.906:
.ascii	(.LC0/.Lc0+905)
.L_.str.907:
.ascii	(.LC0/.Lc0+906)
.L_.str.908:
.ascii	(.LC0/.Lc0+907)
.L_.str.909:
.ascii	(.LC0/.Lc0+908)
.L_.str.910:
.ascii	(.LC0/.Lc0+909)
.L_.str.911:
.ascii	(.LC0/.Lc0+910)
.L_.str.912:
.ascii	(.LC0/.Lc0+911)
.L_.str.913:
.ascii	(.LC0/.Lc0+912)
.L_.str.914:
.ascii	(.LC0/.Lc0+913)
.L_.str.915:
.ascii	(.LC0/.Lc0+914)
.L_.str.916:
.ascii	(.LC0/.Lc0+915)
.L_.str.917:
.ascii	(.LC0/.Lc0+916)
.L_.str.918:
.ascii	(.LC0/.Lc0+917)
.L_.str.919:
.ascii	(.LC0/.Lc0+918)
.L_.str.920:
.ascii	(.LC0/.Lc0+919)
.L_.str.921:
.ascii	(.LC0/.Lc0+920)
.L_.str.922:
.ascii	(.LC0/.Lc0+921)
.L_.str.923:
.ascii	(.LC0/.Lc0+922)
.L_.str.924:
.ascii	(.LC0/.Lc0+923)
.L_.str.925:
.ascii	(.LC0/.Lc0+924)
.L_.str.926:
.ascii	(.LC0/.Lc0+925)
.L_.str.927:
.ascii	(.LC0/.Lc0+926)
.L_.str.928:
.ascii	(.LC0/.Lc0+927)
.L_.str.929:
.ascii	(.LC0/.Lc0+928)
.L_.str.930:
.ascii	(.LC0/.Lc0+929)
.L_.str.931:
.ascii	(.LC0/.Lc0+930)
.L_.str.932:
.ascii	(.LC0/.Lc0+931)
.L_.str.933:
.ascii	(.LC0/.Lc0+932)
.L_.str.934:
.ascii	(.LC0/.Lc0+933)
.L_.str.935:
.ascii	(.LC0/.Lc0+934)
.L_.str.936:
.ascii	(.LC0/.Lc0+935)
.L_.str.937:
.ascii	(.LC0/.Lc0+936)
.L_.str.938:
.ascii	(.LC0/.Lc0+937)
.L_.str.939:
.ascii	(.LC0/.Lc0+938)
.L_.str.940:
.ascii	(.LC0/.Lc0+939)
.L_.str.941:
.ascii	(.LC0/.Lc0+940)
.L_.str.942:
.ascii	(.LC0/.Lc0+941)
.L_.str.943:
.ascii	(.LC0/.Lc0+942)
.L_.str.944:
.ascii	(.LC0/.Lc0+943)
.L_.str.945:
.ascii	(.LC0/.Lc0+944)
.L_.str.946:
.ascii	(.LC0/.Lc0+945)
.L_.str.947:
.ascii	(.LC0/.Lc0+946)
.L_.str.948:
.ascii	(.LC0/.Lc0+947)
.L_.str.949:
.ascii	(.LC0/.Lc0+948)
.L_.str.950:
.ascii	(.LC0/.Lc0+949)
.L_.str.951:
.ascii	(.LC0/.Lc0+950)
.L_.str.952:
.ascii	(.LC0/.Lc0+951)
.L_.str.953:
.ascii	(.LC0/.Lc0+952)
.L_.str.954:
.ascii	(.LC0/.Lc0+953)
.L_.str.955:
.ascii	(.LC0/.Lc0+954)
.L_.str.956:
.ascii	(.LC0/.Lc0+955)
.L_.str.957:
.ascii	(.LC0/.Lc0+956)
.L_.str.958:
.ascii	(.LC0/.Lc0+957)
.L_.str.959:
.ascii	(.LC0/.Lc0+958)
.L_.str.960:
.ascii	(.LC0/.Lc0+959)
.L_.str.961:
.ascii	(.LC0/.Lc0+960)
.L_.str.962:
.ascii	(.LC0/.Lc0+961)
.L_.str.963:
.ascii	(.LC0/.Lc0+962)
.L_.str.964:
.ascii	(.LC0/.Lc0+963)
.L_.str.965:
.ascii	(.LC0/.Lc0+964)
.L_.str.966:
.ascii	(.LC0/.Lc0+965)
.L_.str.967:
.ascii	(.LC0/.Lc0+966)
.L_.str.968:
.ascii	(.LC0/.Lc0+967)
.L_.str.969:
.ascii	(.LC0/.Lc0+968)
.L_.str.970:
.ascii	(.LC0/.Lc0+969)
.L_.str.971:
.ascii	(.LC0/.Lc0+970)
.L_.str.972:
.ascii	(.LC0/.Lc0+971)
.L_.str.973:
.ascii	(.LC0/.Lc0+972)
.L_.str.974:
.ascii	(.LC0/.Lc0+973)
.L_.str.975:
.ascii	(.LC0/.Lc0+974)
.L_.str.976:
.ascii	(.LC0/.Lc0+975)
.L_.str.977:
.ascii	(.LC0/.Lc0+976)
.L_.str.978:
.ascii	(.LC0/.Lc0+977)
.L_.str.979:
.ascii	(.LC0/.Lc0+978)
.L_.str.980:
.ascii	(.LC0/.Lc0+979)
.L_.str.981:
.ascii	(.LC0/.Lc0+980)
.L_.str.982:
.ascii	(.LC0/.Lc0+981)
.L_.str.983:
.ascii	(.LC0/.Lc0+982)
.L_.str.984:
.ascii	(.LC0/.Lc0+983)
.L_.str.985:
.ascii	(.LC0/.Lc0+984)
.L_.str.986:
.ascii	(.LC0/.Lc0+985)
.L_.str.987:
.ascii	(.LC0/.Lc0+986)
.L_.str.988:
.ascii	(.LC0/.Lc0+987)
.L_.str.989:
.ascii	(.LC0/.Lc0+988)
.L_.str.990:
.ascii	(.LC0/.Lc0+989)
.L_.str.991:
.ascii	(.LC0/.Lc0+990)
.L_.str.992:
.ascii	(.LC0/.Lc0+991)
.L_.str.993:
.ascii	(.LC0/.Lc0+992)
.L_.str.994:
.ascii	(.LC0/.Lc0+993)
.L_.str.995:
.ascii	(.LC0/.Lc0+994)
.L_.str.996:
.ascii	(.LC0/.Lc0+995)
.L_.str.997:
.ascii	(.LC0/.Lc0+996)
.L_.str.998:
.ascii	(.LC0/.Lc0+997)
.L_.str.999:
.ascii	(.LC0/.Lc0+998)
.L_.str.1000:
.ascii	(.LC0/.Lc0+999)
.L_.str.1001:
.ascii	(.LC0/.Lc0+1000)
.L_.str.1002:
.ascii	(.LC0/.Lc0+1001)
.L_.str.1003:
.ascii	(.LC0/.Lc0+1002)
.L_.str.1004:
.ascii	(.LC0/.Lc0+1003)
.L_.str.1005:
.ascii	(.LC0/.Lc0+1004)
.L_.str.1006:
.ascii	(.LC0/.Lc0+1005)
.L_.str.1007:
.ascii	(.LC0/.Lc0+1006)
.L_.str.1008:
.ascii	(.LC0/.Lc0+1007)
.L_.str.1009:
.ascii	(.LC0/.Lc0+1008)
.L_.str.1010:
.ascii	(.LC0/.Lc0+1009)
.L_.str.1011:
.ascii	(.LC0/.Lc0+1010)
.L_.str.1012:
.ascii	(.LC0/.Lc0+1011)
.L_.str.1013:
.ascii	(.LC0/.Lc0+1012)
.L_.str.1014:
.ascii	(.LC0/.Lc0+1013)
.L_.str.1015:
.ascii	(.LC0/.Lc0+1014)
.L_.str.1016:
.ascii	(.LC0/.Lc0+1015)
.L_.str.1017:
.ascii	(.LC0/.Lc0+1016)
.L_.str.1018:
.ascii	(.LC0/.Lc0+1017)
.L_.str.1019:
.ascii	(.LC0/.Lc0+1018)
.L_.str.1020:
.ascii	(.LC0/.Lc0+1019)
.L_.str.1021:
.ascii	(.LC0/.Lc0+1020)
.L_.str.1022:
.ascii	(.LC0/.Lc0+1021)
.L_.str.1023:
.ascii	(.LC0/.Lc0+1022)
.L_.str.1024:
.ascii	(.LC0/.Lc0+1023)
.L_.str.1025:
.ascii	(.LC0/.Lc0+1024)
.L_.str.1026:
.ascii	(.LC0/.Lc0+1025)
.L_.str.1027:
.ascii	(.LC0/.Lc0+1026)
.L_.str.1028:
.ascii	(.LC0/.Lc0+1027)
.L_.str.1029:
.ascii	(.LC0/.Lc0+1028)
.L_.str.1030:
.ascii	(.LC0/.Lc0+1029)
.L_.str.1031:
.ascii	(.LC0/.Lc0+1030)
.L_.str.1032:
.ascii	(.LC0/.Lc0+1031)
.L_.str.1033:
.ascii	(.LC0/.Lc0+1032)
.L_.str.1034:
.ascii	(.LC0/.Lc0+1033)
.L_.str.1035:
.ascii	(.LC0/.Lc0+1034)
.L_.str.1036:
.ascii	(.LC0/.Lc0+1035)
.L_.str.1037:
.ascii	(.LC0/.Lc0+1036)
.L_.str.1038:
.ascii	(.LC0/.Lc0+1037)
.L_.str.1039:
.ascii	(.LC0/.Lc0+1038)
.L_.str.1040:
.ascii	(.LC0/.Lc0+1039)
.L_.str.1041:
.ascii	(.LC0/.Lc0+1040)
.L_.str.1042:
.ascii	(.LC0/.Lc0+1041)
.L_.str.1043:
.ascii	(.LC0/.Lc0+1042)
.L_.str.1044:
.ascii	(.LC0/.Lc0+1043)
.L_.str.1045:
.ascii	(.LC0/.Lc0+1044)
.L_.str.1046:
.ascii	(.LC0/.Lc0+1045)
.L_.str.1047:
.ascii	(.LC0/.Lc0+1046)
.L_.str.1048:
.ascii	(.LC0/.Lc0+1047)
.L_.str.1049:
.ascii	(.LC0/.Lc0+1048)
.L_.str.1050:
.ascii	(.LC0/.Lc0+1050)
.L_.str.1051:
.ascii	(.LC0/.Lc0+1051)
.L_.str.1052:
.ascii	(.LC0/.Lc0+1052)
.L_.str.1053:
.ascii	(.LC0/.Lc0+1053)
.L_.str.1054:
.ascii	(.LC0/.Lc0+1054)
.L_.str.1055:
.ascii	(.LC0/.Lc0+1055)
.L_.str.1056:
.ascii	(.LC0/.Lc0+1056)
.L_.str.1057:
.ascii	(.LC0/.Lc0+1057)
.L_.str.1058:
.ascii	(.LC0/.Lc0+1058)
.L_.str.1059:
.ascii	(.LC0/.Lc0+1059)
.L_.str.1060:
.ascii	(.LC0/.Lc0+1060)
.L_.str.1061:
.ascii	(.LC0/.Lc0+1061)
.L_.str.1062:
.ascii	(.LC0/.Lc0+1062)
.L_.str.1063:
.ascii	(.LC0/.Lc0+1063)
.L_.str.1064:
.ascii	(.LC0/.Lc0+1064)
.L_.str.1065:
.ascii	(.LC0/.Lc0+1065)
.L_.str.1066:
.ascii	(.LC0/.Lc0+1066)
.L_.str.1067:
.ascii	(.LC0/.Lc0+1067)
.L_.str.1068:
.ascii	(.LC0/.Lc0+1068)
.L_.str.1069:
.ascii	(.LC0/.Lc0+1069)
.L_.str.1070:
.ascii	(.LC0/.Lc0+1070)
.L_.str.1071:
.ascii	(.LC0/.Lc0+1071)
.L_.str.1072:
.ascii	(.LC0/.Lc0+1072)
.L_.str.1073:
.ascii	(.LC0/.Lc0+1073)
.L_.str.1074:
.ascii	(.LC0/.Lc0+1074)
.L_.str.1075:
.ascii	(.LC0/.Lc0+1075)
.L_.str.1076:
.ascii	(.LC0/.Lc0+1076)
.L_.str.1077:
.ascii	(.LC0/.Lc0+1077)
.L_.str.1078:
.ascii	(.LC0/.Lc0+1078)
.L_.str.1079:
.ascii	(.LC0/.Lc0+1079)
.L_.str.1080:
.ascii	(.LC0/.Lc0+1080)
.L_.str.1081:
.ascii	(.LC0/.Lc0+1081)
.L_.str.1082:
.ascii	(.LC0/.Lc0+1082)
.L_.str.1083:
.ascii	(.LC0/.Lc0+1083)
.L_.str.1084:
.ascii	(.LC0/.Lc0+1084)
.L_.str.1085:
.ascii	(.LC0/.Lc0+1085)
.L_.str.1086:
.ascii	(.LC0/.Lc0+1086)
.L_.str.1087:
.ascii	(.LC0/.Lc0+1087)
.L_.str.1088:
.ascii	(.LC0/.Lc0+1088)
.L_.str.1089:
.ascii	(.LC0/.Lc0+1089)
.L_.str.1090:
.ascii	(.LC0/.Lc0+1090)
.L_.str.1091:
.ascii	(.LC0/.Lc0+1091)
.L_.str.1092:
.ascii	(.LC0/.Lc0+1092)
.L_.str.1093:
.ascii	(.LC0/.Lc0+1093)
.L_.str.1094:
.ascii	(.LC0/.Lc0+1094)
.L_.str.1095:
.ascii	(.LC0/.Lc0+1095)
.L_.str.1096:
.ascii	(.LC0/.Lc0+1096)
.L_.str.1097:
.ascii	(.LC0/.Lc0+1097)
.L_.str.1098:
.ascii	(.LC0/.Lc0+1098)
.L_.str.1099:
.ascii	(.LC0/.Lc0+1099)
.L_.str.1100:
.ascii	(.LC0/.Lc0+1100)
.L_.str.1101:
.ascii	(.LC0/.Lc0+1101)
.L_.str.1102:
.ascii	(.LC0/.Lc0+1102)
.L_.str.1103:
.ascii	(.LC0/.Lc0+1103)
.L_.str.1104:
.ascii	(.LC0/.Lc0+1104)
.L_.str.1105:
.ascii	(.LC0/.Lc0+1105)
.L_.str.1106:
.ascii	(.LC0/.Lc0+1106)
.L_.str.1107:
.ascii	(.LC0/.Lc0+1107)
.L_.str.1108:
.ascii	(.LC0/.Lc0+1108)
.L_.str.1109:
.ascii	(.LC0/.Lc0+1109)
.L_.str.1110:
.ascii	(.LC0/.Lc0+1110)
.L_.str.1111:
.ascii	(.LC0/.Lc0+1111)
.L_.str.1112:
.ascii	(.LC0/.Lc0+1112)
.L_.str.1113:
.ascii	(.LC0/.Lc0+1113)
.L_.str.1114:
.ascii	(.LC0/.Lc0+1114)
.L_.str.1115:
.ascii	(.LC0/.Lc0+1115)
.L_.str.1116:
.ascii	(.LC0