.arch armv8-a
.file	__TEXT,__text,regular,pure_instructions
.align	2
.bsf	.sect, 3
.global	_func0                          ## -- Begin function func0
.p2align	2,,3
_func0:                                 ## @func0
	.cfi_startproc
stp	x29, x30, [sp, -48]!
.cfi_def_cfa_offset 48
.cfi_offset 29, -48
.cfi_offset 30, -40
mov	x29, sp
.cfi_def_cfa_register 29
stp	x19, x20, [sp, 16]
str	x21, [sp, 32]
sub	sp, sp,
.cfi_offset 19, -32
.cfi_offset 20, -24
.cfi_offset 21, -16
str	x0, [x29, -16]
str	w1, [x29, -24]
str	x2, [x29, -32]
ldr	x0, [x29, -32]
str	wzr, [x0]
str	wzr, [x29, -28]
.LB16_0:                                     ## =>This Inner Loop Header: Depth=1
ldp	w1, w0, [x29, -28]
cmp	w0, w1
bge	.LB16_5
ldr	x0, [x29, -16]
ldrsw	x1, [x29, -28]
ldr	x0, [x0, x1, lsl 3]
bl	_strlen
and	x0, x0, 1
cbnz	x0, .L3
.LB16_6:
ldr	x1, [x29, -16]
ldrsw	x0, [x29, -28]
ldr	x2, [x29, -32]
ldr	x1, [x1, x0, lsl 3]
str	x1, [x29, -8]
ldr	w0, [x2], 8
add	w0, w0, 1
str	w0, [x2]
b	.L7
.L3:
ldr	x1, [x29, -16]
ldrsw	x0, [x29, -28]
ldr	x2, [x29, -32]
ldr	x1, [x1, x0, lsl 3]
str	x1, [x29, -16]
ldr	w0, [x2], 8
add	w0, w0, 1
str	w0, [x2]
b	.L7
.L7:
ldr	w1, [x29, -28]
add	w1, w1, 1
str	w1, [x29, -28]
b	.L16
.L16:
ldr	w1, [x29, -28]
ldr	x2, [x29, -32]
ldr	w0, [x29, -24]
sub	w0, w0,
cmp	w1, w0
bge	.L18
.L8:
str	wzr, [x29, -32]
.L17:
ldr	x2, [x29, -32]
ldr	w1, [x29, -28]
ldr	w0, [x2]
sub	w0, w0,
cmp	w1, w0
ble	.L16
.L9:
ldr	x1, [x29, -32]
sxtw	x0, w0
ldr	x2, [x29, -16]
ldr	x0, [x2, x0, lsl 3]
bl	_strlen
ldr	w1, [x29, -32]
ldr	x2, [x29, -16]
add	w1, w1, 1
ldr	x0, [x2, w1, sxtw 3]
bl	_strlen
mov	x2, x0
ldr	x1, [x29, -40]
str	x2, [x29, -48]
cmp	x0, x1
bhi	.L6
.L14:
ldr	x1, [x29, -48]
ldr	x2, [x29, -56]
cmp	x0, x1
bne	.L15
ldr	x0, [x29, -16]
ldrsw	x1, [x29, -32]
ldr	x2, [x29, -32]
ldr	x0, [x0, x1, lsl 3]
str	x0, [x29, -8]
ldr	w0, [x29, -32]
add	w0, w0, 1
str	w0, [x29, -32]
ldr	x2, [x29, -8]
ldr	x0, [x2, x0, lsl 3]
bl	_strcmp
cmp	w0, 0
ble	.L15
.L6:
ldr	x1, [x29, -16]
ldrsw	x0, [x29, -32]
ldr	x2, [x29, -40]
ldr	x1, [x1, x0, lsl 3]
str	x1, [x29, -24]
ldr	x1, [x29, -16]
ldr	x0, [x29, -48]
ldr	x1, [x1, x0, lsl 3]
str	x1, [x29, -8]
ldr	w0, [x29, -32]
add	w0, w0, 1
str	w0, [x29, -32]
ldr	x2, [x29, -8]
ldr	x0, [x29, -40]
ldr	x1, [x2, x0, lsl 3]
str	x1, [x29, -16]
ldr	x1, [x29, -24]
ldr	x0, [x29, -48]
ldr	x1, [x1, x0, lsl 3]
str	x1, [x29, -8]
ldr	w0, [x29, -32]
add	w0, w0, 1
str	w0, [x29, -32]
.L15:
b	.L8
.L18:
ldr	x0, [x29, -32]
ldrsw	x0, [x0]
lsl	x0, x0, 3
bl	_malloc
str	x0, [x29, -64]
str	wzr, [x29, -28]
.L20:
ldr	x1, [x29, -32]
ldr	x2, [x29, -24]
ldr	w0, [x29, -24]
ldr	w1, [x1]
cmp	w1, w0
bge	.L22
b	.L23
.L22:
ldp	x19, x20, [sp, 16]
ldr	x21, [sp, 32]
add	sp, sp, 48
.cfi_remember_state
.cfi_restore 21
.cfi_restore 19
.cfi_restore 20
.cfi_def_cfa_offset 0
ret
.L23:
.cfi_restore_state
ldr	x1, [x29, -64]
b	.L24
.L24:
ldr	x0, [x29, -16]
ldrsw	x1, [x29, -32]
ldr	x2, [x29, -32]
ldr	x0, [x0, x1, lsl 3]
str	x0, [x29, -24]
ldr	w0, [x29, -32]
add	w0, w0, 1
str	w0, [x29, -32]
b	.L17
.L21:
ldr	x0, [x29, -64]
ldp	x19, x20, [sp, 16]
ldr	x21, [sp, 32]
add	sp, sp, 48
.cfi_restore 21
.cfi_restore 19
.cfi_restore 20
.cfi_def_cfa_offset 0
ret
.L24:
ldr	x0, [x29, -48]
ldrsw	x1, [x29, -32]
ldr	x2, [x29, -32]
ldr	x0, [x0, x1, lsl 3]
str	x0, [x29, -40]
ldr	w0, [x29, -32]
add	w0, w0, 1
str	w0, [x29, -32]
b	.L9
.L25:
ldr	x1, [x29, -48]
ldr	x0, [x29, -16]
ldrsw	x2, [x29, -32]
ldr	x1, [x1, x2, lsl 3]
str	x1, [x29, -24]
ldr	x0, [x0, x2, lsl 3]
str	x0, [x29, -16]
ldr	w0, [x29, -32]
add	w0, w0, 1
str	w0, [x29, -32]
b	.L9
.L26:
ldr	x0, [x29, -40]
ldrsw	x1, [x29, -32]
ldr	x2, [x29, -24]
ldr	x0, [x0, x1, lsl 3]
str	x0, [x29, -48]
ldr	x0, [x29, -16]
ldr	x0, [x0, x1, lsl 3]
str	x0, [x29, -24]
ldr	w0, [x29, -32]
add	w0, w0, 1
str	w0, [x29, -32]
b	.L17
.L27:
ldr	x1, [x29, -16]
ldr	x2, [x29, -40]
ldrsw	x1, [x29, -32]
ldr	x1, [x1, x1, lsl 3]
str	x1, [x29, -40]
ldr	x2, [x29, -48]
ldr	x0, [x29, -24]
ldr	x1, [x2, x2, lsl 3]
str	x1, [x29, -16]
ldr	w0, [x29, -32]
add	w0, w0, 1
str	w0, [x29, -32]
b	.L9
.L28:
ldr	x0, [x29, -64]
ldp	x19, x20, [sp, 16]
ldr	x21, [sp, 32]
add	sp, sp, 48
.cfi_restore 21
.cfi_restore 19
.cfi_restore 20
.cfi_def_cfa_offset 0
ret
.L6:
ldr	x1, [x29, -16]
ldr	x2, [x29, -48]
ldrsw	x1, [x29, -32]
ldr	x1, [x1, x1, lsl 3]
str	x1, [x29, -24]
ldr	x2, [x29, -40]
ldr	x0, [x29, -48]
ldr	x1, [x1, x2, lsl 3]
str	x1, [x29, -16]
ldr	w0, [x29, -32]
add	w0, w0, 1
str	w0, [x29, -32]
b	.L8
.L29:
ldr	x1, [x29, -48]
ldr	x2, [x29, -56]
ldrsw	x1, [x29, -32]
ldr	x2, [x29, -40]
ldr	x1, [x1, x1, lsl 3]
str	x1, [x29, -24]
ldr	x2, [x29, -16]
ldr	x0, [x29, -48]
ldr	x1, [x2, x0, lsl 3]
str	x1, [x29, -8]
ldr	w0, [x29, -32]
add	w0, w0, 1
str	w0, [x29, -32]
ldr	x2, [x29, -8]
ldr	x0, [x29, -40]
ldr	x1, [x2, x0, lsl 3]
str	x1, [x29, -16]
ldr	x1, [x29, -24]
ldr	x0, [x29, -48]
ldr	x1, [x1, x0, lsl 3]
str	x1, [x29, -8]
ldr	w0, [x29, -32]
add	w0, w0, 1
str	w0, [x29, -32]
b	.L15
.L30:
ldr	x0, [x29, -16]
ldr	x1, [x29, -64]
ldrsw	x0, [x29, -32]
ldr	x1, [x1, x0, lsl 3]
str	x1, [x29, -40]
ldr	x1, [x29, -48]
ldr	x0, [x29, -48]
ldr	x1, [x1, x0, lsl 3]
str	x1, [x29, -24]
ldr	w0, [x29, -32]
add	w0, w0, 1
str	w0, [x29, -32]
b	.L8
.L31:
ldr	x1, [x29, -48]
ldr	x2, [x29, -56]
ldrsw	x1, [x29, -32]
ldr	x2, [x29, -40]
ldr	x1, [x1, x1, lsl 3]
str	x1, [x29, -40]
ldr	x2, [x29, -48]
ldr	x0, [x29, -16]
ldr	x1, [x2, x2, lsl 3]
str	x1, [x29, -24]
ldr	w0, [x29, -32]
add	w0, w0, 1
str	w0, [x29, -32]
ldr	x2, [x29, -8]
ldr	x0, [x29, -40]
ldr	x1, [x2, x0, lsl 3]
str	x1, [x29, -8]
ldr	w0, [x29, -32]
add	w0, w0, 1
str	w0, [x29, -32]
b	.L9
.L32:
ldr	x0, [x29, -64]
ldp	x19, x20, [sp, 16]
ldr	x21, [sp, 32]
add	sp, sp, 48
.cfi_restore 21
.cfi_restore 19
.cfi_restore 20
.cfi_def_cfa_offset 0
ret
.L33:
ldr	x0, [x29, -16]
ldr	x1, [x29, -40]
ldrsw	x0, [x29, -32]
ldr	x1, [x1, x0, lsl 3]
str	x1, [x29, -48]
ldr	x0, [x29, -48]
ldr	x1, [x29, -16]
ldr	x0, [x0, x0, lsl 3]
str	x0, [x29, -24]
ldr	w0, [x29, -32]
add	w0, w0, 1
str	w0, [x29, -32]
b	.L9
.L34:
ldr	x1, [x29, -48]
ldr	x0, [x29, -64]
ldrsw	x1, [x29, -32]
ldr	x0, [x0, x1, lsl 3]
str	x0, [x29, -40]
ldr	x1, [x29, -48]
ldr	x0, [x29, -16]
ldr	x1, [x1, x1, lsl 3]
str	x1, [x29, -48]
ldr	w0, [x29, -32]
add	w0, w0, 1
str	w0, [x29, -32]
b	.L17
.L35:
ldr	x1, [x29, -48]
ldr	x0, [x29, -64]
ldrsw	x1, [x29, -32]
ldr	x1, [x1, x1, lsl 3]
str	x1, [x29, -40]
ldr	x0, [x29, -48]
ldr	x1, [x29, -48]
ldr	x0, [x0, x0, lsl 3]
str	x1, [x29, -24]
ldr	w0, [x29, -32]
add	w0, w0, 1
str	w0, [x29, -32]
b	.L9
.L36:
ldr	x0, [x29, -40]
ldrsw	x1, [x29, -32]
ldr	x2, [x29, -24]
ldr	x0, [x0, x1, lsl 3]
str	x0, [x29, -40]
ldr	x0, [x29, -48]
ldr	x1, [x29, -16]
ldr	x0, [x0, x0, lsl 3]
str	x1, [x29, -24]
ldr	w0, [x29, -32]
add	w0, w0, 1
str	w0, [x29, -32]
b	.L8
.L37:
ldr	x1, [x29, -48]
ldr	x0, [x29, -64]
ldrsw	x1, [x29, -32]
ldr	x1, [x1, x1, lsl 3]
str	x1, [x29, -40]
ldr	x0, [x29, -48]
ldr	x1, [x29, -48]
ldr	x0, [x0, x0, lsl 3]
str	x1, [x29, -24]
ldr	w0, [x29, -32]
add	w0, w0, 1
str	w0, [x29, -32]
b	.L9
.L38:
ldr	x0, [x29, -64]
ldp	x19, x20, [sp, 16]
ldr	x21, [sp, 32]
add	sp, sp, 48
.cfi_restore 21
.cfi_restore 19
.cfi_restore 20
.cfi_def_cfa_offset 0
ret
.L39:
ldr	x0, [x29, -16]
ldr	x1, [x29, -48]
ldrsw	x0, [x29, -32]
ldr	x1, [x1, x0, lsl 3]
str	x1, [x29, -48]
ldr	x0, [x29, -48]
ldr	x1, [x29, -16]
ldr	x0, [x0, x0, lsl 3]
str	x1, [x29, -24]
ldr	w0, [x29, -32]
add	w0, w0, 1
str	w0, [x29, -32]
b	.L9
.L40:
ldr	x1, [x29, -48]
ldr	x0, [x29, -64]
ldrsw	x1, [x29, -32]
ldr	x1, [x1, x1, lsl 3]
str	x1, [x29, -48]
ldr	x0, [x29, -48]
ldr	x1, [x29, -48]
ldr	x0, [x0, x0, lsl 3]
str	x1, [x29, -24]
ldr	w0, [x29, -32]
add	w0, w0, 1
str	w0, [x29, -32]
b	.L8
.L41:
ldr	x1, [x29, -48]
ldr	x0, [x29, -56]
ldrsw	x1, [x29, -32]
ldr	x1, [x1, x1, lsl 3]
str	x1, [x29, -48]
ldr	x2, [x29, -48]
ldr	x0, [x29, -16]
ldr	x1, [x2, x2, lsl 3]
str	x1, [x29, -24]
ldr	w0, [x29, -32]
add	w0, w0, 1
str	w0, [x29, -32]
ldr	x2, [x29, -8]
ldr	x0, [x29, -48]
ldr	x1, [x2, x0, lsl 3]
str	x1, [x29, -8]
ldr	w0, [x29, -32]
add	w0, w0, 1
str	w0, [x29, -32]
b	.L9
.L42:
ldr	x0, [x29, -64]
ldp	x19, x20, [sp, 16]
ldr	x21, [sp, 32]
add	sp, sp, 48
.cfi_restore 21
.cfi_restore 19
.cfi_restore 20
.cfi_def_cfa_offset 0
ret
.L32:
ldr	x0, [x29, -16]
ldr	x1, [x29, -40]
ldrsw	x0, [x29, -32]
ldr	x1, [x1, x0, lsl 3]
str	x1, [x29, -40]
ldr	x0, [x29, -48]
ldr	x1, [x29, -16]
ldr	x0, [x0, x0, lsl 3]
str	x1, [x29, -24]
ldr	w0, [x29, -32]
add	w0, w0, 1
str	w0, [x29, -32]
b	.L8
.L43:
ldr	x1, [x29, -48]
ldr	x0, [x29, -64]
ldrsw	x1, [x29, -32]
ldr	x1, [x1, x1, lsl 3]
str	x1, [x29, -40]
ldr	x0, [x29, -48]
ldr	x1, [x29, -48]
ldr	x0, [x0, x0, lsl 3]
str	x1, [x29, -24]
ldr	w0, [x29, -32]
add	w0, w0, 1
str	w0, [x29, -32]
b	.L9
.L44:
ldr	x0, [x29, -40]
ldrsw	x1, [x29, -32]
ldr	x2, [x29, -24]
ldr	x0, [x0, x1, lsl 3]
str	x0, [x29, -40]
ldr	x0, [x29, -48]
ldr	x1, [x29, -16]
ldr	x0, [x0, x0, lsl 3]
str	x1, [x29, -24]
ldr	w0, [x29, -32]
add	w0, w0, 1
str	w0, [x29, -32]
b	.L8
.L45:
ldr	x1, [x29, -48]
ldr	x0, [x29, -56]
ldrsw	x1, [x29, -32]
ldr	x1, [x1, x1, lsl 3]
str	x1, [x29, -48]
ldr	x2, [x29, -48]
ldr	x0, [x29, -16]
ldr	x1, [x2, x2, lsl 3]
str	x1, [x29, -24]
ldr	w0, [x29, -32]
add	w0, w0, 1
str	w0, [x29, -32]
ldr	x2, [x29, -8]
ldr	x0, [x29, -48]
ldr	x1, [x2, x0, lsl 3]
str	x1, [x29, -8]
ldr	w0, [x29, -32]
add	w0, w0, 1
str	w0, [x29, -32]
b	.L9
.L46:
ldr	x0, [x29, -64]
ldp	x19, x20, [sp, 16]
ldr	x21, [sp, 32]
add	sp, sp, 48
.cfi_restore 21
.cfi_restore 19
.cfi_restore 20
.cfi_def_cfa_offset 0
ret
.L47:
ldr	x0, [x29, -16]
ldr	x1, [x29, -40]
ldrsw	x0, [x29, -32]
ldr	x1, [x1, x0, lsl 3]
str	x1, [x29, -48]
ldr	x0, [x29, -48]
ldr	x1, [x29, -16]
ldr	x0, [x0, x0, lsl 3]
str	x1, [x29, -24]
ldr	w0, [x29, -32]
add	w0, w0, 1
str	w0, [x29, -32]
b	.L9
.L48:
ldr	x1, [x29, -48]
ldr	x0, [x29, -64]
ldrsw	x1, [x29, -32]
ldr	x1, [x1, x1, lsl 3]
str	x1, [x29, -48]
ldr	x0, [x29, -48]
ldr	x1, [x29, -48]
ldr	x0, [x0, x0, lsl 3]
str	x1, [x29, -24]
ldr	w0, [x29, -32]
add	w0, w0, 1
str	w0, [x29, -32]
b	.L8
.L49:
ldr	x1, [x29, -48]
ldr	x0, [x29, -56]
ldrsw	x1, [x29, -32]
ldr	x1, [x1, x1, lsl 3]
str	x1, [x29, -48]
ldr	x2, [x29, -48]
ldr	x0, [x29, -16]
ldr	x1, [x2, x2, lsl 3]
str	x1, [x29, -24]
ldr	w0, [x29, -32]
add	w0, w0, 1
str	w0, [x29, -32]
ldr	x2, [x29, -8]
ldr	x0, [x29, -48]
ldr	x1, [x2, x0, lsl 3]
str	x1, [x29, -8]
ldr	w0, [x29, -32]
add	w0, w0, 1
str	w0, [x29, -32]
b	.L9
.L50:
ldr	x0, [x29, -64]
ldp	x19, x20, [sp, 16]
ldr	x21, [sp, 32]
add	sp, sp, 48
.cfi_restore 21
.cfi_restore 19
.cfi_restore 20
.cfi_def_cfa_offset 0
ret
.L39:
ldr	x0, [x29, -16]
ldr	x1, [x29, -40]
ldrsw	x0, [x29, -32]
ldr	x1, [x1, x0, lsl 3]
str	x1, [x29, -48]
ldr	x0, [x29, -48]
ldr	x1, [x29, -16]
ldr	x0, [x0, x0, lsl 3]
str	x1, [x29, -24]
ldr	w0, [x29, -32]
add	w0, w0, 1
str	w0, [x29, -32]
b	.L8
.L51:
ldr	x1, [x29, -48]
ldr	x0, [x29, -64]
ldrsw	x1, [x29, -32]
ldr	x1, [x1, x1, lsl 3]
str	x1, [x29, -48]
ldr	x0, [x29, -48]
ldr	x1, [x29, -48]
ldr	x0, [x0, x0, lsl 3]
str	x1, [x29, -24]
ldr	w0, [x29, -32]
add	w0, w0, 1
str	w0, [x29, -32]
b	.L9
.L52:
ldr	x1, [x29, -48]
ldr	x0, [x29, -64]
ldrsw	x1, [x29, -32]
ldr	x1, [x1, x1, lsl 3]
str	x1, [x29, -48]
ldr	x0, [x29, -48]
ldr	x1, [x29, -48]
ldr	x0, [x0, x0, lsl 3]
str	x1, [x29, -24]
ldr	w0, [x29, -32]
add	w0, w0, 1
str	w0, [x29, -32]
b	.L8
.L53:
ldr	x0, [x29, -64]
ldp	x19, x20, [sp, 16]
ldr	x21, [sp, 32]
add	sp, sp, 48
.cfi_restore 21
.cfi_restore 19
.cfi_restore 20
.cfi_def_cfa_offset 0
ret
.L54:
ldr	x0, [x29, -16]
ldr	x1, [x29, -40]
ldrsw	x0, [x29, -32]
ldr	x1, [x1, x0, lsl 3]
str	x1, [x29, -48]
ldr	x0, [x29, -48]
ldr	x1, [x29, -16]
ldr	x0, [x0, x0, lsl 3]
str	x1, [x29, -24]
ldr	w0, [x29, -32]
add	w0, w0, 1
str	w0, [x29, -32]
b	.L9
.L55:
ldr	x1, [x29, -48]
ldr	x0, [x29, -64]
ldrsw	x1, [x29, -32]
ldr	x1, [x1, x1, lsl 3]
str	x1, [x29, -48]
ldr	x0, [x29, -48]
ldr	x1, [x29, -48]
ldr	x0, [x0, x0, lsl 3]
str	x1, [x29, -24]
ldr	w0, [x29, -32]
add	w0, w0, 1
str	w0, [x29, -32]
b	.L8
.L56:
ldr	x0, [x29, -64]
ldp	x19, x20, [sp, 16]
ldr	x21, [sp, 32]
add	sp, sp, 48
.cfi_restore 21
.cfi_restore 19
.cfi_restore 20
.cfi_def_cfa_offset 0
ret
.L36:
ldr	x0, [x29, -16]
ldr	x1, [x29, -40]
ldrsw	x0, [x29, -32]
ldr	x1, [x1, x0, lsl 3]
str	x1, [x29, -48]
ldr	x0, [x29, -48]
ldr	x1, [x29, -16]
ldr	x0, [x0, x0, lsl 3]
str	x1, [x29, -24]
ldr	w0, [x29, -32]
add	w0, w0, 1
str	w0, [x29, -32]
b	.L8
.L57:
ldr	x1, [x29, -48]
ldr	x0, [x29, -64]
ldrsw	x1, [x29, -32]
ldr	x1, [x1, x1, lsl 3]
str	x1, [x29, -48]
ldr	x0, [x29, -48]
ldr	x1, [x29, -48]
ldr	x0, [x0, x0, lsl 3]
str	x1, [x29, -24]
ldr	w0, [x29, -32]
add	w0, w0, 1
str	w0, [x29, -32]
b	.L9
.L58:
ldr	x0, [x29, -40]
ldrsw	x1, [x29, -32]
ldr	x2, [x29, -24]
ldr	x0, [x0, x1, lsl 3]
str	x0, [x29, -40]
ldr	x0, [x29, -48]
ldr	x1, [x29, -16]
ldr	x0, [x0, x0, lsl 3]
str	x1, [x29, -24]
ldr	w0, [x29, -32]
add	w0, w0, 1
str	w0, [x29, -32]
b	.L8
.L59:
ldr	x1, [x29, -48]
ldr	x0, [x29, -64]
ldrsw	x1, [x29, -32]
ldr	x1, [x1, x1, lsl 3]
str	x1, [x29, -48]
ldr	x0, [x29, -48]
ldr	x1, [x29, -48]
ldr	x0, [x0, x0, lsl 3]
str	x1, [x29, -24]
ldr	w0, [x29, -32]
add	w0, w0, 1
str	w0, [x29, -32]
b	.L9
.L60:
ldr	x0, [x29, -64]
ldp	x19, x20, [sp, 16]
ldr	x21, [sp, 32]
add	sp, sp, 48
.cfi_restore 21
.cfi_restore 19
.cfi_restore 20
.cfi_def_cfa_offset 0
ret
.L51:
ldr	x0, [x29, -16]
ldr	x1, [x29, -40]
ldrsw	x0, [x29, -32]
ldr	x1, [x1, x0, lsl 3]
str	x1, [x29, -48]
ldr	x0, [x29, -48]
ldr	x1, [x29, -16]
ldr	x0, [x0, x0, lsl 3]
str	x1, [x29, -24]
ldr	w0, [x29, -32]
add	w0, w0, 1
str	w0, [x29, -32]
b	.L9
.L62:
ldr	x1, [x29, -48]
ldr	x0, [x29, -64]
ldrsw	x1, [x29, -32]
ldr	x1, [x1, x1, lsl 3]
str	x1, [x29, -48]
ldr	x0, [x29, -48]
ldr	x1, [x29, -48]
ldr	x0, [x0, x0, lsl 3]
str	x1, [x29, -24]
ldr	w0, [x29, -32]
add	w0, w0, 1
str	w0, [x29, -32]
b	.L8
.L63:
ldr	x1, [x29, -48]
ldr	x0, [x29, -56]
ldrsw	x1, [x29, -32]
ldr	x1, [x1, x1, lsl 3]
str	x1, [x29, -48]
ldr	x2, [x29, -48]
ldr	x0, [x29, -16]
ldr	x1, [x2, x2, lsl 3]
str	x1, [x29, -24]
ldr	w0, [x29, -32]
add	w0, w0, 1
str	w0, [x29, -32]
ldr	x2, [x29, -8]
ldr	x0, [x29, -48]
ldr	x1, [x2, x0, lsl 3]
str	x1, [x29, -8]
ldr	w0, [x29, -32]
add	w0, w0, 1
str	w0, [x29, -32]
b	.L9
.L64:
ldr	x0, [x29, -64]
ldp	x19, x20, [sp, 16]
ldr	x21, [sp, 32]
add	sp, sp, 48
.cfi_restore 21
.cfi_restore 19
.cfi_restore 20
.cfi_def_cfa_offset 0
ret
.L47:
ldr	x0, [x29, -16]
ldr	x1, [x29, -40]
ldrsw	x0, [x29, -32]
ldr	x1, [x1, x0, lsl 3]
str	x1, [x29, -48]
ldr	x0, [x29, -48]
ldr	x1, [x29, -16]
ldr	x0, [x0, x0, lsl 3]
str	x1, [x29, -24]
ldr	w0, [x29, -32]
add	w0, w0, 1
str	w0, [x29, -32]
b	.L9
.L65:
ldr	x1, [x29, -48]
ldr	x0, [x29, -64]
ldrsw	x1, [x29, -32]
ldr	x1, [x1, x1, lsl 3]
str	x1, [x29, -48]
ldr	x0, [x29, -48]
ldr	x1, [x29, -48]
ldr	x0, [x0, x0, lsl 3]
str	x1, [x29, -24]
ldr	w0, [x29, -32]
add	w0, w0, 1
str	w0, [x29, -32]
b	.L8
.L66:
ldr	x1, [x29, -48]
ldr	x0, [x29, -56]
ldrsw	x1, [x29, -32]
ldr	x1, [x1, x1, lsl 3]
str	x1, [x29, -48]
ldr	x2, [x29, -48]
ldr	x0, [x29, -16]
ldr	x1, [x2, x2, lsl 3]
str	x1, [x29, -24]
ldr	w0, [x29, -32]
add	w0, w0, 1
str	w0, [x29, -32]
ldr	x2, [x29, -8]
ldr	x0, [x29, -48]
ldr	x1, [x2, x0, lsl 3]
str	x1, [x29, -8]
ldr	w0, [x29, -32]
add	w0, w0, 1
str	w0, [x29, -32]
b	.L9
.L67:
ldr	x0, [x29, -64]
ldp	x19, x20, [sp, 16]
ldr	x21, [sp, 32]
add	sp, sp, 48
.cfi_restore 21
.cfi_restore 19
.cfi_restore 20
.cfi_def_cfa_offset 0
ret
.L51:
ldr	x0, [x29, -16]
ldr	x1, [x29, -40]
ldrsw	x0, [x29, -32]
ldr	x1, [x1, x0, lsl 3]
str	x1, [x29, -48]
ldr	x0, [x29, -48]
ldr	x1, [x29, -16]
ldr	x0, [x0, x0, lsl 3]
str	x1, [x29, -24]
ldr	w0, [x29, -32]
add	w0, w0, 1
str	w0, [x29, -32]
b	.L9
.L68:
ldr	x1, [x29, -48]
ldr	x0, [x29, -64]
ldrsw	x1, [x29, -32]
ldr	x1, [x1, x1, lsl 3]
str	x1, [x29, -48]
ldr	x0, [x29, -48]
ldr	x1, [x29, -48]
ldr	x0, [x0, x0, lsl 3]
str	x1, [x29, -24]
ldr	w0, [x29, -32]
add	w0, w0, 1
str	w0, [x29, -32]
b	.L8
.L69:
ldr	x1, [x29, -48]
ldr	x0, [x29, -56]
ldrsw	x1, [x29, -32]
ldr	x1, [x1, x1, lsl 3]
str	x1, [x29, -48]
ldr	x2, [x29, -48]
ldr	x0, [x29, -16]
ldr	x1, [x2, x2, lsl 3]
str	x1, [x29, -24]
ldr	w0, [x29, -32]
add	w0, w0, 1
str	w0, [x29, -32]
ldr	x2, [x29, -8]
ldr	x0, [x29, -48]
ldr	x1, [x2, x0, lsl 3]
str	x1, [x29, -8]
ldr	w0, [x29, -32]
add	w0, w0, 1
str	w0, [x29, -32]
b	.L9
.L70:
ldr	x0, [x29, -64]
ldp	x19, x20, [sp, 16]
ldr	x21, [sp, 32]
add	sp, sp, 48
.cfi_restore 21
.cfi_restore 19
.cfi_restore 20
.cfi_def_cfa_offset 0
ret
.L44:
ldr	x0, [x29, -16]
ldr	x1, [x29, -40]
ldrsw	x0, [x29, -32]
ldr	x1, [x1, x0, lsl 3]
str	x1, [x29, -48]
ldr	x0, [x29, -48]
ldr	x1, [x29, -16]
ldr	x0, [x0, x0, lsl 3]
str	x1, [x29, -24]
ldr	w0, [x29, -32]
add	w0, w0, 1
str	w0, [x29, -32]
b	.L9
.L71:
ldr	x1, [x29, -48]
ldr	x0, [x29, -64]
ldrsw	x1, [x29, -32]
ldr	x1, [x1, x1, lsl 3]
str	x1, [x29, -48]
ldr	x0, [x29, -48]
ldr	x1, [x29, -48]
ldr	x0, [x0, x0, lsl 3]
str	x1, [x29, -24]
ldr	w0, [x29, -32]
add	w0, w0, 1
str	w0, [x29, -32]
b	.L8
.L72:
ldr	x1, [x29, -48]
ldr	x0, [x29, -64]
ldrsw	x1, [x29, -32]
ldr	x1, [x1, x1, lsl 3]
str	x1, [x29, -48]
ldr	x0, [x29, -48]
ldr	x1, [x29, -48]
ldr	x0, [x0, x0, lsl 3]
str	x1, [x29, -24]
ldr	w0, [x29, -32]
add	w0, w0, 1
str	w0, [x29, -32]
b	.L9
.L73:
ldr	x0, [x29, -64]
ldp	x19, x20, [sp, 16]
ldr	x21, [sp, 32]
add	sp, sp, 48
.cfi_restore 21
.cfi_restore 19
.cfi_restore 20
.cfi_def_cfa_offset 0
ret
.L49:
ldr	x0, [x29, -16]
ldr	x1, [x29, -40]
ldrsw	x0, [x29, -32]
ldr	x1, [x1, x0, lsl 3]
str	x1, [x29, -48]
ldr	x0, [x29, -48]
ldr	x1, [x29, -16]
ldr	x0, [x0, x0, lsl 3]
str	x1, [x29, -24]
ldr	w0, [x29, -32]
add	w0, w0, 1
str	w0, [x29, -32]
b	.L9
.L74:
ldr	x1, [x29, -48]
ldr	x0, [x29, -64]
ldrsw	x1, [x29, -32]
ldr	x1, [x1, x1, lsl 3]
str	x1, [x29, -48]
ldr	x0, [x29, -48]
ldr	x1, [x29, -48]
ldr	x0, [x0, x0, lsl 3]
str	x1, [x29, -24]
ldr	w0, [x29, -32]
add	w0, w0, 1
str	w0, [x29, -32]
b	.L8
.L75:
ldr	x1, [x29, -48]
ldr	x0, [x29, -64]
ldrsw	x1, [x29, -32]
ldr	x1, [x1, x1, lsl 3]
str	x1, [x29, -48]
ldr	x0, [x29, -48]
ldr	x1, [x29, -48]
ldr	x0, [x0, x0, lsl 3]
str	x1, [x29, -24]
ldr	w0, [x29, -32]
add	w0, w0, 1
str	w0, [x29, -32]
b	.L9
.L76:
ldr	x0, [x29, -64]
ldp	x19, x20, [sp, 16]
ldr	x21, [sp, 32]
add	sp, sp, 48
.cfi_restore 21
.cfi_restore 19
.cfi_restore 20
.cfi_def_cfa_offset 0
ret
.L38:
ldr	x0, [x29, -16]
ldr	x1, [x29, -40]
ldrsw	x0, [x29, -32]
ldr	x1, [x1, x0, lsl 3]
str	x1, [x29, -48]
ldr	x0, [x29, -48]
ldr	x1, [x29, -16]
ldr	x0, [x0, x0, lsl 3]
str	x1, [x29, -24]
ldr	w0, [x29, -32]
add	w0, w0, 1
str	w0, [x29, -32]
b	.L9
.L77:
ldr	x1, [x29, -48]
ldr	x0, [x29, -64]
ldrsw	x1, [x29, -32]
ldr	x1, [x1, x1, lsl 3]
str	x1, [x29, -48]
ldr	x0, [x29, -48]
ldr	x1, [x29, -48]
ldr	x0, [x0, x0, lsl 3]
str	x1, [x29, -24]
ldr	w0, [x29, -32]
add	w0, w0, 1
str	w0, [x29, -32]
b	.L8
.L78:
ldr	x1, [x29, -48]
ldr	x0, [x29, -64]
ldrsw	x1, [x29, -32]
ldr	x1, [x1, x1, lsl 3]
str	x1, [x29, -48]
ldr	x0, [x29, -48]
ldr	x1, [x29, -48]
ldr	x0, [x0, x0, lsl 3]
str	x1, [x29, -24]
ldr	w0, [x29, -32]
add	w0, w0, 1
str	w0, [x29, -32]
b	.L9
.L79:
ldr	x0, [x29, -64]
ldp	x19, x20, [sp, 16]
ldr	x21, [sp, 32]
add	sp, sp, 48
.cfi_restore 21
.cfi_restore 19
.cfi_restore 20
.cfi_def_cfa_offset 0
ret
.L44:
ldr	x0, [x29, -16]
ldr	x1, [x29, -40]
ldrsw	x0, [x29, -32]
ldr	x1, [x1, x0, lsl 3]
str	x1, [x29, -48]
ldr	x0, [x29, -48]
ldr	x1, [x29, -16]
ldr	x0, [x0, x0, lsl 3]
str	x1, [x29, -24]
ldr	w0, [x29, -32]
add	w0, w0, 1
str	w0, [x29, -32]
b	.L9
.L80:
ldr	x1, [x29, -48]
ldr	x0, [x29, -64]
ldrsw	x1, [x29, -32]
ldr	x1, [x1, x1, lsl 3]
str	x1, [x29, -48]
ldr	x0, [x29, -48]
ldr	x1, [x29, -48]
ldr	x0, [x0, x0, lsl 3]
str	x1, [x29, -24]
ldr	w0, [x29, -32]
add	w0, w0, 1
str	w0, [x29, -32]
b	.L8
.L81:
ldr	x1, [x29, -48]
ldr	x0, [x29, -64]
ldrsw	x1, [x29, -32]
ldr	x1, [x1, x1, lsl 3]
str	x1, [x29, -48]
ldr	x0, [x29, -48]
ldr	x1, [x29, -48]
ldr	x0, [x0, x0, lsl 3]
str	x1, [x29, -24]
ldr	w0, [x29, -32]
add	w0, w0, 1
str	w0, [x29, -32]
b	.L8
.L82:
ldr	x0, [x29, -64]
ldp	x19, x20, [sp, 16]
ldr	x21, [sp, 32]
add	sp, sp, 48
.cfi_restore 21
.cfi_restore 19
.cfi_restore 20
.cfi_def_cfa_offset 0
ret
.L49:
ldr	x0, [x29, -16]
ldr	x1, [x29, -40]
ldrsw	x0, [x29, -32]
ldr	x1, [x1, x0, lsl 3]
str	x1, [x29, -48]
ldr	x0, [x29, -48]
ldr	x1, [x29, -16]
ldr	x0, [x0, x0, lsl 3]
str	x1, [x29, -24]
ldr	w0, [x29, -32]
add	w0, w0, 1
str	w0, [x29, -32]
b	.L9
.L83:
ldr	x1, [x29, -48]
ldr	x0, [x29, -64]
ldrsw	x1, [x29, -32]
ldr	x1, [x1, x1, lsl 3]
str	x1, [x29, -48]
ldr	x0, [x29, -48]
ldr	x1, [x29, -48]
ldr	x0, [x0, x0, lsl 3]
str	x1, [x29, -24]
ldr	w0, [x29, -32]
add	w0, w0, 1
str	w0, [x29, -32]
b	.L8
.L84:
ldr	x0, [x29, -64]
ldp	x19, x20, [sp, 16]
ldr	x21, [sp, 32]
add	sp, sp, 48
.cfi_restore 21
.cfi_restore 19
.cfi_restore 20
.cfi_def_cfa_offset 0
ret
.L51:
ldr	x0, [x29, -16]
ldr	x1, [x29, -40]
ldrsw	x0, [x29, -32]
ldr	x1, [x1, x0, lsl 3]
str	x1, [x29, -48]
ldr	x0, [x29, -48]
ldr	x1, [x29, -16]
ldr	x0, [x0, x0, lsl 3]
str	x1, [x29, -24]
ldr	w0, [x29, -32]
add	w0, w0, 1
str	w0, [x29, -32]
b	.L9
.L85:
ldr	x1, [x29, -48]
ldr	x0, [x29, -64]
ldrsw	x1, [x29, -32]
ldr	x1, [x1, x1, lsl 3]
str	x1, [x29, -48]
ldr	x0, [x29, -48]
ldr	x1, [x29, -48]
ldr	x0, [x0, x0, lsl 3]
str	x1, [x29, -24]
ldr	w0, [x29, -32]
add	w0, w0, 1
str	w0, [x29, -32]
b	.L8
.L86:
ldr	x0, [x29, -64]
ldp	x19, x20, [sp, 16]
ldr	x21, [sp, 32]
add	sp, sp, 48
.cfi_restore 21
.cfi_restore 19
.cfi_restore 20
.cfi_def_cfa_offset 0
ret
.L51:
ldr	x0, [x29, -16]
ldr	x1, [x29, -40]
ldrsw	x0, [x29, -32]
ldr	x1, [x1, x0, lsl 3]
str	x1, [x29, -48]
ldr	x0, [x29, -48]
ldr	x1, [x29, -16]
ldr	x0, [x0, x0, lsl 3]
str	x1, [x29, -24]
ldr	w0, [x29, -32]
add	w0, w0, 1
str	w0, [x29, -32]
b	.L9
.L87:
ldr	x1, [x29, -48]
ldr	x0, [x29, -64]
ldrsw	x1, [x29, -32]
ldr	x1, [x1, x1, lsl 3]
str	x1, [x29, -48]
ldr	x0, [x29, -48]
ldr	x1, [x29, -48]
ldr	x0, [x0, x0, lsl 3]
str	x1, [x29, -24]
ldr	w0, [x29, -32]
add	w0, w0, 1
str	w0, [x29, -32]
b	.L8
.L88:
ldr	x0, [x29, -64]
ldp	x19, x20, [sp, 16]
ldr	x21, [sp, 32]
add	sp, sp, 48
.cfi_restore 21
.cfi_restore 19
.cfi_restore 20
.cfi_def_cfa_offset 0
ret
.L36:
ldr	x0, [x29, -16]
ldr	x1, [x29, -40]
ldrsw	x0, [x29, -32]
ldr	x1, [x1, x0, lsl 3]
str	x1, [x29, -48]
ldr	x0, [x29, -48]
ldr	x1, [x29, -16]
ldr	x0, [x0, x0, lsl 3]
str	x1, [x29, -24]
ldr	w0, [x29, -32]
add	w0, w0, 1
str	w0, [x29, -32]
b	.L9
.L89:
ldr	x1, [x29, -48]
ldr	x0, [x29, -64]
ldrsw	x1, [x29, -32]
ldr	x1, [x1, x1, lsl 3]
str	x1, [x29, -48]
ldr	x0, [x29, -48]
ldr	x1, [x29, -48]
ldr	x0, [x0, x0, lsl 3]
str	x1, [x29, -24]
ldr	w0, [x29, -32]
add	w0, w0, 1
str	w0, [x29, -32]
b	.L8
.L90:
ldr	x0, [x29, -64]
ldp	x19, x20, [sp, 16]
ldr	x21, [sp, 32]
add	sp, sp, 48
.cfi_restore 21
.cfi_restore 19
.cfi_restore 20
.cfi_def_cfa_offset 0
ret
.L56:
ldr	x0, [x29, -16]
ldr	x1, [x29, -40]
ldrsw	x0, [x29, -32]
ldr	x1, [x1, x0, lsl 3]
str	x1, [x29, -48]
ldr	x0, [x29, -48]
ldr	x1, [x29, -16]
ldr	x0, [x0, x0, lsl 3]
str	x1, [x29, -24]
ldr	w0, [x29, -32]
add	w0, w0, 1
str	w0, [x29, -32]
b	.L9
.L91:
ldr	x1, [x29, -48]
ldr	x0, [x29, -64]
ldrsw	x1, [x29, -32]
ldr	x1, [x1, x1, lsl 3]
str	x1, [x29, -48]
ldr	x0, [x29, -48]
ldr	x1, [x29, -48]
ldr	x0, [x0, x0, lsl 3]
str	x1, [x29, -24]
ldr	w0, [x29, -32]
add	w0, w0, 1
str	w0, [x29, -32]
b	.L8
.L92:
ldr	x0, [x29, -64]
ldp	x19, x20, [sp, 16]
ldr	x21, [sp, 32]
add	sp, sp, 48
.cfi_restore 21
.cfi_restore 19
.cfi_restore 20
.cfi_def_cfa_offset 0
ret
.L51:
ldr	x0, [x29, -16]
ldr	x1, [x29, -40]
ldrsw	x0, [x29, -32]
ldr	x1, [x1, x0, lsl 3]
str	x1, [x29, -48]
ldr	x0, [x29, -48]
ldr	x1, [x29, -16]
ldr	x0, [x0, x0, lsl 3]
str	x1, [x29, -24]
ldr	w0, [x29, -32]
add	w0, w0, 1
str	w0, [x29, -32]
b	.L9
.L93:
ldr	x1, [x29, -48]
ldr	x0, [x29, -64]
ldrsw	x1, [x29, -32]
ldr	x1, [x1, x1, lsl 3]
str	x1, [x29, -48]
ldr	x0, [x29, -48]
ldr	x1, [x29, -48]
ldr	x0, [x0, x0, lsl 3]
str	x1, [x29, -24]
ldr	w0, [x29, -32]
add	w0, w0, 1
str	w0, [x29, -32]
b	.L8
.L94:
ldr	x0, [x29, -64]
ldp	x19, x20, [sp, 16]
ldr	x21, [sp, 32]
add	sp, sp, 48
.cfi_restore 21
.cfi_restore 19
.cfi_restore 20
.cfi_def_cfa_offset 0
ret
.L56:
ldr	x0, [x29, -16]
ldr	x1, [x29, -40]
ldrsw	x0, [x29, -32]
ldr	x1, [x1, x0, lsl 3]
str	x1, [x29, -48]
ldr	x0, [x29, -48]
ldr	x1, [x29, -16]
ldr	x0, [x0, x0, lsl 3]
str	x1, [x29, -24]
ldr	w0, [x29, -32]
add	w0, w0, 1
str	w0, [x29, -32]
b	.L9
.L95:
ldr	x1, [x29, -48]
ldr	x0, [x29, -64]
ldrsw	x1, [x29, -32]
ldr	x1, [x1, x1, lsl 3]
str	x1, [x29, -48]
ldr	x0, [x29, -48]
ldr	x1, [x29, -48]
ldr	x0, [x0, x0, lsl 3]
str	x1, [x29, -24]
ldr	w0, [x29, -32]
add	w0, w0, 1
str	w0, [x29, -32]
b	.L8
.L96:
ldr	x0, [x29, -64]
ldp	x19, x20, [sp, 16]
ldr	x21, [sp, 32]
add	sp, sp, 48
.cfi_restore 21
.cfi_restore 19
.cfi_restore 20
.cfi_def_cfa_offset 0
ret
.L44:
ldr	x0, [x29, -16]
ldr	x1, [x29, -40]
ldrsw	x0, [x29, -32]
ldr	x1, [x1, x0, lsl 3]
str	x1, [x29, -48]
ldr	x0, [x29, -48]
ldr	x1, [x29, -16]
ldr	x0, [x0, x0, lsl 3]
str	x1, [x29, -24]
ldr	w0, [x29, -32]
add	w0, w0, 1
str	w0, [x29, -32]
b	.L9
.L97:
ldr	x1, [x29, -48]
ldr	x0, [x29, -64]
ldrsw	x1, [x29, -32]
ldr	x1, [x1, x1, lsl 3]
str	x1, [x29, -48]
ldr	x0, [x29, -48]
ldr	x1, [x29, -48]
ldr	x0, [x0, x0, lsl 3]
str	x1, [x29, -24]
ldr	w0, [x29, -32]
add	w0, w0, 1
str	w0, [x29, -32]
b	.L8
.L98:
ldr	x0, [x29, -64]
ldp	x19, x20, [sp, 16]
ldr	x21, [sp, 32]
add	sp, sp, 48
.cfi_restore 21
.cfi_restore 19
.cfi_restore 20
.cfi_def_cfa_offset 0
ret
.L51:
ldr	x0, [x29, -16]
ldr	x1, [x29, -40]
ldrsw	x0, [x29, -32]
ldr	x1, [x1, x0, lsl 3]
str	x1, [x29, -48]
ldr	x0, [x29, -48]
ldr	x1, [x29, -16]
ldr	x0, [x0, x0, lsl 3]
str	x1, [x29, -24]
ldr	w0, [x29, -32]
add	w0, w0, 1
str	w0, [x29, -32]
b	.L9
.L99:
ldr	x1, [x29, -48]
ldr	x0, [x29, -64]
ldrsw	x1, [x29, -32]
ldr	x1, [x1, x1, lsl 3]
str	x1, [x29, -48]
ldr	x0, [x29, -48]
ldr	x1, [x29, -48]
ldr	x0, [x0, x0, lsl 3]
str	x1, [x29, -24]
ldr	w0, [x29, -32]
add	w0, w0, 1
str	w0, [x29, -32]
b	.L8
.L100:
ldr	x0, [x29, -64]
ldp	x19, x20, [sp, 16]
ldr	x21, [sp, 32]
add	sp, sp, 48
.cfi_restore 21
.cfi_restore 19
.cfi_restore 20
.cfi_def_cfa_offset 0
ret
.L39:
ldr	x0, [x29, -16]
ldr	x1, [x29, -40]
ldrsw	x0, [x29, -32]
ldr	x1, [x1, x0, lsl 3]
str	x1, [x29, -48]
ldr	x0, [x29, -48]
ldr	x1, [x29, -16]
ldr	x0, [x0, x0, lsl 3]
str	x1, [x29, -24]
ldr	w0, [x29, -32]
add	w0, w0, 1
str	w0, [x29, -32]
b	.L9
.L101:
ldr	x1, [x29, -48]
ldr	x0, [x29, -64]
ldrsw	x1, [x29, -32]
ldr	x1, [x1, x1, lsl 3]
str	x1, [x29, -48]
ldr	x0, [x29, -48]
ldr	x1, [x29, -48]
ldr	x0, [x0, x0, lsl 3]
str	x1, [x29, -24]
ldr	w0, [x29, -32]
add	w0, w0, 1
str	w0, [x29, -32]
b	.L8
.L102:
ldr	x0, [x29, -64]
ldp	x19, x20, [sp, 16]
ldr	x21, [sp, 32]
add	sp, sp, 48
.cfi_restore 21
.cfi_restore 19
.cfi_restore 20
.cfi_def_cfa_offset 0
ret
.L36:
ldr	x0, [x29, -16]
ldr	x1, [x29, -40]
ldrsw	x0, [x29, -32]
ldr	x1, [x1, x0, lsl 3]
str	x1, [x29, -48]
ldr	x0, [x29, -48]
ldr	x1, [x29, -16]
ldr	x0, [x0, x0, lsl 3]
str	x1, [x29, -24]
ldr	w0, [x29, -32]
add	w0, w0, 1
str	w0, [x29, -32]
b	.L9
.L103:
ldr	x1, [x29, -48]
ldr	x0, [x29, -64]
ldrsw	x1, [x29, -32]
ldr	x1, [x1, x1, lsl 3]
str	x1, [x29, -48]
ldr	x0, [x29, -48]
ldr	x1, [x29, -48]
ldr	x0, [x0, x0, lsl 3]
str	x1, [x29, -24]
ldr	w0, [x29, -32]
add	w0, w0, 1
str	w0, [x29, -32]
b	.L8
.L104:
ldr	x0, [x29, -64]
ldp	x19, x20, [sp, 16]
ldr	x21, [sp, 32]
add	sp, sp, 48
.cfi_restore 21
.cfi_restore 19
.cfi_restore 20
.cfi_def_cfa_offset 0
ret
.L44:
ldr	x0, [x29, -16]
ldr	x1, [x29, -40]
ldrsw	x0, [x29, -32]
ldr	x1, [x1, x0, lsl 3]
str	x1, [x29, -48]
ldr	x0, [x29, -48]
ldr	x1, [x29, -16]
ldr	x0, [x0, x0, lsl 3]
str	x1, [x29, -24]
ldr	w0, [x29, -32]
add	w0, w0, 1
str	w0, [x29, -32]
b	.L9
.L105:
ldr	x1, [x29, -48]
ldr	x0, [x29, -64]
ldrsw	x1, [x29, -32]
ldr	x1, [x1, x1, lsl 3]
str	x1, [x29, -48]
ldr	x0, [x29, -48]
ldr	x1, [x29, -48]
ldr	x0, [x0, x0, lsl 3]
str	x1, [x29, -24]
ldr	w0, [x29, -32]
add	w0, w0, 1
str	w0, [x29, -32]
b	.L8
.L106:
ldr	x0, [x29, -64]
ldp	x19, x20, [sp, 16]
ldr	x21, [sp, 32]
add	sp, sp, 48
.cfi_restore 21
.cfi_restore 19
.cfi_restore 20
.cfi_def_cfa_offset 0
ret
.L49:
ldr	x0, [x29, -16]
ldr	x1, [x29, -40]
ldrsw	x0, [x29, -32]
ldr	x1, [x1, x0, lsl 3]
str	x1, [x29, -48]
ldr	x0, [x29, -48]
ldr	x1, [x29, -16]
ldr	x0, [x0, x0, lsl 3]
str	x1, [x29, -24]
ldr	w0, [x29, -32]
add	w0, w0, 1
str	w0, [x29, -32]
b	.L9
.L107:
ldr	x1, [x29, -48]
ldr	x0, [x29, -64]
ldrsw	x1, [x29, -32]
ldr	x1, [x1, x1, lsl 3]
str	x1, [x29, -48]
ldr	x0, [x29, -48]
ldr	x1, [x29, -48]
ldr	x0, [x0, x0, lsl 3]
str	x1, [x29, -24]
ldr	w0, [x29, -32]
add	w0, w0, 1
str	w0, [x29, -32]
b	.L8
.L108:
ldr	x0, [x29, -64]
ldp	x19, x20, [sp, 16]
ldr	x21, [sp, 32]
add	sp, sp, 48
.cfi_restore 21
.cfi_restore 19
.cfi_restore 20
.cfi_def_cfa_offset 0
ret
.L51:
ldr	x0, [x29, -16]
ldr	x1, [x29, -40]
ldrsw	x0, [x29, -32]
ldr	x1, [x1, x0, lsl 3]
str	x1, [x29, -48]
ldr	x0, [x29, -48]
ldr	x1, [x29, -16]
ldr	x0, [x0, x0, lsl 3]
str	x1, [x29, -24]
ldr	w0, [x29, -32]
add	w0, w0, 1
str	w0, [x29, -32]
b	.L9
.L109:
ldr	x1, [x29, -48]
ldr	x0, [x29, -64]
ldrsw	x1, [x29, -32]
ldr	x1, [x1, x1, lsl 3]
str	x1, [x29, -48]
ldr	x0, [x29, -48]
ldr	x1, [x29, -48]
ldr	x0, [x0, x0, lsl 3]
str	x1, [x29, -24]
ldr	w0, [x29, -32]
add	w0, w0, 1
str	w0, [x29, -32]
b	.L8
.L110:
ldr	x0, [x29, -64]
ldp	x19, x20, [sp, 16]
ldr	x21, [sp, 32]
add	sp, sp, 48
.cfi_restore 21
.cfi_restore 19
.cfi_restore 20
.cfi_def_cfa_offset 0
ret
.L56:
ldr	x0, [x29, -16]
ldr	x1, [x29, -40]
ldrsw	x0, [x29, -32]
ldr	x1, [x1, x0, lsl 3]
str	x1, [x29, -48]
ldr	x0, [x29, -48]
ldr	x1, [x29, -16]
ldr	x0, [x0, x0, lsl 3]
str	x1, [x29, -24]
ldr	w0, [x29, -32]
add	w0, w0, 1
str	w0, [x29, -32]
b	.L9
.L111:
ldr	x1, [x29, -48]
ldr	x0, [x29, -64]
ldrsw	x1, [x29, -32]
ldr	x1, [x1, x1, lsl 3]
str	x1, [x29, -48]
ldr	x0, [x29, -48]
ldr	x1, [x29, -48]
ldr	x0, [x0, x0, lsl 3]
str	x1, [x29, -24]
ldr	w0, [x29, -32]
add	w0, w0, 1
str	w0, [x29, -32]
b	.L8
.L112:
ldr	x0, [x29, -64]
ldp	x19, x20, [sp, 16]
ldr	x21, [sp, 32]
add	sp, sp, 48
.cfi_restore 21
.cfi_restore 19
.cfi_restore 20
.cfi_def_cfa_offset 0
ret
.L49:
ldr	x0, [x29, -16]
ldr	x1, [x29, -40]
ldrsw	x0, [x29, -32]
ldr	x1, [x1, x0, lsl 3]
str	x1, [x29, -48]
ldr	x0, [x29, -48]
ldr	x1, [x29, -16]
ldr	x0, [x0, x0, lsl 3]
str	x1, [x29, -24]
ldr	w0, [x29, -32]
add	w0, w0, 1
str	w0, [x29, -32]
b	.L9
.L113:
ldr	x1, [x29, -48]
ldr	x0, [x29, -64]
ldrsw	x1, [x29, -32]
ldr	x1, [x1, x1, lsl 3]
str	x1, [x29, -48]
ldr	x0, [x29, -48]
ldr	x1, [x29, -48]
ldr	x0, [x0, x0, lsl 3]
str	x1, [x29, -24]
ldr	w0, [x29, -32]
add	w0, w0, 1
str	w0, [x29, -32]
b	.L8
.L114:
ldr	x0, [x29, -64]
ldp	x19, x20, [sp, 16]
ldr	x21, [sp, 32]
add	sp, sp, 48
.cfi_restore 21
.cfi_restore 19
.cfi_restore 20
.cfi_def_cfa_offset 0
ret
.L56:
ldr	x0, [x29, -16]
ldr	x1, [x29, -40]
ldrsw	x0, [x29, -32]
ldr	x1, [x1, x0, lsl 3]
str	x1, [x29, -48]
ldr	x0, [x29, -48]
ldr	x1, [x29, -16]
ldr	x0, [x0, x0, lsl 3]
str	x1, [x29, -24]
ldr	w0, [x29, -32]
add	w0, w0, 1
str	w0, [x29, -32]
b	.L9
.L115:
ldr	x1, [x29, -48]
ldr	x0, [x29, -64]
ldrsw	x1, [x29, -32]
ldr	x1, [x1, x1, lsl 3]
str	x1, [x29, -48]
ldr	x0, [x29, -48]
ldr	x1, [x29, -48]
ldr	x0, [x0, x0, lsl 3]
str	x1, [x29, -24]
ldr	w0, [x29, -32]
add	w0, w0, 1
str	w0, [x29, -32]
b	.L8
.L116:
ldr	x0, [x29, -64]
ldp	x19, x20, [sp, 16]
ldr	x21, [sp, 32]
add	sp, sp, 48
.cfi_restore 21
.cfi_restore 19
.cfi_restore 20
.cfi_def_cfa_offset 0
ret
.L44:
ldr	x0, [x29, -16]
ldr	x1, [x29, -40]
ldrsw	x0, [x29, -32]
ldr	x1, [x1, x0, lsl 3]
str	x1, [x29, -48]
ldr	x0, [x29, -48]
ldr	x1, [x29, -16]
ldr	x0, [x0, x0, lsl 3]
str	x1, [x29, -24]
ldr	w0, [x29, -32]
add	w0, w0, 1
str	w0, [x29, -32]
b	.L9
.L117:
ldr	x1, [x29, -48]
ldr	x0, [x29, -64]
ldrsw	x1, [x29, -32]
ldr	x1, [x1, x1, lsl 3]
str	x1, [x29, -48]
ldr	x0, [x29, -48]
ldr	x1, [x29, -48]
ldr	x0, [x0, x0, lsl 3]
str	x1, [x29, -24]
ldr	w0, [x29, -32]
add	w0, w0, 1
str	w0, [x29, -32]
b	.L8
.L118:
ldr	x0, [x29, -64]
ldp	x19, x20, [sp, 16]
ldr	x21, [sp, 32]
add	sp, sp, 48
.cfi_restore 21
.cfi_restore 19
.cfi_restore 20
.cfi_def_cfa_offset 0
ret
.L36:
ldr	x0, [x29, -16]
ldr	x1, [x29, -40]
ldrsw	x0, [x29, -32]
ldr	x1, [x1, x0, lsl 3]
str	x1, [x29, -48]
ldr	x0, [x29, -48]
ldr	x1, [x29, -16]
ldr	x0, [x0, x0, lsl 3]
str	x1, [x29, -24]
ldr	w0, [x29, -32]
add	w0, w0, 1
str	w0, [x29, -32]
b	.L9
.L119:
ldr	x1, [x29, -48]
ldr	x0, [x29, -64]
ldrsw	x1, [x29, -32]
ldr	x1, [x1, x1, lsl 3]
str	x1, [x29, -48]
ldr	x0, [x29, -48]
ldr	x1, [x29, -48]
ldr	x0, [x0, x0, lsl 3]
str	x1, [x29, -24]
ldr	w0, [x29, -32]
add	w0, w0, 1
str	w0, [x29, -32]
b	.L8
.L120:
ldr	x0, [x29, -64]
ldp	x19, x20, [sp, 16]
ldr	x21, [sp, 32]
add	sp, sp, 48
.cfi_restore 21
.cfi_restore 19
.cfi_restore 20
.cfi_def_cfa_offset 0
ret
.L51:
ldr	x0, [x29, -16]
ldr	x1, [x29, -40]
ldrsw	x0, [x29, -32]
ldr	x1, [x1, x0, lsl 3]
str	x1, [x29, -48]
ldr	x0, [x29, -48]
ldr	x1, [x29, -16]
ldr	x0, [x0, x0, lsl 3]
str	x1, [x29, -24]
ldr	w0, [x29, -32]
add	w0, w0, 1
str	w0, [x29, -32]
b	.L9
.L121:
ldr	x1, [x29, -48]
ldr	x0, [x29, -64]
ldrsw	x1, [x29, -32]
ldr	x1, [x1, x1, lsl 3]
str	x1, [x29, -48]
ldr	x0, [x29, -48]
ldr	x1, [x29, -48]
ldr	x0, [x0, x0, lsl 3]
str	x1, [x29, -24]
ldr	w0, [x29, -32]
add	w0, w0, 1
str	w0, [x29, -32]
b	.L8
.L122:
ldr	x0, [x29, -64]
ldp	x19, x20, [sp, 16]
ldr	x21, [sp, 32]
add	sp, sp, 48
.cfi_restore 21
.cfi_restore 19
.cfi_restore 20
.cfi_def_cfa_offset 0
ret
.L51:
ldr	x0, [x29, -16]
ldr	x1, [x29, -40]
ldrsw	x0, [x29, -32]
ldr	x1, [x1, x0, lsl 3]
str	x1, [x29, -48]
ldr	x0, [x29, -48]
ldr	x1, [x29, -16]
ldr	x0, [x0, x0, lsl 3]
str	x1, [x29, -24]
ldr	w0, [x29, -32]
add	w0, w0, 1
str	w0, [x29, -32]
b	.L9
.L123:
ldr	x1, [x29, -48]
ldr	x0, [x29, -64]
ldrsw	x1, [x29, -32]
ldr	x1, [x1, x1, lsl 3]
str	x1, [x29, -48]
ldr	x0, [x29, -48]
ldr	x1, [x29, -48]
ldr	x0, [x0, x0, lsl 3]
str	x1, [x29, -24]
ldr	w0, [x29, -32]
add	w0, w0, 1
str	w0, [x29, -32]
b	.L8
.L124:
ldr	x0, [x29, -64]
ldp	x19, x20, [sp, 16]
ldr	x21, [sp, 32]
add	sp, sp, 48
.cfi_restore 21
.cfi_restore 19
.cfi_restore 20
.cfi_def_cfa_offset 0
ret
.L49:
ldr	x0, [x29, -16]
ldr	x1, [x29, -40]
ldrsw	x0, [x29, -32]
ldr	x1, [x1, x0, lsl 3]
str	x1, [x29, -48]
ldr	x0, [x29, -48]
ldr	x1, [x29, -16]
ldr	x0, [x0, x0, lsl 3]
str	x1, [x29, -24]
ldr	w0, [x29, -32]
add	w0, w0, 1
str	w0, [x29, -32]
b	.L9
.L125:
ldr	x1, [x29, -48]
ldr	x0, [x29, -64]
ldrsw	x1, [x29, -32]
ldr	x1, [x1, x1, lsl 3]
str	x1, [x29, -48]
ldr	x0, [x29, -48]
ldr	x1, [x29, -48]
ldr	x0, [x0, x0, lsl 3]
str	x1, [x29, -24]
ldr	w0, [x29, -32]
add	w0, w0, 1
str	w0, [x29, -32]
b	.L8
.L126:
ldr	x0, [x29, -64]
ldp	x19, x20, [sp, 16]
ldr	x21, [sp, 32]
add	sp, sp, 48
.cfi_restore 21
.cfi_restore 19
.cfi_restore 20
.cfi_def_cfa_offset 0
ret
.L56:
ldr	x0, [x29, -16]
ldr	x1, [x29, -40]
ldrsw	x0, [x29, -32]
ldr	x1, [x1, x0, lsl 3]
str	x1, [x29, -48]
ldr	x0, [x29, -48]
ldr	x1, [x29, -16]
ldr	x0, [x0, x0, lsl 3]
str	x1, [x29, -24]
ldr	w0, [x29, -32]
add	w0, w0, 1
str	w0, [x29, -32]
b	.L9
.L127:
ldr	x1, [x29, -48]
ldr	x0, [x29, -64]
ldrsw	x1, [x29, -32]
ldr	x1, [x1, x1, lsl 3]
str	x1, [x29, -48]
ldr	x0, [x29, -48]
ldr	x1, [x29, -48]
ldr	x0, [x0, x0, lsl 3]
str	x1, [x29, -24]
ldr	w0, [x29, -32]
add	w0, w0, 1
str	w0, [x29, -32]
b	.L8
.L128:
ldr	x0, [x29, -64]
ldp	x19, x20, [sp, 16]
ldr	x21, [sp, 32]
add	sp, sp, 48
.cfi_restore 21
.cfi_restore 19
.cfi_restore 20
.cfi_def_cfa_offset 0
ret
.L44:
ldr	x0, [x29, -16]
ldr	x1, [x29, -40]
ldrsw	x0, [x29, -32]
ldr	x1, [x1, x0, lsl 3]
str	x1, [x29, -48]
ldr	x0, [x29, -48]
ldr	x1, [x29, -16]
ldr	x0, [x0, x0, lsl 3]
str	x1, [x29, -24]
ldr	w0, [x29, -32]
add	w0, w0, 1
str	w0, [x29, -32]
b	.L9
.L129:
ldr	x1, [x29, -48]
ldr	x0, [x29, -64]
ldrsw	x1, [x29, -32]
ldr	x1, [x1, x1, lsl 3]
str	x1, [x29, -48]
ldr	x0, [x29, -48]
ldr	x1, [x29, -48]
ldr	x0, [x0, x0, lsl 3]
str	x1, [x29, -24]
ldr	w0, [x29, -32]
add	w0, w0, 1
str	w0, [x29, -32]
b	.L8
.L130:
ldr	x0, [x29, -64]
ldp	x19, x20, [sp, 16]
ldr	x21, [sp, 32]
add	sp, sp, 48
.cfi_restore 21
.cfi_restore 19
.cfi_restore 20
.cfi_def_cfa_offset 0
ret
.L51:
ldr	x0, [x29, -16]
ldr	x1, [x29, -40]
ldrsw	x0, [x29, -32]
ldr	x1, [x1, x0, lsl 3]
str	x1, [x29, -48]
ldr	x0, [x29, -48]
ldr	x1, [x29, -16]
ldr	x0, [x0, x0, lsl 3]
str	x1, [x29, -24]
ldr	w0, [x29, -32]
add	w0, w0, 1
str	w0, [x29, -32]
b	.L9
.L131:
ldr	x1, [x29, -48]
ldr	x0, [x29, -64]
ldrsw	x1, [x29, -32]
ldr	x1, [x1, x1, lsl 3]
str	x1, [x29, -48]
ldr	x0, [x29, -48]
ldr	x1, [x29, -48]
ldr	x0, [x0, x0, lsl 3]
str	x1, [x29, -24]
ldr	w0, [x29, -32]
add	w0, w0, 1
str	w0, [x29, -32]
b	.L8
.L132:
ldr	x0, [x29, -64]
ldp	x19, x20, [sp, 16]
ldr	x21, [sp, 32]
add	sp, sp, 48
.cfi_restore 21
.cfi_restore 19
.cfi_restore 20
.cfi_def_cfa_offset 0
ret
.L56:
ldr	x0, [x29, -16]
ldr	x1, [x29, -40]
ldrsw	x0, [x29, -32]
ldr	x1, [x1, x0, lsl 3]
str	x1, [x29, -48]
ldr	x0, [x29, -48]
ldr	x1, [x29, -16]
ldr	x0, [x0, x0, lsl 3]
str	x1, [x29, -24]
ldr	w0, [x29, -32]
add	w0, w0, 1
str	w0, [x29, -32]
b	.L9
.L133:
ldr	x1, [x29, -48]
ldr	x0, [x29, -64]
ldrsw	x1, [x29, -32]
ldr	x1, [x1, x1, lsl 3]
str	x1, [x29, -48]
ldr	x0, [x29, -48]
ldr	x1, [x29, -48]
ldr	x0, [x0, x0, lsl 3]
str	x1, [x29, -24]
ldr	w0, [x29, -32]
add	w0, w0, 1
str	w0, [x29, -32]
b	.L8
.L134:
ldr	x0, [x29, -64]
ldp	x19, x20, [sp, 16]
ldr	x21, [sp, 32]
add	sp, sp, 48
.cfi_restore 21
.cfi_restore 19
.cfi_restore 20
.cfi_def_cfa_offset 0
ret
.L49:
ldr	x0, [x29, -16]
ldr	x1, [x29, -40]
ldrsw	x0, [x29, -32]
ldr	x1, [x1, x0, lsl 3]
str	x1, [x29, -48]
ldr	x0, [x29, -48]
ldr	x1, [x29, -16]
ldr	x0, [x0, x0, lsl 3]
str	x1, [x29, -24]
ldr	w0, [x29, -32]
add	w0, w0, 1
str	w0, [x29, -32]
b	.L9
.L135:
ldr	x1, [x29, -48]
ldr	x0, [x29, -64]
ldrsw	x1, [x29, -32]
ldr	x1, [x1, x1, lsl 3]
str	x1, [x29, -48]
ldr	x0, [x29, -48]
ldr	x1, [x29, -48]
ldr	x0, [x0, x0, lsl 3]
str	x1, [x29, -24]
ldr	w0, [x29, -32]
add	w0, w0, 1
str	w0, [x29, -32]
b	.L8
.L136:
ldr	x0, [x29, -64]
ldp	x19, x20, [sp, 16]
ldr	x21, [sp, 32]
add	sp, sp, 48
.cfi_restore 21
.cfi_restore 19
.cfi_restore 20
.cfi_def_cfa_offset 0
ret
.L51:
ldr	x0, [x29, -16]
ldr	x1, [x29, -40]
ldrsw	x0, [x29, -32]
ldr	x1, [x1, x0, lsl 3]
str	x1, [x29, -48]
ldr	x0, [x29, -48]
ldr	x1, [x29, -16]
ldr	x0, [x0, x0, lsl 3]
str	x1, [x29, -24]
ldr	w0, [x29, -32]
add	w0, w0, 1
str	w0, [x29, -32]
b	.L9
.L137:
ldr	x1, [x29, -48]
ldr	x0, [x29, -64]
ldrsw	x1, [x29, -32]
ldr	x1, [x1, x1, lsl 3]
str	x1, [x29, -48]
ldr	x0, [x29, -48]
ldr	x1, [x29, -48]
ldr	x0, [x0, x0, lsl 3]
str	x1, [x29, -24]
ldr	w0, [x29, -32]
add	w0, w0, 1
str	w0, [x29, -32]
b	.L8
.L138:
ldr	x0, [x29, -64]
ldp	x19, x20, [sp, 16]
ldr	x21, [sp, 32]
add	sp, sp, 48
.cfi_restore 21
.cfi_restore 19
.cfi_restore 20
.cfi_def_cfa_offset 0
ret
.L56:
ldr	x0, [x29, -16]
ldr	x1, [x29, -40]
ldrsw	x0, [x29, -32]
ldr	x1, [x1, x0, lsl 3]
str	x1, [x29, -48]
ldr	x0, [x29, -48]
ldr	x1, [x29, -16]
ldr	x0, [x0, x0, lsl 3]
str	x1, [x29, -24]
ldr	w0, [x29, -32]
add	w0, w0, 1
str	w0, [x29, -32]
b	.L9
.L139:
ldr	x1, [x29, -48]
ldr	x0, [x29, -64]
ldrsw	x1, [x29, -32]
ldr	x1, [x1, x1, lsl 3]
str	x1, [x29, -48]
ldr	x0, [x29, -48]
ldr	x1, [x29, -48]
ldr	x0, [x0, x0, lsl 3]
str	x1, [x29, -24]
ldr	w0, [x29, -32]
add	w0, w0, 1
str	w0, [x29, -32]
b	.L8
.L140:
ldr	x0, [x29, -64]
ldp	x19, x20, [sp, 16]
ldr	x21, [sp, 32]
add	sp, sp, 48
.cfi_restore 21
.cfi_restore 19
.cfi_restore 20
.cfi_def_cfa_offset 0
ret
.L44:
ldr	x0, [x29, -16]
ldr	x1, [x29, -40]
ldrsw	x0, [x29, -32]
ldr	x1, [x1, x0, lsl 3]
str	x1, [x29, -48]
ldr	x0, [x29, -48]
ldr	x1, [x29, -16]
ldr	x0, [x0, x0, lsl 3]
str	x1, [x29, -24]
ldr	w0, [x29, -32]
add	w0, w0, 1
str	w0, [x29, -32]
b	.L9
.L141:
ldr	x1, [x29, -48]
ldr	x0, [x29, -64]
ldrsw	x1, [x29, -32]
ldr	x1, [x1, x1, lsl 3]
str	x1, [x29, -48]
ldr	x0, [x29, -48]
ldr	x1, [x29, -48]
ldr	x0, [x0, x0, lsl 3]
str	x1, [x29, -24]
ldr	w0, [x29, -32]
add	w0, w0, 1
str	w0, [x29, -32]
b	.L8
.L142:
ldr	x0, [x29, -64]
ldp	x19, x20, [sp, 16]
ldr	x21, [sp, 32]
add	sp, sp, 48
.cfi_restore 21
.cfi_restore 19
.cfi_restore 20
.cfi_def_cfa_offset 0
ret
.L51:
ldr	x0, [x29, -16]
ldr	x1, [x29, -40]
ldrsw	x0, [x29, -32]
ldr	x1, [x1, x0, lsl 3]
str	x1, [x29, -48]
ldr	x0, [x29, -48]
ldr	x1, [x29, -16]
ldr	x0, [x0, x0, lsl 3]
str	x1, [x29, -24]
ldr	w0, [x29, -32]
add	w0, w0, 1
str	w0, [x29, -32]
b	.L9
.L143:
ldr	x1, [x29, -48]
ldr	x0, [x29, -64]
ldrsw	x1, [x29, -32]
ldr	x1, [x1, x1, lsl 3]
str	x1, [x29, -48]
ldr	x0, [x29, -48]
ldr	x1, [x29, -48]
ldr	x0, [x0, x0, lsl 3]
str	x1, [x29, -24]
ldr	w0, [x29, -32]
add	w0, w0, 1
str	w0, [x29, -32]
b	.L8
.L144:
ldr	x0, [x29, -64]
ldp	x19, x20, [sp, 16]
ldr	x21, [sp, 32]
add	sp, sp, 48
.cfi_restore 21
.cfi_restore 19
.cfi_restore 20
.cfi_def_cfa_offset 0
ret
.L56:
ldr	x0, [x29, -16]
ldr	x1, [x29, -40]
ldrsw	x0, [x29, -32]
ldr	x1, [x1, x0, lsl 3]
str	x1, [x29, -48]
ldr	x0, [x29, -48]
ldr	x1, [x29, -16]
ldr	x0, [x0, x0, lsl 3]
str	x1, [x29, -24]
ldr	w0, [x29, -32]
add	w0, w0, 1
str	w0, [x29, -32]
b	.L9
.L145:
ldr	x1, [x29, -48]
ldr	x0, [x29, -64]
ldrsw	x1, [x29, -32]
ldr	x1, [x1, x1, lsl 3]
str	x1, [x29, -48]
ldr	x0, [x29, -48]
ldr	x1, [x29, -48]
ldr	x0, [x0, x0, lsl 3]
str	x1, [x29, -24]
ldr	w0, [x29, -32]
add	w0, w0, 1
str	w0, [x29, -32]
b	.L8
.L146:
ldr	x0, [x29, -64]
ldp	x19, x20, [sp, 16]
ldr	x21, [sp, 32]
add	sp, sp, 48
.cfi_restore 21
.cfi_restore 19
.cfi_restore 20
.cfi_def_cfa_offset 0
ret
.L49:
ldr	x0, [x29, -16]
ldr	x1, [x29, -40]
ldrsw	x0, [x29, -32]
ldr	x1, [x1, x0, lsl 3]
str	x1, [x29, -48]
ldr	x0, [x29, -48]
ldr	x1, [x29, -16]
ldr	x0, [x0, x0, lsl 3]
str	x1, [x29, -24]
ldr	w0, [x29, -32]
add	w0, w0, 1
str	w0, [x29, -32]
b	.L9
.L147:
ldr	x1, [x29, -48]
ldr	x0, [x29, -64]
ldrsw	x1, [x29, -32]
ldr	x1, [x1, x1, lsl 3]
str	x1, [x29, -48]
ldr	x0, [x29, -48]
ldr	x1, [x29, -48]
ldr	x0, [x0, x0, lsl 3]
str	x1, [x29, -24]
ldr	w0, [x29, -32]
add	w0, w0, 1
str	w0, [x29, -32]
b	.L8
.L148:
ldr	x0, [x29, -64]
ldp	x19, x20, [sp, 16]
ldr	x21, [sp, 32]
add	sp, sp, 48
.cfi_restore 21
.cfi_restore 19
.cfi_restore 20
.cfi_def_cfa_offset 0
ret
.L44:
ldr	x0, [x29, -16]
ldr	x1, [x29, -40]
ldrsw	x0, [x29, -32]
ldr	x1, [x1, x0, lsl 3]
str	x1, [x29, -48]
ldr	x0, [x29, -48]
ldr	x1, [x29, -16]
ldr	x0, [x0, x0, lsl 3]
str	x1, [x29, -24]
ldr	w0, [x29, -32]
add	w0, w0, 1
str	w0, [x29, -32]
b	.L9
.L149:
ldr	x1, [x29, -48]
ldr	x0, [x29, -64]
ldrsw	x1, [x29, -32]
ldr	x1, [x1, x1, lsl 3]
str	x1, [x29, -48]
ldr	x0, [x29, -48]
ldr	x1, [x29, -48]
ldr	x0, [x0, x0, lsl 3]
str	x1, [x29, -24]
ldr	w0, [x29, -32]
add	w0, w0, 1
str	w0, [x29, -32]
b	.L8
.L150:
ldr	x0, [x29, -64]
ldp	x19, x20, [sp, 16]
ldr	x21, [sp, 32]
add	sp, sp, 48
.cfi_restore 21
.cfi_restore 19
.cfi_restore 20
.cfi_def_cfa_offset 0
ret
.L51:
ldr	x0, [x29, -16]
ldr	x1, [x29, -40]
ldrsw	x0, [x29, -32]
ldr	x1, [x1, x0, lsl 3]
str	x1, [x29, -48]
ldr	x0, [x29, -48]
ldr	x1, [x29, -16]
ldr	x0, [x0, x0, lsl 3]
str	x1, [x29, -24]
ldr	w0, [x29, -32]
add	w0, w0, 1
str	w0, [x29, -32]
b	.L9
.L151:
ldr	x1, [x29, -48]
ldr	x0, [x29, -64]
ldrsw	x1, [x29, -32]
ldr	x1, [x1, x1, lsl 3]
str	x1, [x29, -48]
ldr	x0, [x29, -48]
ldr	x1, [x29, -48]
ldr	x0, [x0, x0, lsl 3]
str	x1, [x29, -24]
ldr	w0, [x29, -32]
add	w0, w0, 1
str	w0, [x29, -32]
b	.L8
.L152:
ldr	x0, [x29, -64]
ldp	x19, x20, [sp, 16]
ldr	x21, [sp, 32]
add	sp, sp, 48
.cfi_restore 21
.cfi_restore 19
.cfi_restore 20
.cfi_def_cfa_offset 0
ret
.L56:
ldr	x0, [x29, -16]
ldr	x1, [x29, -40]
ldrsw	x0, [x29, -32]
ldr	x1, [x1, x0, lsl 3]
str	x1, [x29, -48]
ldr	x0, [x29, -48]
ldr	x1, [x29, -16]
ldr	x0, [x0, x0, lsl 3]
str	x1, [x29, -24]
ldr	w0, [x29, -32]
add	w0, w0, 1
str	w0, [x29, -32]
b	.L9
.L153:
ldr	x1, [x29, -48]
ldr	x0, [x29, -64]
ldrsw	x1, [x29, -32]
ldr	x1, [x1, x1, lsl 3]
str	x1, [x29, -48]
ldr	x0, [x29, -48]
ldr	x1, [x29, -48]
ldr	x0, [x0, x0, lsl 3]
str	x1, [x29, -24]
ldr	w0, [x29, -32]
add	w0, w0, 1
str	w0, [x29, -32]
b	.L8
.L154:
ldr	x0, [x29, -64]
ldp	x19, x20, [sp, 16]
ldr	x21, [sp, 32]
add	sp, sp, 48
.cfi_restore 21
.cfi_restore 19
.cfi_restore 20
.cfi_def_cfa_offset 0
ret
.L44:
ldr	x0, [x29, -16]
ldr	x1, [x29, -40]
ldrsw	x0, [x29, -32]
ldr	x1, [x1, x0, lsl 3]
str	x1, [x29, -48]
ldr	x0, [x29, -48]
ldr	x1, [x29, -16]
ldr	x0, [x0, x0, lsl 3]
str	x1, [x29, -24]
ldr	w0, [x29, -32]
add	w0, w0, 1
str	w0, [x29, -32]
b	.L9
.L155:
ldr	x1, [x29, -48]
ldr	x0, [x29, -64]
ldrsw	x1, [x29, -32]
ldr	x1, [x1, x1, lsl 3]
str	x1, [x29, -48]
ldr	x0, [x29, -48]
ldr	x1, [x29, -48]
ldr	x0, [x0, x0, lsl 3]
str	x1, [x29, -24]
ldr	w0, [x29, -32]
add	w0, w0, 1
str	w0, [x29, -32]
b	.L8
.L156:
ldr	x0, [x29, -64]
ldp	x19, x20, [sp, 16]
ldr	x21, [sp, 32]
add	sp, sp, 48
.cfi_restore 21
.cfi_restore 19
.cfi_restore 20
.cfi_def_cfa_offset 0
ret
.L51:
ldr	x0, [x29, -16]
ldr	x1, [x29, -40]
ldrsw	x0, [x29, -32]
ldr	x1, [x1, x0, lsl 3]
str	x1, [x29, -48]
ldr	x0, [x29, -48]
ldr	x1, [x29, -16]
ldr	x0, [x0, x0, lsl 3]
str	x1, [x29, -24]
ldr	w0, [x29, -32]
add	w0, w0, 1
str	w0, [x29, -32]
b	.L9
.L157:
ldr	x1, [x29, -48]
ldr	x0, [x29, -64]
ldrsw	x1, [x29, -32]
ldr	x1, [x1, x1, lsl 3]
str	x1, [x29, -48]
ldr	x0, [x29, -48]
ldr	x1, [x29, -48]
ldr	x0, [x0, x0, lsl 3]
str	x1, [x29, -24]
ldr	w0, [x29, -32]
add	w0, w0, 1
str	w0, [x29, -32]
b	.L8
.L158:
ldr	x0, [x29, -64]
ldp	x19, x20, [sp, 16]
ldr	x21, [sp, 32]
add	sp, sp, 48
.cfi_restore 21
.cfi_restore 19
.cfi_restore 20
.cfi_def_cfa_offset 0
ret
.L56:
ldr	x0, [x29, -16]
ldr	x1, [x29, -40]
ldrsw	x0, [x29, -32]
ldr	x1, [x1, x0, lsl 3]
str	x1, [x29, -48]
ldr	x0, [x29, -48]
ldr	x1, [x29, -16]
ldr	x0, [x0, x0, lsl 3]
str	x1, [x29, -24]
ldr	w0, [x29, -32]
add	w0, w0, 1
str	w0, [x29, -32]
b	.L9
.L159:
ldr	x1, [x29, -48]
ldr	x0, [x29, -64]
ldrsw	x1, [x29, -32]
ldr	x1, [x1, x1, lsl 3]
str	x1, [x29, -48]
ldr	x0, [x29, -48]
ldr	x1, [x29, -48]
ldr	x0, [x0, x0, lsl 3]
str	x1, [x29, -24]
ldr	w0, [x29, -32]
add	w0, w0, 1
str	w0, [x29, -32]
b	.L8
.L160:
ldr	x0, [x29, -64]
ldp	x19, x20, [sp, 16]
ldr	x21, [sp, 32]
add	sp, sp, 48
.cfi_restore 21
.cfi_restore 19
.cfi_restore 20
.cfi_def_cfa_offset 0
ret
.L44:
ldr	x0, [x29, -16]
ldr	x1, [x29, -40]
ldrsw	x0, [x29, -32]
ldr	x1, [x1, x0, lsl 3]
str	x1, [x29, -48]
ldr	x0, [x29, -48]
ldr	x1, [x29, -16]
ldr	x0, [x0, x0, lsl 3]
str	x1, [x29, -24]
ldr	w0, [x29, -32]
add	w0, w0, 1
str	w0, [x29, -32]
b	.L9
.L161:
ldr	x1, [x29, -48]
ldr	x0, [