.arch armv8-a
.file "convert_x86_to_arm.asm"
.section __TEXT,__text,regular,pure_instructions
.global	_func0
.align	2
.p2align 4,,11
_func0:                                  ## @func0
    .section	__TEXT,__text,regular,pure_instructions
    .build_version macos, 13, 0	sdk_version 13, 3
    .globl	_func0
    .pp2align 4,,11
_func0:                                 ## @func0
    cset	w3, eq
stp	x29, x30, [sp, -32]!
.cfi_def_cfa_offset 32
.cfi_offset 29, -32
.cfi_offset 30, -24
mov	x29, sp
str	x19, [sp, 16]
.cfi_offset 19, -16
mov	x19, x0
str	w3, [x29, 28]
str	w1, [x29, 32]
str	wzr, [x29, 40]
.LBB0_1:
ldp	w2, w0, [x29, 28]
cmp	w0, w2
bge	LBB0_18
.L2:
ldr	w2, [x29, 28]
add	w2, w2, 1
str	w2, [x29, 36]
.L16:
ldp	w2, w0, [x29, 36]
cmp	w0, w2
blt	L2
.L7:
ldr	x2, [x29, 16]
sxtw	x0, w2
ldr	w1, [x2, x0, lsl 2]
str	w1, [x29, 24]
ldr	x2, [x29, 16]
sxtw	x0, w2
ldr	w1, [x2, x0, lsl 2]
str	w1, [x29, 28]
b	.L16
LBB0_18:
ret
LBB0_19:
ldr	x19, [sp, 16]
ldp	x29, x30, [sp], 32
.cfi_restore 30
.cfi_restore 29
.cfi_restore 19
.cfi_def_cfa_offset 0
ret
LBB0_20:
ldr	x2, [x29, 16]
sxtw	x0, w2
ldr	w1, [x2, x0, lsl 2]
str	wzr, [x29, 24]
str	w1, [x29, 28]
b	.L16
LBB0_21:
ldr	w2, [x29, 24]
ldr	w1, [x29, 28]
and	w2, w2, 1
add	w2, w2, w1
asr	w2, w2, 1
str	w2, [x29, 24]
b	.L16
LBB0_22:
ldr	w2, [x29, 28]
ldr	w1, [x29, 24]
and	w2, w2, 1
add	w2, w2, w1
asr	w2, w2, 1
str	w2, [x29, 28]
b	.L16
LBB0_23:
ldr	w2, [x29, 24]
ldr	w1, [x29, 28]
sub	w2, w2,
and	w2, w2, 1
add	w2, w2, w1
asr	w2, w2, 1
str	w2, [x29, 24]
b	.L16
LBB0_24:
ldr	w2, [x29, 28]
ldr	w1, [x29, 24]
sub	w2, w2,
and	w2, w2, 1
add	w2, w2, w1
asr	w2, w2, 1
str	w2, [x29, 28]
b	.L16
LBB0_25:
ldr	w2, [x29, 28]
ldr	w1, [x29, 36]
add	w2, w2, 1
str	w2, [x29, 36]
b	.L16
LBB0_26:
ldr	x19, [sp, 16]
ldp	x29, x30, [sp], 32
.cfi_restore 30
.cfi_restore 29
.cfi_restore 19
.cfi_def_cfa_offset 0
ret
LBB0_27:
ldr	x19, [sp, 16]
ldp	x29, x30, [sp], 32
.cfi_restore 30
.cfi_restore 29
.cfi_restore 19
.cfi_def_cfa_offset 0
ret
LBB0_28:
ldr	x2, [x29, 16]
sxtw	x0, w2
ldr	w1, [x2, x0, lsl 2]
str	w1, [x29, 24]
ldr	x2, [x29, 16]
sxtw	x0, w2
ldr	w1, [x2, x0, lsl 2]
cmp	w1, w0
csel	w0, w1, w0, ge
csel	w1, w0, w2, le
b	.L16
LBB0_29:
ldr	w2, [x29, 28]
ldr	w1, [x29, 36]
add	w2, w2, 1
str	w2, [x29, 36]
b	.L16
LBB0_30:
ldr	x19, [sp, 16]
ldp	x29, x30, [sp], 32
.cfi_remember_state
.cfi_restore 30
.cfi_restore 29
.cfi_restore 19
.cfi_def_cfa_offset 0
ret
LBB0_31:
ldr	x19, [sp, 16]
ldp	x29, x30, [sp], 32
.cfi_remember_state
.cfi_restore 30
.cfi_restore 29
.cfi_restore 19
.cfi_def_cfa_offset 0
ret
LBB0_32:
ldr	x19, [sp, 16]
ldp	x29, x30, [sp], 32
.cfi_remember_state
.cfi_restore 30
.cfi_restore 29
.cfi_restore 19
.cfi_def_cfa_offset 0
ret
LBB0_33:
ldr	x19, [sp, 16]
ldp	x29, x30, [sp], 32
.cfi_remember_state
.cfi_restore 30
.cfi_restore 29
.cfi_restore 19
.cfi_def_cfa_offset 0
ret
LBB0_34:
ldr	x19, [sp, 16]
ldp	x29, x30, [sp], 32
.cfi_remember_state
.cfi_restore 30
.cfi_restore 29
.cfi_restore 19
.cfi_def_cfa_offset 0
ret
LBB0_35:
ldr	x19, [sp, 16]
ldp	x29, x30, [sp], 32
.cfi_remember_state
.cfi_restore 30
.cfi_restore 29
.cfi_restore 19
.cfi_def_cfa_offset 0
ret
LBB0_36:
ldr	x19, [sp, 16]
ldp	x29, x30, [sp], 32
.cfi_restore 30
.cfi_restore 29
.cfi_restore 19
.cfi_def_cfa_offset 0
ret
LBB0_37:
ldr	x19, [sp, 16]
ldp	x29, x30, [sp], 32
.cfi_restore 30
.cfi_restore 29
.cfi_restore 19
.cfi_def_cfa_offset 0
ret
LBB0_38:
ldr	x19, [sp, 16]
ldp	x29, x30, [sp], 32
.cfi_remember_state
.cfi_restore 30
.cfi_restore 29
.cfi_restore 19
.cfi_def_cfa_offset 0
ret
LBB0_39:
ldr	x19, [sp, 16]
ldp	x29, x30, [sp], 32
.cfi_remember_state
.cfi_restore 30
.cfi_restore 29
.cfi_restore 19
.cfi_def_cfa_offset 0
ret
LBB0_40:
ldr	x19, [sp, 16]
ldp	x29, x30, [sp], 32
.cfi_restore 30
.cfi_restore 29
.cfi_restore 19
.cfi_def_cfa_offset 0
ret
LBB0_41:
ldr	x19, [sp, 16]
ldp	x29, x30, [sp], 32
.cfi_remember_state
.cfi_restore 30
.cfi_restore 29
.cfi_restore 19
.cfi_def_cfa_offset 0
ret
LBB0_42:
ldr	x19, [sp, 16]
ldp	x29, x30, [sp], 32
.cfi_remember_state
.cfi_restore 30
.cfi_restore 29
.cfi_restore 19
.cfi_def_cfa_offset 0
ret
LBB0_43:
ldr	x19, [sp, 16]
ldp	x29, x30, [sp], 32
.cfi_remember_state
.cfi_restore 30
.cfi_restore 29
.cfi_restore 19
.cfi_def_cfa_offset 0
ret
LBB0_44:
ldr	x19, [sp, 16]
ldp	x29, x30, [sp], 32
.cfi_restore 30
.cfi_restore 29
.cfi_restore 19
.cfi_def_cfa_offset 0
ret
LBB0_45:
ldr	x19, [sp, 16]
ldp	x29, x30, [sp], 32
.cfi_remember_state
.cfi_restore 30
.cfi_restore 29
.cfi_restore 19
.cfi_def_cfa_offset 0
ret
LBB0_46:
ldr	x19, [sp, 16]
ldp	x29, x30, [sp], 32
.cfi_restore 30
.cfi_restore 29
.cfi_restore 19
.cfi_def_cfa_offset 0
ret
LBB0_47:
ldr	x19, [sp, 16]
ldp	x29, x30, [sp], 32
.cfi_restore 30
.cfi_restore 29
.cfi_restore 19
.cfi_def_cfa_offset 0
ret
LBB0_48:
ldr	x19, [sp, 16]
ldp	x29, x30, [sp], 32
.cfi_remember_state
.cfi_restore 30
.cfi_restore 29
.cfi_restore 19
.cfi_def_cfa_offset 0
ret
LBB0_49:
ldr	x19, [sp, 16]
ldp	x29, x30, [sp], 32
.cfi_restore 30
.cfi_restore 29
.cfi_restore 19
.cfi_def_cfa_offset 0
ret
LBB0_50:
ldr	x19, [sp, 16]
ldp	x29, x30, [sp], 32
.cfi_remember_state
.cfi_restore 30
.cfi_restore 29
.cfi_restore 19
.cfi_def_cfa_offset 0
ret
LBB0_51:
ldr	x19, [sp, 16]
ldp	x29, x30, [sp], 32
.cfi_remember_state
.cfi_restore 30
.cfi_restore 29
.cfi_restore 19
.cfi_def_cfa_offset 0
ret
LBB0_52:
ldr	x19, [sp, 16]
ldp	x29, x30, [sp], 32
.cfi_remember_state
.cfi_restore 30
.cfi_restore 29
.cfi_restore 19
.cfi_def_cfa_offset 0
ret
LBB0_53:
ldr	x19, [sp, 16]
ldp	x29, x30, [sp], 32
.cfi_restore 30
.cfi_restore 29
.cfi_restore 19
.cfi_def_cfa_offset 0
ret
LBB0_54:
ldr	x19, [sp, 16]
ldp	x29, x30, [sp], 32
.cfi_remember_state
.cfi_restore 30
.cfi_restore 29
.cfi_restore 19
.cfi_def_cfa_offset 0
ret
LBB0_55:
ldr	x19, [sp, 16]
ldp	x29, x30, [sp], 32
.cfi_remember_state
.cfi_restore 30
.cfi_restore 29
.cfi_restore 19
.cfi_def_cfa_offset 0
ret
LBB0_56:
ldr	x19, [sp, 16]
ldp	x29, x30, [sp], 32
.cfi_restore 30
.cfi_restore 29
.cfi_restore 19
.cfi_def_cfa_offset 0
ret
LBB0_57:
ldr	x19, [sp, 16]
ldp	x29, x30, [sp], 32
.cfi_remember_state
.cfi_restore 30
.cfi_restore 29
.cfi_restore 19
.cfi_def_cfa_offset 0
ret
LBB0_58:
ldr	x19, [sp, 16]
ldp	x29, x30, [sp], 32
.cfi_restore 30
.cfi_restore 29
.cfi_restore 19
.cfi_def_cfa_offset 0
ret
LBB0_59:
ldr	x19, [sp, 16]
ldp	x29, x30, [sp], 32
.cfi_remember_state
.cfi_restore 30
.cfi_restore 29
.cfi_restore 19
.cfi_def_cfa_offset 0
ret
LBB0_60:
ldr	x19, [sp, 16]
ldp	x29, x30, [sp], 32
.cfi_restore 30
.cfi_restore 29
.cfi_restore 19
.cfi_def_cfa_offset 0
ret
LBB0_61:
ldr	x19, [sp, 16]
ldp	x29, x30, [sp], 32
.cfi_remember_state
.cfi_restore 30
.cfi_restore 29
.cfi_restore 19
.cfi_def_cfa_offset 0
ret
LBB0_62:
ldr	x19, [sp, 16]
ldp	x29, x30, [sp], 32
.cfi_remember_state
.cfi_restore 30
.cfi_restore 29
.cfi_restore 19
.cfi_def_cfa_offset 0
ret
LBB0_63:
ldr	x19, [sp, 16]
ldp	x29, x30, [sp], 32
.cfi_restore 30
.cfi_restore 29
.cfi_restore 19
.cfi_def_cfa_offset 0
ret
LBB0_64:
ldr	x19, [sp, 16]
ldp	x29, x30, [sp], 32
.cfi_remember_state
.cfi_restore 30
.cfi_restore 29
.cfi_restore 19
.cfi_def_cfa_offset 0
ret
LBB0_65:
ldr	x19, [sp, 16]
ldp	x29, x30, [sp], 32
.cfi_restore 30
.cfi_restore 29
.cfi_restore 19
.cfi_def_cfa_offset 0
ret
LBB0_66:
ldr	x19, [sp, 16]
ldp	x29, x30, [sp], 32
.cfi_remember_state
.cfi_restore 30
.cfi_restore 29
.cfi_restore 19
.cfi_def_cfa_offset 0
ret
LBB0_67:
ldr	x19, [sp, 16]
ldp	x29, x30, [sp], 32
.cfi_restore 30
.cfi_restore 29
.cfi_restore 19
.cfi_def_cfa_offset 0
ret
LBB0_68:
ldr	x19, [sp, 16]
ldp	x29, x30, [sp], 32
.cfi_remember_state
.cfi_restore 30
.cfi_restore 29
.cfi_restore 19
.cfi_def_cfa_offset 0
ret
LBB0_69:
ldr	x19, [sp, 16]
ldp	x29, x30, [sp], 32
.cfi_restore 30
.cfi_restore 29
.cfi_restore 19
.cfi_def_cfa_offset 0
ret
LBB0_70:
ldr	x19, [sp, 16]
ldp	x29, x30, [sp], 32
.cfi_remember_state
.cfi_restore 30
.cfi_restore 29
.cfi_restore 19
.cfi_def_cfa_offset 0
ret
LBB0_71:
ldr	x19, [sp, 16]
ldp	x29, x30, [sp], 32
.cfi_remember_state
.cfi_restore 30
.cfi_restore 29
.cfi_restore 19
.cfi_def_cfa_offset 0
ret
LBB0_72:
ldr	x19, [sp, 16]
ldp	x29, x30, [sp], 32
.cfi_remember_state
.cfi_restore 30
.cfi_restore 29
.cfi_restore 19
.cfi_def_cfa_offset 0
ret
LBB0_73:
ldr	x19, [sp, 16]
ldp	x29, x30, [sp], 32
.cfi_remember_state
.cfi_restore 30
.cfi_restore 29
.cfi_restore 19
.cfi_def_cfa_offset 0
ret
LBB0_74:
ldr	x19, [sp, 16]
ldp	x29, x30, [sp], 32
.cfi_remember_state
.cfi_restore 30
.cfi_restore 29
.cfi_restore 19
.cfi_def_cfa_offset 0
ret
LBB0_75:
ldr	x19, [sp, 16]
ldp	x29, x30, [sp], 32
.cfi_remember_state
.cfi_restore 30
.cfi_restore 29
.cfi_restore 19
.cfi_def_cfa_offset 0
ret
LBB0_76:
ldr	x19, [sp, 16]
ldp	x29, x30, [sp], 32
.cfi_restore 30
.cfi_restore 29
.cfi_restore 19
.cfi_def_cfa_offset 0
ret
LBB0_77:
ldr	x19, [sp, 16]
ldp	x29, x30, [sp], 32
.cfi_remember_state
.cfi_restore 30
.cfi_restore 29
.cfi_restore 19
.cfi_def_cfa_offset 0
ret
LBB0_78:
ldr	x19, [sp, 16]
ldp	x29, x30, [sp], 32
.cfi_restore 30
.cfi_restore 29
.cfi_restore 19
.cfi_def_cfa_offset 0
ret
LBB0_79:
ldr	x19, [sp, 16]
ldp	x29, x30, [sp], 32
.cfi_remember_state
.cfi_restore 30
.cfi_restore 29
.cfi_restore 19
.cfi_def_cfa_offset 0
ret
LBB0_80:
ldr	x19, [sp, 16]
ldp	x29, x30, [sp], 32
.cfi_restore 30
.cfi_restore 29
.cfi_restore 19
.cfi_def_cfa_offset 0
ret
LBB0_81:
ldr	x19, [sp, 16]
ldp	x29, x30, [sp], 32
.cfi_remember_state
.cfi_restore 30
.cfi_restore 29
.cfi_restore 19
.cfi_def_cfa_offset 0
ret
LBB0_82:
ldr	x19, [sp, 16]
ldp	x29, x30, [sp], 32
.cfi_remember_state
.cfi_restore 30
.cfi_restore 29
.cfi_restore 19
.cfi_def_cfa_offset 0
ret
LBB0_83:
ldr	x19, [sp, 16]
ldp	x29, x30, [sp], 32
.cfi_restore 30
.cfi_restore 29
.cfi_restore 19
.cfi_def_cfa_offset 0
ret
LBB0_84:
ldr	x19, [sp, 16]
ldp	x29, x30, [sp], 32
.cfi_remember_state
.cfi_restore 30
.cfi_restore 29
.cfi_restore 19
.cfi_def_cfa_offset 0
ret
LBB0_85:
ldr	x19, [sp, 16]
ldp	x29, x30, [sp], 32
.cfi_remember_state
.cfi_restore 30
.cfi_restore 29
.cfi_restore 19
.cfi_def_cfa_offset 0
ret
LBB0_86:
ldr	x19, [sp, 16]
ldp	x29, x30, [sp], 32
.cfi_remember_state
.cfi_restore 30
.cfi_restore 29
.cfi_restore 19
.cfi_def_cfa_offset 0
ret
LBB0_87:
ldr	x19, [sp, 16]
ldp	x29, x30, [sp], 32
.cfi_restore 30
.cfi_restore 29
.cfi_restore 19
.cfi_def_cfa_offset 0
ret
LBB0_88:
ldr	x19, [sp, 16]
ldp	x29, x30, [sp], 32
.cfi_remember_state
.cfi_restore 30
.cfi_restore 29
.cfi_restore 19
.cfi_def_cfa_offset 0
ret
LBB0_89:
ldr	x19, [sp, 16]
ldp	x29, x30, [sp], 32
.cfi_restore 30
.cfi_restore 29
.cfi_restore 19
.cfi_def_cfa_offset 0
ret
LBB0_90:
ldr	x19, [sp, 16]
ldp	x29, x30, [sp], 32
.cfi_remember_state
.cfi_restore 30
.cfi_restore 29
.cfi_restore 19
.cfi_def_cfa_offset 0
ret
LBB0_91:
ldr	x19, [sp, 16]
ldp	x29, x30, [sp], 32
.cfi_restore 30
.cfi_restore 29
.cfi_restore 19
.cfi_def_cfa_offset 0
ret
LBB0_92:
ldr	x19, [sp, 16]
ldp	x29, x30, [sp], 32
.cfi_remember_state
.cfi_restore 30
.cfi_restore 29
.cfi_restore 19
.cfi_def_cfa_offset 0
ret
LBB0_93:
ldr	x19, [sp, 16]
ldp	x29, x30, [sp], 32
.cfi_restore 30
.cfi_restore 29
.cfi_restore 19
.cfi_def_cfa_offset 0
ret
LBB0_94:
ldr	x19, [sp, 16]
ldp	x29, x30, [sp], 32
.cfi_remember_state
.cfi_restore 30
.cfi_restore 29
.cfi_restore 19
.cfi_def_cfa_offset 0
ret
LBB0_95:
ldr	x19, [sp, 16]
ldp	x29, x30, [sp], 32
.cfi_restore 30
.cfi_restore 29
.cfi_restore 19
.cfi_def_cfa_offset 0
ret
LBB0_96:
ldr	x19, [sp, 16]
ldp	x29, x30, [sp], 32
.cfi_remember_state
.cfi_restore 30
.cfi_restore 29
.cfi_restore 19
.cfi_def_cfa_offset 0
ret
LBB0_97:
ldr	x19, [sp, 16]
ldp	x29, x30, [sp], 32
.cfi_restore 30
.cfi_restore 29
.cfi_restore 19
.cfi_def_cfa_offset 0
ret
LBB0_98:
ldr	x19, [sp, 16]
ldp	x29, x30, [sp], 32
.cfi_remember_state
.cfi_restore 30
.cfi_restore 29
.cfi_restore 19
.cfi_def_cfa_offset 0
ret
LBB0_99:
ldr	x19, [sp, 16]
ldp	x29, x30, [sp], 32
.cfi_restore 30
.cfi_restore 29
.cfi_restore 19
.cfi_def_cfa_offset 0
ret
LBB0_100:
ldr	x19, [sp, 16]
ldp	x29, x30, [sp], 32
.cfi_remember_state
.cfi_restore 30
.cfi_restore 29
.cfi_restore 19
.cfi_def_cfa_offset 0
ret
LBB0_101:
ldr	x19, [sp, 16]
ldp	x29, x30, [sp], 32
.cfi_restore 30
.cfi_restore 29
.cfi_restore 19
.cfi_def_cfa_offset 0
ret
LBB0_102:
ldr	x19, [sp, 16]
ldp	x29, x30, [sp], 32
.cfi_remember_state
.cfi_restore 30
.cfi_restore 29
.cfi_restore 19
.cfi_def_cfa_offset 0
ret
LBB0_103:
ldr	x19, [sp, 16]
ldp	x29, x30, [sp], 32
.cfi_restore 30
.cfi_restore 29
.cfi_restore 19
.cfi_def_cfa_offset 0
ret
LBB0_104:
ldr	x19, [sp, 16]
ldp	x29, x30, [sp], 32
.cfi_remember_state
.cfi_restore 30
.cfi_restore 29
.cfi_restore 19
.cfi_def_cfa_offset 0
ret
LBB0_105:
ldr	x19, [sp, 16]
ldp	x29, x30, [sp], 32
.cfi_restore 30
.cfi_restore 29
.cfi_restore 19
.cfi_def_cfa_offset 0
ret
LBB0_106:
ldr	x19, [sp, 16]
ldp	x29, x30, [sp], 32
.cfi_remember_state
.cfi_restore 30
.cfi_restore 29
.cfi_restore 19
.cfi_def_cfa_offset 0
ret
LBB0_107:
ldr	x19, [sp, 16]
ldp	x29, x30, [sp], 32
.cfi_restore 30
.cfi_restore 29
.cfi_restore 19
.cfi_def_cfa_offset 0
ret
LBB0_108:
ldr	x19, [sp, 16]
ldp	x29, x30, [sp], 32
.cfi_remember_state
.cfi_restore 30
.cfi_restore 29
.cfi_restore 19
.cfi_def_cfa_offset 0
ret
LBB0_109:
ldr	x19, [sp, 16]
ldp	x29, x30, [sp], 32
.cfi_restore 30
.cfi_restore 29
.cfi_restore 19
.cfi_def_cfa_offset 0
ret
LBB0_110:
ldr	x19, [sp, 16]
ldp	x29, x30, [sp], 32
.cfi_remember_state
.cfi_restore 30
.cfi_restore 29
.cfi_restore 19
.cfi_def_cfa_offset 0
ret
LBB0_111:
ldr	x19, [sp, 16]
ldp	x29, x30, [sp], 32
.cfi_restore 30
.cfi_restore 29
.cfi_restore 19
.cfi_def_cfa_offset 0
ret
LBB0_112:
ldr	x19, [sp, 16]
ldp	x29, x30, [sp], 32
.cfi_remember_state
.cfi_restore 30
.cfi_restore 29
.cfi_restore 19
.cfi_def_cfa_offset 0
ret
LBB0_113:
ldr	x19, [sp, 16]
ldp	x29, x30, [sp], 32
.cfi_restore 30
.cfi_restore 29
.cfi_restore 19
.cfi_def_cfa_offset 0
ret
LBB0_114:
ldr	x19, [sp, 16]
ldp	x29, x30, [sp], 32
.cfi_remember_state
.cfi_restore 30
.cfi_restore 29
.cfi_restore 19
.cfi_def_cfa_offset 0
ret
LBB0_115:
ldr	x19, [sp, 16]
ldp	x29, x30, [sp], 32
.cfi_restore 30
.cfi_restore 29
.cfi_restore 19
.cfi_def_cfa_offset 0
ret
LBB0_116:
ldr	x19, [sp, 16]
ldp	x29, x30, [sp], 32
.cfi_remember_state
.cfi_restore 30
.cfi_restore 29
.cfi_restore 19
.cfi_def_cfa_offset 0
ret
LBB0_117:
ldr	x19, [sp, 16]
ldp	x29, x30, [sp], 32
.cfi_restore 30
.cfi_restore 29
.cfi_restore 19
.cfi_def_cfa_offset 0
ret
LBB0_118:
ldr	x19, [sp, 16]
ldp	x29, x30, [sp], 32
.cfi_restore 30
.cfi_restore 29
.cfi_restore 19
.cfi_def_cfa_offset 0
ret
LBB0_119:
ldr	x19, [sp, 16]
ldp	x29, x30, [sp], 32
.cfi_remember_state
.cfi_restore 30
.cfi_restore 29
.cfi_restore 19
.cfi_def_cfa_offset 0
ret
LBB0_120:
ldr	x19, [sp, 16]
ldp	x29, x30, [sp], 32
.cfi_restore 30
.cfi_restore 29
.cfi_restore 19
.cfi_def_cfa_offset 0
ret
LBB0_121:
ldr	x19, [sp, 16]
ldp	x29, x30, [sp], 32
.cfi_remember_state
.cfi_restore 30
.cfi_restore 29
.cfi_restore 19
.cfi_def_cfa_offset 0
ret
LBB0_122:
ldr	x19, [sp, 16]
ldp	x29, x30, [sp], 32
.cfi_restore 30
.cfi_restore 29
.cfi_restore 19
.cfi_def_cfa_offset 0
ret
LBB0_123:
ldr	x19, [sp, 16]
ldp	x29, x30, [sp], 32
.cfi_remember_state
.cfi_restore 30
.cfi_restore 29
.cfi_restore 19
.cfi_def_cfa_offset 0
ret
LBB0_124:
ldr	x19, [sp, 16]
ldp	x29, x30, [sp], 32
.cfi_restore 30
.cfi_restore 29
.cfi_restore 19
.cfi_def_cfa_offset 0
ret
LBB0_125:
ldr	x19, [sp, 16]
ldp	x29, x30, [sp], 32
.cfi_remember_state
.cfi_restore 30
.cfi_restore 29
.cfi_restore 19
.cfi_def_cfa_offset 0
ret
LBB0_126:
ldr	x19, [sp, 16]
ldp	x29, x30, [sp], 32
.cfi_restore 30
.cfi_restore 29
.cfi_restore 19
.cfi_def_cfa_offset 0
ret
LBB0_127:
ldr	x19, [sp, 16]
ldp	x29, x30, [sp], 32
.cfi_remember_state
.cfi_restore 30
.cfi_restore 29
.cfi_restore 19
.cfi_def_cfa_offset 0
ret
LBB0_128:
ldr	x19, [sp, 16]
ldp	x29, x30, [sp], 32
.cfi_restore 30
.cfi_restore 29
.cfi_restore 19
.cfi_def_cfa_offset 0
ret
LBB0_129:
ldr	x19, [sp, 16]
ldp	x29, x30, [sp], 32
.cfi_remember_state
.cfi_restore 30
.cfi_restore 29
.cfi_restore 19
.cfi_def_cfa_offset 0
ret
LBB0_130:
ldr	x19, [sp, 16]
ldp	x29, x30, [sp], 32
.cfi_restore 30
.cfi_restore 29
.cfi_restore 19
.cfi_def_cfa_offset 0
ret
LBB0_131:
ldr	x19, [sp, 16]
ldp	x29, x30, [sp], 32
.cfi_remember_state
.cfi_restore 30
.cfi_restore 29
.cfi_restore 19
.cfi_def_cfa_offset 0
ret
LBB0_132:
ldr	x19, [sp, 16]
ldp	x29, x30, [sp], 32
.cfi_restore 30
.cfi_restore 29
.cfi_restore 19
.cfi_def_cfa_offset 0
ret
LBB0_133:
ldr	x19, [sp, 16]
ldp	x29, x30, [sp], 32
.cfi_remember_state
.cfi_restore 30
.cfi_restore 29
.cfi_restore 19
.cfi_def_cfa_offset 0
ret
LBB0_134:
ldr	x19, [sp, 16]
ldp	x29, x30, [sp], 32
.cfi_restore 30
.cfi_restore 29
.cfi_restore 19
.cfi_def_cfa_offset 0
ret
LBB0_135:
ldr	x19, [sp, 16]
ldp	x29, x30, [sp], 32
.cfi_remember_state
.cfi_restore 30
.cfi_restore 29
.cfi_restore 19
.cfi_def_cfa_offset 0
ret
LBB0_136:
ldr	x19, [sp, 16]
ldp	x29, x30, [sp], 32
.cfi_restore 30
.cfi_restore 29
.cfi_restore 19
.cfi_def_cfa_offset 0
ret
LBB0_137:
ldr	x19, [sp, 16]
ldp	x29, x30, [sp], 32
.cfi_remember_state
.cfi_restore 30
.cfi_restore 29
.cfi_restore 19
.cfi_def_cfa_offset 0
ret
LBB0_138:
ldr	x19, [sp, 16]
ldp	x29, x30, [sp], 32
.cfi_restore 30
.cfi_restore 29
.cfi_restore 19
.cfi_def_cfa_offset 0
ret
LBB0_139:
ldr	x19, [sp, 16]
ldp	x29, x30, [sp], 32
.cfi_remember_state
.cfi_restore 30
.cfi_restore 29
.cfi_restore 19
.cfi_def_cfa_offset 0
ret
LBB0_140:
ldr	x19, [sp, 16]
ldp	x29, x30, [sp], 32
.cfi_restore 30
.cfi_restore 29
.cfi_restore 19
.cfi_def_cfa_offset 0
ret
LBB0_141:
ldr	x19, [sp, 16]
ldp	x29, x30, [sp], 32
.cfi_remember_state
.cfi_restore 30
.cfi_restore 29
.cfi_restore 19
.cfi_def_cfa_offset 0
ret
LBB0_142:
ldr	x19, [sp, 16]
ldp	x29, x30, [sp], 32
.cfi_restore 30
.cfi_restore 29
.cfi_restore 19
.cfi_def_cfa_offset 0
ret
LBB0_143:
ldr	x19, [sp, 16]
ldp	x29, x30, [sp], 32
.cfi_remember_state
.cfi_restore 30
.cfi_restore 29
.cfi_restore 19
.cfi_def_cfa_offset 0
ret
LBB0_144:
ldr	x19, [sp, 16]
ldp	x29, x30, [sp], 32
.cfi_restore 30
.cfi_restore 29
.cfi_restore 19
.cfi_def_cfa_offset 0
ret
LBB0_145:
ldr	x19, [sp, 16]
ldp	x29, x30, [sp], 32
.cfi_remember_state
.cfi_restore 30
.cfi_restore 29
.cfi_restore 19
.cfi_def_cfa_offset 0
ret
LBB0_146:
ldr	x19, [sp, 16]
ldp	x29, x30, [sp], 32
.cfi_restore 30
.cfi_restore 29
.cfi_restore 19
.cfi_def_cfa_offset 0
ret
LBB0_147:
ldr	x19, [sp, 16]
ldp	x29, x30, [sp], 32
.cfi_remember_state
.cfi_restore 30
.cfi_restore 29
.cfi_restore 19
.cfi_def_cfa_offset 0
ret
LBB0_148:
ldr	x19, [sp, 16]
ldp	x29, x30, [sp], 32
.cfi_restore 30
.cfi_restore 29
.cfi_restore 19
.cfi_def_cfa_offset 0
ret
LBB0_149:
ldr	x19, [sp, 16]
ldp	x29, x30, [sp], 32
.cfi_remember_state
.cfi_restore 30
.cfi_restore 29
.cfi_restore 19
.cfi_def_cfa_offset 0
ret
LBB0_150:
ldr	x19, [sp, 16]
ldp	x29, x30, [sp], 32
.cfi_restore 30
.cfi_restore 29
.cfi_restore 19
.cfi_def_cfa_offset 0
ret
LBB0_151:
ldr	x19, [sp, 16]
ldp	x29, x30, [sp], 32
.cfi_remember_state
.cfi_restore 30
.cfi_restore 29
.cfi_restore 19
.cfi_def_cfa_offset 0
ret
LBB0_152:
ldr	x19, [sp, 16]
ldp	x29, x30, [sp], 32
.cfi_restore 30
.cfi_restore 29
.cfi_restore 19
.cfi_def_cfa_offset 0
ret
LBB0_153:
ldr	x19, [sp, 16]
ldp	x29, x30, [sp], 32
.cfi_remember_state
.cfi_restore 30
.cfi_restore 29
.cfi_restore 19
.cfi_def_cfa_offset 0
ret
LBB0_154:
ldr	x19, [sp, 16]
ldp	x29, x30, [sp], 32
.cfi_restore 30
.cfi_restore 29
.cfi_restore 19
.cfi_def_cfa_offset 0
ret
LBB0_155:
ldr	x19, [sp, 16]
ldp	x29, x30, [sp], 32
.cfi_remember_state
.cfi_restore 30
.cfi_restore 29
.cfi_restore 19
.cfi_def_cfa_offset 0
ret
LBB0_156:
ldr	x19, [sp, 16]
ldp	x29, x30, [sp], 32
.cfi_restore 30
.cfi_restore 29
.cfi_restore 19
.cfi_def_cfa_offset 0
ret
LBB0_157:
ldr	x19, [sp, 16]
ldp	x29, x30, [sp], 32
.cfi_remember_state
.cfi_restore 30
.cfi_restore 29
.cfi_restore 19
.cfi_def_cfa_offset 0
ret
LBB0_158:
ldr	x19, [sp, 16]
ldp	x29, x30, [sp], 32
.cfi_restore 30
.cfi_restore 29
.cfi_restore 19
.cfi_def_cfa_offset 0
ret
LBB0_159:
ldr	x19, [sp, 16]
ldp	x29, x30, [sp], 32
.cfi_remember_state
.cfi_restore 30
.cfi_restore 29
.cfi_restore 19
.cfi_def_cfa_offset 0
ret
LBB0_160:
ldr	x19, [sp, 16]
ldp	x29, x30, [sp], 32
.cfi_restore 30
.cfi_restore 29
.cfi_restore 19
.cfi_def_cfa_offset 0
ret
LBB0_161:
ldr	x19, [sp, 16]
ldp	x29, x30, [sp], 32
.cfi_remember_state
.cfi_restore 30
.cfi_restore 29
.cfi_restore 19
.cfi_def_cfa_offset 0
ret
LBB0_162:
ldr	x19, [sp, 16]
ldp	x29, x30, [sp], 32
.cfi_restore 30
.cfi_restore 29
.cfi_restore 19
.cfi_def_cfa_offset 0
ret
LBB0_163:
ldr	x19, [sp, 16]
ldp	x29, x30, [sp], 32
.cfi_remember_state
.cfi_restore 30
.cfi_restore 29
.cfi_restore 19
.cfi_def_cfa_offset 0
ret
LBB0_164:
ldr	x19, [sp, 16]
ldp	x29, x30, [sp], 32
.cfi_restore 30
.cfi_restore 29
.cfi_restore 19
.cfi_def_cfa_offset 0
ret
LBB0_165:
ldr	x19, [sp, 16]
ldp	x29, x30, [sp], 32
.cfi_remember_state
.cfi_restore 30
.cfi_restore 29
.cfi_restore 19
.cfi_def_cfa_offset 0
ret
LBB0_166:
ldr	x19, [sp, 16]
ldp	x29, x30, [sp], 32
.cfi_restore 30
.cfi_restore 29
.cfi_restore 19
.cfi_def_cfa_offset 0
ret
LBB0_167:
ldr	x19, [sp, 16]
ldp	x29, x30, [sp], 32
.cfi_remember_state
.cfi_restore 30
.cfi_restore 29
.cfi_restore 19
.cfi_def_cfa_offset 0
ret
LBB0_168:
ldr	x19, [sp, 16]
ldp	x29, x30, [sp], 32
.cfi_restore 30
.cfi_restore 29
.cfi_restore 19
.cfi_def_cfa_offset 0
ret
LBB0_169:
ldr	x19, [sp, 16]
ldp	x29, x30, [sp], 32
.cfi_remember_state
.cfi_restore 30
.cfi_restore 29
.cfi_restore 19
.cfi_def_cfa_offset 0
ret
LBB0_170:
ldr	x19, [sp, 16]
ldp	x29, x30, [sp], 32
.cfi_restore 30
.cfi_restore 29
.cfi_restore 19
.cfi_def_cfa_offset 0
ret
LBB0_171:
ldr	x19, [sp, 16]
ldp	x29, x30, [sp], 32
.cfi_remember_state
.cfi_restore 30
.cfi_restore 29
.cfi_restore 19
.cfi_def_cfa_offset 0
ret
LBB0_172:
ldr	x19, [sp, 16]
ldp	x29, x30, [sp], 32
.cfi_restore 30
.cfi_restore 29
.cfi_restore 19
.cfi_def_cfa_offset 0
ret
LBB0_173:
ldr	x19, [sp, 16]
ldp	x29, x30, [sp], 32
.cfi_remember_state
.cfi_restore 30
.cfi_restore 29
.cfi_restore 19
.cfi_def_cfa_offset 0
ret
LBB0_174:
ldr	x19, [sp, 16]
ldp	x29, x30, [sp], 32
.cfi_restore 30
.cfi_restore 29
.cfi_restore 19
.cfi_def_cfa_offset 0
ret
LBB0_175:
ldr	x19, [sp, 16]
ldp	x29, x30, [sp], 32
.cfi_remember_state
.cfi_restore 30
.cfi_restore 29
.cfi_restore 19
.cfi_def_cfa_offset 0
ret
LBB0_176:
ldr	x19, [sp, 16]
ldp	x29, x30, [sp], 32
.cfi_restore 30
.cfi_restore 29
.cfi_restore 19
.cfi_def_cfa_offset 0
ret
LBB0_177:
ldr	x19, [sp, 16]
ldp	x29, x30, [sp], 32
.cfi_remember_state
.cfi_restore 30
.cfi_restore 29
.cfi_restore 19
.cfi_def_cfa_offset 0
ret
LBB0_178:
ldr	x19, [sp, 16]
ldp	x29, x30, [sp], 32
.cfi_restore 30
.cfi_restore 29
.cfi_restore 19
.cfi_def_cfa_offset 0
ret
LBB0_179:
ldr	x19, [sp, 16]
ldp	x29, x30, [sp], 32
.cfi_remember_state
.cfi_restore 30
.cfi_restore 29
.cfi_restore 19
.cfi_def_cfa_offset 0
ret
LBB0_180:
ldr	x19, [sp, 16]
ldp	x29, x30, [sp], 32
.cfi_restore 30
.cfi_restore 29
.cfi_restore 19
.cfi_def_cfa_offset 0
ret
LBB0_181:
ldr	x19, [sp, 16]
ldp	x29, x30, [sp], 32
.cfi_remember_state
.cfi_restore 30
.cfi_restore 29
.cfi_restore 19
.cfi_def_cfa_offset 0
ret
LBB0_182:
ldr	x19, [sp, 16]
ldp	x29, x30, [sp], 32
.cfi_restore 30
.cfi_restore 29
.cfi_restore 19
.cfi_def_cfa_offset 0
ret
LBB0_183:
ldr	x19, [sp, 16]
ldp	x29, x30, [sp], 32
.cfi_remember_state
.cfi_restore 30
.cfi_restore 29
.cfi_restore 19
.cfi_def_cfa_offset 0
ret
LBB0_184:
ldr	x19, [sp, 16]
ldp	x29, x30, [sp], 32
.cfi_restore 30
.cfi_restore 29
.cfi_restore 19
.cfi_def_cfa_offset 0
ret
LBB0_185:
ldr	x19, [sp, 16]
ldp	x29, x30, [sp], 32
.cfi_remember_state
.cfi_restore 30
.cfi_restore 29
.cfi_restore 19
.cfi_def_cfa_offset 0
ret
LBB0_186:
ldr	x19, [sp, 16]
ldp	x29, x30, [sp], 32
.cfi_restore 30
.cfi_restore 29
.cfi_restore 19
.cfi_def_cfa_offset 0
ret
LBB0_187:
ldr	x19, [sp, 16]
ldp	x29, x30, [sp], 32
.cfi_remember_state
.cfi_restore 30
.cfi_restore 29
.cfi_restore 19
.cfi_def_cfa_offset 0
ret
LBB0_188:
ldr	x19, [sp, 16]
ldp	x29, x30, [sp], 32
.cfi_restore 30
.cfi_restore 29
.cfi_restore 19
.cfi_def_cfa_offset 0
ret
LBB0_189:
ldr	x19, [sp, 16]
ldp	x29, x30, [sp], 32
.cfi_remember_state
.cfi_restore 30
.cfi_restore 29
.cfi_restore 19
.cfi_def_cfa_offset 0
ret
LBB0_190:
ldr	x19, [sp, 16]
ldp	x29, x30, [sp], 32
.cfi_restore 30
.cfi_restore 29
.cfi_restore 19
.cfi_def_cfa_offset 0
ret
LBB0_191:
ldr	x19, [sp, 16]
ldp	x29, x30, [sp], 32
.cfi_remember_state
.cfi_restore 30
.cfi_restore 29
.cfi_restore 19
.cfi_def_cfa_offset 0
ret
LBB0_192:
ldr	x19, [sp, 16]
ldp	x29, x30, [sp], 32
.cfi_restore 30
.cfi_restore 29
.cfi_restore 19
.cfi_def_cfa_offset 0
ret
LBB0_193:
ldr	x19, [sp, 16]
ldp	x29, x30, [sp], 32
.cfi_remember_state
.cfi_restore 30
.cfi_restore 29
.cfi_restore 19
.cfi_def_cfa_offset 0
ret
LBB0_194:
ldr	x19, [sp, 16]
ldp	x29, x30, [sp], 32
.cfi_restore 30
.cfi_restore 29
.cfi_restore 19
.cfi_def_cfa_offset 0
ret
LBB0_195:
ldr	x19, [sp, 16]
ldp	x29, x30, [sp], 32
.cfi_remember_state
.cfi_restore 30
.cfi_restore 29
.cfi_restore 19
.cfi_def_cfa_offset 0
ret
LBB0_196:
ldr	x19, [sp, 16]
ldp	x29, x30, [sp], 32
.cfi_restore 30
.cfi_restore 29
.cfi_restore 19
.cfi_def_cfa_offset 0
ret
LBB0_197:
ldr	x19, [sp, 16]
ldp	x29, x30, [sp], 32
.cfi_remember_state
.cfi_restore 30
.cfi_restore 29
.cfi_restore 19
.cfi_def_cfa_offset 0
ret
LBB0_198:
ldr	x19, [sp, 16]
ldp	x29, x30, [sp], 32
.cfi_restore 30
.cfi_restore 29
.cfi_restore 19
.cfi_def_cfa_offset 0
ret
LBB0_199:
ldr	x19, [sp, 16]
ldp	x29, x30, [sp], 32
.cfi_remember_state
.cfi_restore 30
.cfi_restore 29
.cfi_restore 19
.cfi_def_cfa_offset 0
ret
LBB0_200:
ldr	x19, [sp, 16]
ldp	x29, x30, [sp], 32
.cfi_restore 30
.cfi_restore 29
.cfi_restore 19
.cfi_def_cfa_offset 0
ret
LBB0_201:
ldr	x19, [sp, 16]
ldp	x29, x30, [sp], 32
.cfi_remember_state
.cfi_restore 30
.cfi_restore 29
.cfi_restore 19
.cfi_def_cfa_offset 0
ret
LBB0_202:
ldr	x19, [sp, 16]
ldp	x29, x30, [sp], 32
.cfi_restore 30
.cfi_restore 29
.cfi_restore 19
.cfi_def_cfa_offset 0
ret
LBB0_203:
ldr	x19, [sp, 16]
ldp	x29, x30, [sp], 32
.cfi_remember_state
.cfi_restore 30
.cfi_restore 29
.cfi_restore 19
.cfi_def_cfa_offset 0
ret
LBB0_204:
ldr	x19, [sp, 16]
ldp	x29, x30, [sp], 32
.cfi_restore 30
.cfi_restore 29
.cfi_restore 19
.cfi_def_cfa_offset 0
ret
LBB0_205:
ldr	x19, [sp, 16]
ldp	x29, x30, [sp], 32
.cfi_remember_state
.cfi_restore 30
.cfi_restore 29
.cfi_restore 19
.cfi_def_cfa_offset 0
ret
LBB0_206:
ldr	x19, [sp, 16]
ldp	x29, x30, [sp], 32
.cfi_restore 30
.cfi_restore 29
.cfi_restore 19
.cfi_def_cfa_offset 0
ret
LBB0_207:
ldr	x19, [sp, 16]
ldp	x29, x30, [sp], 32
.cfi_remember_state
.cfi_restore 30
.cfi_restore 29
.cfi_restore 19
.cfi_def_cfa_offset 0
ret
LBB0_208:
ldr	x19, [sp, 16]
ldp	x29, x30, [sp], 32
.cfi_restore 30
.cfi_restore 29
.cfi_restore 19
.cfi_def_cfa_offset 0
ret
LBB0_209:
ldr	x19, [sp, 16]
ldp	x29, x30, [sp], 32
.cfi_remember_state
.cfi_restore 30
.cfi_restore 29
.cfi_restore 19
.cfi_def_cfa_offset 0
ret
LBB0_210:
ldr	x19, [sp, 16]
ldp	x29, x30, [sp], 32
.cfi_restore 30
.cfi_restore 29
.cfi_restore 19
.cfi_def_cfa_offset 0
ret
LBB0_211:
ldr	x19, [sp, 16]
ldp	x29, x30, [sp], 32
.cfi_remember_state
.cfi_restore 30
.cfi_restore 29
.cfi_restore 19
.cfi_def_cfa_offset 0
ret
LBB0_212:
ldr	x19, [sp, 16]
ldp	x29, x30, [sp], 32
.cfi_restore 30
.cfi_restore 29
.cfi_restore 19
.cfi_def_cfa_offset 0
ret
LBB0_213:
ldr	x19, [sp, 16]
ldp	x29, x30, [sp], 32
.cfi_remember_state
.cfi_restore 30
.cfi_restore 29
.cfi_restore 19
.cfi_def_cfa_offset 0
ret
LBB0_214:
ldr	x19, [sp, 16]
ldp	x29, x30, [sp], 32
.cfi_restore 30
.cfi_restore 29
.cfi_restore 19
.cfi_def_cfa_offset 0
ret
LBB0_215:
ldr	x19, [sp, 16]
ldp	x29, x30, [sp], 32
.cfi_remember_state
.cfi_restore 30
.cfi_restore 29
.cfi_restore 19
.cfi_def_cfa_offset 0
ret
LBB0_216:
ldr	x19, [sp, 16]
ldp	x29, x30, [sp], 32
.cfi_restore 30
.cfi_restore 29
.cfi_restore 19
.cfi_def_cfa_offset 0
ret
LBB0_217:
ldr	x19, [sp, 16]
ldp	x29, x30, [sp], 32
.cfi_remember_state
.cfi_restore 30
.cfi_restore 29
.cfi_restore 19
.cfi_def_cfa_offset 0
ret
LBB0_218:
ldr	x19, [sp, 16]
ldp	x29, x30, [sp], 32
.cfi_restore 30
.cfi_restore 29
.cfi_restore 19
.cfi_def_cfa_offset 0
ret
LBB0_219:
ldr	x19, [sp, 16]
ldp	x29, x30, [sp], 32
.cfi_remember_state
.cfi_restore 30
.cfi_restore 29
.cfi_restore 19
.cfi_def_cfa_offset 0
ret
LBB0_220:
ldr	x19, [sp, 16]
ldp	x29, x30, [sp], 32
.cfi_restore 30
.cfi_restore 29
.cfi_restore 19
.cfi_def_cfa_offset 0
ret
LBB0_221:
ldr	x19, [sp, 16]
ldp	x29, x30, [sp], 32
.cfi_remember_state
.cfi_restore 30
.cfi_restore 29
.cfi_restore 19
.cfi_def_cfa_offset 0
ret
LBB0_222:
ldr	x19, [sp, 16]
ldp	x29, x30, [sp], 32
.cfi_restore 30
.cfi_restore 29
.cfi_restore 19
.cfi_def_cfa_offset 0
ret
LBB0_223:
ldr	x19, [sp, 16]
ldp	x29, x30, [sp], 32
.cfi_remember_state
.cfi_restore 30
.cfi_restore 29
.cfi_restore 19
.cfi_def_cfa_offset 0
ret
LBB0_224:
ldr	x19, [sp, 16]
ldp	x29, x30, [sp], 32
.cfi_restore 30
.cfi_restore 29
.cfi_restore 19
.cfi_def_cfa_offset 0
ret
LBB0_225:
ldr	x19, [sp, 16]
ldp	x29, x30, [sp], 32
.cfi_remember_state
.cfi_restore 30
.cfi_restore 29
.cfi_restore 19
.cfi_def_cfa_offset 0
ret
LBB0_226:
ldr	x19, [sp, 16]
ldp	x29, x30, [sp], 32
.cfi_restore 30
.cfi_restore 29
.cfi_restore 19
.cfi_def_cfa_offset 0
ret
LBB0_227:
ldr	x19, [sp, 16]
ldp	x29, x30, [sp], 32
.cfi_remember_state
.cfi_restore 30
.cfi_restore 29
.cfi_restore 19
.cfi_def_cfa_offset 0
ret
LBB0_228:
ldr	x19, [sp, 16]
ldp	x29, x30, [sp], 32
.cfi_restore 30
.cfi_restore 29
.cfi_restore 19
.cfi_def_cfa_offset 0
ret
LBB0_229:
ldr	x19, [sp, 16]
ldp	x29, x30, [sp], 32
.cfi_remember_state
.cfi_restore 30
.cfi_restore 29
.cfi_restore 19
.cfi_def_cfa_offset 0
ret
LBB0_230:
ldr	x19, [sp, 16]
ldp	x29, x30, [sp], 32
.cfi_restore 30
.cfi_restore 29
.cfi_restore 19
.cfi_def_cfa_offset 0
ret
LBB0_231:
ldr	x19, [sp, 16]
ldp	x29, x30, [sp], 32
.cfi_remember_state
.cfi_restore 30
.cfi_restore 29
.cfi_restore 19
.cfi_def_cfa_offset 0
ret
LBB0_232:
ldr	x19, [sp, 16]
ldp	x29, x30, [sp], 32
.cfi_restore 30
.cfi_restore 29
.cfi_restore 19
.cfi_def_cfa_offset 0
ret
LBB0_233:
ldr	x19, [sp, 16]
ldp	x29, x30, [sp], 32
.cfi_remember_state
.cfi_restore 30
.cfi_restore 29
.cfi_restore 19
.cfi_def_cfa_offset 0
ret
LBB0_234:
ldr	x19, [sp, 16]
ldp	x29, x30, [sp], 32
.cfi_restore 30
.cfi_restore 29
.cfi_restore 19
.cfi_def_cfa_offset 0
ret
LBB0_235:
ldr	x19, [sp, 16]
ldp	x29, x30, [sp], 32
.cfi_remember_state
.cfi_restore 30
.cfi_restore 29
.cfi_restore 19
.cfi_def_cfa_offset 0
ret
LBB0_236:
ldr	x19, [sp, 16]
ldp	x29, x30, [sp], 32
.cfi_restore 30
.cfi_restore 29
.cfi_restore 19
.cfi_def_cfa_offset 0
ret
LBB0_237:
ldr	x19, [sp, 16]
ldp	x29, x30, [sp], 32
.cfi_remember_state
.cfi_restore 30
.cfi_restore 29
.cfi_restore 19
.cfi_def_cfa_offset 0
ret
LBB0_238:
ldr	x19, [sp, 16]
ldp	x29, x30, [sp], 32
.cfi_restore 30
.cfi_restore 29
.cfi_restore 19
.cfi_def_cfa_offset 0
ret
LBB0_239:
ldr	x19, [sp, 16]
ldp	x29, x30, [sp], 32
.cfi_remember_state
.cfi_restore 30
.cfi_restore 29
.cfi_restore 19
.cfi_def_cfa_offset 0
ret
LBB0_240:
ldr	x19, [sp, 16]
ldp	x29, x30, [sp], 32
.cfi_restore 30
.cfi_restore 29
.cfi_restore 19
.cfi_def_cfa_offset 0
ret
LBB0_241:
ldr	x19, [sp, 16]
ldp	x29, x30, [sp], 32
.cfi_remember_state
.cfi_restore 30
.cfi_restore 29
.cfi_restore 19
.cfi_def_cfa_offset 0
ret
LBB0_242:
ldr	x19, [sp, 16]
ldp	x29, x30, [sp], 32
.cfi_restore 30
.cfi_restore 29
.cfi_restore 19
.cfi_def_cfa_offset 0
ret
LBB0_243:
ldr	x19, [sp, 16]
ldp	x29, x30, [sp], 32
.cfi_remember_state
.cfi_restore 30
.cfi_restore 29
.cfi_restore 19
.cfi_def_cfa_offset 0
ret
LBB0_244:
ldr	x19, [sp, 16]
ldp	x29, x30, [sp], 32
.cfi_restore 30
.cfi_restore 29
.cfi_restore 19
.cfi_def_cfa_offset 0
ret
LBB0_245:
ldr	x19, [sp, 16]
ldp	x29, x30, [sp], 32
.cfi_remember_state
.cfi_restore 30
.cfi_restore 29
.cfi_restore 19
.cfi_def_cfa_offset 0
ret
LBB0_246:
ldr	x19, [sp, 16]
ldp	x29, x30, [sp], 32
.cfi_restore 30
.cfi_restore 29
.cfi_restore 19
.cfi_def_cfa_offset 0
ret
LBB0_247:
ldr	x19, [sp, 16]
ldp	x29, x30, [sp], 32
.cfi_remember_state
.cfi_restore 30
.cfi_restore 29
.cfi_restore 19
.cfi_def_cfa_offset 0
ret
LBB0_248:
ldr	x19, [sp, 16]
ldp	x29, x30, [sp], 32
.cfi_restore 30
.cfi_restore 29
.cfi_restore 19
.cfi_def_cfa_offset 0
ret
LBB0_249:
ldr	x19, [sp, 16]
ldp	x29, x30, [sp], 32
.cfi_remember_state
.cfi_restore 30
.cfi_restore 29
.cfi_restore 19
.cfi_def_cfa_offset 0
ret
LBB0_250:
ldr	x19, [sp, 16]
ldp	x29, x30, [sp], 32
.cfi_restore 30
.cfi_restore 29
.cfi_restore 19
.cfi_def_cfa_offset 0
ret
LBB0_251:
ldr	x19, [sp, 16]
ldp	x29, x30, [sp], 32
.cfi_remember_state
.cfi_restore 30
.cfi_restore 29
.cfi_restore 19
.cfi_def_cfa_offset 0
ret
LBB0_252:
ldr	x19, [sp, 16]
ldp	x29, x30, [sp], 32
.cfi_restore 30
.cfi_restore 29
.cfi_restore 19
.cfi_def_cfa_offset 0
ret
LBB0_253:
ldr	x19, [sp, 16]
ldp	x29, x30, [sp], 32
.cfi_remember_state
.cfi_restore 30
.cfi_restore 29
.cfi_restore 19
.cfi_def_cfa_offset 0
ret
LBB0_254:
ldr	x19, [sp, 16]
ldp	x29, x30, [sp], 32
.cfi_restore 30
.cfi_restore 29
.cfi_restore 19
.cfi_def_cfa_offset 0
ret
LBB0_255:
ldr	x19, [sp, 16]
ldp	x29, x30, [sp], 32
.cfi_remember_state
.cfi_restore 30
.cfi_restore 29
.cfi_restore 19
.cfi_def_cfa_offset 0
ret
LBB0_256:
ldr	x19, [sp, 16]
ldp	x29, x30, [sp], 32
.cfi_restore 30
.cfi_restore 29
.cfi_restore 19
.cfi_def_cfa_offset 0
ret
LBB0_257:
ldr	x19, [sp, 16]
ldp	x29, x30, [sp], 32
.cfi_remember_state
.cfi_restore 30
.cfi_restore 29
.cfi_restore 19
.cfi_def_cfa_offset 0
ret
LBB0_258:
ldr	x19, [sp, 16]
ldp	x29, x30, [sp], 32
.cfi_restore 30
.cfi_restore 29
.cfi_restore 19
.cfi_def_cfa_offset 0
ret
LBB0_259:
ldr	x19, [sp, 16]
ldp	x29, x30, [sp], 32
.cfi_remember_state
.cfi_restore 30
.cfi_restore 29
.cfi_restore 19
.cfi_def_cfa_offset 0
ret
LBB0_260:
ldr	x19, [sp, 16]
ldp	x29, x30, [sp], 32
.cfi_restore 30
.cfi_restore 29
.cfi_restore 19
.cfi_def_cfa_offset 0
ret
LBB0_261:
ldr	x19, [sp, 16]
ldp	x29, x30, [sp], 32
.cfi_remember_state
.cfi_restore 30
.cfi_restore 29
.cfi_restore 19
.cfi_def_cfa_offset 0
ret
LBB0_262:
ldr	x19, [sp, 16]
ldp	x29, x30, [sp], 32
.cfi_restore 30
.cfi_restore 29
.cfi_restore 19
.cfi_def_cfa_offset 0
ret
LBB0_263:
ldr	x19, [sp, 16]
ldp	x29, x30, [sp], 32
.cfi_remember_state
.cfi_restore 30
.cfi_restore 29
.cfi_restore 19
.cfi_def_cfa_offset 0
ret
LBB0_264:
ldr	x19, [sp, 16]
ldp	x29, x30, [sp], 32
.cfi_restore 30
.cfi_restore 29
.cfi_restore 19
.cfi_def_cfa_offset 0
ret
LBB0_265:
ldr	x19, [sp, 16]
ldp	x29, x30, [sp], 32
.cfi_remember_state
.cfi_restore 30
.cfi_restore 29
.cfi_restore 19
.cfi_def_cfa_offset 0
ret
LBB0_266:
ldr	x19, [sp, 16]
ldp	x29, x30, [sp], 32
.cfi_restore 30
.cfi_restore 29
.cfi_restore 19
.cfi_def_cfa_offset 0
ret
LBB0_267:
ldr	x19, [sp, 16]
ldp	x29, x30, [sp], 32
.cfi_remember_state
.cfi_restore 30
.cfi_restore 29
.cfi_restore 19
.cfi_def_cfa_offset 0
ret
LBB0_268:
ldr	x19, [sp, 16]
ldp	x29, x30, [sp], 32
.cfi_restore 30
.cfi_restore 29
.cfi_restore 19
.cfi_def_cfa_offset 0
ret
LBB0_269:
ldr	x19, [sp, 16]
ldp	x29, x30, [sp], 32
.cfi_remember_state
.cfi_restore 30
.cfi_restore 29
.cfi_restore 19
.cfi_def_cfa_offset 0
ret
LBB0_270:
ldr	x19, [sp, 16]
ldp	x29, x30, [sp], 32
.cfi_restore 30
.cfi_restore 29
.cfi_restore 19
.cfi_def_cfa_offset 0
ret
LBB0_271:
ldr	x19, [sp, 16]
ldp	x29, x30, [sp], 32
.cfi_remember_state
.cfi_restore 30
.cfi_restore 29
.cfi_restore 19
.cfi_def_cfa_offset 0
ret
LBB0_272:
ldr	x19, [sp, 16]
ldp	x29, x30, [sp], 32
.cfi_restore 30
.cfi_restore 29
.cfi_restore 19
.cfi_def_cfa_offset 0
ret
LBB0_273:
ldr	x19, [sp, 16]
ldp	x29, x30, [sp], 32
.cfi_remember_state
.cfi_restore 30
.cfi_restore 29
.cfi_restore 19
.cfi_def_cfa_offset 0
ret
LBB0_274:
ldr	x19, [sp, 16]
ldp	x29, x30, [sp], 32
.cfi_restore 30
.cfi_restore 29
.cfi_restore 19
.cfi_def_cfa_offset 0
ret
LBB0_275:
ldr	x19, [sp, 16]
ldp	x29, x30, [sp], 32
.cfi_remember_state
.cfi_restore 30
.cfi_restore 29
.cfi_restore 19
.cfi_def_cfa_offset 0
ret
LBB0_276:
ldr	x19, [sp, 16]
ldp	x29, x30, [sp], 32
.cfi_restore 30
.cfi_restore 29
.cfi_restore 19
.cfi_def_cfa_offset 0
ret
LBB0_277:
ldr	x19, [sp, 16]
ldp	x29, x30, [sp], 32
.cfi_remember_state
.cfi_restore 30
.cfi_restore 29
.cfi_restore 19
.cfi_def_cfa_offset 0
ret
LBB0_278:
ldr	x19, [sp, 16]
ldp	x29, x30, [sp], 32
.cfi_restore 30
.cfi_restore 29
.cfi_restore 19
.cfi_def_cfa_offset 0
ret
LBB0_279:
ldr	x19, [sp, 16]
ldp	x29, x30, [sp], 32
.cfi_remember_state
.cfi_restore 30
.cfi_restore 29
.cfi_restore 19
.cfi_def_cfa_offset 0
ret
LBB0_280:
ldr	x19, [sp, 16]
ldp	x29, x30, [sp], 32
.cfi_restore 30
.cfi_restore 29
.cfi_restore 19
.cfi_def_cfa_offset 0
ret
LBB0_281:
ldr	x19, [sp, 16]
ldp	x29, x30, [sp], 32
.cfi_remember_state
.cfi_restore 30
.cfi_restore 29
.cfi_restore 19
.cfi_def_cfa_offset 0
ret
LBB0_282:
ldr	x19, [sp, 16]
ldp	x29, x30, [sp], 32
.cfi_restore 30
.cfi_restore 29
.cfi_restore 19
.cfi_def_cfa_offset 0
ret
LBB0_283:
ldr	x19, [sp, 16]
ldp	x29, x30, [sp], 32
.cfi_remember_state
.cfi_restore 30
.cfi_restore 29
.cfi_restore 19
.cfi_def_cfa_offset 0
ret
LBB0_284:
ldr	x19, [sp, 16]
ldp	x29, x30, [sp], 32
.cfi_restore 30
.cfi_restore 29
.cfi_restore 19
.cfi_def_cfa_offset 0
ret
LBB0_285:
ldr	x19, [sp, 16]
ldp	x29, x30, [sp], 32
.cfi_remember_state
.cfi_restore 30
.cfi_restore 29
.cfi_restore 19
.cfi_def_cfa_offset 0
ret
LBB0_286:
ldr	x19, [sp, 16]
ldp	x29, x30, [sp], 32
.cfi_restore 30
.cfi_restore 29
.cfi_restore 19
.cfi_def_cfa_offset 0
ret
LBB0_287:
ldr	x19, [sp, 16]
ldp	x29, x30, [sp], 32
.cfi_remember_state
.cfi_restore 30
.cfi_restore 29
.cfi_restore 19
.cfi_def_cfa_offset 0
ret
LBB0_288:
ldr	x19, [sp, 16]
ldp	x29, x30, [sp], 32
.cfi_restore 30
.cfi_restore 29
.cfi_restore 19
.cfi_def_cfa_offset 0
ret
LBB0_289:
ldr	x19, [sp, 16]
ldp	x29, x30, [sp], 32
.cfi_remember_state
.cfi_restore 30
.cfi_restore 29
.cfi_restore 19
.cfi_def_cfa_offset 0
ret
LBB0_290:
ldr	x19, [sp, 16]
ldp	x29, x30, [sp], 32
.cfi_restore 30
.cfi_restore 29
.cfi_restore 19
.cfi_def_cfa_offset 0
ret
LBB0_291:
ldr	x19, [sp, 16]
ldp	x29, x30, [sp], 32
.cfi_remember_state
.cfi_restore 30
.cfi_restore 29
.cfi_restore 19
.cfi_def_cfa_offset 0
ret
LBB0_292:
ldr	x19, [sp, 16]
ldp	x29, x30, [sp], 32
.cfi_restore 30
.cfi_restore 29
.cfi_restore 19
.cfi_def_cfa_offset 0
ret
LBB0_293:
ldr	x19, [sp, 16]
ldp	x29, x30, [sp], 32
.cfi_remember_state
.cfi_restore 30
.cfi_restore 29
.cfi_restore 19
.cfi_def_cfa_offset 0
ret
LBB0_294:
ldr	x19, [sp, 16]
ldp	x29, x30, [sp], 32
.cfi_restore 30
.cfi_restore 29
.cfi_restore 19
.cfi_def_cfa_offset 0
ret
LBB0_295:
ldr	x19, [sp, 16]
ldp	x29, x30, [sp], 32
.cfi_remember_state
.cfi_restore 30
.cfi_restore 29
.cfi_restore 19
.cfi_def_cfa_offset 0
ret
LBB0_296:
ldr	x19, [sp, 16]
ldp	x29, x30, [sp], 32
.cfi_restore 30
.cfi_restore 29
.cfi_restore 19
.cfi_def_cfa_offset 0
ret
LBB0_297:
ldr	x19, [sp, 16]
ldp	x29, x30, [sp], 32
.cfi_remember_state
.cfi_restore 30
.cfi_restore 29
.cfi_restore 19
.cfi_def_cfa_offset 0
ret
LBB0_298:
ldr	x19, [sp, 16]
ldp	x29, x30, [sp], 32
.cfi_restore 30
.cfi_restore 29
.cfi_restore 19
.cfi_def_cfa_offset 0
ret
LBB0_299:
ldr	x19, [sp, 16]
ldp	x29, x30, [sp], 32
.cfi_remember_state
.cfi_restore 30
.cfi_restore 29
.cfi_restore 19
.cfi_def_cfa_offset 0
ret
LBB0_300:
ldr	x19, [sp, 16]
ldp	x29, x30, [sp], 32
.cfi_restore 30
.cfi_restore 29
.cfi_restore 19
.cfi_def_cfa_offset 0
ret
LBB0_301:
ldr	x19, [sp, 16]
ldp	x29, x30, [sp], 32
.cfi_remember_state
.cfi_restore 30
.cfi_restore 29
.cfi_restore 19
.cfi_def_cfa_offset 0
ret
LBB0_302:
ldr	x19, [sp, 16]
ldp	x29, x30, [sp], 32
.cfi_restore 30
.cfi_restore 29
.cfi_restore 19
.cfi_def_cfa_offset 0
ret
LBB0_303:
ldr	x19, [sp, 16]
ldp	x29, x30, [sp], 32
.cfi_remember_state
.cfi_restore 30
.cfi_restore 29
.cfi_restore 19
.cfi_def_cfa_offset 0
ret
LBB0_304:
ldr	x19, [sp, 16]
ldp	x29, x30, [sp], 32
.cfi_restore 30
.cfi_restore 29
.cfi_restore 19
.cfi_def_cfa_offset 0
ret
LBB0_305:
ldr	x19, [sp, 16]
ldp	x29, x30, [sp], 32
.cfi_remember_state
.cfi_restore 30
.cfi_restore 29
.cfi_restore 19
.cfi_def_cfa_offset 0
ret
LBB0_306:
ldr	x19, [sp, 16]
ldp	x29, x30, [sp], 32
.cfi_restore 30
.cfi_restore 29
.cfi_restore 19
.cfi_def_cfa_offset 0
ret
LBB0_307:
ldr	x19, [sp, 16]
ldp	x29, x30, [sp], 32
.cfi_remember_state
.cfi_restore 30
.cfi_restore 29
.cfi_restore 19
.cfi_def_cfa_offset 0
ret
LBB0_308:
ldr	x19, [sp, 16]
ldp	x29, x30, [sp], 32
.cfi_restore 30
.cfi_restore 29
.cfi_restore 19
.cfi_def_cfa_offset 0
ret
LBB0_309:
ldr	x19, [sp, 16]
ldp	x29, x30, [sp], 32
.cfi_remember_state
.cfi_restore 30
.cfi_restore 29
.cfi_restore 19
.cfi_def_cfa_offset 0
ret
LBB0_310:
ldr	x19, [sp, 16]
ldp	x29, x30, [sp], 32
.cfi_restore 30
.cfi_restore 29
.cfi_restore 19
.cfi_def_cfa_offset 0
ret
LBB0_311:
ldr	x19, [sp, 16]
ldp	x29, x30, [sp], 32
.cfi_remember_state
.cfi_restore 30
.cfi_restore 29
.cfi_restore 19
.cfi_def_cfa_offset 0
ret
LBB0_312:
ldr	x19, [sp, 16]
ldp	x29, x30, [sp], 32
.cfi_restore 30
.cfi_restore 29
.cfi_restore 19
.cfi_def_cfa_offset 0
ret
LBB0_313:
ldr	x19, [sp, 16]
ldp	x29, x30, [sp], 32
.cfi_remember_state
.cfi_restore 30
.cfi_restore 29
.cfi_restore 19
.cfi_def_cfa_offset 0
ret
LBB0_314:
ldr	x19, [sp, 16]
ldp	x29, x30, [sp], 32
.cfi_restore 30
.cfi_restore 29
.cfi_restore 19
.cfi_def_cfa_offset 0
ret
LBB0_315:
ldr	x19, [sp, 16]
ldp	x29, x30, [sp], 32
.cfi_remember_state
.cfi_restore 30
.cfi_restore 29
.cfi_restore 19
.cfi_def_cfa_offset 0
ret
LBB0_316:
ldr	x19, [sp, 16]
ldp	x29, x30, [sp], 32
.cfi_restore 30
.cfi_restore 29
.cfi_restore 19
.cfi_def_cfa_offset 0
ret
LBB0_317:
ldr	x19, [sp, 16]
ldp	x29, x30, [sp], 32
.cfi_remember_state
.cfi_restore 30
.cfi_restore 29
.cfi_restore 19
.cfi_def_cfa_offset 0
ret
LBB0_318:
ldr	x19, [sp, 16]
ldp	x29, x30, [sp], 32
.cfi_restore 30
.cfi_restore 29
.cfi_restore 19
.cfi_def_cfa_offset 0
ret
LBB0_319:
ldr	x19, [sp, 16]
ldp	x29, x30, [sp], 32
.cfi_remember_state
.cfi_restore 30
.cfi_restore 29
.cfi_restore 19
.cfi_def_cfa_offset 0
ret
LBB0_320:
ldr	x19, [sp, 16]
ldp	x29, x30, [sp], 32
.cfi_restore 30
.cfi_restore 29
.cfi_restore 19
.cfi_def_cfa_offset 0
ret
LBB0_321:
ldr	x19, [sp, 16]
ldp	x29, x30, [sp], 32
.cfi_remember_state
.cfi_restore 30
.cfi_restore 29
.cfi_restore 19
.cfi_def_cfa_offset 0
ret
LBB0_322:
ldr	x19, [sp, 16]
ldp	x29, x30, [sp], 32
.cfi_restore 30
.cfi_restore 29
.cfi_restore 19
.cfi_def_cfa_offset 0
ret
LBB0_323:
ldr	x19, [sp, 16]
ldp	x29, x30, [sp], 32
.cfi_remember_state
.cfi_restore 30
.cfi_restore 29
.cfi_restore 19
.cfi_def_cfa_offset 0
ret
LBB0_324:
ldr	x19, [sp, 16]
ldp	x29, x30, [sp], 32
.cfi_restore 30
.cfi_restore 29
.cfi_restore 19
.cfi_def_cfa_offset 0
ret
LBB0_325:
ldr	x19, [sp, 16]
ldp	x29, x30, [sp], 32
.cfi_remember_state
.cfi_restore 30
.cfi_restore 29
.cfi_restore 19
.cfi_def_cfa_offset 0
ret
LBB0_326:
ldr	x19, [sp, 16]
ldp	x29, x30, [sp], 32
.cfi_restore 30
.cfi_restore 29
.cfi_restore 19
.cfi_def_cfa_offset 0
ret
LBB0_327:
ldr	x19, [sp, 16]
ldp	x29, x30, [sp], 32
.cfi_remember_state
.cfi_restore 30
.cfi_restore 29
.cfi_restore 19
.cfi_def_cfa_offset 0
ret
LBB0_328:
ldr	x19, [sp, 16]
ldp	x29, x30, [sp], 32
.cfi_restore 30
.cfi_restore 29
.cfi_restore 19
.cfi_def_cfa_offset 0
ret
LBB0_329:
ldr	x19, [sp, 16]
ldp	x29, x30, [sp], 32
.cfi_remember_state
.cfi_restore 30
.cfi_restore 29
.cfi_restore 19
.cfi_def_cfa_offset 0
ret
LBB0_330:
ldr	x19, [sp, 16]
ldp	x29, x30, [sp], 32
.cfi_restore 30
.cfi_restore 29
.cfi_restore 19
.cfi_def_cfa_offset 0
ret
LBB0_331:
ldr	x19, [sp, 16]
ldp	x29, x30, [sp], 32
.cfi_remember_state
.cfi_restore 30
.cfi_restore 29
.cfi_restore 19
.cfi_def_cfa_offset 0
ret
LBB0_332:
ldr	x19, [sp, 16]
ldp	x29, x30, [sp], 32
.cfi_restore 30
.cfi_restore 29
.cfi_restore 19
.cfi_def_cfa_offset 0
ret
LBB0_333:
ldr	x19, [sp, 16]
ldp	x29, x30, [sp], 32
.cfi_remember_state
.cfi_restore 30
.cfi_restore 29
.cfi_restore 19
.cfi_def_cfa_offset 0
ret
LBB0_334:
ldr	x19, [sp, 16]
ldp	x29, x30, [sp], 32
.cfi_restore 30
.cfi_restore 29
.cfi_restore 19
.cfi_def_cfa_offset 0
ret
LBB0_335:
ldr	x19, [sp, 16]
ldp	x29, x30, [sp], 32
.cfi_remember_state
.cfi_restore 30
.cfi_restore 29
.cfi_restore 19
.cfi_def_cfa_offset 0
ret
LBB0_336:
ldr	x19, [sp, 16]
ldp	x29, x30, [sp], 32
.cfi_restore 30
.cfi_restore 29
.cfi_restore 19
.cfi_def_cfa_offset 0
ret
LBB0_337:
ldr	x19, [sp, 16]
ldp	x29, x30, [sp], 32
.cfi_remember_state
.cfi_restore 30
.cfi_restore 29
.cfi_restore 19
.cfi_def_cfa_offset 0
ret
LBB0_338:
ldr	x19, [sp, 16]
ldp	x29, x30, [sp], 32
.cfi_restore 30
.cfi_restore 29
.cfi_restore 19
.cfi_def_cfa_offset 0
ret
LBB0_339:
ldr	x19, [sp, 16]
ldp	x29, x30, [sp], 32
.cfi_remember_state
.cfi_restore 30
.cfi_restore 29
.cfi_restore 19
.cfi_def_cfa_offset 0
ret
LBB0_340:
ldr	x19, [sp, 16]
ldp	x29, x30, [sp], 32
.cfi_restore 30
.cfi_restore 29
.cfi_restore 19
.cfi_def_cfa_offset 0
ret
LBB0_341:
ldr	x19, [sp, 16]
ldp	x29, x30, [sp], 32
.cfi_remember_state
.cfi_restore 30
.cfi_restore 29
.cfi_restore 19
.cfi_def_cfa_offset 0
ret
LBB0_342:
ldr	x19, [sp, 16]
ldp	x29, x30, [sp], 32
.cfi_restore 30
.cfi_restore 29
.cfi_restore 19
.cfi_def_cfa_offset 0
ret
LBB0_343:
ldr	x19, [sp, 16]
ldp	x29, x30, [sp], 32
.cfi_remember_state
.cfi_restore 30
.cfi_restore 29
.cfi_restore 19
.cfi_def_cfa_offset 0
ret
LBB0_344:
ldr	x19, [sp, 16]
ldp	x29, x30, [sp], 32
.cfi_restore 30
.cfi_restore 29
.cfi_restore 19
.cfi_def_cfa_offset 0
ret
LBB0_345:
ldr	x19, [sp, 16]
ldp	x29, x30, [sp], 32
.cfi_remember_state
.cfi_restore 30
.cfi_restore 29
.cfi_restore 19
.cfi_def_cfa_offset 0
ret
LBB0_346:
ldr	x19, [sp, 16]
ldp	x29, x30, [sp], 32
.cfi_restore 30
.cfi_restore 29
.cfi_restore 19
.cfi_def_cfa_offset 0
ret
LBB0_347:
ldr	x19, [sp, 16]
ldp	x29, x30, [sp], 32
.cfi_remember_state
.cfi_restore 30
.cfi_restore 29
.cfi_restore 19
.cfi_def_cfa_offset 0
ret
LBB0_348:
ldr	x19, [sp, 16]
ldp	x29, x30, [sp], 32
.cfi_restore 30
.cfi_restore 29
.cfi_restore 19
.cfi_def_cfa_offset 0
ret
LBB0_349:
ldr	x19, [sp, 16]
ldp	x29, x30, [sp], 32
.cfi_remember_state
.cfi_restore 30
.cfi_restore 29
.cfi_restore 19
.cfi_def_cfa_offset 0
ret
LBB0_350:
ldr	x19, [sp, 16]
ldp	x29, x30, [sp], 32
.cfi_restore 30
.cfi_restore 29
.cfi_restore 19
.cfi_def_cfa_offset 0
ret
LBB0_351:
ldr	x19, [sp, 16]
ldp	x29, x30, [sp], 32
.cfi_remember_state
.cfi_restore 30
.cfi_restore 29
.cfi_restore 19
.cfi_def_cfa_offset 0
ret
LBB0_352:
ldr	x19, [sp, 16]
ldp	x29, x30, [sp], 32
.cfi_restore 30
.cfi_restore 29
.cfi_restore 19
.cfi_def_cfa_offset 0
ret
LBB0_353:
ldr	x19, [sp, 16]
ldp	x29, x30, [sp], 32
.cfi_remember_state
.cfi_restore 30
.cfi_restore 29
.cfi_restore 19
.cfi_def_cfa_offset 0
ret
LBB0_354:
ldr	x19, [sp, 16]
ldp	x29, x30, [sp], 32
.cfi_restore 30
.cfi_restore 29
.cfi_restore 19
.cfi_def_cfa_offset 0
ret
LBB0_355:
ldr	x19, [sp, 16]
ldp	x29, x30, [sp], 32
.cfi_remember_state
.cfi_restore 30
.cfi_restore 29
.cfi_restore 19
.cfi_def_cfa_offset 0
ret
LBB0_356:
ldr	x19, [sp, 16]
ldp	x29, x30, [sp], 32
.cfi_restore 30
.cfi_restore 29
.cfi_restore 19
.cfi_def_cfa_offset 0
ret
LBB0_357:
ldr	x19, [sp, 16]
ldp	x29, x30, [sp], 32
.cfi_remember_state
.cfi_restore 30
.cfi_restore 29
.cfi_restore 19
.cfi_def_cfa_offset 0
ret
LBB0_358:
ldr	x19, [sp, 16]
ldp	x29, x30, [sp], 32
.cfi_restore 30
.cfi_restore 29
.cfi_restore 19
.cfi_def_cfa_offset 0
ret
LBB0_359:
ldr	x19, [sp, 16]
ldp	x29, x30, [sp], 32
.cfi_remember_state
.cfi_restore 30
.cfi_restore 29
.cfi_restore 19
.cfi_def_cfa_offset 0
ret
LBB0_360:
ldr	x19, [sp, 16]
ldp	x29, x30, [sp], 32
.cfi_restore 30
.cfi_restore 29
.cfi_restore 19
.cfi_def_cfa_offset 0
ret
LBB0_361:
ldr	x19, [sp, 16]
ldp	x29, x30, [sp], 32
.cfi_remember_state
.cfi_restore 30
.cfi_restore 29
.cfi_restore 19
.cfi_def_cfa_offset 0
ret
LBB0_362:
ldr	x19, [sp, 16]
ldp	x29, x30, [sp], 32
.cfi_restore 30
.cfi_restore 29
.cfi_restore 19
.cfi_def_cfa_offset 0
ret
LBB0_363:
ldr	x19, [sp, 16]
ldp	x29, x30, [sp], 32
.cfi_remember_state
.cfi_restore 30
.cfi_restore 29
.cfi_restore 19
.cfi_def_cfa_offset 0
ret
LBB0_364:
ldr	x19, [sp, 16]
ldp	x29, x30, [sp], 32
.cfi_restore 30
.cfi_restore 29
.cfi_restore 19
.cfi_def_cfa_offset 0
ret
LBB0_365:
ldr	x19, [sp, 16]
ldp	x29, x30, [sp], 32
.cfi_remember_state
.cfi_restore 30
.cfi_restore 29
.cfi_restore 19
.cfi_def_cfa_offset 0
ret
LBB0_366:
ldr	x19, [sp, 16]
ldp	x29, x30, [sp], 32
.cfi_restore 30
.cfi_restore 29
.cfi_restore 19
.cfi_def_cfa_offset 0
ret
LBB0_367:
ldr	x19, [sp, 16]
ldp	x29, x30, [sp], 32
.cfi_remember_state
.cfi_restore 30
.cfi_restore 29
.cfi_restore 19
.cfi_def_cfa_offset 0
ret
LBB0_368:
ldr	x19, [sp, 16]
ldp	x29, x30, [sp], 32
.cfi_restore 30
.cfi_restore 29
.cfi_restore 19
.cfi_def_cfa_offset 0
ret
LBB0_369:
ldr	x19, [sp, 16]
ldp	x29, x30, [sp], 32
.cfi_remember_state
.cfi_restore 30
.cfi_restore 29
.cfi_restore 19
.cfi_def_cfa_offset 0
ret
LBB0_370:
ldr	x19, [sp, 16]
ldp	x29, x30, [sp], 32
.cfi_restore 30
.cfi_restore 29
.cfi_restore 19
.cfi_def_cfa_offset 0
ret
LBB0_371:
ldr	x19, [sp, 16]
ldp	x29, x30, [sp], 32
.cfi_remember_state
.cfi_restore 30
.cfi_restore 29
.cfi_restore 19
.cfi_def_cfa_offset 0
ret
LBB0_372:
ldr	x19, [sp, 16]
ldp	x29, x30, [sp], 32
.cfi_restore 30
.cfi_restore 29
.cfi_restore 19
.cfi_def_cfa_offset 0
ret
LBB0_373:
ldr	x19, [sp, 16]
ldp	x29, x30, [sp], 32
.cfi_remember_state
.cfi_restore 30
.cfi_restore 29
.cfi_restore 19
.cfi_def_cfa_offset 0
ret
LBB0_374:
ldr	x19, [sp, 16]
ldp	x29, x30, [sp], 32
.cfi_restore 30
.cfi_restore 29
.cfi_restore 19
.cfi_def_cfa_offset 0
ret
LBB0_375:
ldr	x19, [sp, 16]
ldp	x29, x30, [sp], 32
.cfi_remember_state
.cfi_restore 30
.cfi_restore 29
.cfi_restore 19
.cfi_def_cfa_offset 0
ret
LBB0_376:
ldr	x19, [sp, 16]
ldp	x29, x30, [sp], 32
.cfi_restore 30
.cfi_restore 29
.cfi_restore 19
.cfi_def_cfa_offset 0
ret
LBB0_377:
ldr	x19, [sp, 16]
ldp	x29, x30, [sp], 32
.cfi_remember_state
.cfi_restore 30
.cfi_restore 29
.cfi_restore 19
.cfi_def_cfa_offset 0
ret
LBB0_378:
ldr	x19, [sp, 16]
ldp	x29, x30, [sp], 32
.cfi_restore 30
.cfi_restore 29
.cfi_restore 19
.cfi_def_cfa_offset 0
ret
LBB0_379:
ldr	x19, [sp, 16]
ldp	x29, x30, [sp], 32
.cfi_remember_state
.cfi_restore 30
.cfi_restore 29
.cfi_restore 19
.cfi_def_cfa_offset 0
ret
LBB0_380:
ldr	x19, [sp, 16]
ldp	x29, x30, [sp], 32
.cfi_restore 30
.cfi_restore 29
.cfi_restore 19
.cfi_def_cfa_offset 0
ret
LBB0_381:
ldr	x19, [sp, 16]
ldp	x29, x30, [sp], 32
.cfi_remember_state
.cfi_restore 30
.cfi_restore 29
.cfi_restore 19
.cfi_def_cfa_offset 0
ret
LBB0_382:
ldr	x19, [sp, 16]
ldp	x29, x30, [sp], 32
.cfi_restore 30
.cfi_restore 29
.cfi_restore 19
.cfi_def_cfa_offset 0
ret
LBB0_383:
ldr	x19, [sp, 16]
ldp	x29, x30, [sp], 32
.cfi_remember_state
.cfi_restore 30
.cfi_restore 29
.cfi_restore 19
.cfi_def_cfa_offset 0
ret
LBB0_384:
ldr	x19, [sp, 16]
ldp	x29, x30, [sp], 32
.cfi_restore 30
.cfi_restore 29
.cfi_restore 19
.cfi_def_cfa_offset 0
ret
LBB0_385:
ldr	x19, [sp, 16]
ldp	x29, x30, [sp], 32
.cfi_remember_state
.cfi_restore 30
.cfi_restore 29
.cfi_restore 19
.cfi_def_cfa_offset 0
ret
LBB0_386:
ldr	x19, [sp, 16]
ldp	x29, x30, [sp], 32
.cfi_restore 30
.cfi_restore 29
.cfi_restore 19
.cfi_def_cfa_offset 0
ret
LBB0_387:
ldr	x19, [sp, 16]
ldp	x29, x30, [sp], 32
.cfi_remember_state
.cfi_restore 30
.cfi_restore 29
.cfi_restore 19
.cfi_def_cfa_offset 0
ret
LBB0_388:
ldr	x19, [sp, 16]
ldp	x29, x30, [sp], 32
.cfi_restore 30
.cfi_restore 29
.cfi_restore 19
.cfi_def_cfa_offset 0
ret
LBB0_389:
ldr	x19, [sp, 16]
ldp	x29, x30, [sp], 32
.cfi_remember_state
.cfi_restore 30
.cfi_restore 29
.cfi_restore 19
.cfi_def_cfa_offset 0
ret
LBB0_390:
ldr	x19, [sp, 16]
ldp	x29, x30, [sp], 32
.cfi_restore 30
.cfi_restore 29
.cfi_restore 19
.cfi_def_cfa_offset 0
ret
LBB0_391:
ldr	x19, [sp, 16]
ldp	x29, x30, [sp], 32
.cfi_remember_state
.cfi_restore 30
.cfi_restore 29
.cfi_restore 19
.cfi_def_cfa_offset 0
ret
LBB0_392:
ldr	x19, [sp, 16]
ldp	x29, x30, [sp], 32
.cfi_restore 30
.cfi_restore 29
.cfi_restore 19
.cfi_def_cfa_offset 0
ret
LBB0_393:
ldr	x19, [sp, 16]
ldp	x29, x30, [sp], 32
.cfi_remember_state
.cfi_restore 30
.cfi_restore 29
.cfi_restore 19
.cfi_def_cfa_offset 0
ret
LBB0_394:
ldr	x19, [sp, 16]
ldp	x29, x30, [sp], 32
.cfi_restore 30
.cfi_restore 29
.cfi_restore 19
.cfi_def_cfa_offset 0
ret
LBB0_395:
ldr	x19, [sp, 16]
ldp	x29, x30, [sp], 32
.cfi_remember_state
.cfi_restore 30
.cfi_restore 29
.cfi_restore 19
.cfi_def_cfa_offset 0
ret
LBB0_396:
ldr	x19, [sp, 16]
ldp	x29, x30, [sp], 32
.cfi_restore 30
.cfi_restore 29
.cfi_restore 19
.cfi_def_cfa_offset 0
ret
LBB0_397:
ldr	x19, [sp, 16]
ldp	x29, x30, [sp], 32
.cfi_remember_state
.cfi_restore 30
.cfi_restore 29
.cfi_restore 19
.cfi_def_cfa_offset 0
ret
LBB0_398:
ldr	x19, [sp, 16]
ldp	x29, x30, [sp], 32
.cfi_restore 30
.cfi_restore 29
.cfi_restore 19
.cfi_def_cfa_offset 0
ret
LBB0_399:
ldr	x19, [sp, 16]
ldp	x29, x30, [sp], 32
.cfi_remember_state
.cfi_restore 30
.cfi_restore 29
.cfi_restore 19
.cfi_def_cfa_offset 0
ret
LBB0_400:
ldr	x19, [sp, 16]
ldp	x29, x30, [sp], 32
.cfi_restore 30
.cfi_restore 29
.cfi_restore 19
.cfi_def_cfa_offset 0
ret
LBB0_401:
ldr	x19, [sp, 16]
ldp	x29, x30, [sp], 32
.cfi_remember_state
.cfi_restore 30
.cfi_restore 29
.cfi_restore 19
.cfi_def_cfa_offset 0
ret
LBB0_402:
ldr	x19, [sp, 16]
ldp	x29, x30, [sp], 32
.cfi_restore 30
.cfi_restore 29
.cfi_restore 19
.cfi_def_cfa_offset 0
ret
LBB0_403:
ldr	x19, [sp, 16]
ldp	x29, x30, [sp], 32
.cfi_remember_state
.cfi_restore 30
.cfi_restore 29
.cfi_restore 19
.cfi_def_cfa_offset 0
ret
LBB0_404:
ldr	x19, [sp, 16]
ldp	x29, x30, [sp], 32
.cfi_restore 30
.cfi_restore 29
.cfi_restore 19
.cfi_def_cfa_offset 0
ret
LBB0_405:
ldr	x19, [sp, 16]
ldp	x29, x30, [sp], 32
.cfi_remember_state
.cfi_restore 30
.cfi_restore 29
.cfi_restore 19
.cfi_def_cfa_offset 0
ret
LBB0_406:
ldr	x19, [sp, 16]
ldp	x29, x30, [sp], 32
.cfi_restore 30
.cfi_restore 29
.cfi_restore 19
.cfi_def_cfa_offset 0
ret
LBB0_407:
ldr	x19, [sp, 16]
ldp	x29, x30, [sp], 32
.cfi_remember_state
.cfi_restore 30
.cfi_restore 29
.cfi_restore 19
.cfi_def_cfa_offset 0
ret
LBB0_408:
ldr	x19, [sp, 16]
ldp	x29, x30, [sp], 32
.cfi_restore 30
.cfi_restore 29
.cfi_restore 19
.cfi_def_cfa_offset 0
ret
LBB0_409:
ldr	x19, [sp, 16]
ldp	x29, x30, [sp], 32
.cfi_remember_state
.cfi_restore 30
.cfi_restore 29
.cfi_restore 19
.cfi_def_cfa_offset 0
ret
LBB0_410:
ldr	x19, [sp, 16]
ldp	x29, x30, [sp], 32
.cfi_restore 30
.cfi_restore 29
.cfi_restore 19
.cfi_def_cfa_offset 0
ret
LBB0_411:
ldr	x19, [sp, 16]
ldp	x29, x30, [sp], 32
.cfi_remember_state
.cfi_restore 30
.cfi_restore 29
.cfi_restore 19
.cfi_def_cfa_offset 0
ret
LBB0_412:
ldr	x19, [sp, 16]
ldp	x29, x30, [sp], 32
.cfi_restore 30
.cfi_restore 29
.cfi_restore 19
.cfi_def_cfa_offset 0
ret
LBB0_413:
ldr	x19, [sp, 16]
ldp	x29, x30, [sp], 32
.cfi_remember_state
.cfi_restore 30
.cfi_restore 29
.cfi_restore 19
.cfi_def_cfa_offset 0
ret
LBB0_414:
ldr	x19, [sp, 16]
ldp	x29, x30, [sp], 32
.cfi_restore 30
.cfi_restore 29
.cfi_restore 19
.cfi_def_cfa_offset 0
ret
LBB0_415:
ldr	x19, [sp, 16]
ldp	x29, x30, [sp], 32
.cfi_remember_state
.cfi_restore 30
.cfi_restore 29
.cfi_restore 19
.cfi_def_cfa_offset 0
ret
LBB0_416:
ldr	x19, [sp, 16]
ldp	x29, x30, [sp], 32
.cfi_restore 30
.cfi_restore 29
.cfi_restore 19
.cfi_def_cfa_offset 0
ret
LBB0_417:
ldr	x19, [sp, 16]
ldp	x29, x30, [sp], 32
.cfi_remember_state
.cfi_restore 30
.cfi_restore 29
.cfi_restore 19
.cfi_def_cfa_offset 0
ret
LBB0_418:
ldr	x19, [sp, 16]
ldp	x29, x30, [sp], 32
.cfi_restore 30
.cfi_restore 29
.cfi_restore 19
.cfi_def_cfa_offset 0
ret
LBB0_419:
ldr	x19, [sp, 16]
ldp	x29, x30, [sp], 32
.cfi_remember_state
.cfi_restore 30
.cfi_restore 29
.cfi_restore 19
.cfi_def_cfa_offset 0
ret
LBB0_420:
ldr	x19, [sp, 16]
ldp	x29, x30, [sp], 32
.cfi_restore 30
.cfi_restore 29
.cfi_restore 19
.cfi_def_cfa_offset 0
ret
LBB0_421:
ldr	x19, [sp, 16]
ldp	x29, x30, [sp], 32
.cfi_remember_state
.cfi_restore 30
.cfi_restore 29
.cfi_restore 19
.cfi_def_cfa_offset 0
ret
LBB0_422:
ldr	x19, [sp, 16]
ldp	x29, x30, [sp], 32
.cfi_restore 30
.cfi_restore 29
.cfi_restore 19
.cfi_def_cfa_offset 0
ret
LBB0_423:
ldr	x19, [sp, 16]
ldp	x29, x30, [sp], 32
.cfi_remember_state
.cfi_restore 30
.cfi_restore 29
.cfi_restore 19
.cfi_def_cfa_offset 0
ret
LBB0_424:
ldr	x19, [sp, 16]
ldp	x29, x30, [sp], 32
.cfi_restore 30
.cfi_restore 29
.cfi_restore 19
.cfi_def_cfa_offset 0
ret
LBB0_425:
ldr	x19, [sp, 16]
ldp	x29, x30, [sp], 32
.cfi_remember_state
.cfi_restore 30
.cfi_restore 29
.cfi_restore 19
.cfi_def_cfa_offset 0
ret
LBB0_426:
ldr	x19, [sp, 16]
ldp	x29, x30, [sp], 32
.cfi_restore 30
.cfi_restore 29
.cfi_restore 19
.cfi_def_cfa_offset 0
ret
LBB0_427:
ldr	x19, [sp, 16]
ldp	x29, x30, [sp], 32
.cfi_remember_state
.cfi_restore 30
.cfi_restore 29
.cfi_restore 19
.cfi_def_cfa_offset 0
ret
LBB0_428:
ldr	x19, [sp, 16]
ldp	x29, x30, [sp], 32
.cfi_restore 30
.cfi_restore 29
.cfi_restore 19
.cfi_def_cfa_offset 0
ret
LBB0_429:
ldr	x19, [sp, 16]
ldp	x29, x30, [sp], 32
.cfi_remember_state
.cfi_restore 30
.cfi_restore 29
.cfi_restore 19
.cfi_def_cfa_offset 0
ret
LBB0_430:
ldr	x19, [sp, 16]
ldp	x29, x30, [sp], 32
.cfi_restore 30
.cfi_restore 29
.cfi_restore