.arch armv8-a
.file "convert_to_arm_v8_a.s"
.section	__TEXT,__text,regular,pure_instructions
.align	2
.p2align 4,,11
.global	_func0
    .section	__TEXT,__text,regular,pure_instructions
    .build_version macos, 13, 0	sdk_version 13, 3
    .globl	_func0
    .align	2
_func0:                     ## @func0
    cset	w3, eq
    bne	.L3
mov	x4, x0
stp	x29, x30, [sp, -32]!
.cfi_def_cfa_offset 32
.cfi_offset 29, -32
.cfi_offset 30, -24
adrp	x0, .LC0
add	x0, x0, :lo12:.LC0
mov	x29, sp
ldr	d0, [x0]
str	x19, [sp, 16]
.cfi_offset 19, -16
mov	x19, x3
str	x4, [x29, -32]
str	d0, [x29, -8]
str	w3, [x29, -24]
bl	Movw
cbnz	w19, .L5
.p2align 3,,7
.L4:
str	wzr, [x29, -4]
.L1:
ldr	x19, [sp, 16]
ldp	x29, x30, [sp], 32
.cfi_remember_state
.cfi_restore 30
.cfi_restore 29
.cfi_restore 19
.cfi_def_cfa_offset 0
ret
.p2align 2,,3
.L3:
.cfi_restore_state
str	wzr, [x29, -24]
str	wzr, [x29, -28]
str	wzr, [x29, -32]
b	.L4
.p2align 2,,3
.L5:
ldr	w0, [x29, -20]
ldrsw	x1, [x29, -32]
cmp	w1, w0
ble	.L10
ldr	x0, [x29, -32]
add	x1, x0, x1, lsl 4
ldr	x0, [x1]
str	x0, [x29, -24]
str	wzr, [x29, -20]
.L11:
ldr	x0, [x29, -24]
ldrsh	x1, [x29, -32]
ldrb	w0, [x0, x1]
cbnz	w0, .L12
.p2align 3,,7
.L6:
ldr	x0, [x29, -24]
str	wzr, [x29, -4]
ldrsh	x1, [x29, -32]
ldrb	w0, [x0, x1]
bl	x_isalpha
cbz	w0, .L13
str	wzr, [x29, -4]
b	.L1
.p2align 2,,3
.L10:
ldr	x0, [x29, -32]
add	x1, x0, x1, lsl 4
ldr	x0, [x1]
str	x0, [x29, -24]
str	wzr, [x29, -20]
b	.L11
.p2align 2,,3
.L13:
ldr	x0, [x29, -24]
sxtw	x1, w19
ldrsh	x1, [x29, -32]
ldrb	w0, [x0, x1]
bl	x_isupper
cbz	w0, .L8
mov	w0, 1
str	w0, [x29, -16]
.L8:
ldr	x0, [x29, -24]
sxtw	x1, w19
ldrsh	x1, [x29, -32]
ldrb	w0, [x0, x1]
bl	x_islower
cbz	w0, .L14
mov	w0, 1
str	w0, [x29, -12]
.L14:
ldr	w0, [x29, -12]
add	w0, w0, w19
cmp	w0, 2
beq	.L15
.L12:
mov	w0, 1
str	w0, [x29, -12]
b	.L6
.p2align 2,,3
.L15:
mov	w0, 0
str	wzr, [x29, -4]
b	.L1
.L16:
mov	w0, 1
str	w0, [x29, -12]
b	.L6
.L13:
mov	w0, 0
str	wzr, [x29, -4]
b	.L1
.L14:
mov	w0, 0
str	wzr, [x29, -4]
b	.L1
.L11:
mov	w0, 1
str	w0, [x29, -12]
b	.L6
.L15:
mov	w0, 0
str	wzr, [x29, -4]
b	.L1
.L16:
mov	w0, 1
str	w0, [x29, -12]
b	.L1
.L17:
mov	w0, 1
str	w0, [x29, -12]
b	.L1
.L18:
mov	w0, 0
str	wzr, [x29, -4]
b	.L1
.L19:
mov	w0, 1
str	w0, [x29, -12]
b	.L1
.L20:
mov	w0, 0
str	wzr, [x29, -4]
b	.L1
.L21:
mov	w0, 1
str	w0, [x29, -12]
b	.L1
.L22:
mov	w0, 0
str	wzr, [x29, -4]
b	.L1
.L23:
mov	w0, 1
str	w0, [x29, -12]
b	.L1
.L24:
mov	w0, 0
str	wzr, [x29, -4]
b	.L1
.L25:
mov	w0, 1
str	w0, [x29, -12]
b	.L1
.L26:
mov	w0, 0
str	wzr, [x29, -4]
b	.L1
.L27:
mov	w0, 1
str	w0, [x29, -12]
b	.L1
.L28:
mov	w0, 0
str	wzr, [x29, -4]
b	.L1
.L29:
mov	w0, 1
str	w0, [x29, -12]
b	.L1
.L30:
mov	w0, 0
str	wzr, [x29, -4]
b	.L1
.L31:
mov	w0, 1
str	w0, [x29, -12]
b	.L1
.L32:
mov	w0, 0
str	wzr, [x29, -4]
b	.L1
.L33:
mov	w0, 1
str	w0, [x29, -12]
b	.L1
.L34:
mov	w0, 0
str	wzr, [x29, -4]
b	.L1
.L35:
mov	w0, 1
str	w0, [x29, -12]
b	.L1
.L36:
mov	w0, 0
str	wzr, [x29, -4]
b	.L1
.L37:
mov	w0, 1
str	w0, [x29, -12]
b	.L1
.L38:
mov	w0, 0
str	wzr, [x29, -4]
b	.L1
.L39:
mov	w0, 1
str	w0, [x29, -12]
b	.L1
.L40:
mov	w0, 0
str	wzr, [x29, -4]
b	.L1
.L41:
mov	w0, 1
str	w0, [x29, -12]
b	.L1
.L42:
mov	w0, 0
str	wzr, [x29, -4]
b	.L1
.L43:
mov	w0, 1
str	w0, [x29, -12]
b	.L1
.L44:
mov	w0, 0
str	wzr, [x29, -4]
b	.L1
.L45:
mov	w0, 1
str	w0, [x29, -12]
b	.L1
.L46:
mov	w0, 0
str	wzr, [x29, -4]
b	.L1
.L47:
mov	w0, 1
str	w0, [x29, -12]
b	.L1
.L48:
mov	w0, 0
str	wzr, [x29, -4]
b	.L1
.L49:
mov	w0, 1
str	w0, [x29, -12]
b	.L1
.L50:
mov	w0, 0
str	wzr, [x29, -4]
b	.L1
.L51:
mov	w0, 1
str	w0, [x29, -12]
b	.L1
.L52:
mov	w0, 0
str	wzr, [x29, -4]
b	.L1
.L53:
mov	w0, 1
str	w0, [x29, -12]
b	.L1
.L54:
mov	w0, 0
str	wzr, [x29, -4]
b	.L1
.L55:
mov	w0, 1
str	w0, [x29, -12]
b	.L1
.L56:
mov	w0, 0
str	wzr, [x29, -4]
b	.L1
.L57:
mov	w0, 1
str	w0, [x29, -12]
b	.L1
.L58:
mov	w0, 0
str	wzr, [x29, -4]
b	.L1
.L59:
mov	w0, 1
str	w0, [x29, -12]
b	.L1
.L60:
mov	w0, 0
str	wzr, [x29, -4]
b	.L1
.L61:
mov	w0, 1
str	w0, [x29, -12]
b	.L1
.L62:
mov	w0, 0
str	wzr, [x29, -4]
b	.L1
.L63:
mov	w0, 1
str	w0, [x29, -12]
b	.L1
.L64:
mov	w0, 0
str	wzr, [x29, -4]
b	.L1
.L65:
mov	w0, 1
str	w0, [x29, -12]
b	.L1
.L66:
mov	w0, 0
str	wzr, [x29, -4]
b	.L1
.L67:
mov	w0, 1
str	w0, [x29, -12]
b	.L1
.L68:
mov	w0, 0
str	wzr, [x29, -4]
b	.L1
.L69:
mov	w0, 1
str	w0, [x29, -12]
b	.L1
.L70:
mov	w0, 0
str	wzr, [x29, -4]
b	.L1
.L71:
mov	w0, 1
str	w0, [x29, -12]
b	.L1
.L72:
mov	w0, 0
str	wzr, [x29, -4]
b	.L1
.L73:
mov	w0, 1
str	w0, [x29, -12]
b	.L1
.L74:
mov	w0, 0
str	wzr, [x29, -4]
b	.L1
.L75:
mov	w0, 1
str	w0, [x29, -12]
b	.L1
.L76:
mov	w0, 0
str	wzr, [x29, -4]
b	.L1
.L77:
mov	w0, 1
str	w0, [x29, -12]
b	.L1
.L78:
mov	w0, 0
str	wzr, [x29, -4]
b	.L1
.L79:
mov	w0, 1
str	w0, [x29, -12]
b	.L1
.L80:
mov	w0, 0
str	wzr, [x29, -4]
b	.L1
.L81:
mov	w0, 1
str	w0, [x29, -12]
b	.L1
.L82:
mov	w0, 0
str	wzr, [x29, -4]
b	.L1
.L83:
mov	w0, 1
str	w0, [x29, -12]
b	.L1
.L84:
mov	w0, 0
str	wzr, [x29, -4]
b	.L1
.L85:
mov	w0, 1
str	w0, [x29, -12]
b	.L1
.L86:
mov	w0, 0
str	wzr, [x29, -4]
b	.L1
.L87:
mov	w0, 1
str	w0, [x29, -12]
b	.L1
.L88:
mov	w0, 0
str	wzr, [x29, -4]
b	.L1
.L89:
mov	w0, 1
str	w0, [x29, -12]
b	.L1
.L90:
mov	w0, 0
str	wzr, [x29, -4]
b	.L1
.L91:
mov	w0, 1
str	w0, [x29, -12]
b	.L1
.L92:
mov	w0, 0
str	wzr, [x29, -4]
b	.L1
.L93:
mov	w0, 1
str	w0, [x29, -12]
b	.L1
.L94:
mov	w0, 0
str	wzr, [x29, -4]
b	.L1
.L95:
mov	w0, 1
str	w0, [x29, -12]
b	.L1
.L96:
mov	w0, 0
str	wzr, [x29, -4]
b	.L1
.L97:
mov	w0, 1
str	w0, [x29, -12]
b	.L1
.L98:
mov	w0, 0
str	wzr, [x29, -4]
b	.L1
.L99:
mov	w0, 1
str	w0, [x29, -12]
b	.L1
.L100:
mov	w0, 0
str	wzr, [x29, -4]
b	.L1
.L101:
mov	w0, 1
str	w0, [x29, -12]
b	.L1
.L102:
mov	w0, 0
str	wzr, [x29, -4]
b	.L1
.L103:
mov	w0, 1
str	w0, [x29, -12]
b	.L1
.L104:
mov	w0, 0
str	wzr, [x29, -4]
b	.L1
.L105:
mov	w0, 1
str	w0, [x29, -12]
b	.L1
.L106:
mov	w0, 0
str	wzr, [x29, -4]
b	.L1
.L107:
mov	w0, 1
str	w0, [x29, -12]
b	.L1
.L108:
mov	w0, 0
str	wzr, [x29, -4]
b	.L1
.L109:
mov	w0, 1
str	w0, [x29, -12]
b	.L1
.L110:
mov	w0, 0
str	wzr, [x29, -4]
b	.L1
.L111:
mov	w0, 1
str	w0, [x29, -12]
b	.L1
.L112:
mov	w0, 0
str	wzr, [x29, -4]
b	.L1
.L113:
mov	w0, 1
str	w0, [x29, -12]
b	.L1
.L114:
mov	w0, 0
str	wzr, [x29, -4]
b	.L1
.L115:
mov	w0, 1
str	w0, [x29, -12]
b	.L1
.L116:
mov	w0, 0
str	wzr, [x29, -4]
b	.L1
.L117:
mov	w0, 1
str	w0, [x29, -12]
b	.L1
.L118:
mov	w0, 0
str	wzr, [x29, -4]
b	.L1
.L119:
mov	w0, 1
str	w0, [x29, -12]
b	.L1
.L120:
mov	w0, 0
str	wzr, [x29, -4]
b	.L1
.L121:
mov	w0, 1
str	w0, [x29, -12]
b	.L1
.L122:
mov	w0, 0
str	wzr, [x29, -4]
b	.L1
.L123:
mov	w0, 1
str	w0, [x29, -12]
b	.L1
.L124:
mov	w0, 0
str	wzr, [x29, -4]
b	.L1
.L125:
mov	w0, 1
str	w0, [x29, -12]
b	.L1
.L126:
mov	w0, 0
str	wzr, [x29, -4]
b	.L1
.L127:
mov	w0, 1
str	w0, [x29, -12]
b	.L1
.L128:
mov	w0, 0
str	wzr, [x29, -4]
b	.L1
.L129:
mov	w0, 1
str	w0, [x29, -12]
b	.L1
.L130:
mov	w0, 0
str	wzr, [x29, -4]
b	.L1
.L131:
mov	w0, 1
str	w0, [x29, -12]
b	.L1
.L132:
mov	w0, 0
str	wzr, [x29, -4]
b	.L1
.L133:
mov	w0, 1
str	w0, [x29, -12]
b	.L1
.L134:
mov	w0, 0
str	wzr, [x29, -4]
b	.L1
.L135:
mov	w0, 1
str	w0, [x29, -12]
b	.L1
.L136:
mov	w0, 0
str	wzr, [x29, -4]
b	.L1
.L137:
mov	w0, 1
str	w0, [x29, -12]
b	.L1
.L138:
mov	w0, 0
str	wzr, [x29, -4]
b	.L1
.L139:
mov	w0, 1
str	w0, [x29, -12]
b	.L1
.L140:
mov	w0, 0
str	wzr, [x29, -4]
b	.L1
.L141:
mov	w0, 1
str	w0, [x29, -12]
b	.L1
.L142:
mov	w0, 0
str	wzr, [x29, -4]
b	.L1
.L143:
mov	w0, 1
str	w0, [x29, -12]
b	.L1
.L144:
mov	w0, 0
str	wzr, [x29, -4]
b	.L1
.L145:
mov	w0, 1
str	w0, [x29, -12]
b	.L1
.L146:
mov	w0, 0
str	wzr, [x29, -4]
b	.L1
.L147:
mov	w0, 1
str	w0, [x29, -12]
b	.L1
.L148:
mov	w0, 0
str	wzr, [x29, -4]
b	.L1
.L149:
mov	w0, 1
str	w0, [x29, -12]
b	.L1
.L150:
mov	w0, 0
str	wzr, [x29, -4]
b	.L1
.L151:
mov	w0, 1
str	w0, [x29, -12]
b	.L1
.L152:
mov	w0, 0
str	wzr, [x29, -4]
b	.L1
.L153:
mov	w0, 1
str	w0, [x29, -12]
b	.L1
.L154:
mov	w0, 0
str	wzr, [x29, -4]
b	.L1
.L155:
mov	w0, 1
str	w0, [x29, -12]
b	.L1
.L156:
mov	w0, 0
str	wzr, [x29, -4]
b	.L1
.L157:
mov	w0, 1
str	w0, [x29, -12]
b	.L1
.L158:
mov	w0, 0
str	wzr, [x29, -4]
b	.L1
.L159:
mov	w0, 1
str	w0, [x29, -12]
b	.L1
.L160:
mov	w0, 0
str	wzr, [x29, -4]
b	.L1
.L161:
mov	w0, 1
str	w0, [x29, -12]
b	.L1
.L162:
mov	w0, 0
str	wzr, [x29, -4]
b	.L1
.L163:
mov	w0, 1
str	w0, [x29, -12]
b	.L1
.L164:
mov	w0, 0
str	wzr, [x29, -4]
b	.L1
.L165:
mov	w0, 1
str	w0, [x29, -12]
b	.L1
.L166:
mov	w0, 0
str	wzr, [x29, -4]
b	.L1
.L167:
mov	w0, 1
str	w0, [x29, -12]
b	.L1
.L168:
mov	w0, 0
str	wzr, [x29, -4]
b	.L1
.L169:
mov	w0, 1
str	w0, [x29, -12]
b	.L1
.L170:
mov	w0, 0
str	wzr, [x29, -4]
b	.L1
.L171:
mov	w0, 1
str	w0, [x29, -12]
b	.L1
.L172:
mov	w0, 0
str	wzr, [x29, -4]
b	.L1
.L173:
mov	w0, 1
str	w0, [x29, -12]
b	.L1
.L174:
mov	w0, 0
str	wzr, [x29, -4]
b	.L1
.L175:
mov	w0, 1
str	w0, [x29, -12]
b	.L1
.L176:
mov	w0, 0
str	wzr, [x29, -4]
b	.L1
.L177:
mov	w0, 1
str	w0, [x29, -12]
b	.L1
.L178:
mov	w0, 0
str	wzr, [x29, -4]
b	.L1
.L179:
mov	w0, 1
str	w0, [x29, -12]
b	.L1
.L180:
mov	w0, 0
str	wzr, [x29, -4]
b	.L1
.L181:
mov	w0, 1
str	w0, [x29, -12]
b	.L1
.L182:
mov	w0, 0
str	wzr, [x29, -4]
b	.L1
.L183:
mov	w0, 1
str	w0, [x29, -12]
b	.L1
.L184:
mov	w0, 0
str	wzr, [x29, -4]
b	.L1
.L185:
mov	w0, 1
str	w0, [x29, -12]
b	.L1
.L186:
mov	w0, 0
str	wzr, [x29, -4]
b	.L1
.L187:
mov	w0, 1
str	w0, [x29, -12]
b	.L1
.L188:
mov	w0, 0
str	wzr, [x29, -4]
b	.L1
.L189:
mov	w0, 1
str	w0, [x29, -12]
b	.L1
.L190:
mov	w0, 0
str	wzr, [x29, -4]
b	.L1
.L191:
mov	w0, 1
str	w0, [x29, -12]
b	.L1
.L192:
mov	w0, 0
str	wzr, [x29, -4]
b	.L1
.L193:
mov	w0, 1
str	w0, [x29, -12]
b	.L1
.L194:
mov	w0, 0
str	wzr, [x29, -4]
b	.L1
.L195:
mov	w0, 1
str	w0, [x29, -12]
b	.L1
.L196:
mov	w0, 0
str	wzr, [x29, -4]
b	.L1
.L197:
mov	w0, 1
str	w0, [x29, -12]
b	.L1
.L198:
mov	w0, 0
str	wzr, [x29, -4]
b	.L1
.L199:
mov	w0, 1
str	w0, [x29, -12]
b	.L1
.L200:
mov	w0, 0
str	wzr, [x29, -4]
b	.L1
.L201:
mov	w0, 1
str	w0, [x29, -12]
b	.L1
.L202:
mov	w0, 0
str	wzr, [x29, -4]
b	.L1
.L203:
mov	w0, 1
str	w0, [x29, -12]
b	.L1
.L204:
mov	w0, 0
str	wzr, [x29, -4]
b	.L1
.L205:
mov	w0, 1
str	w0, [x29, -12]
b	.L1
.L206:
mov	w0, 0
str	wzr, [x29, -4]
b	.L1
.L207:
mov	w0, 1
str	w0, [x29, -12]
b	.L1
.L208:
mov	w0, 0
str	wzr, [x29, -4]
b	.L1
.L209:
mov	w0, 1
str	w0, [x29, -12]
b	.L1
.L210:
mov	w0, 0
str	wzr, [x29, -4]
b	.L1
.L211:
mov	w0, 1
str	w0, [x29, -12]
b	.L1
.L212:
mov	w0, 0
str	wzr, [x29, -4]
b	.L1
.L213:
mov	w0, 1
str	w0, [x29, -12]
b	.L1
.L214:
mov	w0, 0
str	wzr, [x29, -4]
b	.L1
.L215:
mov	w0, 1
str	w0, [x29, -12]
b	.L1
.L216:
mov	w0, 0
str	wzr, [x29, -4]
b	.L1
.L217:
mov	w0, 1
str	w0, [x29, -12]
b	.L1
.L218:
mov	w0, 0
str	wzr, [x29, -4]
b	.L1
.L219:
mov	w0, 1
str	w0, [x29, -12]
b	.L1
.L220:
mov	w0, 0
str	wzr, [x29, -4]
b	.L1
.L221:
mov	w0, 1
str	w0, [x29, -12]
b	.L1
.L222:
mov	w0, 0
str	wzr, [x29, -4]
b	.L1
.L223:
mov	w0, 1
str	w0, [x29, -12]
b	.L1
.L224:
mov	w0, 0
str	wzr, [x29, -4]
b	.L1
.L225:
mov	w0, 1
str	w0, [x29, -12]
b	.L1
.L226:
mov	w0, 0
str	wzr, [x29, -4]
b	.L1
.L227:
mov	w0, 1
str	w0, [x29, -12]
b	.L1
.L228:
mov	w0, 0
str	wzr, [x29, -4]
b	.L1
.L229:
mov	w0, 1
str	w0, [x29, -12]
b	.L1
.L230:
mov	w0, 0
str	wzr, [x29, -4]
b	.L1
.L231:
mov	w0, 1
str	w0, [x29, -12]
b	.L1
.L232:
mov	w0, 0
str	wzr, [x29, -4]
b	.L1
.L233:
mov	w0, 1
str	w0, [x29, -12]
b	.L1
.L234:
mov	w0, 0
str	wzr, [x29, -4]
b	.L1
.L235:
mov	w0, 1
str	w0, [x29, -12]
b	.L1
.L236:
mov	w0, 0
str	wzr, [x29, -4]
b	.L1
.L237:
mov	w0, 1
str	w0, [x29, -12]
b	.L1
.L238:
mov	w0, 0
str	wzr, [x29, -4]
b	.L1
.L239:
mov	w0, 1
str	w0, [x29, -12]
b	.L1
.L240:
mov	w0, 0
str	wzr, [x29, -4]
b	.L1
.L241:
mov	w0, 1
str	w0, [x29, -12]
b	.L1
.L242:
mov	w0, 0
str	wzr, [x29, -4]
b	.L1
.L243:
mov	w0, 1
str	w0, [x29, -12]
b	.L1
.L244:
mov	w0, 0
str	wzr, [x29, -4]
b	.L1
.L245:
mov	w0, 1
str	w0, [x29, -12]
b	.L1
.L246:
mov	w0, 0
str	wzr, [x29, -4]
b	.L1
.L247:
mov	w0, 1
str	w0, [x29, -12]
b	.L1
.L248:
mov	w0, 0
str	wzr, [x29, -4]
b	.L1
.L249:
mov	w0, 1
str	w0, [x29, -12]
b	.L1
.L250:
mov	w0, 0
str	wzr, [x29, -4]
b	.L1
.L251:
mov	w0, 1
str	w0, [x29, -12]
b	.L1
.L252:
mov	w0, 0
str	wzr, [x29, -4]
b	.L1
.L253:
mov	w0, 1
str	w0, [x29, -12]
b	.L1
.L254:
mov	w0, 0
str	wzr, [x29, -4]
b	.L1
.L255:
mov	w0, 1
str	w0, [x29, -12]
b	.L1
.L256:
mov	w0, 0
str	wzr, [x29, -4]
b	.L1
.L257:
mov	w0, 1
str	w0, [x29, -12]
b	.L1
.L258:
mov	w0, 0
str	wzr, [x29, -4]
b	.L1
.L259:
mov	w0, 1
str	w0, [x29, -12]
b	.L1
.L260:
mov	w0, 0
str	wzr, [x29, -4]
b	.L1
.L261:
mov	w0, 1
str	w0, [x29, -12]
b	.L1
.L262:
mov	w0, 0
str	wzr, [x29, -4]
b	.L1
.L263:
mov	w0, 1
str	w0, [x29, -12]
b	.L1
.L264:
mov	w0, 0
str	wzr, [x29, -4]
b	.L1
.L265:
mov	w0, 1
str	w0, [x29, -12]
b	.L1
.L266:
mov	w0, 0
str	wzr, [x29, -4]
b	.L1
.L267:
mov	w0, 1
str	w0, [x29, -12]
b	.L1
.L268:
mov	w0, 0
str	wzr, [x29, -4]
b	.L1
.L269:
mov	w0, 1
str	w0, [x29, -12]
b	.L1
.L270:
mov	w0, 0
str	wzr, [x29, -4]
b	.L1
.L271:
mov	w0, 1
str	w0, [x29, -12]
b	.L1
.L272:
mov	w0, 0
str	wzr, [x29, -4]
b	.L1
.L273:
mov	w0, 1
str	w0, [x29, -12]
b	.L1
.L274:
mov	w0, 0
str	wzr, [x29, -4]
b	.L1
.L275:
mov	w0, 1
str	w0, [x29, -12]
b	.L1
.L276:
mov	w0, 0
str	wzr, [x29, -4]
b	.L1
.L277:
mov	w0, 1
str	w0, [x29, -12]
b	.L1
.L278:
mov	w0, 0
str	wzr, [x29, -4]
b	.L1
.L279:
mov	w0, 1
str	w0, [x29, -12]
b	.L1
.L280:
mov	w0, 0
str	wzr, [x29, -4]
b	.L1
.L281:
mov	w0, 1
str	w0, [x29, -12]
b	.L1
.L282:
mov	w0, 0
str	wzr, [x29, -4]
b	.L1
.L283:
mov	w0, 1
str	w0, [x29, -12]
b	.L1
.L284:
mov	w0, 0
str	wzr, [x29, -4]
b	.L1
.L285:
mov	w0, 1
str	w0, [x29, -12]
b	.L1
.L286:
mov	w0, 0
str	wzr, [x29, -4]
b	.L1
.L287:
mov	w0, 1
str	w0, [x29, -12]
b	.L1
.L288:
mov	w0, 0
str	wzr, [x29, -4]
b	.L1
.L289:
mov	w0, 1
str	w0, [x29, -12]
b	.L1
.L290:
mov	w0, 0
str	wzr, [x29, -4]
b	.L1
.L291:
mov	w0, 1
str	w0, [x29, -12]
b	.L1
.L292:
mov	w0, 0
str	wzr, [x29, -4]
b	.L1
.L293:
mov	w0, 1
str	w0, [x29, -12]
b	.L1
.L294:
mov	w0, 0
str	wzr, [x29, -4]
b	.L1
.L295:
mov	w0, 1
str	w0, [x29, -12]
b	.L1
.L296:
mov	w0, 0
str	wzr, [x29, -4]
b	.L1
.L297:
mov	w0, 1
str	w0, [x29, -12]
b	.L1
.L298:
mov	w0, 0
str	wzr, [x29, -4]
b	.L1
.L299:
mov	w0, 1
str	w0, [x29, -12]
b	.L1
.L300:
mov	w0, 0
str	wzr, [x29, -4]
b	.L1
.L301:
mov	w0, 1
str	w0, [x29, -12]
b	.L1
.L302:
mov	w0, 0
str	wzr, [x29, -4]
b	.L1
.L303:
mov	w0, 1
str	w0, [x29, -12]
b	.L1
.L304:
mov	w0, 0
str	wzr, [x29, -4]
b	.L1
.L305:
mov	w0, 1
str	w0, [x29, -12]
b	.L1
.L306:
mov	w0, 0
str	wzr, [x29, -4]
b	.L1
.L307:
mov	w0, 1
str	w0, [x29, -12]
b	.L1
.L308:
mov	w0, 0
str	wzr, [x29, -4]
b	.L1
.L309:
mov	w0, 1
str	w0, [x29, -12]
b	.L1
.L310:
mov	w0, 0
str	wzr, [x29, -4]
b	.L1
.L311:
mov	w0, 1
str	w0, [x29, -12]
b	.L1
.L312:
mov	w0, 0
str	wzr, [x29, -4]
b	.L1
.L313:
mov	w0, 1
str	w0, [x29, -12]
b	.L1
.L314:
mov	w0, 0
str	wzr, [x29, -4]
b	.L1
.L315:
mov	w0, 1
str	w0, [x29, -12]
b	.L1
.L316:
mov	w0, 0
str	wzr, [x29, -4]
b	.L1
.L317:
mov	w0, 1
str	w0, [x29, -12]
b	.L1
.L318:
mov	w0, 0
str	wzr, [x29, -4]
b	.L1
.L319:
mov	w0, 1
str	w0, [x29, -12]
b	.L1
.L320:
mov	w0, 0
str	wzr, [x29, -4]
b	.L1
.L321:
mov	w0, 1
str	w0, [x29, -12]
b	.L1
.L322:
mov	w0, 0
str	wzr, [x29, -4]
b	.L1
.L323:
mov	w0, 1
str	w0, [x29, -12]
b	.L1
.L324:
mov	w0, 0
str	wzr, [x29, -4]
b	.L1
.L325:
mov	w0, 1
str	w0, [x29, -12]
b	.L1
.L326:
mov	w0, 0
str	wzr, [x29, -4]
b	.L1
.L327:
mov	w0, 1
str	w0, [x29, -12]
b	.L1
.L328:
mov	w0, 0
str	wzr, [x29, -4]
b	.L1
.L329:
mov	w0, 1
str	w0, [x29, -12]
b	.L1
.L330:
mov	w0, 0
str	wzr, [x29, -4]
b	.L1
.L331:
mov	w0, 1
str	w0, [x29, -12]
b	.L1
.L332:
mov	w0, 0
str	wzr, [x29, -4]
b	.L1
.L333:
mov	w0, 1
str	w0, [x29, -12]
b	.L1
.L334:
mov	w0, 0
str	wzr, [x29, -4]
b	.L1
.L335:
mov	w0, 1
str	w0, [x29, -12]
b	.L1
.L336:
mov	w0, 0
str	wzr, [x29, -4]
b	.L1
.L337:
mov	w0, 1
str	w0, [x29, -12]
b	.L1
.L338:
mov	w0, 0
str	wzr, [x29, -4]
b	.L1
.L339:
mov	w0, 1
str	w0, [x29, -12]
b	.L1
.L340:
mov	w0, 0
str	wzr, [x29, -4]
b	.L1
.L341:
mov	w0, 1
str	w0, [x29, -12]
b	.L1
.L342:
mov	w0, 0
str	wzr, [x29, -4]
b	.L1
.L343:
mov	w0, 1
str	w0, [x29, -12]
b	.L1
.L344:
mov	w0, 0
str	wzr, [x29, -4]
b	.L1
.L345:
mov	w0, 1
str	w0, [x29, -12]
b	.L1
.L346:
mov	w0, 0
str	wzr, [x29, -4]
b	.L1
.L347:
mov	w0, 1
str	w0, [x29, -12]
b	.L1
.L348:
mov	w0, 0
str	wzr, [x29, -4]
b	.L1
.L349:
mov	w0, 1
str	w0, [x29, -12]
b	.L1
.L350:
mov	w0, 0
str	wzr, [x29, -4]
b	.L1
.L351:
mov	w0, 1
str	w0, [x29, -12]
b	.L1
.L352:
mov	w0, 0
str	wzr, [x29, -4]
b	.L1
.L353:
mov	w0, 1
str	w0, [x29, -12]
b	.L1
.L354:
mov	w0, 0
str	wzr, [x29, -4]
b	.L1
.L355:
mov	w0, 1
str	w0, [x29, -12]
b	.L1
.L356:
mov	w0, 0
str	wzr, [x29, -4]
b	.L1
.L357:
mov	w0, 1
str	w0, [x29, -12]
b	.L1
.L358:
mov	w0, 0
str	wzr, [x29, -4]
b	.L1
.L359:
mov	w0, 1
str	w0, [x29, -12]
b	.L1
.L360:
mov	w0, 0
str	wzr, [x29, -4]
b	.L1
.L361:
mov	w0, 1
str	w0, [x29, -12]
b	.L1
.L362:
mov	w0, 0
str	wzr, [x29, -4]
b	.L1
.L363:
mov	w0, 1
str	w0, [x29, -12]
b	.L1
.L364:
mov	w0, 0
str	wzr, [x29, -4]
b	.L1
.L365:
mov	w0, 1
str	w0, [x29, -12]
b	.L1
.L366:
mov	w0, 0
str	wzr, [x29, -4]
b	.L1
.L367:
mov	w0, 1
str	w0, [x29, -12]
b	.L1
.L368:
mov	w0, 0
str	wzr, [x29, -4]
b	.L1
.L369:
mov	w0, 1
str	w0, [x29, -12]
b	.L1
.L370:
mov	w0, 0
str	wzr, [x29, -4]
b	.L1
.L371:
mov	w0, 1
str	w0, [x29, -12]
b	.L1
.L372:
mov	w0, 0
str	wzr, [x29, -4]
b	.L1
.L373:
mov	w0, 1
str	w0, [x29, -12]
b	.L1
.L374:
mov	w0, 0
str	wzr, [x29, -4]
b	.L1
.L375:
mov	w0, 1
str	w0, [x29, -12]
b	.L1
.L376:
mov	w0, 0
str	wzr, [x29, -4]
b	.L1
.L377:
mov	w0, 1
str	w0, [x29, -12]
b	.L1
.L378:
mov	w0, 0
str	wzr, [x29, -4]
b	.L1
.L379:
mov	w0, 1
str	w0, [x29, -12]
b	.L1
.L380:
mov	w0, 0
str	wzr, [x29, -4]
b	.L1
.L381:
mov	w0, 1
str	w0, [x29, -12]
b	.L1
.L382:
mov	w0, 0
str	wzr, [x29, -4]
b	.L1
.L383:
mov	w0, 1
str	w0, [x29, -12]
b	.L1
.L384:
mov	w0, 0
str	wzr, [x29, -4]
b	.L1
.L385:
mov	w0, 1
str	w0, [x29, -12]
b	.L1
.L386:
mov	w0, 0
str	wzr, [x29, -4]
b	.L1
.L387:
mov	w0, 1
str	w0, [x29, -12]
b	.L1
.L388:
mov	w0, 0
str	wzr, [x29, -4]
b	.L1
.L389:
mov	w0, 1
str	w0, [x29, -12]
b	.L1
.L390:
mov	w0, 0
str	wzr, [x29, -4]
b	.L1
.L391:
mov	w0, 1
str	w0, [x29, -12]
b	.L1
.L392:
mov	w0, 0
str	wzr, [x29, -4]
b	.L1
.L393:
mov	w0, 1
str	w0, [x29, -12]
b	.L1
.L394:
mov	w0, 0
str	wzr, [x29, -4]
b	.L1
.L395:
mov	w0, 1
str	w0, [x29, -12]
b	.L1
.L396:
mov	w0, 0
str	wzr, [x29, -4]
b	.L1
.L397:
mov	w0, 1
str	w0, [x29, -12]
b	.L1
.L398:
mov	w0, 0
str	wzr, [x29, -4]
b	.L1
.L399:
mov	w0, 1
str	w0, [x29, -12]
b	.L1
.L400:
mov	w0, 0
str	wzr, [x29, -4]
b	.L1
.L401:
mov	w0, 1
str	w0, [x29, -12]
b	.L1
.L402:
mov	w0, 0
str	wzr, [x29, -4]
b	.L1
.L403:
mov	w0, 1
str	w0, [x29, -12]
b	.L1
.L404:
mov	w0, 0
str	wzr, [x29, -4]
b	.L1
.L405:
mov	w0, 1
str	w0, [x29, -12]
b	.L1
.L406:
mov	w0, 0
str	wzr, [x29, -4]
b	.L1
.L407:
mov	w0, 1
str	w0, [x29, -12]
b	.L1
.L408:
mov	w0, 0
str	wzr, [x29, -4]
b	.L1
.L409:
mov	w0, 1
str	w0, [x29, -12]
b	.L1
.L410:
mov	w0, 0
str	wzr, [x29, -4]
b	.L1
.L411:
mov	w0, 1
str	w0, [x29, -12]
b	.L1
.L412:
mov	w0, 0
str	wzr, [x29, -4]
b	.L1
.L413:
mov	w0, 1
str	w0, [x29, -12]
b	.L1
.L414:
mov	w0, 0
str	wzr, [x29, -4]
b	.L1
.L415:
mov	w0, 1
str	w0, [x29, -12]
b	.L1
.L416:
mov	w0, 0
str	wzr, [x29, -4]
b	.L1
.L417:
mov	w0, 1
str	w0, [x29, -12]
b	.L1
.L418:
mov	w0, 0
str	wzr, [x29, -4]
b	.L1
.L419:
mov	w0, 1
str	w0, [x29, -12]
b	.L1
.L420:
mov	w0, 0
str	wzr, [x29, -4]
b	.L1
.L421:
mov	w0, 1
str	w0, [x29, -12]
b	.L1
.L422:
mov	w0, 0
str	wzr, [x29, -4]
b	.L1
.L423:
mov	w0, 1
str	w0, [x29, -12]
b	.L1
.L424:
mov	w0, 0
str	wzr, [x29, -4]
b	.L1
.L425:
mov	w0, 1
str	w0, [x29, -12]
b	.L1
.L426:
mov	w0, 0
str	wzr, [x29, -4]
b	.L1
.L427:
mov	w0, 1
str	w0, [x29, -12]
b	.L1
.L428:
mov	w0, 0
str	wzr, [x29, -4]
b	.L1
.L429:
mov	w0, 1
str	w0, [x29, -12]
b	.L1
.L430:
mov	w0, 0
str	wzr, [x29, -4]
b	.L1
.L431:
mov	w0, 1
str	w0, [x29, -12]
b	.L1
.L432:
mov	w0, 0
str	wzr, [x29, -4]
b	.L1
.L433:
mov	w0, 1
str	w0, [x29, -12]
b	.L1
.L434:
mov	w0, 0
str	wzr, [x29, -4]
b	.L1
.L435:
mov	w0, 1
str	w0, [x29, -12]
b	.L1
.L436:
mov	w0, 0
str	wzr, [x29, -4]
b	.L1
.L437:
mov	w0, 1
str	w0, [x29, -12]
b	.L1
.L438:
mov	w0, 0
str	wzr, [x29, -4]
b	.L1
.L439:
mov	w0, 1
str	w0, [x29, -12]
b	.L1
.L440:
mov	w0, 0
str	wzr, [x29, -4]
b	.L1
.L441:
mov	w0, 1
str	w0, [x29, -12]
b	.L1
.L442:
mov	w0, 0
str	wzr, [x29, -4]
b	.L1
.L443:
mov	w0, 1
str	w0, [x29, -12]
b	.L1
.L444:
mov	w0, 0
str	wzr, [x29, -4]
b	.L1
.L445:
mov	w0, 1
str	w0, [x29, -12]
b	.L1
.L446:
mov	w0, 0
str	wzr, [x29, -4]
b	.L1
.L447:
mov	w0, 1
str	w0, [x29, -12]
b	.L1
.L448:
mov	w0, 0
str	wzr, [x29, -4]
b	.L1
.L449:
mov	w0, 1
str	w0, [x29, -12]
b	.L1
.L450:
mov	w0, 0
str	wzr, [x29, -4]
b	.L1
.L451:
mov	w0, 1
str	w0, [x29, -12]
b	.L1
.L452:
mov	w0, 0
str	wzr, [x29, -4]
b	.L1
.L453:
mov	w0, 1
str	w0, [x29, -12]
b	.L1
.L454:
mov	w0, 0
str	wzr, [x29, -4]
b	.L1
.L455:
mov	w0, 1
str	w0, [x29, -12]
b	.L1
.L456:
mov	w0, 0
str	wzr, [x29, -4]
b	.L1
.L457:
mov	w0, 1
str	w0, [x29, -12]
b	.L1
.L458:
mov	w0, 0
str	wzr, [x29, -4]
b	.L1
.L459:
mov	w0, 1
str	w0, [x29, -12]
b	.L1
.L460:
mov	w0, 0
str	wzr, [x29, -4]
b	.L1
.L461:
mov	w0, 1
str	w0, [x29, -12]
b	.L1
.L462:
mov	w0, 0
str	wzr, [x29, -4]
b	.L1
.L463:
mov	w0, 1
str	w0, [x29, -12]
b	.L1
.L464:
mov	w0, 0
str	wzr, [x29, -4]
b	.L1
.L465:
mov	w0, 1
str	w0, [x29, -12]
b	.L1
.L466:
mov	w0, 0
str	wzr, [x29, -4]
b	.L1
.L467:
mov	w0, 1
str	w0, [x29, -12]
b	.L1
.L468:
mov	w0, 0
str	wzr, [x29, -4]
b	.L1
.L469:
mov	w0, 1
str	w0, [x29, -12]
b	.L1
.L470:
mov	w0, 0
str	wzr, [x29, -4]
b	.L1
.L471:
mov	w0, 1
str	w0, [x29, -12]
b	.L1
.L472:
mov	w0, 0
str	wzr, [x29, -4]
b	.L1
.L473:
mov	w0, 1
str	w0, [x29, -12]
b	.L1
.L474:
mov	w0, 0
str	wzr, [x29, -4]
b	.L1
.L475:
mov	w0, 1
str	w0, [x29, -12]
b	.L1
.L476:
mov	w0, 0
str	wzr, [x29, -4]
b	.L1
.L477:
mov	w0, 1
str	w0, [x29, -12]
b	.L1
.L478:
mov	w0, 0
str	wzr, [x29, -4]
b	.L1
.L479:
mov	w0, 1
str	w0, [x29, -12]
b	.L1
.L480:
mov	w0, 0
str	wzr, [x29, -4]
b	.L1
.L481:
mov	w0, 1
str	w0, [x29, -12]
b	.L1
.L482:
mov	w0, 0
str	wzr, [x29, -4]
b	.L1
.L483:
mov	w0, 1
str	w0, [x29, -12]
b	.L1
.L484:
mov	w0, 0
str	wzr, [x29, -4]
b	.L1
.L485:
mov	w0, 1
str	w0, [x29, -12]
b	.L1
.L486:
mov	w0, 0
str	wzr, [x29, -4]
b	.L1
.L487:
mov	w0, 1
str	w0, [x29, -12]
b	.L1
.L488:
mov	w0, 0
str	wzr, [x29, -4]
b	.L1
.L489:
mov	w0, 1
str	w0, [x29, -12]
b	.L1
.L490:
mov	w0, 0
str	wzr, [x29, -4]
b	.L1
.L491:
mov	w0, 1
str	w0, [x29, -12]
b	.L1
.L492:
mov	w0, 0
str	wzr, [x29, -4]
b	.L1
.L493:
mov	w0, 1
str	w0, [x29, -12]
b	.L1
.L494:
mov	w0, 0
str	wzr, [x29, -4]
b	.L1
.L495:
mov	w0, 1
str	w0, [x29, -12]
b	.L1
.L496:
mov	w0, 0
str	wzr, [x29, -4]
b	.L1
.L497:
mov	w0, 1
str	w0, [x29, -12]
b	.L1
.L498:
mov	w0, 0
str	wzr, [x29, -4]
b	.L1
.L499:
mov	w0, 1
str	w0, [x29, -12]
b	.L1
.L500:
mov	w0, 0
str	wzr, [x29, -4]
b	.L1
.L501:
mov	w0, 1
str	w0, [x29, -12]
b	.L1
.L502:
mov	w0, 0
str	wzr, [x29, -4]
b	.L1
.L503:
mov	w0, 1
str	w0, [x29, -12]
b	.L1
.L504:
mov	w0, 0
str	wzr, [x29, -4]
b	.L1
.L505:
mov	w0, 1
str	w0, [x29, -12]
b	.L1
.L506:
mov	w0, 0
str	wzr, [x29, -4]
b	.L1
.L507:
mov	w0, 1
str	w0, [x29, -12]
b	.L1
.L508:
mov	w0, 0
str	wzr, [x29, -4]
b	.L1
.L509:
mov	w0, 1
str	w0, [x29, -12]
b	.L1
.L510:
mov	w0, 0
str	wzr, [x29, -4]
b	.L1
.L511:
mov	w0, 1
str	w0, [x29, -12]
b	.L1
.L512:
mov	w0, 0
str	wzr, [x29, -4]
b	.L1
.L513:
mov	w0, 1
str	w0, [x29, -12]
b	.L1
.L514:
mov	w0, 0
str	wzr, [x29, -4]
b	.L1
.L515:
mov	w0, 1
str	w0, [x29, -12]
b	.L1
.L516:
mov	w0, 0
str	wzr, [x29, -4]
b	.L1
.L517:
mov	w0, 1
str	w0, [x29, -12]
b	.L1
.L518:
mov	w0, 0
str	wzr, [x29, -4]
b	.L1
.L519:
mov	w0, 1
str	w0, [x29, -12]
b	.L1
.L520:
mov	w0, 0
str	wzr, [x29, -4]
b	.L1
.L521:
mov	w0, 1
str	w0, [x29, -12]
b	.L1
.L522:
mov	w0, 0
str	wzr, [x29, -4]
b	.L1
.L523:
mov	w0, 1
str	w0, [x29, -12]
b	.L1
.L524:
mov	w0, 0
str	wzr, [x29, -4]
b	.L1
.L525:
mov	w0, 1
str	w0, [x29, -12]
b	.L1
.L526:
mov	w0, 0
str	wzr, [x29, -4]
b	.L1
.L527:
mov	w0, 1
str	w0, [x29, -12]
b	.L1
.L528:
mov	w0, 0
str	wzr, [x29, -4]
b	.L1
.L529:
mov	w0, 1
str	w0, [x29, -12]
b	.L1
.L530:
mov	w0, 0
str	wzr, [x29, -4]
b	.L1
.L531:
mov	w0, 1
str	w0, [x29, -12]
b	.L1
.L532:
mov	w0, 0
str	wzr, [x29, -4]
b	.L1
.L533:
mov	w0, 1
str	w0, [x29, -12]
b	.L1
.L534:
mov	w0, 0
str	wzr, [x29, -4]
b	.L1
.L535:
mov	w0, 1
str	w0, [x29, -12]
b	.L1
.L536:
mov	w0, 0
str	wzr, [x29, -4]
b	.L1
.L537:
mov	w0, 1
str	w0, [x29, -12]
b	.L1
.L538:
mov	w0, 0
str	wzr, [x29, -4]
b	.L1
.L539:
mov	w0, 1
str	w0, [x29, -12]
b	.L1
.L540:
mov	w0, 0
str	wzr, [x29, -4]
b	.L1
.L541:
mov	w0, 1
str	w0, [x29, -12]
b	.L1
.L542:
mov	w0, 0
str	wzr, [x29, -4]
b	.L1
.L543:
mov	w0, 1
str	w0, [x29, -12]
b	.L1
.L544:
mov	w0, 0
str	wzr, [x29, -4]
b	.L1
.L545:
mov	w0, 1
str	w0, [x29, -12]
b	.L1
.L546:
mov	w0, 0
str	wzr, [x29, -4]
b	.L1
.L547:
mov	w0, 1
str	w0, [x29, -12]
b	.L1
.L548:
mov	w0, 0
str	wzr, [x29, -4]
b	.L1
.L549:
mov	w0, 1
str	w0, [x29, -12]
b	.L1
.L550:
mov	w0, 0
str	wzr, [x29, -4]
b	.L1
.L551:
mov	w0, 1
str	w0, [x29, -12]
b	.L1
.L552:
mov	w0, 0
str	wzr, [x29, -4]
b	.L1
.L553:
mov	w0, 1
str	w0, [x29, -12]
b	.L1
.L554:
mov	w0, 0
str	wzr, [x29, -4]
b	.L1
.L555:
mov	w0, 1
str	w0, [x29, -12]
b	.L1
.L556:
mov	w0, 0
str	wzr, [x29, -4]
b	.L1
.L557:
mov	w0, 1
str	w0, [x29, -12]
b	.L1
.L558:
mov	w0, 0
str	wzr, [x29, -4]
b	.L1
.L559:
mov	w0, 1
str	w0, [x29, -12]
b	.L1
.L560:
mov	w0, 0
str	wzr, [x29, -4]
b	.L1
.L561:
mov	w0, 1
str	w0, [x29, -12]
b	.L1
.L562:
mov	w0, 0
str	wzr, [x29, -4]
b	.L1
.L563:
mov	w0, 1
str	w0, [x29, -12]
b	.L1
.L564:
mov	w0, 0
str	wzr, [x29, -4]
b	.L1
.L565:
mov	w0, 1
str	w0, [x29, -12]
b	.L1
.L566:
mov	w0, 0
str	wzr, [x29, -4]
b	.L1
.L567:
mov	w0, 1
str	w0, [x29, -12]
b	.L1
.L568:
mov	w0, 0
str	wzr, [x29, -4]
b	.L1
.L569:
mov	w0, 1
str	w0, [x29, -12]
b	.L1
.L570:
mov	w0, 0
str	wzr, [x29, -4]
b	.L1
.L571:
mov	w0, 1
str	w0, [x29, -12]
b	.L1
.L572:
mov	w0, 0
str	wzr, [x29, -4]
b	.L1
.L573:
mov	w0, 1
str	w0, [x29, -12]
b	.L1
.L574:
mov	w0, 0
str	wzr, [x29, -4]
b	.L1
.L575:
mov	w0, 1
str	w0, [x29, -12]
b	.L1
.L576:
mov	w0, 0
str	wzr, [x29, -4]
b	.L1
.L577:
mov	w0, 1
str	w0, [x29, -12]
b	.L1
.L578:
mov	w0, 0
str	wzr, [x29, -4]
b	.L1
.L579:
mov	w0, 1
str	w0, [x29, -12]
b	.L1
.L580:
mov	w0, 0
str	wzr, [x29, -4]
b	.L1
.L581:
mov	w0, 1
str	w0, [x29, -12]
b	.L1
.L582:
mov	w0, 0
str	wzr, [x29, -4]
b	.L1
.L583:
mov	w0, 1
str	w0, [x29, -12]
b	.L1
.L584:
mov	w0, 0
str	wzr, [x29, -4]
b	.L1
.L585:
mov	w0, 1
str	w0, [x29, -12]
b	.L1
.L586:
mov	w0, 0
str	wzr, [x29, -4]
b	.L1
.L587:
mov	w0, 1
str	w0, [x29, -12]
b	.L1
.L588:
mov	w0, 0
str	wzr, [x29, -4]
b	.L1
.L589:
mov	w0, 1
str	w0, [x29, -12]
b	.L1
.L590:
mov	w0, 0
str	wzr, [x29, -4]
b	.L1
.L591:
mov	w0, 1
str	w0, [x29, -12]
b	.L1
.L592:
mov	w0, 0
str	wzr, [x29, -4]
b	.L1
.L593:
mov	w0, 1
str	w0, [x29, -12]
b	.L1
.L594:
mov	w0, 0
str	wzr, [x29, -4]
b	.L1
.L595:
mov	w0, 1
str	w0, [x29, -12]
b	.L1
.L596:
mov	w0, 0
str	wzr, [x29, -4]
b	.L1
.L597:
mov	w0, 1
str	w0, [x29, -12]
b	.L1
.L598:
mov	w0, 0
str	wzr, [x29, -4]
b	.L1
.L599:
mov	w0, 1
str	w0, [x29, -12]
b	.L1
.L600:
mov	w0, 0
str	wzr, [x29, -4]
b	.L1
.L601:
mov	w0, 1
str	w0, [x29, -12]
b	.L1
.L602:
mov	w0, 0
str	wzr, [x29, -4]
b	.L1
.L603:
mov	w0, 1
str	w0, [x29, -12]
b	.L1
.L604:
mov	w0, 0
str	wzr, [x29, -4]
b	.L1
.L605:
mov	w0, 1
str	w0, [x29, -12]
b	.L1
.L606:
mov	w0, 0
str	wzr, [x29, -4]
b	.L1
.L607:
mov	w0, 1
str	w0, [x29, -12]
b	.L1
.L608:
mov	w0, 0
str	wzr, [x29, -4]
b	.L1
.L609:
mov	w0, 1
str	w0, [x29, -12]
b	.L1
.L610:
mov	w0, 0
str	wzr, [x29, -4]
b	.L1
.L611:
mov	w0, 1
str	w0, [x29, -12]
b	.L1
.L612:
mov	w0, 0
str	wzr, [x29, -4]
b	.L1
.L613:
mov	w0, 1
str	w0, [x29, -12]
b	.L1
.L614:
mov	w0, 0
str	wzr, [x29, -4]
b	.L1
.L615:
mov	w0, 1
str	w0, [x29, -12]
b	.L1
.L616:
mov	w0, 0
str	wzr, [x29, -4]
b	.L1
.L617:
mov	w0, 1
str	w0, [x29, -12]
b	.L1
.L618:
mov	w0, 0
str	wzr, [x29, -4]
b	.L1
.L619:
mov	w0, 1
str	w0, [x29, -12]
b	.L1
.L620:
mov	w0, 0
str	wzr, [x29, -4]
b	.L1
.L621:
mov	w0, 1
str	w0, [x29, -12]
b	.L1
.L622:
mov	w0, 0
str	wzr, [x29, -4]
b	.L1
.L623:
mov	w0, 1
str	w0, [x29, -12]
b	.L1
.L624:
mov	w0, 0
str	wzr, [x29, -4]
b	.L1
.L625:
mov	w0, 1
str	w0, [x29, -12]
b	.L1
.L626:
mov	w0, 0
str	wzr, [x29, -4]
b	.L1
.L627:
mov	w0, 1
str	w0, [x29, -12]
b	.L1
.L628:
mov	w0, 0
str	wzr, [x29, -4]
b	.L1
.L629:
mov	w0, 1
str	w0, [x29, -12]
b	.L1
.L630:
mov	w0, 0
str	wzr, [x29, -4]
b	.L1
.L631:
mov	w0, 1
str	w0, [x29, -12]
b	.L1
.L632:
mov	w0, 0
str	wzr, [x29, -4]
b	.L1
.L633:
mov	w0, 1
str	w0, [x29, -12]
b	.L1
.L634:
mov	w0, 0
str	wzr, [x29, -4]
b	.L1
.L635:
mov	w0, 1
str	w0, [x29, -12]
b	.L1
.L636:
mov	w0, 0
str	wzr, [x29, -4]
b	.L1
.L637:
mov	w0, 1
str	w0, [x29, -12]
b	.L1
.L638:
mov	w0, 0
str	wzr, [x29, -4]
b	.L1
.L639:
mov	w0, 1
str	w0, [x29, -12]
b	.L1
.L640:
mov	w0, 0
str	wzr, [x29, -4]
b	.L1
.L641:
mov	w0, 1
str	w0, [x29, -12]
b	.L1
.L642:
mov	w0, 0
str	wzr, [x29, -4]
b	.L1
.L643:
mov	w0, 1
str	w0, [x29, -12]
b	.L1
.L644:
mov	w0, 0
str	wzr, [x29, -4]
b	.L1
.L645:
mov	w0, 1
str	w0, [x29, -12]
b	.L1
.L646:
mov	w0, 0
str	wzr, [x29, -4]
b	.L1
.L647:
mov	w0, 1
str	w0, [x29, -12]
b	.L1
.L648:
mov	w0, 0
str	wzr, [x29, -4]
b	.L1
.L649:
mov	w0, 1
str	w0, [x29, -12]
b	.L1
.L650:
mov	w0, 0
str	wzr, [x29, -4]
b	.L1
.L651:
mov	w0, 1
str	w0, [x29, -12]
b	.L1
.L652:
mov	w0, 0
str	wzr, [x29, -4]
b	.L1
.L653:
mov	w0, 1
str	w0, [x29, -12]
b	.L1
.L654:
mov	w0, 0
str	wzr, [x29, -4]
b	.L1
.L655:
mov	w0, 1
str	w0, [x29, -12]
b	.L1
.L656:
mov	w0, 0
str	wzr, [x29, -4]
b	.L1
.L657:
mov	w0, 1
str	w0, [x29, -12]
b	.L1
.L658:
mov	w0, 0
str	wzr, [x29, -4]
b	.L1
.L659:
mov	w0, 1
str	w0, [x29, -12]
b	.L1
.L660:
mov	w0, 0
str	wzr, [x29, -4]
b	.L1
.L661:
mov	w0, 1
str	w0, [x29, -12]
b	.L1
.L662:
mov	w0, 0
str	wzr, [x29, -4]
b	.L1
.L663:
mov	w0, 1
str	w0, [x29, -12]
b	.L1
.L664:
mov	w0, 0
str	wzr, [x29, -4]
b	.L1
.L665:
mov	w0, 1
str	w0, [x29, -12]
b	.L1
.L666:
mov	w0, 0
str	wzr, [x29, -4]
b	.L1
.L667:
mov	w0, 1
str	w0, [x29, -12]
b	.L1
.L668:
mov	w0, 0
str	wzr, [x29, -4]
b	.L1
.L669:
mov	w0, 1
str	w0, [x29, -12]
b	.L1
.L670:
mov	w0, 0
str	wzr, [x29, -4]
b	.L1
.L671:
mov	w0, 1
str	w0, [x29, -12]
b	.L1
.L672:
mov	w0, 0
str	wzr, [x29, -4]
b	.L1
.L673:
mov	w0, 1
str	w0, [x29, -12]
b	.L1
.L674:
mov	w0, 0
str	wzr, [x29, -4]
b	.L1
.L675:
mov	w0, 1
str	w0, [x29, -12]
b	.L1
.L676:
mov	w0, 0
str	wzr, [x29, -4]
b	.L1
.L677:
mov	w0, 1
str	w0, [x29, -12]
b	.L1
.L678:
mov	w0, 0
str	wzr, [x29, -4]
b	.L1
.L679:
mov	w0, 1
str	w0, [x29, -12]
b	.L1
.L680:
mov	w0, 0
str	wzr, [x29, -4]
b	.L1
.L681:
mov	w0, 1
str	w0, [x29, -12]
b	.L1
.L682:
mov	w0, 0
str	wzr, [x29, -4]
b	.L1
.L683:
mov	w0, 1
str	w0, [x29, -12]
b	.L1
.L684:
mov	w0, 0
str	wzr, [x29, -4]
b	.L1
.L685:
mov	w0, 1
str	w0, [x29, -12]
b	.L1
.L686:
mov	w0, 0
str	wzr, [x29, -4]
b	.L1
.L687:
mov	w0, 1
str	w0, [x29, -12]
b	.L1
.L688:
mov	w0, 0
str	wzr, [x29, -4]
b	.L1
.L689:
mov	w0, 1
str	w0, [x29, -12]
b	.L1
.L690:
mov	w0, 0
str	wzr, [x29, -4]
b	.L1
.L691:
mov	w0, 1
str	w0, [x29, -12]
b	.L1
.L692:
mov	w0, 0
str	wzr, [x29, -4]
b	.L1
.L693:
mov	w0, 1
str	w0, [x29, -12]
b	.L1
.L694:
mov	w0, 0
str	wzr, [x29, -4]
b	.L1
.L695:
mov	w0, 1
str	w0, [x29, -12]
b	.L1
.L696:
mov	w0, 0
str	wzr, [x29, -4]
b	.L1
.L697:
mov	w0, 1
str	w0, [x29, -12]
b	.L1
.L698:
mov	w0, 0
str	wzr, [x29, -4]
b	.L1
.L699:
mov	w0, 1
str	w0, [x29, -12]
b	.L1
.L700:
mov	w0, 0
str	wzr, [x29, -4]
b	.L1
.L701:
mov	w0, 1
str	w0, [x29, -12]
b	.L1
.L702:
mov	w0, 0
str	wzr, [x29, -4]
b	.L1
.L703:
mov	w0, 1
str	w0, [x29, -12]
b	.L1
.L704:
mov	w0, 0
str	wzr, [x29, -4]
b	.L1
.L705:
mov	w0, 1
str	w0, [x29, -12]
b	.L1
.L706:
mov	w0, 0
str	wzr, [x29, -4]
b	.L1
.L707:
mov	w0, 1
str	w0, [x29, -12]
b	.L1
.L708:
mov	w0, 0
str	wzr, [x29, -4]
b	.L1
.L709:
mov	w0, 1
str	w0, [x29, -12]
b	.L1
.L710:
mov	w0, 0
str	wzr, [x29, -4]
b	.L1
.L711:
mov	w0, 1
str	w0, [x29, -12]
b	.L1
.L712:
mov	w0, 0
str	wzr, [x29, -4]
b	.L1
.L713:
mov	w0, 1
str	w0, [x29, -12]
b	.L1
.L714:
mov	w0, 0
str	wzr, [x29, -4]
b	.L1
.L715:
mov	w0, 1
str	w0, [x29, -12]
b	.L1
.L716:
mov	w0, 0
str	wzr, [x29, -4]
b	.L1
.L717:
mov	w0, 1
str	w0, [x29, -12]
b	.L1
.L718:
mov	w0, 0
str	wzr, [x29, -4]
b	.L1
.L719:
mov	w0, 1
str	w0, [x29, -12]
b	.L1
.L720:
mov	w0, 0
str	wzr, [x29, -4]
b	.L1
.L721:
mov	w0, 1
str	w0, [x29, -12]
b	.L1
.L722:
mov	w0, 0
str	wzr, [x29, -4]
b	.L1
.L723:
mov	w0, 1
str	w0, [x29, -12]
b	.L1
.L724:
mov	w0, 0
str	wzr, [x29, -4]
b	.L1
.L725:
mov	w0, 1
str	w0, [x29, -12]
b	.L1
.L726:
mov	w0, 0
str	wzr, [x29, -4]
b	.L1
.L727:
mov	w0, 1
str	w0, [x29, -12]
b	.L1
.L728:
mov	w0, 0
str	wzr, [x29, -4]
b	.L1
.L729:
mov	w0, 1
str	w0, [x29, -12]
b	.L1
.L730:
mov	w0, 0
str	wzr, [x29, -4]
b	.L1
.L731:
mov	w0, 1
str	w0, [x29, -12]
b	.L1
.L732:
mov	w0, 0
str	wzr, [x29, -4]
b	.L1
.L733:
mov	w0, 1
str	w0, [x29, -12]
b	.L1
.L734:
mov	w0, 0
str	wzr, [x29, -4]
b	.L1
.L735:
mov	w0, 1
str	w0, [x29, -12]
b	.L1
.L736:
mov	w0, 0
str	wzr, [x29, -4]
b	.L1
.L737:
mov	w0, 1
str	w0, [x29, -12]
b	.L1
.L738:
mov	w0, 0
str	wzr, [x29, -4]
b	.L1
.L739:
mov	w0, 1
str	w0, [x29, -12]
b	.L1
.L740:
mov	w0, 0
str	wzr, [x29, -4]
b	.L1
.L741:
mov	w0, 1
str	w0, [x29, -12]
b	.L1
.L742:
mov	w0, 0
str	wzr, [x29, -4]
b	.L1
.L743:
mov	w0, 1
str	w0, [x29, -12]
b	.L1
.L744:
mov	w0, 0
str	wzr, [x29, -4]
b	.L1
.L745:
mov	w0, 1
str	w0, [x29, -12]
b	.L1
.L746:
mov	w0, 0
str	wzr, [x29, -4]
b	.L1
.L747:
mov	w0, 1
str	w0, [x29, -12]
b	.L1
.L748:
mov	w0, 0
str	wzr, [x29, -4]
b	.L1
.L749:
mov	w0, 1
str	w0, [x29, -12]
b	.L1
.L750:
mov	w0, 0
str	wzr, [x29, -4]
b	.L1
.L751:
mov	w0, 1
str	w0, [x29, -12]
b	.L1
.L752:
mov	w0, 0
str	wzr, [x29, -4]
b	.L1
.L753:
mov	w0, 1
str	w0, [x29, -12]
b	.L1
.L754:
mov	w0, 0
str	wzr, [x29, -4]
b	.L1
.L755:
mov	w0, 1
str	w0, [x29, -12]
b	.L1
.L756:
mov	w0, 0
str	wzr, [x29, -4]
b	.L1
.L757:
mov	w0, 1
str	w0, [x29, -12]
b	.L1
.L758:
mov	w0, 0
str	wzr, [x29, -4]
b	.L1
.L759:
mov	w0, 1
str	w0, [x29, -12]
b	.L1
.L760:
mov	w0, 0
str	wzr, [x29, -4]
b	.L1
.L761:
mov	w0, 1
str	w0, [x29, -12]
b	.L1
.L762:
mov	w0, 0
str	wzr, [x29, -4]
b	.L1
.L763:
mov	w0, 1
str	w0, [x29, -12]
b	.L1
.L764:
mov	w0, 0
str	wzr, [x29, -4]
b	.L1
.L765:
mov	w0, 1
str	w0, [x29, -12]
b	.L1
.L766:
mov	w0, 0
str	wzr, [x29, -4]
b	.L1
.L767:
mov	w0, 1
str	w0, [x29, -12]
b	.L1
.L768:
mov	w0, 0
str	wzr, [x29, -4]
b	.L1
.L769:
mov	w0, 1
str	w0, [x29, -12]
b	.L1
.L770:
mov	w0, 0
str	wzr, [x29, -4]
b	.L1
.L771:
mov	w0, 1
str	w0, [x29, -12]
b	.L1
.L772:
mov	w0, 0
str	wzr, [x29, -4]
b	.L1
.L773:
mov	w0, 1
str	w0, [x29, -12]
b	.L1
.L774:
mov	w0, 0
str	wzr, [x29, -4]
b	.L1
.L775:
mov	w0, 1
str	w0, [x29, -12]
b	.L1
.L776:
mov	w0, 0
str	wzr, [x29, -4]
b	.L1
.L777:
mov	w0, 1
str	w0, [x29, -12]
b	.L1
.L778:
mov	w0, 0
str	wzr, [x29, -4]
b	.L1
.L779:
mov	w0, 1
str	w0, [x29, -12]
b	.L1
.L780:
mov	w0, 0
str	wzr, [x29, -4]
b	.L1
.L781:
mov	w0, 1
str	w0, [x29, -12]
b	.L1
.L782:
mov	w0, 0
str	wzr, [x29, -4]
b	.L1
.L783:
mov	w0, 1
str	w0, [x29, -12]
b	.L1
.L784:
mov	w0, 0
str	wzr, [x29, -4]
b	.L1
.L785:
mov	w0, 1
str	w0, [x29, -12]
b	.L1
.L786:
mov	w0, 0
str	wzr, [x29, -4]
b	.L1
.L787:
mov	w0, 1
str	w0, [x29, -12]
b	.L1
.L788:
mov	w0, 0
str	wzr, [x29, -4]
b	.L1
.L789:
mov	w0, 1
str	w0, [x29, -12]
b	.L1
.L790:
mov	w0, 0
str	wzr, [x29, -4]
b	.L1
.L791:
mov	w0, 1
str	w0, [x29, -12]
b	.L1
.L792:
mov	w0, 0
str	wzr, [x29, -4]
b	.L1
.L793:
mov	w0, 1
str	w0, [x29, -12]
b	.L1
.L794:
mov	w0, 0
str	wzr, [x29, -4]
b	.L1
.L795:
mov	w0, 1
str	w0, [x29, -12]
b	.L1
.L796:
mov	w0, 0
str	wzr, [x29, -4]
b	.L1
.L797:
mov	w0, 1
str	w0, [x29, -12]
b	.L1
.L798:
mov	w0, 0
str	wzr, [x29, -4]
b	.L1
.L799:
mov	w0, 1
str	w0, [x29, -12]
b	.L1
.L800:
mov	w0, 0
str	wzr, [x29, -4]
b	.L1
.L801:
mov	w0, 1
str	w0, [x29, -12]
b	.L1
.L802:
mov	w0, 0
str	wzr, [x29, -4]
b	.L1
.L803:
mov	w0, 1
str	w0, [x29, -12]
b	.L1
.L804:
mov	w0, 0
str	wzr, [x29, -4]
b	.L1
.L805:
mov	w0, 1
str	w0, [x29, -12]
b	.L1
.L806:
mov	w0, 0
str	wzr, [x29, -4]
b	.L1
.L807:
mov	w0, 1
str	w0, [x29, -12]
b	.L1
.L808:
mov	w0, 0
str	wzr, [x29, -4]
b	.L1
.L809:
mov	w0, 1
str	w0, [x29, -12]
b	.L1
.L810:
mov	w0, 0
str	wzr, [x29, -4]
b	.L1
.L811:
mov	w0, 1
str	w0, [x29, -12]
b	.L1
.L812:
mov	w0, 0
str	wzr, [x29, -4]
b	.L1
.L813:
mov	w0, 1
str	w0, [x29, -12]
b	.L1
.L814:
mov	w0, 0
str	wzr, [x29, -4]
b	.L1
.L815:
mov	w0, 1
str	w0, [x29, -12]
b	.L1
.L816:
mov	w0, 0
str	wzr, [x29, -4]
b	.L1
.L817:
mov	w0, 1
str	w0, [x29, -12]
b	.L1
.L818:
mov	w0, 0
str	wzr, [x29, -4]
b	.L1
.L819:
mov	w0, 1
str	w0, [x29, -12]
b	.L1
.L820:
mov	w0, 0
str	wzr, [x29, -4]
b	.L1
.L821:
mov	w0, 1
str	w0, [x29, -12]
b	.L1
.L822:
mov	w0, 0
str	wzr, [x29, -4]
b	.L1
.L823:
mov	w0, 1
str	w0, [x29, -12]
b	.L1
.L824:
mov	w0, 0
str	wzr, [x29, -4]
b	.L1
.L825:
mov	w0, 1
str	w0, [x29, -12]
b	.L1
.L826:
mov	w0, 0
str	wzr, [x29, -4]
b	.L1
.L827:
mov	w0, 1
str	w0, [x29, -12]
b	.L1
.L828:
mov	w0, 0
str	wzr, [x29, -4]
b	.L1
.L829:
mov	w0, 1
str	w0, [x29, -12]
b	.L1
.L830:
mov	w0, 0
str	wzr, [x29, -4]
b	.L1
.L831:
mov	w0, 1
str	w0, [x29, -12]
b	.L1
.L832:
mov	w0, 0
str	wzr, [x29, -4]
b	.L1
.L833:
mov	w0, 1
str	w0, [x29, -12]
b	.L1
.L834:
mov	w0, 0
str	wzr, [x29, -4]
b	.L1
.L835:
mov	w0, 1
str	w0, [x29, -12]
b	.L1
.L836:
mov	w0, 0
str	wzr, [x29, -4]
b	.L1
.L837:
mov	w0, 1
str	w0, [x29, -12]
b	.L1
.L838:
mov	w0, 0
str	wzr, [x29, -4]
b	.L1
.L839:
mov	w0, 1
str	w0, [x29, -12]
b	.L1
.L840:
mov	w0, 0
str	wzr, [x29, -4]
b	.L1
.L841:
mov	w0, 1
str	w0, [x29, -12]
b	.L1
.L842:
mov	w0, 0
str	wzr, [x29, -4]
b	.L1
.L843:
mov	w0, 1
str	w0, [x29, -12]
b	.L1
.L844:
mov	w0, 0
str	wzr, [x29, -4]
b	.L1
.L845:
mov	w0, 1
str	w0, [x29, -12]
b	.L1
.L846:
mov	w0, 0
str	wzr, [x29, -4]
b	.L1
.L847:
mov	w0, 1
str	w0, [x29, -12]
b	.L1
.L848:
mov	w0, 0
str	wzr, [x29, -4]
b	.L1
.L849:
mov	w0, 1
str	w0, [x29, -12]
b	.L1
.L850:
mov	w0, 0
str	wzr, [x29, -4]
b	.L1
.L851:
mov	w0, 1
str	w0, [x29, -12]
b	.L1
.L852:
mov	w0, 0
str	wzr, [x29, -4]
b	.L1
.L853:
mov	w0, 1
str	w0, [x29, -12]
b	.L1
.L854:
mov	w0, 0
str	wzr, [x29, -4]
b	.L1
.L855:
mov	w0, 1
str	w0, [x29, -12]
b	.L1
.L856:
mov	w0, 0
str	wzr, [x29, -4]
b	.L1
.L857:
mov	w0, 1
str	w0, [x29, -12]
b	.L1
.L858:
mov	w0, 0
str	wzr, [x29, -4]
b	.L1
.L859:
mov	w0, 1
str	w0, [x29, -12]
b	.L1
.L860:
mov	w0, 0
str	wzr, [x29, -4]
b	.L1
.L861:
mov	w0, 1
str	w0, [x29, -12]
b	.L1
.L862:
mov	w0, 0
str	wzr, [x29, -4]
b	.L1
.L863:
mov	w0, 1
str	w0, [x29, -12]
b	.L1
.L864:
mov	w0, 0
str	wzr, [x29, -4]
b	.L1
.L865:
mov	w0, 1
str	w0, [x29, -12]
b	.L1
.L866:
mov	w0, 0
str	wzr, [x29, -4]
b	.L1
.L867:
mov	w0, 1
str	w0, [x29, -12]
b	.L1
.L868:
mov	w0, 0
str	wzr, [x29, -4]
b	.L1
.L869:
mov	w0, 1
str	w0, [x29, -12]
b	.L1
.L870:
mov	w0, 0
str	wzr, [x29, -4]
b	.L1
.L871:
mov	w0, 1
str	w0, [x29, -12]
b	.L1
.L872:
mov	w0, 0
str	wzr, [x29, -4]
b	.L1
.L873:
mov	w0, 1
str	w0, [x29, -12]
b	.L1
.L874:
mov	w0, 0
str	wzr, [x29, -4]
b	.L1
.L875:
mov	w0, 1
str	w0, [x29, -12]
b	.L1
.L876:
mov	w0, 0
str	wzr, [x29, -4]
b	.L1
.L877:
mov	w0, 1
str	w0, [x29, -12]
b	.L1
.L878:
mov	w0, 0
str	wzr, [x29, -4]
b	.L1
.L879:
mov	w0, 1
str	w0, [x29, -12]
b	.L1
.L880:
mov	w0, 0
str	wzr, [x29, -4]
b	.L1
.L881:
mov	w0, 1
str	w0, [x29, -12]
b	.L1
.L882:
mov	w0, 0
str	wzr, [x29, -4]
b	.L1
.L883:
mov	w0, 1
str	w0, [x29, -12]
b	.L1
.L884:
mov	w0, 0
str	wzr, [x29, -4]
b	.L1
.L885:
mov	w0, 1
str	w0, [x29, -12]
b	.L1
.L886:
mov	w0, 0
str	wzr, [x29, -4]
b	.L1
.L887:
mov	w0, 1
str	w0, [x29, -12]
b	.L1
.L888:
mov	w0, 0
str	wzr, [x29, -4]
b	.L1
.L889:
mov	w0, 1
str	w0, [x29, -12]
b	.L1
.L890:
mov	w0, 0
str	wzr, [x29, -4]
b	.L1
.L891:
mov	w0, 1
str	w0, [x29, -12]
b	.L1
.L892:
mov	w0, 0
str	wzr, [x29, -4]
b	.L1
.L893:
mov	w0, 1
str	w0, [x29, -12]
b	.L1
.L894:
mov	w0, 0
str	wzr, [x29, -4]
b	.L1
.L895:
mov	w0, 1
str	w0, [x29, -12]
b	.L1
.L896:
mov	w0, 0
str	wzr, [x29, -4]
b	.L1
.L897:
mov	w0, 1
str	w0, [x29, -12]
b	.L1
.L898:
mov	w0, 0
str	wzr, [x29, -4]
b	.L1
.L899:
mov	w0, 1
str	w0, [x29, -12]
b	.L1
.L900:
mov	w0, 0
str	wzr, [x29, -4]
b	.L1
.L901:
mov	w0, 1
str	w0, [x29, -12]
b	.L1
.L902:
mov	w0, 0
str	wzr, [x29, -4]
b	.L1
.L903:
mov	w0, 1
str	w0, [x29, -12]
b	.L1
.L904:
mov	w0, 0
str	wzr, [x29, -4]
b	.L1
.L905:
mov	w0, 1
str	w0, [x29, -12]
b	.L1
.L906:
mov	w0, 0
str	wzr, [x29, -4]
b	.L1
.L907:
mov	w0, 1
str	w0, [x29, -12]
b	.L1
.L908:
mov	w0, 0
str	wzr, [x29, -4]
b	.L1
.L909:
mov	w0, 1
str	w0, [x29, -12]
b	.L1
.L910:
mov	w0, 0
str	wzr, [x29, -4]
b	.L1
.L911:
mov	w0, 1
str	w0, [x29, -12]
b	.L1
.L912:
mov	w0, 0
str	wzr, [x29, -4]
b	.L1
.L913:
mov	w0, 1
str	w0, [x29, -12]
b	.L1
.L914:
mov	w0, 0
str	wzr, [x29, -4]
b	.L1
.L915:
mov	w0, 1
str	w0, [x29, -12]
b	.L1
.L916:
mov	w0, 0
str	wzr, [x29, -4]
b	.L1
.L917:
mov	w0, 1
str	w0, [x29, -12]
b	.L1
.L918:
mov	w0, 0
str	wzr, [x29, -4]
b	.L1
.L919:
mov	w0, 1
str	w0, [x29, -12]
b	.L1
.L920:
mov	w0, 0
str	wzr, [x29, -4]
b	.L1
.L921:
mov	w0, 1
str	w0, [x29, -12]
b	.L1
.L922:
mov	w0, 0
str	wzr, [x29, -4]
b	.L1
.L923:
mov	w0, 1
str	w0, [x29, -12]
b	.L1
.L924:
mov	w0, 0
str	wzr, [x29, -4]
b	.L1
.L925:
mov	w0, 1
str	w0, [x29, -12]
b	.L1
.L926:
mov	w0, 0
str	wzr, [x29, -4]
b	.L1
.L927:
mov	w0, 1
str	w0, [x29, -12]
b	.L1
.L928:
mov	w0, 0
str	wzr, [x29, -4]
b	.L1
.L929:
mov	w0, 1
str	w0, [x29, -12]
b	.L1
.L930:
mov	w0, 0
str	wzr, [x29, -4]
b	.L1
.L931:
mov	w0, 1
str	w0, [x29, -12]
b	.L1
.L932:
mov	w0, 0
str	wzr, [x29, -4]
b	.L1
.L933:
mov	w0, 1
str	w0, [x29, -12]
b	.L1
.L934:
mov	w0, 0
str	wzr, [x29, -4]
b	.L1
.L935:
mov	w0, 1
str	w0, [x29, -12]
b	.L1
.L936:
mov	w0, 0
str	wzr, [x29, -4]
b	.L1
.L937:
mov	w0, 1
str	w0, [x29, -12]
b	.L1
.L938:
mov	w0, 0
str	wzr, [x29, -4]
b	.L1
.L939:
mov	w0, 1
str	w0, [x29, -12]
b	.L1
.L940:
mov	w0, 0
str	wzr, [x29, -4]
b	.L1
.L941:
mov	w0, 1
str	w0, [x29, -12]
b	.L1
.L942:
mov	w0, 0
str	wzr, [x29, -4]
b	.L1
.L943:
mov	w0, 1
str	w0, [x29, -12]
b	.L1
.L944:
mov	w0, 0
str	wzr, [x29, -4]
b	.L1
.L945:
mov	w0, 1
str	w0, [x29, -12]
b	.L1
.L946:
mov	w0, 0
str	wzr, [x29, -4]
b	.L1
.L947:
mov	w0, 1
str	w0, [x29, -12]
b	.L1
.L948:
mov	w0, 0
str	wzr, [x29, -4]
b	.L1
.L949:
mov	w0, 1
str	w0, [x29, -12]
b	.L1
.L950:
mov	w0, 0
str	wzr, [x29, -4]
b	.L1
.L951:
mov	w0, 1
str	w0, [x29, -12]
b	.L1
.L952:
mov	w0, 0
str	wzr, [x29, -4]
b	.L1
.L953:
mov	w0, 1
str	w0, [x29, -12]
b	.L1
.L954:
mov	w0, 0
str	wzr, [x29, -4]
b	.L1
.L955:
mov	w0, 1
str	w0, [x29, -12]
b	.L1
.L956:
mov	w0, 0
str	wzr, [x29, -4]
b	.L1
.L957:
mov	w0, 1
str	w0, [x29, -12]
b	.L1
.L958:
mov	w0, 0
str	wzr, [x29, -4]
b	.L1
.L959:
mov	w0, 1
str	w0, [x29, -12]
b	.L1
.L960:
mov	w0, 0
str	wzr, [x29, -4]
b	.L1
.L961:
mov	w0, 1
str	w0, [x29, -12]
b	.L1
.L962:
mov	w0, 0
str	wzr, [x29, -4]
b	.L1
.L963:
mov	w0, 1
str	w0, [x29, -12]
b	.L1
.L964:
mov	w0, 0
str	wzr, [x29, -4]
b	.L1
.L965:
mov	w0, 1
str	w0, [x29, -12]
b	.L1
.L966:
mov	w0, 0
str	wzr, [x29, -4]
b	.L1
.L967:
mov	w0, 1
str	w0, [x29, -12]
b	.L1
.L968:
mov	w0, 0
str	wzr, [x29, -4]
b	.L1
.L969:
mov	w0, 1
str	w0, [x29, -12]
b	.L1
.L970:
mov	w0, 0
str	wzr, [x29, -4]
b	.L1
.L971:
mov	w0, 1
str	w0, [x29, -12]
b	.L1
.L972:
mov	w0, 0
str	wzr, [x29, -4]
b	.L1
.L973:
mov	w0, 1
str	w0, [x29, -12]
b	.L1
.L974:
mov	w0, 0
str	wzr, [x29, -4]
b	.L1
.L975:
mov	w0, 1
str	w0, [x29, -12]
b	.L1
.L976:
mov	w0, 0
str	wzr, [x29, -4]
b	.L1
.L977:
mov	w0, 1
str	w0, [x29, -12]
b	.L1
.L978:
mov	w0, 0
str	wzr, [x29, -4]
b	.L1
.L979:
mov	w0, 1
str	w0, [x29, -12]
b	.L1
.L980:
mov	w0, 0
str	wzr, [x29, -4]
b	.L1
.L981:
mov	w0, 1
str	w0, [x29, -12]
b	.L1
.L982:
mov	w0, 0
str	wzr, [x29, -4]
b	.L1
.L983:
mov	w0, 1
str	w0, [x29, -12]
b	.L1
.L984:
mov	w0, 0
str	wzr, [x29, -4]
b	.L1
.L985:
mov	w0, 1
str	w0, [x29, -12]
b	.L1
.L986:
mov	w0, 0
str	wzr, [x29, -4]
b	.L1
.L987:
mov	w0, 1
str	w0, [x29, -12]
b	.L1
.L988:
mov	w0, 0
str	wzr, [x29, -4]
b	.L1
.L989:
mov	w0, 1
str	w0, [x29, -12]
b	.L1
.L990:
mov	w0, 0
str	wzr, [x29, -4]
b	.L1
.L991:
mov	w0, 1
str	w0, [x29, -12]
b	.L1
.L992:
mov	w0, 0
str	wzr, [x29, -4]
b	.L1
.L993:
mov	w0, 1
str	w0, [x29, -12]
b	.L1
.L994:
mov	w0, 0
str	wzr, [x29, -4]
b	.L1
.L995:
mov	w0, 1
str	w0, [x29, -12]
b	.L1
.L996:
mov	w0, 0
str	wzr, [x29, -4]
b	.L1
.L997:
mov	w0, 1
str	w0, [x29, -12]
b	.L1
.L998:
mov	w0, 0
str	wzr, [x29, -4]
b	.L1
.L99