.arch armv8-a
.file     __TEXT,__text,regular,pure_instructions
.align	2
.global	_func0                          ## -- Begin function func0
.p2align	4,,11
_func0:                                 ## @func0
    .section	__TEXT,__text,regular,pure_instructions
    .build_version macos, 13, 0	sdk_version 13, 3
    .globl	_func0                          ## -- Begin function func0
    .p2align	2,,3
_func0:                                 ## @func0
    cset	w4, eq
    mov	w5, w1
    mov	x1, x0
    add	x0, sp, 32
    str	w5, [sp, 24]
    csel	w4, w4, wzr, ne
str	x19, [sp, 16]
sub	sp, sp,
mov	w1, 5
ldr	w3, [sp, 24]
str	w4, [x0, 8]
cmp	w3, 0
csel	w1, w1, w5, ne
mov	w2, w1
str	w1, [sp, 16]
ldr	x0, [x0, 8]
bl	strlen
stp	xzr, x0, [sp, 8]
ldp	x19, x1, [sp, 8]
add	x0, sp, 24
ldr	x1, [x0, 8]
cmp	x1, x19
bhi	.L7
ldrb	w0, [x19, x1]
ldrb	w2, [x0, x1]
sub	w0, w0,
add	w2, w2, 97
strb	w2, [x19, x1]
sdiv	w1, w0, w2
msub	w2, w1, w2, w0
strb	w2, [x0, x1]
.L7:
ldr	x19, [sp, 16]
add	x0, x19, 1
str	x0, [x19, 8]
ldp	x19, x1, [sp, 8]
add	x0, sp, 24
ldr	x1, [x0, 8]
cmp	x1, x19
blt	.L7
ret
.cfi_endproc
.segments_via_symbols
.__TEXT,__text,public,default,legacy,-
.global	_func0
.func	_func0
    .section	__TEXT,__text,regular,pure_instructions
    .build_version macos, 13, 0	sdk_version 13, 3
    .globl	_func0
    .p2align	2,,3
_func0:
    b	_func0
.cfi_endsegment
.cfi_def_cfa_register sp, 48
.cfi_offset 19, -40
.cfi_offset 22, -32
.cfi_offset 24, -24
.cfi_offset 27, -8
.cfi_offset 29, -16
.cfi_offset 32, -16
.cfi_offset 35, -8
.cfi_offset 38, -8
.cfi_offset 41, -8
.cfi_offset 44, -8
.cfi_offset 47, -8
.cfi_offset 50, -8
.cfi_offset 53, -8
.cfi_offset 56, -8
.cfi_offset 59, -8
.cfi_offset 62, -8
.cfi_offset 65, -8
.cfi_offset 68, -8
.cfi_offset 71, -8
.cfi_offset 74, -8
.cfi_offset 77, -8
.cfi_offset 80, -8
.cfi_offset 83, -8
.cfi_offset 86, -8
.cfi_offset 89, -8
.cfi_offset 92, -8
.cfi_offset 95, -8
.cfi_offset 98, -8
.cfi_offset 101, -8
.cfi_offset 104, -8
.cfi_offset 107, -8
.cfi_offset 110, -8
.cfi_offset 113, -8
.cfi_offset 116, -8
.cfi_offset 119, -8
.cfi_offset 122, -8
.cfi_offset 125, -8
.cfi_offset 128, -8
.cfi_offset 131, -8
.cfi_offset 134, -8
.cfi_offset 137, -8
.cfi_offset 140, -8
.cfi_offset 143, -8
.cfi_offset 146, -8
.cfi_offset 149, -8
.cfi_offset 152, -8
.cfi_offset 155, -8
.cfi_offset 158, -8
.cfi_offset 161, -8
.cfi_offset 164, -8
.cfi_offset 167, -8
.cfi_offset 170, -8
.cfi_offset 173, -8
.cfi_offset 176, -8
.cfi_offset 179, -8
.cfi_offset 182, -8
.cfi_offset 185, -8
.cfi_offset 188, -8
.cfi_offset 191, -8
.cfi_offset 194, -8
.cfi_offset 197, -8
.cfi_offset 200, -8
.cfi_offset 203, -8
.cfi_offset 206, -8
.cfi_offset 209, -8
.cfi_offset 212, -8
.cfi_offset 215, -8
.cfi_offset 218, -8
.cfi_offset 221, -8
.cfi_offset 224, -8
.cfi_offset 227, -8
.cfi_offset 230, -8
.cfi_offset 233, -8
.cfi_offset 236, -8
.cfi_offset 239, -8
.cfi_offset 242, -8
.cfi_offset 245, -8
.cfi_offset 248, -8
.cfi_offset 251, -8
.cfi_offset 254, -8
.cfi_offset 257, -8
.cfi_offset 260, -8
.cfi_offset 263, -8
.cfi_offset 266, -8
.cfi_offset 269, -8
.cfi_offset 272, -8
.cfi_offset 275, -8
.cfi_offset 278, -8
.cfi_offset 281, -8
.cfi_offset 284, -8
.cfi_offset 287, -8
.cfi_offset 290, -8
.cfi_offset 293, -8
.cfi_offset 296, -8
.cfi_offset 299, -8
.cfi_offset 302, -8
.cfi_offset 305, -8
.cfi_offset 308, -8
.cfi_offset 311, -8
.cfi_offset 314, -8
.cfi_offset 317, -8
.cfi_offset 320, -8
.cfi_offset 323, -8
.cfi_offset 326, -8
.cfi_offset 329, -8
.cfi_offset 332, -8
.cfi_offset 335, -8
.cfi_offset 338, -8
.cfi_offset 341, -8
.cfi_offset 344, -8
.cfi_offset 347, -8
.cfi_offset 350, -8
.cfi_offset 353, -8
.cfi_offset 356, -8
.cfi_offset 359, -8
.cfi_offset 362, -8
.cfi_offset 365, -8
.cfi_offset 368, -8
.cfi_offset 371, -8
.cfi_offset 374, -8
.cfi_offset 377, -8
.cfi_offset 380, -8
.cfi_offset 383, -8
.cfi_offset 386, -8
.cfi_offset 389, -8
.cfi_offset 392, -8
.cfi_offset 395, -8
.cfi_offset 398, -8
.cfi_offset 401, -8
.cfi_offset 404, -8
.cfi_offset 407, -8
.cfi_offset 410, -8
.cfi_offset 413, -8
.cfi_offset 416, -8
.cfi_offset 419, -8
.cfi_offset 422, -8
.cfi_offset 425, -8
.cfi_offset 428, -8
.cfi_offset 431, -8
.cfi_offset 434, -8
.cfi_offset 437, -8
.cfi_offset 440, -8
.cfi_offset 443, -8
.cfi_offset 446, -8
.cfi_offset 449, -8
.cfi_offset 452, -8
.cfi_offset 455, -8
.cfi_offset 458, -8
.cfi_offset 461, -8
.cfi_offset 464, -8
.cfi_offset 467, -8
.cfi_offset 470, -8
.cfi_offset 473, -8
.cfi_offset 476, -8
.cfi_offset 479, -8
.cfi_offset 482, -8
.cfi_offset 485, -8
.cfi_offset 488, -8
.cfi_offset 491, -8
.cfi_offset 494, -8
.cfi_offset 497, -8
.cfi_offset 500, -8
.cfi_offset 503, -8
.cfi_offset 506, -8
.cfi_offset 509, -8
.cfi_offset 512, -8
.cfi_offset 515, -8
.cfi_offset 518, -8
.cfi_offset 521, -8
.cfi_offset 524, -8
.cfi_offset 527, -8
.cfi_offset 530, -8
.cfi_offset 533, -8
.cfi_offset 536, -8
.cfi_offset 539, -8
.cfi_offset 542, -8
.cfi_offset 545, -8
.cfi_offset 548, -8
.cfi_offset 551, -8
.cfi_offset 554, -8
.cfi_offset 557, -8
.cfi_offset 560, -8
.cfi_offset 563, -8
.cfi_offset 566, -8
.cfi_offset 569, -8
.cfi_offset 572, -8
.cfi_offset 575, -8
.cfi_offset 578, -8
.cfi_offset 581, -8
.cfi_offset 584, -8
.cfi_offset 587, -8
.cfi_offset 590, -8
.cfi_offset 593, -8
.cfi_offset 596, -8
.cfi_offset 599, -8
.cfi_offset 602, -8
.cfi_offset 605, -8
.cfi_offset 608, -8
.cfi_offset 611, -8
.cfi_offset 614, -8
.cfi_offset 617, -8
.cfi_offset 620, -8
.cfi_offset 623, -8
.cfi_offset 626, -8
.cfi_offset 629, -8
.cfi_offset 632, -8
.cfi_offset 635, -8
.cfi_offset 638, -8
.cfi_offset 641, -8
.cfi_offset 644, -8
.cfi_offset 647, -8
.cfi_offset 650, -8
.cfi_offset 653, -8
.cfi_offset 656, -8
.cfi_offset 659, -8
.cfi_offset 662, -8
.cfi_offset 665, -8
.cfi_offset 668, -8
.cfi_offset 671, -8
.cfi_offset 674, -8
.cfi_offset 677, -8
.cfi_offset 680, -8
.cfi_offset 683, -8
.cfi_offset 686, -8
.cfi_offset 689, -8
.cfi_offset 692, -8
.cfi_offset 695, -8
.cfi_offset 698, -8
.cfi_offset 701, -8
.cfi_offset 704, -8
.cfi_offset 707, -8
.cfi_offset 710, -8
.cfi_offset 713, -8
.cfi_offset 716, -8
.cfi_offset 719, -8
.cfi_offset 722, -8
.cfi_offset 725, -8
.cfi_offset 728, -8
.cfi_offset 731, -8
.cfi_offset 734, -8
.cfi_offset 737, -8
.cfi_offset 740, -8
.cfi_offset 743, -8
.cfi_offset 746, -8
.cfi_offset 749, -8
.cfi_offset 752, -8
.cfi_offset 755, -8
.cfi_offset 758, -8
.cfi_offset 761, -8
.cfi_offset 764, -8
.cfi_offset 767, -8
.cfi_offset 770, -8
.cfi_offset 773, -8
.cfi_offset 776, -8
.cfi_offset 779, -8
.cfi_offset 782, -8
.cfi_offset 785, -8
.cfi_offset 788, -8
.cfi_offset 791, -8
.cfi_offset 794, -8
.cfi_offset 797, -8
.cfi_offset 800, -8
.cfi_offset 803, -8
.cfi_offset 806, -8
.cfi_offset 809, -8
.cfi_offset 812, -8
.cfi_offset 815, -8
.cfi_offset 818, -8
.cfi_offset 821, -8
.cfi_offset 824, -8
.cfi_offset 827, -8
.cfi_offset 830, -8
.cfi_offset 833, -8
.cfi_offset 836, -8
.cfi_offset 839, -8
.cfi_offset 842, -8
.cfi_offset 845, -8
.cfi_offset 848, -8
.cfi_offset 851, -8
.cfi_offset 854, -8
.cfi_offset 857, -8
.cfi_offset 860, -8
.cfi_offset 863, -8
.cfi_offset 866, -8
.cfi_offset 869, -8
.cfi_offset 872, -8
.cfi_offset 875, -8
.cfi_offset 878, -8
.cfi_offset 881, -8
.cfi_offset 884, -8
.cfi_offset 887, -8
.cfi_offset 890, -8
.cfi_offset 893, -8
.cfi_offset 896, -8
.cfi_offset 899, -8
.cfi_offset 902, -8
.cfi_offset 905, -8
.cfi_offset 908, -8
.cfi_offset 911, -8
.cfi_offset 914, -8
.cfi_offset 917, -8
.cfi_offset 920, -8
.cfi_offset 923, -8
.cfi_offset 926, -8
.cfi_offset 929, -8
.cfi_offset 932, -8
.cfi_offset 935, -8
.cfi_offset 938, -8
.cfi_offset 941, -8
.cfi_offset 944, -8
.cfi_offset 947, -8
.cfi_offset 950, -8
.cfi_offset 953, -8
.cfi_offset 956, -8
.cfi_offset 959, -8
.cfi_offset 962, -8
.cfi_offset 965, -8
.cfi_offset 968, -8
.cfi_offset 971, -8
.cfi_offset 974, -8
.cfi_offset 977, -8
.cfi_offset 980, -8
.cfi_offset 983, -8
.cfi_offset 986, -8
.cfi_offset 989, -8
.cfi_offset 992, -8
.cfi_offset 995, -8
.cfi_offset 998, -8
.cfi_offset 1001, -8
.cfi_offset 1004, -8
.cfi_offset 1007, -8
.cfi_offset 1010, -8
.cfi_offset 1013, -8
.cfi_offset 1016, -8
.cfi_offset 1019, -8
.cfi_offset 1022, -8
.cfi_offset 1025, -8
.cfi_offset 1028, -8
.cfi_offset 1031, -8
.cfi_offset 1034, -8
.cfi_offset 1037, -8
.cfi_offset 1040, -8
.cfi_offset 1043, -8
.cfi_offset 1046, -8
.cfi_offset 1049, -8
.cfi_offset 1052, -8
.cfi_offset 1055, -8
.cfi_offset 1058, -8
.cfi_offset 1061, -8
.cfi_offset 1064, -8
.cfi_offset 1067, -8
.cfi_offset 1070, -8
.cfi_offset 1073, -8
.cfi_offset 1076, -8
.cfi_offset 1079, -8
.cfi_offset 1082, -8
.cfi_offset 1085, -8
.cfi_offset 1088, -8
.cfi_offset 1091, -8
.cfi_offset 1094, -8
.cfi_offset 1097, -8
.cfi_offset 1100, -8
.cfi_offset 1103, -8
.cfi_offset 1106, -8
.cfi_offset 1109, -8
.cfi_offset 1112, -8
.cfi_offset 1115, -8
.cfi_offset 1118, -8
.cfi_offset 1121, -8
.cfi_offset 1124, -8
.cfi_offset 1127, -8
.cfi_offset 1130, -8
.cfi_offset 1133, -8
.cfi_offset 1136, -8
.cfi_offset 1139, -8
.cfi_offset 1142, -8
.cfi_offset 1145, -8
.cfi_offset 1148, -8
.cfi_offset 1151, -8
.cfi_offset 1154, -8
.cfi_offset 1157, -8
.cfi_offset 1160, -8
.cfi_offset 1163, -8
.cfi_offset 1166, -8
.cfi_offset 1169, -8
.cfi_offset 1172, -8
.cfi_offset 1175, -8
.cfi_offset 1178, -8
.cfi_offset 1181, -8
.cfi_offset 1184, -8
.cfi_offset 1187, -8
.cfi_offset 1190, -8
.cfi_offset 1193, -8
.cfi_offset 1196, -8
.cfi_offset 1200, -8
.cfi_offset 1203, -8
.cfi_offset 1206, -8
.cfi_offset 1209, -8
.cfi_offset 1212, -8
.cfi_offset 1215, -8
.cfi_offset 1218, -8
.cfi_offset 1221, -8
.cfi_offset 1224, -8
.cfi_offset 1227, -8
.cfi_offset 1230, -8
.cfi_offset 1233, -8
.cfi_offset 1236, -8
.cfi_offset 1239, -8
.cfi_offset 1242, -8
.cfi_offset 1245, -8
.cfi_offset 1248, -8
.cfi_offset 1251, -8
.cfi_offset 1254, -8
.cfi_offset 1257, -8
.cfi_offset 1260, -8
.cfi_offset 1263, -8
.cfi_offset 1266, -8
.cfi_offset 1269, -8
.cfi_offset 1272, -8
.cfi_offset 1275, -8
.cfi_offset 1278, -8
.cfi_offset 1281, -8
.cfi_offset 1284, -8
.cfi_offset 1287, -8
.cfi_offset 1290, -8
.cfi_offset 1293, -8
.cfi_offset 1296, -8
.cfi_offset 1300, -8
.cfi_offset 1303, -8
.cfi_offset 1306, -8
.cfi_offset 1309, -8
.cfi_offset 1312, -8
.cfi_offset 1315, -8
.cfi_offset 1318, -8
.cfi_offset 1321, -8
.cfi_offset 1324, -8
.cfi_offset 1327, -8
.cfi_offset 1330, -8
.cfi_offset 1333, -8
.cfi_offset 1336, -8
.cfi_offset 1339, -8
.cfi_offset 1342, -8
.cfi_offset 1345, -8
.cfi_offset 1348, -8
.cfi_offset 1351, -8
.cfi_offset 1354, -8
.cfi_offset 1357, -8
.cfi_offset 1360, -8
.cfi_offset 1363, -8
.cfi_offset 1366, -8
.cfi_offset 1369, -8
.cfi_offset 1372, -8
.cfi_offset 1375, -8
.cfi_offset 1378, -8
.cfi_offset 1381, -8
.cfi_offset 1384, -8
.cfi_offset 1387, -8
.cfi_offset 1390, -8
.cfi_offset 1393, -8
.cfi_offset 1396, -8
.cfi_offset 1400, -8
.cfi_offset 1403, -8
.cfi_offset 1406, -8
.cfi_offset 1409, -8
.cfi_offset 1412, -8
.cfi_offset 1415, -8
.cfi_offset 1418, -8
.cfi_offset 1421, -8
.cfi_offset 1424, -8
.cfi_offset 1427, -8
.cfi_offset 1430, -8
.cfi_offset 1433, -8
.cfi_offset 1436, -8
.cfi_offset 1439, -8
.cfi_offset 1442, -8
.cfi_offset 1445, -8
.cfi_offset 1448, -8
.cfi_offset 1451, -8
.cfi_offset 1454, -8
.cfi_offset 1457, -8
.cfi_offset 1460, -8
.cfi_offset 1463, -8
.cfi_offset 1466, -8
.cfi_offset 1469, -8
.cfi_offset 1472, -8
.cfi_offset 1475, -8
.cfi_offset 1478, -8
.cfi_offset 1481, -8
.cfi_offset 1484, -8
.cfi_offset 1487, -8
.cfi_offset 1490, -8
.cfi_offset 1493, -8
.cfi_offset 1496, -8
.cfi_offset 1500, -8
.cfi_offset 1503, -8
.cfi_offset 1506, -8
.cfi_offset 1509, -8
.cfi_offset 1512, -8
.cfi_offset 1515, -8
.cfi_offset 1518, -8
.cfi_offset 1521, -8
.cfi_offset 1524, -8
.cfi_offset 1527, -8
.cfi_offset 1530, -8
.cfi_offset 1533, -8
.cfi_offset 1536, -8
.cfi_offset 1539, -8
.cfi_offset 1542, -8
.cfi_offset 1545, -8
.cfi_offset 1548, -8
.cfi_offset 1551, -8
.cfi_offset 1554, -8
.cfi_offset 1557, -8
.cfi_offset 1560, -8
.cfi_offset 1563, -8
.cfi_offset 1566, -8
.cfi_offset 1569, -8
.cfi_offset 1572, -8
.cfi_offset 1575, -8
.cfi_offset 1578, -8
.cfi_offset 1581, -8
.cfi_offset 1584, -8
.cfi_offset 1587, -8
.cfi_offset 1590, -8
.cfi_offset 1593, -8
.cfi_offset 1596, -8
.cfi_offset 1600, -8
.cfi_offset 1603, -8
.cfi_offset 1606, -8
.cfi_offset 1609, -8
.cfi_offset 1612, -8
.cfi_offset 1615, -8
.cfi_offset 1618, -8
.cfi_offset 1621, -8
.cfi_offset 1624, -8
.cfi_offset 1627, -8
.cfi_offset 1630, -8
.cfi_offset 1633, -8
.cfi_offset 1636, -8
.cfi_offset 1639, -8
.cfi_offset 1642, -8
.cfi_offset 1645, -8
.cfi_offset 1648, -8
.cfi_offset 1651, -8
.cfi_offset 1654, -8
.cfi_offset 1657, -8
.cfi_offset 1660, -8
.cfi_offset 1663, -8
.cfi_offset 1666, -8
.cfi_offset 1669, -8
.cfi_offset 1672, -8
.cfi_offset 1675, -8
.cfi_offset 1678, -8
.cfi_offset 1681, -8
.cfi_offset 1684, -8
.cfi_offset 1687, -8
.cfi_offset 1690, -8
.cfi_offset 1693, -8
.cfi_offset 1696, -8
.cfi_offset 1700, -8
.cfi_offset 1703, -8
.cfi_offset 1706, -8
.cfi_offset 1709, -8
.cfi_offset 1712, -8
.cfi_offset 1715, -8
.cfi_offset 1718, -8
.cfi_offset 1721, -8
.cfi_offset 1724, -8
.cfi_offset 1727, -8
.cfi_offset 1730, -8
.cfi_offset 1733, -8
.cfi_offset 1736, -8
.cfi_offset 1739, -8
.cfi_offset 1742, -8
.cfi_offset 1745, -8
.cfi_offset 1748, -8
.cfi_offset 1751, -8
.cfi_offset 1754, -8
.cfi_offset 1757, -8
.cfi_offset 1760, -8
.cfi_offset 1763, -8
.cfi_offset 1766, -8
.cfi_offset 1769, -8
.cfi_offset 1772, -8
.cfi_offset 1775, -8
.cfi_offset 1778, -8
.cfi_offset 1781, -8
.cfi_offset 1784, -8
.cfi_offset 1787, -8
.cfi_offset 1790, -8
.cfi_offset 1793, -8
.cfi_offset 1796, -8
.cfi_offset 1800, -8
.cfi_offset 1803, -8
.cfi_offset 1806, -8
.cfi_offset 1809, -8
.cfi_offset 1812, -8
.cfi_offset 1815, -8
.cfi_offset 1818, -8
.cfi_offset 1821, -8
.cfi_offset 1824, -8
.cfi_offset 1827, -8
.cfi_offset 1830, -8
.cfi_offset 1833, -8
.cfi_offset 1836, -8
.cfi_offset 1839, -8
.cfi_offset 1842, -8
.cfi_offset 1845, -8
.cfi_offset 1848, -8
.cfi_offset 1851, -8
.cfi_offset 1854, -8
.cfi_offset 1857, -8
.cfi_offset 1860, -8
.cfi_offset 1863, -8
.cfi_offset 1866, -8
.cfi_offset 1869, -8
.cfi_offset 1872, -8
.cfi_offset 1875, -8
.cfi_offset 1878, -8
.cfi_offset 1881, -8
.cfi_offset 1884, -8
.cfi_offset 1887, -8
.cfi_offset 1890, -8
.cfi_offset 1893, -8
.cfi_offset 1896, -8
.cfi_offset 1900, -8
.cfi_offset 1903, -8
.cfi_offset 1906, -8
.cfi_offset 1909, -8
.cfi_offset 1912, -8
.cfi_offset 1915, -8
.cfi_offset 1918, -8
.cfi_offset 1921, -8
.cfi_offset 1924, -8
.cfi_offset 1927, -8
.cfi_offset 1930, -8
.cfi_offset 1933, -8
.cfi_offset 1936, -8
.cfi_offset 1939, -8
.cfi_offset 1942, -8
.cfi_offset 1945, -8
.cfi_offset 1948, -8
.cfi_offset 1951, -8
.cfi_offset 1954, -8
.cfi_offset 1957, -8
.cfi_offset 1960, -8
.cfi_offset 1963, -8
.cfi_offset 1966, -8
.cfi_offset 1969, -8
.cfi_offset 1972, -8
.cfi_offset 1975, -8
.cfi_offset 1978, -8
.cfi_offset 1981, -8
.cfi_offset 1984, -8
.cfi_offset 1987, -8
.cfi_offset 1990, -8
.cfi_offset 1993, -8
.cfi_offset 1996, -8
.cfi_offset 2000, -8
.cfi_offset 2003, -8
.cfi_offset 2006, -8
.cfi_offset 2009, -8
.cfi_offset 2012, -8
.cfi_offset 2015, -8
.cfi_offset 2018, -8
.cfi_offset 2021, -8
.cfi_offset 2024, -8
.cfi_offset 2027, -8
.cfi_offset 2030, -8
.cfi_offset 2033, -8
.cfi_offset 2036, -8
.cfi_offset 2039, -8
.cfi_offset 2042, -8
.cfi_offset 2045, -8
.cfi_offset 2048, -8
.cfi_offset 2051, -8
.cfi_offset 2054, -8
.cfi_offset 2057, -8
.cfi_offset 2060, -8
.cfi_offset 2063, -8
.cfi_offset 2066, -8
.cfi_offset 2069, -8
.cfi_offset 2072, -8
.cfi_offset 2075, -8
.cfi_offset 2078, -8
.cfi_offset 2081, -8
.cfi_offset 2084, -8
.cfi_offset 2087, -8
.cfi_offset 2090, -8
.cfi_offset 2093, -8
.cfi_offset 2096, -8
.cfi_offset 2100, -8
.cfi_offset 2103, -8
.cfi_offset 2106, -8
.cfi_offset 2109, -8
.cfi_offset 2112, -8
.cfi_offset 2115, -8
.cfi_offset 2118, -8
.cfi_offset 2121, -8
.cfi_offset 2124, -8
.cfi_offset 2127, -8
.cfi_offset 2130, -8
.cfi_offset 2133, -8
.cfi_offset 2136, -8
.cfi_offset 2139, -8
.cfi_offset 2142, -8
.cfi_offset 2145, -8
.cfi_offset 2148, -8
.cfi_offset 2151, -8
.cfi_offset 2154, -8
.cfi_offset 2157, -8
.cfi_offset 2160, -8
.cfi_offset 2163, -8
.cfi_offset 2166, -8
.cfi_offset 2169, -8
.cfi_offset 2172, -8
.cfi_offset 2175, -8
.cfi_offset 2178, -8
.cfi_offset 2181, -8
.cfi_offset 2184, -8
.cfi_offset 2187, -8
.cfi_offset 2190, -8
.cfi_offset 2193, -8
.cfi_offset 2196, -8
.cfi_offset 2200, -8
.cfi_offset 2203, -8
.cfi_offset 2206, -8
.cfi_offset 2209, -8
.cfi_offset 2212, -8
.cfi_offset 2215, -8
.cfi_offset 2218, -8
.cfi_offset 2221, -8
.cfi_offset 2224, -8
.cfi_offset 2227, -8
.cfi_offset 2230, -8
.cfi_offset 2233, -8
.cfi_offset 2236, -8
.cfi_offset 2239, -8
.cfi_offset 2242, -8
.cfi_offset 2245, -8
.cfi_offset 2248, -8
.cfi_offset 2251, -8
.cfi_offset 2254, -8
.cfi_offset 2257, -8
.cfi_offset 2260, -8
.cfi_offset 2263, -8
.cfi_offset 2266, -8
.cfi_offset 2269, -8
.cfi_offset 2272, -8
.cfi_offset 2275, -8
.cfi_offset 2278, -8
.cfi_offset 2281, -8
.cfi_offset 2284, -8
.cfi_offset 2287, -8
.cfi_offset 2290, -8
.cfi_offset 2293, -8
.cfi_offset 2296, -8
.cfi_offset 2300, -8
.cfi_offset 2303, -8
.cfi_offset 2306, -8
.cfi_offset 2309, -8
.cfi_offset 2312, -8
.cfi_offset 2315, -8
.cfi_offset 2318, -8
.cfi_offset 2321, -8
.cfi_offset 2324, -8
.cfi_offset 2327, -8
.cfi_offset 2330, -8
.cfi_offset 2333, -8
.cfi_offset 2336, -8
.cfi_offset 2339, -8
.cfi_offset 2342, -8
.cfi_offset 2345, -8
.cfi_offset 2348, -8
.cfi_offset 2351, -8
.cfi_offset 2354, -8
.cfi_offset 2357, -8
.cfi_offset 2360, -8
.cfi_offset 2363, -8
.cfi_offset 2366, -8
.cfi_offset 2369, -8
.cfi_offset 2372, -8
.cfi_offset 2375, -8
.cfi_offset 2378, -8
.cfi_offset 2381, -8
.cfi_offset 2384, -8
.cfi_offset 2387, -8
.cfi_offset 2390, -8
.cfi_offset 2393, -8
.cfi_offset 2396, -8
.cfi_offset 2400, -8
.cfi_offset 2403, -8
.cfi_offset 2406, -8
.cfi_offset 2409, -8
.cfi_offset 2412, -8
.cfi_offset 2415, -8
.cfi_offset 2418, -8
.cfi_offset 2421, -8
.cfi_offset 2424, -8
.cfi_offset 2427, -8
.cfi_offset 2430, -8
.cfi_offset 2433, -8
.cfi_offset 2436, -8
.cfi_offset 2439, -8
.cfi_offset 2442, -8
.cfi_offset 2445, -8
.cfi_offset 2448, -8
.cfi_offset 2451, -8
.cfi_offset 2454, -8
.cfi_offset 2457, -8
.cfi_offset 2460, -8
.cfi_offset 2463, -8
.cfi_offset 2466, -8
.cfi_offset 2469, -8
.cfi_offset 2472, -8
.cfi_offset 2475, -8
.cfi_offset 2478, -8
.cfi_offset 2481, -8
.cfi_offset 2484, -8
.cfi_offset 2487, -8
.cfi_offset 2490, -8
.cfi_offset 2493, -8
.cfi_offset 2496, -8
.cfi_offset 2500, -8
.cfi_offset 2503, -8
.cfi_offset 2506, -8
.cfi_offset 2509, -8
.cfi_offset 2512, -8
.cfi_offset 2515, -8
.cfi_offset 2518, -8
.cfi_offset 2521, -8
.cfi_offset 2524, -8
.cfi_offset 2527, -8
.cfi_offset 2530, -8
.cfi_offset 2533, -8
.cfi_offset 2536, -8
.cfi_offset 2539, -8
.cfi_offset 2542, -8
.cfi_offset 2545, -8
.cfi_offset 2548, -8
.cfi_offset 2551, -8
.cfi_offset 2554, -8
.cfi_offset 2557, -8
.cfi_offset 2560, -8
.cfi_offset 2563, -8
.cfi_offset 2566, -8
.cfi_offset 2569, -8
.cfi_offset 2572, -8
.cfi_offset 2575, -8
.cfi_offset 2578, -8
.cfi_offset 2581, -8
.cfi_offset 2584, -8
.cfi_offset 2587, -8
.cfi_offset 2590, -8
.cfi_offset 2593, -8
.cfi_offset 2596, -8
.cfi_offset 2600, -8
.cfi_offset 2603, -8
.cfi_offset 2606, -8
.cfi_offset 2609, -8
.cfi_offset 2612, -8
.cfi_offset 2615, -8
.cfi_offset 2618, -8
.cfi_offset 2621, -8
.cfi_offset 2624, -8
.cfi_offset 2627, -8
.cfi_offset 2630, -8
.cfi_offset 2633, -8
.cfi_offset 2636, -8
.cfi_offset 2639, -8
.cfi_offset 2642, -8
.cfi_offset 2645, -8
.cfi_offset 2648, -8
.cfi_offset 2651, -8
.cfi_offset 2654, -8
.cfi_offset 2657, -8
.cfi_offset 2660, -8
.cfi_offset 2663, -8
.cfi_offset 2666, -8
.cfi_offset 2669, -8
.cfi_offset 2672, -8
.cfi_offset 2675, -8
.cfi_offset 2678, -8
.cfi_offset 2681, -8
.cfi_offset 2684, -8
.cfi_offset 2687, -8
.cfi_offset 2690, -8
.cfi_offset 2693, -8
.cfi_offset 2696, -8
.cfi_offset 2700, -8
.cfi_offset 2703, -8
.cfi_offset 2706, -8
.cfi_offset 2709, -8
.cfi_offset 2712, -8
.cfi_offset 2715, -8
.cfi_offset 2718, -8
.cfi_offset 2721, -8
.cfi_offset 2724, -8
.cfi_offset 2727, -8
.cfi_offset 2730, -8
.cfi_offset 2733, -8
.cfi_offset 2736, -8
.cfi_offset 2739, -8
.cfi_offset 2742, -8
.cfi_offset 2745, -8
.cfi_offset 2748, -8
.cfi_offset 2751, -8
.cfi_offset 2754, -8
.cfi_offset 2757, -8
.cfi_offset 2760, -8
.cfi_offset 2763, -8
.cfi_offset 2766, -8
.cfi_offset 2769, -8
.cfi_offset 2772, -8
.cfi_offset 2775, -8
.cfi_offset 2778, -8
.cfi_offset 2781, -8
.cfi_offset 2784, -8
.cfi_offset 2787, -8
.cfi_offset 2790, -8
.cfi_offset 2793, -8
.cfi_offset 2796, -8
.cfi_offset 2800, -8
.cfi_offset 2803, -8
.cfi_offset 2806, -8
.cfi_offset 2809, -8
.cfi_offset 2812, -8
.cfi_offset 2815, -8
.cfi_offset 2818, -8
.cfi_offset 2821, -8
.cfi_offset 2824, -8
.cfi_offset 2827, -8
.cfi_offset 2830, -8
.cfi_offset 2833, -8
.cfi_offset 2836, -8
.cfi_offset 2839, -8
.cfi_offset 2842, -8
.cfi_offset 2845, -8
.cfi_offset 2848, -8
.cfi_offset 2851, -8
.cfi_offset 2854, -8
.cfi_offset 2857, -8
.cfi_offset 2860, -8
.cfi_offset 2863, -8
.cfi_offset 2866, -8
.cfi_offset 2869, -8
.cfi_offset 2872, -8
.cfi_offset 2875, -8
.cfi_offset 2878, -8
.cfi_offset 2881, -8
.cfi_offset 2884, -8
.cfi_offset 2887, -8
.cfi_offset 2890, -8
.cfi_offset 2893, -8
.cfi_offset 2896, -8
.cfi_offset 2900, -8
.cfi_offset 2903, -8
.cfi_offset 2906, -8
.cfi_offset 2909, -8
.cfi_offset 2912, -8
.cfi_offset 2915, -8
.cfi_offset 2918, -8
.cfi_offset 2921, -8
.cfi_offset 2924, -8
.cfi_offset 2927, -8
.cfi_offset 2930, -8
.cfi_offset 2933, -8
.cfi_offset 2936, -8
.cfi_offset 2939, -8
.cfi_offset 2942, -8
.cfi_offset 2945, -8
.cfi_offset 2948, -8
.cfi_offset 2951, -8
.cfi_offset 2954, -8
.cfi_offset 2957, -8
.cfi_offset 2960, -8
.cfi_offset 2963, -8
.cfi_offset 2966, -8
.cfi_offset 2969, -8
.cfi_offset 2972, -8
.cfi_offset 2975, -8
.cfi_offset 2978, -8
.cfi_offset 2981, -8
.cfi_offset 2984, -8
.cfi_offset 2987, -8
.cfi_offset 2990, -8
.cfi_offset 2993, -8
.cfi_offset 2996, -8
.cfi_offset 3000, -8
.cfi_offset 3003, -8
.cfi_offset 3006, -8
.cfi_offset 3009, -8
.cfi_offset 3012, -8
.cfi_offset 3015, -8
.cfi_offset 3018, -8
.cfi_offset 3021, -8
.cfi_offset 3024, -8
.cfi_offset 3027, -8
.cfi_offset 3030, -8
.cfi_offset 3033, -8
.cfi_offset 3036, -8
.cfi_offset 3039, -8
.cfi_offset 3042, -8
.cfi_offset 3045, -8
.cfi_offset 3048, -8
.cfi_offset 3051, -8
.cfi_offset 3054, -8
.cfi_offset 3057, -8
.cfi_offset 3060, -8
.cfi_offset 3063, -8
.cfi_offset 3066, -8
.cfi_offset 3069, -8
.cfi_offset 3072, -8
.cfi_offset 3075, -8
.cfi_offset 3078, -8
.cfi_offset 3081, -8
.cfi_offset 3084, -8
.cfi_offset 3087, -8
.cfi_offset 3090, -8
.cfi_offset 3093, -8
.cfi_offset 3096, -8
.cfi_offset 3100, -8
.cfi_offset 3103, -8
.cfi_offset 3106, -8
.cfi_offset 3109, -8
.cfi_offset 3112, -8
.cfi_offset 3115, -8
.cfi_offset 3118, -8
.cfi_offset 3121, -8
.cfi_offset 3124, -8
.cfi_offset 3127, -8
.cfi_offset 3130, -8
.cfi_offset 3133, -8
.cfi_offset 3136, -8
.cfi_offset 3139, -8
.cfi_offset 3142, -8
.cfi_offset 3145, -8
.cfi_offset 3148, -8
.cfi_offset 3151, -8
.cfi_offset 3154, -8
.cfi_offset 3157, -8
.cfi_offset 3160, -8
.cfi_offset 3163, -8
.cfi_offset 3166, -8
.cfi_offset 3169, -8
.cfi_offset 3172, -8
.cfi_offset 3175, -8
.cfi_offset 3178, -8
.cfi_offset 3181, -8
.cfi_offset 3184, -8
.cfi_offset 3187, -8
.cfi_offset 3190, -8
.cfi_offset 3193, -8
.cfi_offset 3196, -8
.cfi_offset 3200, -8
.cfi_offset 3203, -8
.cfi_offset 3206, -8
.cfi_offset 3209, -8
.cfi_offset 3212, -8
.cfi_offset 3215, -8
.cfi_offset 3218, -8
.cfi_offset 3221, -8
.cfi_offset 3224, -8
.cfi_offset 3227, -8
.cfi_offset 3230, -8
.cfi_offset 3233, -8
.cfi_offset 3236, -8
.cfi_offset 3239, -8
.cfi_offset 3242, -8
.cfi_offset 3245, -8
.cfi_offset 3248, -8
.cfi_offset 3251, -8
.cfi_offset 3254, -8
.cfi_offset 3257, -8
.cfi_offset 3260, -8
.cfi_offset 3263, -8
.cfi_offset 3266, -8
.cfi_offset 3269, -8
.cfi_offset 3272, -8
.cfi_offset 3275, -8
.cfi_offset 3278, -8
.cfi_offset 3281, -8
.cfi_offset 3284, -8
.cfi_offset 3287, -8
.cfi_offset 3290, -8
.cfi_offset 3293, -8
.cfi_offset 3296, -8
.cfi_offset 3300, -8
.cfi_offset 3303, -8
.cfi_offset 3306, -8
.cfi_offset 3309, -8
.cfi_offset 3312, -8
.cfi_offset 3315, -8
.cfi_offset 3318, -8
.cfi_offset 3321, -8
.cfi_offset 3324, -8
.cfi_offset 3327, -8
.cfi_offset 3330, -8
.cfi_offset 3333, -8
.cfi_offset 3336, -8
.cfi_offset 3339, -8
.cfi_offset 3342, -8
.cfi_offset 3345, -8
.cfi_offset 3348, -8
.cfi_offset 3351, -8
.cfi_offset 3354, -8
.cfi_offset 3357, -8
.cfi_offset 3360, -8
.cfi_offset 3363, -8
.cfi_offset 3366, -8
.cfi_offset 3369, -8
.cfi_offset 3372, -8
.cfi_offset 3375, -8
.cfi_offset 3378, -8
.cfi_offset 3381, -8
.cfi_offset 3384, -8
.cfi_offset 3387, -8
.cfi_offset 3390, -8
.cfi_offset 3393, -8
.cfi_offset 3396, -8
.cfi_offset 3400, -8
.cfi_offset 3403, -8
.cfi_offset 3406, -8
.cfi_offset 3409, -8
.cfi_offset 3412, -8
.cfi_offset 3415, -8
.cfi_offset 3418, -8
.cfi_offset 3421, -8
.cfi_offset 3424, -8
.cfi_offset 3427, -8
.cfi_offset 3430, -8
.cfi_offset 3433, -8
.cfi_offset 3436, -8
.cfi_offset 3439, -8
.cfi_offset 3442, -8
.cfi_offset 3445, -8
.cfi_offset 3448, -8
.cfi_offset 3451, -8
.cfi_offset 3454, -8
.cfi_offset 3457, -8
.cfi_offset 3460, -8
.cfi_offset 3463, -8
.cfi_offset 3466, -8
.cfi_offset 3469, -8
.cfi_offset 3472, -8
.cfi_offset 3475, -8
.cfi_offset 3478, -8
.cfi_offset 3481, -8
.cfi_offset 3484, -8
.cfi_offset 3487, -8
.cfi_offset 3490, -8
.cfi_offset 3493, -8
.cfi_offset 3496, -8
.cfi_offset 3500, -8
.cfi_offset 3503, -8
.cfi_offset 3506, -8
.cfi_offset 3509, -8
.cfi_offset 3512, -8
.cfi_offset 3515, -8
.cfi_offset 3518, -8
.cfi_offset 3521, -8
.cfi_offset 3524, -8
.cfi_offset 3527, -8
.cfi_offset 3530, -8
.cfi_offset 3533, -8
.cfi_offset 3536, -8
.cfi_offset 3539, -8
.cfi_offset 3542, -8
.cfi_offset 3545, -8
.cfi_offset 3548, -8
.cfi_offset 3551, -8
.cfi_offset 3554, -8
.cfi_offset 3557, -8
.cfi_offset 3560, -8
.cfi_offset 3563, -8
.cfi_offset 3566, -8
.cfi_offset 3569, -8
.cfi_offset 3572, -8
.cfi_offset 3575, -8
.cfi_offset 3578, -8
.cfi_offset 3581, -8
.cfi_offset 3584, -8
.cfi_offset 3587, -8
.cfi_offset 3590, -8
.cfi_offset 3593, -8
.cfi_offset 3596, -8
.cfi_offset 3600, -8
.cfi_offset 3603, -8
.cfi_offset 3606, -8
.cfi_offset 3609, -8
.cfi_offset 3612, -8
.cfi_offset 3615, -8
.cfi_offset 3618, -8
.cfi_offset 3621, -8
.cfi_offset 3624, -8
.cfi_offset 3627, -8
.cfi_offset 3630, -8
.cfi_offset 3633, -8
.cfi_offset 3636, -8
.cfi_offset 3639, -8
.cfi_offset 3642, -8
.cfi_offset 3645, -8
.cfi_offset 3648, -8
.cfi_offset 3651, -8
.cfi_offset 3654, -8
.cfi_offset 3657, -8
.cfi_offset 3660, -8
.cfi_offset 3663, -8
.cfi_offset 3666, -8
.cfi_offset 3669, -8
.cfi_offset 3672, -8
.cfi_offset 3675, -8
.cfi_offset 3678, -8
.cfi_offset 3681, -8
.cfi_offset 3684, -8
.cfi_offset 3687, -8
.cfi_offset 3690, -8
.cfi_offset 3693, -8
.cfi_offset 3696, -8
.cfi_offset 3700, -8
.cfi_offset 3703, -8
.cfi_offset 3706, -8
.cfi_offset 3709, -8
.cfi_offset 3712, -8
.cfi_offset 3715, -8
.cfi_offset 3718, -8
.cfi_offset 3721, -8
.cfi_offset 3724, -8
.cfi_offset 3727, -8
.cfi_offset 3730, -8
.cfi_offset 3733, -8
.cfi_offset 3736, -8
.cfi_offset 3739, -8
.cfi_offset 3742, -8
.cfi_offset 3745, -8
.cfi_offset 3748, -8
.cfi_offset 3751, -8
.cfi_offset 3754, -8
.cfi_offset 3757, -8
.cfi_offset 3760, -8
.cfi_offset 3763, -8
.cfi_offset 3766, -8
.cfi_offset 3769, -8
.cfi_offset 3772, -8
.cfi_offset 3775, -8
.cfi_offset 3778, -8
.cfi_offset 3781, -8
.cfi_offset 3784, -8
.cfi_offset 3787, -8
.cfi_offset 3790, -8
.cfi_offset 3793, -8
.cfi_offset 3796, -8
.cfi_offset 3800, -8
.cfi_offset 3803, -8
.cfi_offset 3806, -8
.cfi_offset 3809, -8
.cfi_offset 3812, -8
.cfi_offset 3815, -8
.cfi_offset 3818, -8
.cfi_offset 3821, -8
.cfi_offset 3824, -8
.cfi_offset 3827, -8
.cfi_offset 3830, -8
.cfi_offset 3833, -8
.cfi_offset 3836, -8
.cfi_offset 3839, -8
.cfi_offset 3842, -8
.cfi_offset 3845, -8
.cfi_offset 3848, -8
.cfi_offset 3851, -8
.cfi_offset 3854, -8
.cfi_offset 3857, -8
.cfi_offset 3860, -8
.cfi_offset 3863, -8
.cfi_offset 3866, -8
.cfi_offset 3869, -8
.cfi_offset 3872, -8
.cfi_offset 3875, -8
.cfi_offset 3878, -8
.cfi_offset 3881, -8
.cfi_offset 3884, -8
.cfi_offset 3887, -8
.cfi_offset 3890, -8
.cfi_offset 3893, -8
.cfi_offset 3896, -8
.cfi_offset 3900, -8
.cfi_offset 3903, -8
.cfi_offset 3906, -8
.cfi_offset 3909, -8
.cfi_offset 3912, -8
.cfi_offset 3915, -8
.cfi_offset 3918, -8
.cfi_offset 3921, -8
.cfi_offset 3924, -8
.cfi_offset 3927, -8
.cfi_offset 3930, -8
.cfi_offset 3933, -8
.cfi_offset 3936, -8
.cfi_offset 3939, -8
.cfi_offset 3942, -8
.cfi_offset 3945, -8
.cfi_offset 3948, -8
.cfi_offset 3951, -8
.cfi_offset 3954, -8
.cfi_offset 3957, -8
.cfi_offset 3960, -8
.cfi_offset 3963, -8
.cfi_offset 3966, -8
.cfi_offset 3969, -8
.cfi_offset 3972, -8
.cfi_offset 3975, -8
.cfi_offset 3978, -8
.cfi_offset 3981, -8
.cfi_offset 3984, -8
.cfi_offset 3987, -8
.cfi_offset 3990, -8
.cfi_offset 3993, -8
.cfi_offset 3996, -8
.cfi_offset 4000, -8
.cfi_offset 4003, -8
.cfi_offset 4006, -8
.cfi_offset 4009, -8
.cfi_offset 4012, -8
.cfi_offset 4015, -8
.cfi_offset 4018, -8
.cfi_offset 4021, -8
.cfi_offset 4024, -8
.cfi_offset 4027, -8
.cfi_offset 4030, -8
.cfi_offset 4033, -8
.cfi_offset 4036, -8
.cfi_offset 4039, -8
.cfi_offset 4042, -8
.cfi_offset 4045, -8
.cfi_offset 4048, -8
.cfi_offset 4051, -8
.cfi_offset 4054, -8
.cfi_offset 4057, -8
.cfi_offset 4060, -8
.cfi_offset 4063, -8
.cfi_offset 4066, -8
.cfi_offset 4069, -8
.cfi_offset 4072, -8
.cfi_offset 4075, -8
.cfi_offset 4078, -8
.cfi_offset 4081, -8
.cfi_offset 4084, -8
.cfi_offset 4087, -8
.cfi_offset 4090, -8
.cfi_offset 4093, -8
.cfi_offset 4096, -8
.cfi_offset 4099, -8
.cfi_offset 4102, -8
.cfi_offset 4105, -8
.cfi_offset 4108, -8
.cfi_offset 4111, -8
.cfi_offset 4114, -8
.cfi_offset 4117, -8
.cfi_offset 4120, -8
.cfi_offset 4123, -8
.cfi_offset 4126, -8
.cfi_offset 4129, -8
.cfi_offset 4132, -8
.cfi_offset 4135, -8
.cfi_offset 4138, -8
.cfi_offset 4141, -8
.cfi_offset 4144, -8
.cfi_offset 4147, -8
.cfi_offset 4150, -8
.cfi_offset 4153, -8
.cfi_offset 4156, -8
.cfi_offset 4159, -8
.cfi_offset 4162, -8
.cfi_offset 4165, -8
.cfi_offset 4168, -8
.cfi_offset 4171, -8
.cfi_offset 4174, -8
.cfi_offset 4177, -8
.cfi_offset 4180, -8
.cfi_offset 4183, -8
.cfi_offset 4186, -8
.cfi_offset 4189, -8
.cfi_offset 4192, -8
.cfi_offset 4195, -8
.cfi_offset 4198, -8
.cfi_offset 4201, -8
.cfi_offset 4204, -8
.cfi_offset 4207, -8
.cfi_offset 4210, -8
.cfi_offset 4213, -8
.cfi_offset 4216, -8
.cfi_offset 4219, -8
.cfi_offset 4222, -8
.cfi_offset 4225, -8
.cfi_offset 4228, -8
.cfi_offset 4231, -8
.cfi_offset 4234, -8
.cfi_offset 4237, -8
.cfi_offset 4240, -8
.cfi_offset 4243, -8
.cfi_offset 4246, -8
.cfi_offset 4249, -8
.cfi_offset 4252, -8
.cfi_offset 4255, -8
.cfi_offset 4258, -8
.cfi_offset 4261, -8
.cfi_offset 4264, -8
.cfi_offset 4267, -8
.cfi_offset 4270, -8
.cfi_offset 4273, -8
.cfi_offset 4276, -8
.cfi_offset 4279, -8
.cfi_offset 4282, -8
.cfi_offset 4285, -8
.cfi_offset 4288, -8
.cfi_offset 4291, -8
.cfi_offset 4294, -8
.cfi_offset 4297, -8
.cfi_offset 4300, -8
.cfi_offset 4303, -8
.cfi_offset 4306, -8
.cfi_offset 4309, -8
.cfi_offset 4312, -8
.cfi_offset 4315, -8
.cfi_offset 4318, -8
.cfi_offset 4321, -8
.cfi_offset 4324, -8
.cfi_offset 4327, -8
.cfi_offset 4330, -8
.cfi_offset 4333, -8
.cfi_offset 4336, -8
.cfi_offset 4339, -8
.cfi_offset 4342, -8
.cfi_offset 4345, -8
.cfi_offset 4348, -8
.cfi_offset 4351, -8
.cfi_offset 4354, -8
.cfi_offset 4357, -8
.cfi_offset 4360, -8
.cfi_offset 4363, -8
.cfi_offset 4366, -8
.cfi_offset 4369, -8
.cfi_offset 4372, -8
.cfi_offset 4375, -8
.cfi_offset 4378, -8
.cfi_offset 4381, -8
.cfi_offset 4384, -8
.cfi_offset 4387, -8
.cfi_offset 4390, -8
.cfi_offset 4393, -8
.cfi_offset 4396, -8
.cfi_offset 4400, -8
.cfi_offset 4403, -8
.cfi_offset 4406, -8
.cfi_offset 4409, -8
.cfi_offset 4412, -8
.cfi_offset 4415, -8
.cfi_offset 4418, -8
.cfi_offset 4421, -8
.cfi_offset 4424, -8
.cfi_offset 4427, -8
.cfi_offset 4430, -8
.cfi_offset 4433, -8
.cfi_offset 4436, -8
.cfi_offset 4439, -8
.cfi_offset 4442, -8
.cfi_offset 4445, -8
.cfi_offset 4448, -8
.cfi_offset 4451, -8
.cfi_offset 4454, -8
.cfi_offset 4457, -8
.cfi_offset 4460, -8
.cfi_offset 4463, -8
.cfi_offset 4466, -8
.cfi_offset 4469, -8
.cfi_offset 4472, -8
.cfi_offset 4475, -8
.cfi_offset 4478, -8
.cfi_offset 4481, -8
.cfi_offset 4484, -8
.cfi_offset 4487, -8
.cfi_offset 4490, -8
.cfi_offset 4493, -8
.cfi_offset 4496, -8
.cfi_offset 4500, -8
.cfi_offset 4503, -8
.cfi_offset 4506, -8
.cfi_offset 4509, -8
.cfi_offset 4512, -8
.cfi_offset 4515, -8
.cfi_offset 4518, -8
.cfi_offset 4521, -8
.cfi_offset 4524, -8
.cfi_offset 4527, -8
.cfi_offset 4530, -8
.cfi_offset 4533, -8
.cfi_offset 4536, -8
.cfi_offset 4539, -8
.cfi_offset 4542, -8
.cfi_offset 4545, -8
.cfi_offset 4548, -8
.cfi_offset 4551, -8
.cfi_offset 4554, -8
.cfi_offset 4557, -8
.cfi_offset 4560, -8
.cfi_offset 4563, -8
.cfi_offset 4566, -8
.cfi_offset 4569, -8
.cfi_offset 4572, -8
.cfi_offset 4575, -8
.cfi_offset 4578, -8
.cfi_offset 4581, -8
.cfi_offset 4584, -8
.cfi_offset 4587, -8
.cfi_offset 4590, -8
.cfi_offset 4593, -8
.cfi_offset 4596, -8
.cfi_offset 4600, -8
.cfi_offset 4603, -8
.cfi_offset 4606, -8
.cfi_offset 4609, -8
.cfi_offset 4612, -8
.cfi_offset 4615, -8
.cfi_offset 4618, -8
.cfi_offset 4621, -8
.cfi_offset 4624, -8
.cfi_offset 4627, -8
.cfi_offset 4630, -8
.cfi_offset 4633, -8
.cfi_offset 4636, -8
.cfi_offset 4639, -8
.cfi_offset 4642, -8
.cfi_offset 4645, -8
.cfi_offset 4648, -8
.cfi_offset 4651, -8
.cfi_offset 4654, -8
.cfi_offset 4657, -8
.cfi_offset 4660, -8
.cfi_offset 4663, -8
.cfi_offset 4666, -8
.cfi_offset 4669, -8
.cfi_offset 4672, -8
.cfi_offset 4675, -8
.cfi_offset 4678, -8
.cfi_offset 4681, -8
.cfi_offset 4684, -8
.cfi_offset 4687, -8
.cfi_offset 4690, -8
.cfi_offset 4693, -8
.cfi_offset 4696, -8
.cfi_offset 4700, -8
.cfi_offset 4703, -8
.cfi_offset 4706, -8
.cfi_offset 4709, -8
.cfi_offset 4712, -8
.cfi_offset 4715, -8
.cfi_offset 4718, -8
.cfi_offset 4721, -8
.cfi_offset 4724, -8
.cfi_offset 4727, -8
.cfi_offset 4730, -8
.cfi_offset 4733, -8
.cfi_offset 4736, -8
.cfi_offset 4739, -8
.cfi_offset 4742, -8
.cfi_offset 4745, -8
.cfi_offset 4748, -8
.cfi_offset 4751, -8
.cfi_offset 4754, -8
.cfi_offset 4757, -8
.cfi_offset 4760, -8
.cfi_offset 4763, -8
.cfi_offset 4766, -8
.cfi_offset 4769, -8
.cfi_offset 4772, -8
.cfi_offset 4775, -8
.cfi_offset 4778, -8
.cfi_offset 4781, -8
.cfi_offset 4784, -8
.cfi_offset 4787, -8
.cfi_offset 4790, -8
.cfi_offset 4793, -8
.cfi_offset 4796, -8
.cfi_offset 4800, -8
.cfi_offset 4803, -8
.cfi_offset 4806, -8
.cfi_offset 4809, -8
.cfi_offset 4812, -8
.cfi_offset 4815, -8
.cfi_offset 4818, -8
.cfi_offset 4821, -8
.cfi_offset 4824, -8
.cfi_offset 4827, -8
.cfi_offset 4830, -8
.cfi_offset 4833, -8
.cfi_offset 4836, -8
.cfi_offset 4839, -8
.cfi_offset 4842, -8
.cfi_offset 4845, -8
.cfi_offset 4848, -8
.cfi_offset 4851, -8
.cfi_offset 4854, -8
.cfi_offset 4857, -8
.cfi_offset 4860, -8
.cfi_offset 4863, -8
.cfi_offset 4866, -8
.cfi_offset 4869, -8
.cfi_offset 4872, -8
.cfi_offset 4875, -8
.cfi_offset 4878, -8
.cfi_offset 4881, -8
.cfi_offset 4884, -8
.cfi_offset 4887, -8
.cfi_offset 4890, -8
.cfi_offset 4893, -8
.cfi_offset 4896, -8
.cfi_offset 4900, -8
.cfi_offset 4903, -8
.cfi_offset 4906, -8
.cfi_offset 4909, -8
.cfi_offset 4912, -8
.cfi_offset 4915, -8
.cfi_offset 4918, -8
.cfi_offset 4921, -8
.cfi_offset 4924, -8
.cfi_offset 4927, -8
.cfi_offset 4930, -8
.cfi_offset 4933, -8
.cfi_offset 4936, -8
.cfi_offset 4939, -8
.cfi_offset 4942, -8
.cfi_offset 4945, -8
.cfi_offset 4948, -8
.cfi_offset 4951, -8
.cfi_offset 4954, -8
.cfi_offset 4957, -8
.cfi_offset 4960, -8
.cfi_offset 4963, -8
.cfi_offset 4966, -8
.cfi_offset 4969, -8
.cfi_offset 4972, -8
.cfi_offset 4975, -8
.cfi_offset 4978, -8
.cfi_offset 4981, -8
.cfi_offset 4984, -8
.cfi_offset 4987, -8
.cfi_offset 4990, -8
.cfi_offset 4993, -8
.cfi_offset 4996, -8
.cfi_offset 5000, -8
.cfi_offset 5003, -8
.cfi_offset 5006, -8
.cfi_offset 5009, -8
.cfi_offset 5012, -8
.cfi_offset 5015, -8
.cfi_offset 5018, -8
.cfi_offset 5021, -8
.cfi_offset 5024, -8
.cfi_offset 5027, -8
.cfi_offset 5030, -8
.cfi_offset 5033, -8
.cfi_offset 5036, -8
.cfi_offset 5039, -8
.cfi_offset 5042, -8
.cfi_offset 5045, -8
.cfi_offset 5048, -8
.cfi_offset 5051, -8
.cfi_offset 5054, -8
.cfi_offset 5057, -8
.cfi_offset 5060, -8
.cfi_offset 5063, -8
.cfi_offset 5066, -8
.cfi_offset 5069, -8
.cfi_offset 5072, -8
.cfi_offset 5075, -8
.cfi_offset 5078, -8
.cfi_offset 5081, -8
.cfi_offset 5084, -8
.cfi_offset 5087, -8
.cfi_offset 5090, -8
.cfi_offset 5093, -8
.cfi_offset 5096, -8
.cfi_offset 5100, -8
.cfi_offset 5103, -8
.cfi_offset 5106, -8
.cfi_offset 5109, -8
.cfi_offset 5112, -8
.cfi_offset 5115, -8
.cfi_offset 5118, -8
.cfi_offset 5121, -8
.cfi_offset 5124, -8
.cfi_offset 5127, -8
.cfi_offset 5130, -8
.cfi_offset 5133, -8
.cfi_offset 5136, -8
.cfi_offset 5139, -8
.cfi_offset 5142, -8
.cfi_offset 5145, -8
.cfi_offset 5148, -8
.cfi_offset 5151, -8
.cfi_offset 5154, -8
.cfi_offset 5157, -8
.cfi_offset 5160, -8
.cfi_offset 5163, -8
.cfi_offset 5166, -8
.cfi_offset 5169, -8
.cfi_offset 5172, -8
.cfi_offset 5175, -8
.cfi_offset 5178, -8
.cfi_offset 5181, -8
.cfi_offset 5184, -8
.cfi_offset 5187, -8
.cfi_offset 5190, -8
.cfi_offset 5193, -8
.cfi_offset 5196, -8
.cfi_offset 5200, -8
.cfi_offset 5203, -8
.cfi_offset 5206, -8
.cfi_offset 5209, -8
.cfi_offset 5212, -8
.cfi_offset 5215, -8
.cfi_offset 5218, -8
.cfi_offset 5221, -8
.cfi_offset 5224, -8
.cfi_offset 5227, -8
.cfi_offset 5230, -8
.cfi_offset 5233, -8
.cfi_offset 5236, -8
.cfi_offset 5239, -8
.cfi_offset 5242, -8
.cfi_offset 5245, -8
.cfi_offset 5248, -8
.cfi_offset 5251, -8
.cfi_offset 5254, -8
.cfi_offset 5257, -8
.cfi_offset 5260, -8
.cfi_offset 5263, -8
.cfi_offset 5266, -8
.cfi_offset 5269, -8
.cfi_offset 5272, -8
.cfi_offset 5275, -8
.cfi_offset 5278, -8
.cfi_offset 5281, -8
.cfi_offset 5284, -8
.cfi_offset 5287, -8
.cfi_offset 5290, -8
.cfi_offset 5293, -8
.cfi_offset 5296, -8
.cfi_offset 5300, -8
.cfi_offset 5303, -8
.cfi_offset 5306, -8
.cfi_offset 5309, -8
.cfi_offset 5312, -8
.cfi_offset 5315, -8
.cfi_offset 5318, -8
.cfi_offset 5321, -8
.cfi_offset 5324, -8
.cfi_offset 5327, -8
.cfi_offset 5330, -8
.cfi_offset 5333, -8
.cfi_offset 5336, -8
.cfi_offset 5339, -8
.cfi_offset 5342, -8
.cfi_offset 5345, -8
.cfi_offset 5348, -8
.cfi_offset 5351, -8
.cfi_offset 5354, -8
.cfi_offset 5357, -8
.cfi_offset 5360, -8
.cfi_offset 5363, -8
.cfi_offset 5366, -8
.cfi_offset 5369, -8
.cfi_offset 5372, -8
.cfi_offset 5375, -8
.cfi_offset 5378, -8
.cfi_offset 5381, -8
.cfi_offset 5384, -8
.cfi_offset 5387, -8
.cfi_offset 5390, -8
.cfi_offset 5393, -8
.cfi_offset 5396, -8
.cfi_offset 5400, -8
.cfi_offset 5403, -8
.cfi_offset 5406, -8
.cfi_offset 5409, -8
.cfi_offset 5412, -8
.cfi_offset 5415, -8
.cfi_offset 5418, -8
.cfi_offset 5421, -8
.cfi_offset 5424, -8
.cfi_offset 5427, -8
.cfi_offset 5430, -8
.cfi_offset 5433, -8
.cfi_offset 5436, -8
.cfi_offset 5439, -8
.cfi_offset 5442, -8
.cfi_offset 5445, -8
.cfi_offset 5448, -8
.cfi_offset 5451, -8
.cfi_offset 5454, -8
.cfi_offset 5457, -8
.cfi_offset 5460, -8
.cfi_offset 5463, -8
.cfi_offset 5466, -8
.cfi_offset 5469, -8
.cfi_offset 5472, -8
.cfi_offset 5475, -8
.cfi_offset 5478, -8
.cfi_offset 5481, -8
.cfi_offset 5484, -8
.cfi_offset 5487, -8
.cfi_offset 5490, -8
.cfi_offset 5493, -8
.cfi_offset 5496, -8
.cfi_offset 5500, -8
.cfi_offset 5503, -8
.cfi_offset 5506, -8
.cfi_offset 5509, -8
.cfi_offset 5512, -8
.cfi_offset 5515, -8
.cfi_offset 5518, -8
.cfi_offset 5521, -8
.cfi_offset 5524, -8
.cfi_offset 5527, -8
.cfi_offset 5530, -8
.cfi_offset 5533, -8
.cfi_offset 5536, -8
.cfi_offset 5539, -8
.cfi_offset 5542, -8
.cfi_offset 5545, -8
.cfi_offset 5548, -8
.cfi_offset 5551, -8
.cfi_offset 5554, -8
.cfi_offset 5557, -8
.cfi_offset 5560, -8
.cfi_offset 5563, -8
.cfi_offset 5566, -8
.cfi_offset 5569, -8
.cfi_offset 5572, -8
.cfi_offset 5575, -8
.cfi_offset 5578, -8
.cfi_offset 5581, -8
.cfi_offset 5584, -8
.cfi_offset 5587, -8
.cfi_offset 5590, -8
.cfi_offset 5593, -8
.cfi_offset 5596, -8
.cfi_offset 5600, -8
.cfi_offset 5603, -8
.cfi_offset 5606, -8
.cfi_offset 5609, -8
.cfi_offset 5612, -8
.cfi_offset 5615, -8
.cfi_offset 5618, -8
.cfi_offset 5621, -8
.cfi_offset 5624, -8
.cfi_offset 5627, -8
.cfi_offset 5630, -8
.cfi_offset 5633, -8
.cfi_offset 5636, -8
.cfi_offset 5639, -8
.cfi_offset 5642, -8
.cfi_offset 5645, -8
.cfi_offset 5648, -8
.cfi_offset 5651, -8
.cfi_offset 5654, -8
.cfi_offset 5657, -8
.cfi_offset 5660, -8
.cfi_offset 5663, -8
.cfi_offset 5666, -8
.cfi_offset 5669, -8
.cfi_offset 5672, -8
.cfi_offset 5675, -8
.cfi_offset 5678, -8
.cfi_offset 5681, -8
.cfi_offset 5684, -8
.cfi_offset 5687, -8
.cfi_offset 5690, -8
.cfi_offset 5693, -8
.cfi_offset 5696, -8
.cfi_offset 5700, -8
.cfi_offset 5703, -8
.cfi_offset 5706, -8
.cfi_offset 5709, -8
.cfi_offset 5712, -8
.cfi_offset 5715, -8
.cfi_offset 5718, -8
.cfi_offset 5721, -8
.cfi_offset 5724, -8
.cfi_offset 5727, -8
.cfi_offset 5730, -8
.cfi_offset 5733, -8
.cfi_offset 5736, -8
.cfi_offset 5739, -8
.cfi_offset 5742, -8
.cfi_offset 5745, -8
.cfi_offset 5748, -8
.cfi_offset 5751, -8
.cfi_offset 5754, -8
.cfi_offset 5757, -8
.cfi_offset 5760, -8
.cfi_offset 5763, -8
.cfi_offset 5766, -8
.cfi_offset 5769, -8
.cfi_offset 5772, -8
.cfi_offset 5775, -8
.cfi_offset 5778, -8
.cfi_offset 5781, -8
.cfi_offset 5784, -8
.cfi_offset 5787, -8
.cfi_offset 5790, -8
.cfi_offset 5793, -8
.cfi_offset 5796, -8
.cfi_offset 5800, -8
.cfi_offset 5803, -8
.cfi_offset 5806, -8
.cfi_offset 5809, -8
.cfi_offset 5812, -8
.cfi_offset 5815, -8
.cfi_offset 5818, -8
.cfi_offset 5821, -8
.cfi_offset 5824, -8
.cfi_offset 5827, -8
.cfi_offset 5830, -8
.cfi_offset 5833, -8
.cfi_offset 5836, -8
.cfi_offset 5839, -8
.cfi_offset 5842, -8
.cfi_offset 5845, -8
.cfi_offset 5848, -8
.cfi_offset 5851, -8
.cfi_offset 5854, -8
.cfi_offset 5857, -8
.cfi_offset 5860, -8
.cfi_offset 5863, -8
.cfi_offset 5866, -8
.cfi_offset 5869, -8
.cfi_offset 5872, -8
.cfi_offset 5875, -8
.cfi_offset 5878, -8
.cfi_offset 5881, -8
.cfi_offset 5884, -8
.cfi_offset 5887, -8
.cfi_offset 5890, -8
.cfi_offset 5893, -8
.cfi_offset 5896, -8
.cfi_offset 5900, -8
.cfi_offset 5903, -8
.cfi_offset 5906, -8
.cfi_offset 5909, -8
.cfi_offset 5912, -8
.cfi_offset 5915, -8
.cfi_offset 5918, -8
.cfi_offset 5921, -8
.cfi_offset 5924, -8
.cfi_offset 5927, -8
.cfi_offset 5930, -8
.cfi_offset 5933, -8
.cfi_offset 5936, -8
.cfi_offset 5939, -8
.cfi_offset 5942, -8
.cfi_offset 5945, -8
.cfi_offset 5948, -8
.cfi_offset 5951, -8
.cfi_offset 5954, -8
.cfi_offset 5957, -8
.cfi_offset 5960, -8
.cfi_offset 5963, -8
.cfi_offset 5966, -8
.cfi_offset 5969, -8
.cfi_offset 5972, -8
.cfi_offset 5975, -8
.cfi_offset 5978, -8
.cfi_offset 5981, -8
.cfi_offset 5984, -8
.cfi_offset 5987, -8
.cfi_offset 5990, -8
.cfi_offset 5993, -8
.cfi_offset 5996, -8
.cfi_offset 6000, -8
.cfi_offset 6003, -8
.cfi_offset 6006, -8
.cfi_offset 6009, -8
.cfi_offset 6012, -8
.cfi_offset 6015, -8
.cfi_offset 6018, -8
.cfi_offset 6021, -8
.cfi_offset 6024, -8
.cfi_offset 6027, -8
.cfi_offset 6030, -8
.cfi_offset 6033, -8
.cfi_offset 6036, -8
.cfi_offset 6039, -8
.cfi_offset 6042, -8
.cfi_offset 6045, -8
.cfi_offset 6048, -8
.cfi_offset 6051, -8
.cfi_offset 6054, -8
.cfi_offset 6057, -8
.cfi_offset 6060, -8
.cfi_offset 6063, -8
.cfi_offset 6066, -8
.cfi_offset 6069, -8
.cfi_offset 6072, -8
.cfi_offset 6075, -8
.cfi_offset 6078, -8
.cfi_offset 6081, -8
.cfi_offset 6084, -8
.cfi_offset 6087, -8
.cfi_offset 6090, -8
.cfi_offset 6093, -8
.cfi_offset 6096, -8
.cfi_offset 6100, -8
.cfi_offset 6103, -8
.cfi_offset 6106, -8
.cfi_offset 6109, -8
.cfi_offset 6112, -8
.cfi_offset 6115, -8
.cfi_offset 6118, -8
.cfi_offset 6121, -8
.cfi_offset 6124, -8
.cfi_offset 6127, -8
.cfi_offset 6130, -8
.cfi_offset 6133, -8
.cfi_offset 6136, -8
.cfi_offset 6139, -8
.cfi_offset 6142, -8
.cfi_offset 6145, -8
.cfi_offset 6148, -8
.cfi_offset 6151, -8
.cfi_offset 6154, -8
.cfi_offset 6157, -8
.cfi_offset 6160, -8
.cfi_offset 6163, -8
.cfi_offset 6166, -8
.cfi_offset 6169, -8
.cfi_offset 6172, -8
.cfi_offset 6175, -8
.cfi_offset 6178, -8
.cfi_offset 6181, -8
.cfi_offset 6184, -8
.cfi_offset 6187, -8
.cfi_offset 6190, -8
.cfi_offset 6193, -8
.cfi_offset 6196, -8
.cfi_offset 6200, -8
.cfi_offset 6203, -8
.cfi_offset 6206, -8
.cfi_offset 6209, -8
.cfi_offset 6212, -8
.cfi_offset 6215, -8
.cfi_offset 6218, -8
.cfi_offset 6221, -8
.cfi_offset 6224, -8
.cfi_offset 6227, -8
.cfi_offset 6230, -8
.cfi_offset 6233, -8
.cfi_offset 6236, -8
.cfi_offset 6239, -8
.cfi_offset 6242, -8
.cfi_offset 6245, -8
.cfi_offset 6248, -8
.cfi_offset 6251, -8
.cfi_offset 6254, -8
.cfi_offset 6257, -8
.cfi_offset 6260, -8
.cfi_offset 6263, -8
.cfi_offset 6266, -8
.cfi_offset 6269, -8
.cfi_offset 6272, -8
.cfi_offset 6275, -8
.cfi_offset 6278, -8
.cfi_offset 6281, -8
.cfi_offset 6284, -8
.cfi_offset 6287, -8
.cfi_offset 6290, -8
.cfi_offset 6293, -8
.cfi_offset 6296, -8
.cfi_offset 6300, -8
.cfi_offset 6303, -8
.cfi_offset 6306, -8
.cfi_offset 6309, -8
.cfi_offset 6312, -8
.cfi_offset 6315, -8
.cfi_offset 6318, -8
.cfi_offset 6321, -8
.cfi_offset 6324, -8
.cfi_offset 6327, -8
.cfi_offset 6330, -8
.cfi_offset 6333, -8
.cfi_offset 6336, -8
.cfi_offset 6339, -8
.cfi_offset 6342, -8
.cfi_offset 6345, -8
.cfi_offset 6348, -8
.cfi_offset 6351, -8
.cfi_offset 6354, -8
.cfi_offset 6357, -8
.cfi_offset 6360, -8
.cfi_offset 6363, -8
.cfi_offset 6366, -8
.cfi_offset 6369, -8
.cfi_offset 6372, -8
.cfi_offset 6375, -8
.cfi_offset 6378, -8
.cfi_offset 6381, -8
.cfi_offset 6384, -8
.cfi_offset 6387, -8
.cfi_offset 6390, -8
.cfi_offset 6393, -8
.cfi_offset 6396, -8
.cfi_offset 6400, -8
.cfi_offset 6403, -8
.cfi_offset 6406, -8
.cfi_offset 6409, -8
.cfi_offset 6412, -8
.cfi_offset 6415, -8
.cfi_offset 6418, -8
.cfi_offset 6421, -8
.cfi_offset 6424, -8
.cfi_offset 6427, -8
.cfi_offset 6430, -8
.cfi_offset 6433, -8
.cfi_offset 6436, -8
.cfi_offset 6439, -8
.cfi_offset 6442, -8
.cfi_offset 6445, -8
.cfi_offset 6448, -8
.cfi_offset 6451, -8
.cfi_offset 6454, -8
.cfi_offset 6457, -8
.cfi_offset 6460, -8
.cfi_offset 6463, -8
.cfi_offset 6466, -8
.cfi_offset 6469, -8
.cfi_offset 6472, -8
.cfi_offset 6475, -8
.cfi_offset 6478, -8
.cfi_offset 6481, -8
.cfi_offset 6484, -8
.cfi_offset 6487, -8
.cfi_offset 6490, -8
.cfi_offset 6493, -8
.cfi_offset 6496, -8
.cfi_offset 6500, -8
.cfi_offset 6503, -8
.cfi_offset 6506, -8
.cfi_offset 6509, -8
.cfi_offset 6512, -8
.cfi_offset 6515, -8
.cfi_offset 6518, -8
.cfi_offset 6521, -8
.cfi_offset 6524, -8
.cfi_offset 6527, -8
.cfi_offset 6530, -8
.cfi_offset 6533, -8
.cfi_offset 6536, -8
.cfi_offset 6539, -8
.cfi_offset 6542, -8
.cfi_offset 6545, -8
.cfi_offset 6548, -8
.cfi_offset 6551, -8
.cfi_offset 6554, -8
.cfi_offset 6557, -8
.cfi_offset 6560, -8
.cfi_offset 6563, -8
.cfi_offset 6566, -8
.cfi_offset 6569, -8
.cfi_offset 6572, -8
.cfi_offset 6575, -8
.cfi_offset 6578, -8
.cfi_offset 6581, -8
.cfi_offset 6584, -8
.cfi_offset 6587, -8
.cfi_offset 6590, -8
.cfi_offset 6593, -8
.cfi_offset 6596, -8
.cfi_offset 6600, -8
.cfi_offset 6603, -8
.cfi_offset 6606, -8
.cfi_offset 6609, -8
.cfi_offset 6612, -8
.cfi_offset 6615, -8
.cfi_offset 6618, -8
.cfi_offset 6621, -8
.cfi_offset 6624, -8
.cfi_offset 6627, -8
.cfi_offset 6630, -8
.cfi_offset 6633, -8
.cfi_offset 6636, -8
.cfi_offset 6639, -8
.cfi_offset 6642, -8
.cfi_offset 6645, -8
.cfi_offset 6648, -8
.cfi_offset 6651, -8
.cfi_offset 6654, -8
.cfi_offset 6657, -8
.cfi_offset 6660, -8
.cfi_offset 6663, -8
.cfi_offset 6666, -8
.cfi_offset 6669, -8
.cfi_offset 6672, -8
.cfi_offset 6675, -8
.cfi_offset 6678, -8
.cfi_offset 6681, -8
.cfi_offset 6684, -8
.cfi_offset 6687, -8
.cfi_offset 6690, -8
.cfi_offset 6693, -8
.cfi_offset 6696, -8
.cfi_offset 6700, -8
.cfi_offset 6703, -8
.cfi_offset 6706, -8
.cfi_offset 6709, -8
.cfi_offset 6712, -8
.cfi_offset 6715, -8
.cfi_offset 6718, -8
.cfi_offset 6721, -8
.cfi_offset 6724, -8
.cfi_offset 6727, -8
.cfi_offset 6730, -8
.cfi_offset 6733, -8
.cfi_offset 6736, -8
.cfi_offset 6739, -8
.cfi_offset 6742, -8
.cfi_offset 6745, -8
.cfi_offset 6748, -8
.cfi_offset 6751, -8
.cfi_offset 6754, -8
.cfi_offset 6757, -8
.cfi_offset 6760, -8
.cfi_offset 6763, -8
.cfi_offset 6766, -8
.cfi_offset 6769, -8
.cfi_offset 6772, -8
.cfi_offset 6775, -8
.cfi_offset 6778, -8
.cfi_offset 6781, -8
.cfi_offset 6784, -8
.cfi_offset 6787, -8
.cfi_offset 6790, -8
.cfi_offset 6793, -8
.cfi_offset 6796, -8
.cfi_offset 6800, -8
.cfi_offset 6803, -8
.cfi_offset 6806, -8
.cfi_offset 6809, -8
.cfi_offset 6812, -8
.cfi_offset 6815, -8
.cfi_offset 6818, -8
.cfi_offset 6821, -8
.cfi_offset 6824, -8
.cfi_offset 6827, -8
.cfi_offset 6830, -8
.cfi_offset 6833, -8
.cfi_offset 6836, -8
.cfi_offset 6839, -8
.cfi_offset 6842, -8
.cfi_offset 6845, -8
.cfi_offset 6848, -8
.cfi_offset 6851, -8
.cfi_offset 6854, -8
.cfi_offset 6857, -8
.cfi_offset 6860, -8
.cfi_offset 6863, -8
.cfi_offset 6866, -8
.cfi_offset 6869, -8
.cfi_offset 6872, -8
.cfi_offset 6875, -8
.cfi_offset 6878, -8
.cfi_offset 6881, -8
.cfi_offset 6884, -8
.cfi_offset 6887, -8
.cfi_offset 6890, -8
.cfi_offset 6893, -8
.cfi_offset 6896, -8
.cfi_offset 6900, -8
.cfi_offset 6903, -8
.cfi_offset 6906, -8
.cfi_offset 6909, -8
.cfi_offset 6912, -8
.cfi_offset 6915, -8
.cfi_offset 6918, -8
.cfi_offset 6921, -8
.cfi_offset 6924, -8
.cfi_offset 6927, -8
.cfi_offset 6930, -8
.cfi_offset 6933, -8
.cfi_offset 6936, -8
.cfi_offset 6939, -8
.cfi_offset 6942, -8
.cfi_offset 6945, -8
.cfi_offset 6948, -8
.cfi_offset 6951, -8
.cfi_offset 6954, -8
.cfi_offset 6957, -8
.cfi_offset 6960, -8
.cfi_offset 6963, -8
.cfi_offset 6966, -8
.cfi_offset 6969, -8
.cfi_offset 6972, -8
.cfi_offset 6975, -8
.cfi_offset 6978, -8
.cfi_offset 6981, -8
.cfi_offset 6984, -8
.cfi_offset 6987, -8
.cfi_offset 6990, -8
.cfi_offset 6993, -8
.cfi_offset 6996, -8
.cfi_offset 7000, -8
.cfi_offset 7003, -8
.cfi_offset 7006, -8
.cfi_offset 7009, -8
.cfi_offset 7012, -8
.cfi_offset 7015, -8
.cfi_offset 7018, -8
.cfi_offset 7021, -8
.cfi_offset 7024, -8
.cfi_offset 7027, -8
.cfi_offset 7030, -8
.cfi_offset 7033, -8
.cfi_offset 7036, -8
.cfi_offset 7039, -8
.cfi_offset 7042, -8
.cfi_offset 7045, -8
.cfi_offset 7048, -8
.cfi_offset 7051, -8
.cfi_offset 7054, -8
.cfi_offset 7057, -8
.cfi_offset 7060, -8
.cfi_offset 7063, -8
.cfi_offset 7066, -8
.cfi_offset 7069, -8
.cfi_offset 7072, -8
.cfi_offset 7075, -8
.cfi_offset 7078, -8
.cfi_offset 7081, -8
.cfi_offset 7084, -8
.cfi_offset 7087, -8
.cfi_offset 7090, -8
.cfi_offset 7093, -8
.cfi_offset 7096, -8
.cfi_offset 7100, -8
.cfi_offset 7103, -8
.cfi_offset 7106, -8
.cfi_offset 7109, -8
.cfi_offset 7112, -8
.cfi_offset 7115, -8
.cfi_offset 7118, -8
.cfi_offset 7121, -8
.cfi_offset 7124, -8
.cfi_offset 7127, -8
.cfi_offset 7130, -8
.cfi_offset 7133, -8
.cfi_offset 7136, -8
.cfi_offset 7139, -8
.cfi_offset 7142, -8
.cfi_offset 7145, -8
.cfi_offset 7148, -8
.cfi_offset 7151, -8
.cfi_offset 7154, -8
.cfi_offset 7157, -8
.cfi_offset 7160, -8
.cfi_offset 7163, -8
.cfi_offset 7166, -8
.cfi_offset 7169, -8
.cfi_offset 7172, -8
.cfi_offset 7175, -8
.cfi_offset 7178, -8
.cfi_offset 7181, -8
.cfi_offset 7184, -8
.cfi_offset 7187, -8
.cfi_offset 7190, -8
.cfi_offset 7193, -8
.cfi_offset 7196, -8
.cfi_offset 7200, -8
.cfi_offset 7203, -8
.cfi_offset 7206, -8
.cfi_offset 7209, -8
.cfi_offset 7212, -8
.cfi_offset 7215, -8
.cfi_offset 7218, -8
.cfi_offset 7221, -8
.cfi_offset 7224, -8
.cfi_offset 7227, -8
.cfi_offset 7230, -8
.cfi_offset 7233, -8
.cfi_offset 7236, -8
.cfi_offset 7239, -8
.cfi_offset 7242, -8
.cfi_offset 7245, -8
.cfi_offset 7248, -8
.cfi_offset 7251, -8
.cfi_offset 7254, -8
.cfi_offset 7257, -8
.cfi_offset 7260, -8
.cfi_offset 7263, -8
.cfi_offset 7266, -8
.cfi_offset 7269, -8
.cfi_offset 7272, -8
.cfi_offset 7275, -8
.cfi_offset 7278, -8
.cfi_offset 7281, -8
.cfi_offset 7284, -8
.cfi_offset 7287, -8
.cfi_offset 7290, -8
.cfi_offset 7293, -8
.cfi_offset 7296, -8
.cfi_offset 7300, -8
.cfi_offset 7303, -8
.cfi_offset 7306, -8
.cfi_offset 7309, -8
.cfi_offset 7312, -8
.cfi_offset 7315, -8
.cfi_offset 7318, -8
.cfi_offset 7321, -8
.cfi_offset 7324, -8
.cfi_offset 7327, -8
.cfi_offset 7330, -8
.cfi_offset 7333, -8
.cfi_offset 7336, -8
.cfi_offset 7339, -8
.cfi_offset 7342, -8
.cfi_offset 7345, -8
.cfi_offset 7348, -8
.cfi_offset 7351, -8
.cfi_offset 7354, -8
.cfi_offset 7357, -8
.cfi_offset 7360, -8
.cfi_offset 7363, -8
.cfi_offset 7366, -8
.cfi_offset 7369, -8
.cfi_offset 7372, -8
.cfi_offset 7375, -8
.cfi_offset 7378, -8
.cfi_offset 7381, -8
.cfi_offset 7384, -8
.cfi_offset 7387, -8
.cfi_offset 7390, -8
.cfi_offset 7393, -8
.cfi_offset 7396, -8
.cfi_offset 7400, -8
.cfi_offset 7403, -8
.cfi_offset 7406, -8
.cfi_offset 7409, -8
.cfi_offset 7412, -8
.cfi_offset 7415, -8
.cfi_offset 7418, -8
.cfi_offset 7421, -8
.cfi_offset 7424, -8
.cfi_offset 7427, -8
.cfi_offset 7430, -8
.cfi_offset 7433, -8
.cfi_offset 7436, -8
.cfi_offset 7439, -8
.cfi_offset 7442, -8
.cfi_offset 7445, -8
.cfi_offset 7448, -8
.cfi_offset 7451, -8
.cfi_offset 7454, -8
.cfi_offset 7457, -8
.cfi_offset 7460, -8
.cfi_offset 7463, -8
.cfi_offset 7466, -8
.cfi_offset 7469, -8
.cfi_offset 7472, -8
.cfi_offset 7475, -8
.cfi_offset 7478, -8
.cfi_offset 7481, -8
.cfi_offset 7484, -8
.cfi_offset 7487, -8
.cfi_offset 7490, -8
.cfi_offset 7493, -8
.cfi_offset 7496, -8
.cfi_offset 7500, -8
.cfi_offset 7503, -8
.cfi_offset 7506, -8
.cfi_offset 7509, -8
.cfi_offset 7512, -8
.cfi_offset 7515, -8
.cfi_offset 7518, -8
.cfi_offset 7521, -8
.cfi_offset 7524, -8
.cfi_offset 7527, -8
.cfi_offset 7530, -8
.cfi_offset 7533, -8
.cfi_offset 7536, -8
.cfi_offset 7539, -8
.cfi_offset 7542, -8
.cfi_offset 7545, -8
.cfi_offset 7548, -8
.cfi_offset 7551, -8
.cfi_offset 7554, -8
.cfi_offset 7557, -8
.cfi_offset 7560, -8
.cfi_offset 7563, -8
.cfi_offset 7566, -8
.cfi_offset 7569, -8
.cfi_offset 7572, -8
.cfi_offset 7575, -8
.cfi_offset 7578, -8
.cfi_offset 7581, -8
.cfi_offset 7584, -8
.cfi_offset 7587, -8
.cfi_offset 7590, -8
.cfi_offset 7593, -8
.cfi_offset 7596, -8
.cfi_offset 7600, -8
.cfi_offset 7603, -8
.cfi_offset 7606, -8
.cfi_offset 7609, -8
.cfi_offset 7612, -8
.cfi_offset 7615, -8
.cfi_offset 7618, -8
.cfi_offset 7621, -8
.cfi_offset 7624, -8
.cfi_offset 7627, -8
.cfi_offset 7630, -8
.cfi_offset 7633, -8
.cfi_offset 7636, -8
.cfi_offset 7639, -8
.cfi_offset 7642, -8
.cfi_offset 7645, -8
.cfi_offset 7648, -8
.cfi_offset 7651, -8
.cfi_offset 7654, -8
.cfi_offset 7657, -8
.cfi_offset 7660, -8
.cfi_offset 7663, -8
.cfi_offset 7666, -8
.cfi_offset 7669, -8
.cfi_offset 7672, -8
.cfi_offset 7675, -8
.cfi_offset 7678, -8
.cfi_offset 7681, -8
.cfi_offset 7684, -8
.cfi_offset 7687, -8
.cfi_offset 7690, -8
.cfi_offset 7693, -8
.cfi_offset 7696, -8
.cfi_offset 7700, -8
.cfi_offset 7703, -8
.cfi_offset 7706, -8
.cfi_offset 7709, -8
.cfi_offset 7712, -8
.cfi_offset 7715, -8
.cfi_offset 7718, -8
.cfi_offset 7721, -8
.cfi_offset 7724, -8
.cfi_offset 7727, -8
.cfi_offset 7730, -8
.cfi_offset 7733, -8
.cfi_offset 7736, -8
.cfi_offset 7739, -8
.cfi_offset 7742, -8
.cfi_offset 7745, -8
.cfi_offset 7748, -8
.cfi_offset 7751, -8
.cfi_offset 7754, -8
.cfi_offset 7757, -8
.cfi_offset 7760, -8
.cfi_offset 7763, -8
.cfi_offset 7766, -8
.cfi_offset 7769, -8
.cfi_offset 7772, -8
.cfi_offset 7775, -8
.cfi_offset 7778, -8
.cfi_offset 7781, -8
.cfi_offset 7784, -8
.cfi_offset 7787, -8
.cfi_offset 7790, -8
.cfi_offset 7793, -8
.cfi_offset 7796, -8
.cfi_offset 7800, -8
.cfi_offset 7803, -8
.cfi_offset 7806, -8
.cfi_offset 7809, -8
.cfi_offset 7812, -8
.cfi_offset 7815, -8
.cfi_offset 7818, -8
.cfi_offset 7821,