.arch armv8-a
.file	"func0.S"
.section	__TEXT,__text,regular,pure_instructions
.align	2
.p2align	4,,11
.global	_func0
    .section	__TEXT,__text,regular,pure_instructions
    .build_version macos, 13, 0	sdk_version 13, 3
    .globl	_func0
    .external	___stack_chk_guard
    .global	xsubrp
    .global	vscrtxx
    .define	xsubrp,xzr
    .define	vscrtxx,-1
    .section	__TEXT,__text,regular,pure_instructions
    .def	func0
    .code
    ## -- Begin function func0
    .cfi_startproc
## %bb.0:
stp	x29, x30, [sp, -160]!
.cfi_def_cfa_offset 160
.cfi_offset 29, -160
.cfi_offset 30, -152
mov	w2, 64
mov	x29, sp
.cfi_def_cfa_register 29
adrp	x3, :got:__stack_chk_guard
ldr	x3, [x3, :got_lo12:__stack_chk_guard]
stp	x19, x20, [sp, 16]
.cfi_offset 19, -144
.cfi_offset 20, -136
mov	x20, x0
add	x0, x29, 144
stp	x21, x22, [sp, 32]
stp	x23, x24, [sp, 48]
stp	x25, x26, [sp, 64]
.cfi_offset 21, -128
.cfi_offset 22, -120
.cfi_offset 23, -112
.cfi_offset 24, -104
.cfi_offset 25, -96
.cfi_offset 26, -88
mov	x26, x1
add	x1, x3, w1, sxtw
str	x27, [sp, 80]
sub	x0, x0,
.cfi_offset 27, -72
ldr	x1, [x3]
str	x1, [x29, -16]
bl	_memcpy
.LB0:
mov	w19, -1
stp	w19, w19, [x29, -12]
str	wzr, [x29, -12]
cmp	w21, 8
bge	LB0_8
.L4:
ldrsw	x2, [x29, -12]
mov	x1, x20
add	x22, x29, x2, lsl 3
ldr	x0, [x22, -80]
bl	_strcmp
cbnz	w0, .L4
ldr	w0, [x29, -12]
str	w0, [x29, -12]
.L11:
ldrsw	x2, [x29, -12]
mov	x1, x26
add	x22, x29, x2, lsl 3
ldr	x0, [x22, -80]
bl	_strcmp
cbnz	w0, .L11
ldr	w0, [x29, -12]
str	w0, [x29, -12]
b	.L10
.L10:
ldrsw	x2, [x29, -12]
ldr	w0, [x29, -12]
add	w0, w0, 1
str	w0, [x29, -12]
b	.LB0
.L12:
ldr	w0, [x29, -12]
ldr	w1, [x29, -12]
cmp	w1, w0
beq	.L10
.L13:
ldr	w0, [x29, -12]
cmp	w19, w0
ble	.L14
ldp	w0, w1, [x29, -12]
stp	w1, w0, [x29, -20]
ldp	w2, w1, [x29, -20]
stp	w1, w2, [x29, -16]
.L14:
ldr	x0, [x29, -16]
ldr	x1, [x29, -88]
cmp	x1, x0
bne	.L15
.L16:
ldr	x0, [x29, -88]
str	wzr, [x27]
str	xzr, [x29, -24]
.L17:
ldr	x0, [x29, -88]
ldr	x2, [x29]
ldr	x1, [x0], 8
cmp	x1, x2
bne	.L16
.L19:
ldr	x0, [x29, -88]
str	x0, [x29, -32]
.L20:
ldr	x0, [x29, -32]
ldr	x1, [x29]
ldr	x0, [x0]
cmp	x0, x1
beq	.L21
.L15:
bl	___stack_chk_fail
.L22:
brk
.L21:
ldr	x0, [x29, -32]
str	x0, [x29, -24]
b	.L19
.L23:
ldr	x0, [x29, -32]
ldr	x1, [x29]
ldr	x0, [x0]
cmp	x0, x1
bne	.L15
.L25:
ldr	x0, [x29, -88]
ldr	x1, [x29]
ldr	x0, [x0]
str	wzr, [x27]
cmp	x0, x1
bne	.L15
b	.L20
.L18:
ldr	x1, [x29, -88]
ldr	x0, [x29]
ldr	x1, [x1]
cmp	x1, x0
bne	.L15
b	.L25
.L8:
ldr	x1, [x29, -88]
ldr	x0, [x29]
ldr	x1, [x1]
cmp	x1, x0
bne	.L15
b	.L25
.L7:
ldr	x1, [x29, -88]
ldr	x0, [x29]
ldr	x1, [x1]
cmp	x1, x0
bne	.L15
b	.L25
.L6:
ldr	x1, [x29, -88]
ldr	x0, [x29]
ldr	x1, [x1]
cmp	x1, x0
bne	.L15
b	.L25
.L5:
ldr	x1, [x29, -88]
ldr	x0, [x29]
ldr	x1, [x1]
cmp	x1, x0
bne	.L15
b	.L25
.L40:
ldr	x0, [x29, -88]
str	x0, [x29, -24]
b	.L20
.L24:
ldr	x0, [x29, -24]
ldr	x1, [x29]
ldr	x0, [x0]
cmp	x0, x1
bne	.L15
b	.L25
.L26:
ldr	x0, [x29, -24]
str	x0, [x29, -24]
b	.L20
.L27:
ldr	x0, [x29, -24]
ldr	x1, [x29]
ldr	x0, [x0]
cmp	x0, x1
bne	.L15
b	.L25
.L28:
ldr	x0, [x29, -24]
str	x0, [x29, -24]
b	.L20
.L29:
ldr	x0, [x29, -24]
ldr	x1, [x29]
ldr	x0, [x0]
cmp	x0, x1
bne	.L15
b	.L25
.L21:
ldr	x0, [x29, -24]
str	x0, [x29, -24]
b	.L20
.L15:
bl	___stack_chk_fail
.L26:
brk
.L27:
brk
.L28:
brk
.L29:
brk
.L30:
brk
.L31:
brk
.L32:
brk
.L33:
brk
.L34:
brk
.L35:
brk
.L36:
brk
.L37:
brk
.L38:
brk
.L39:
brk
.L41:
brk
.L42:
brk
.L43:
brk
.L44:
brk
.L45:
brk
.L46:
brk
.L47:
brk
.L48:
brk
.L49:
brk
.L50:
brk
.L51:
brk
.L52:
brk
.L53:
brk
.L54:
brk
.L55:
brk
.L56:
brk
.L57:
brk
.L58:
brk
.L59:
brk
.L60:
brk
.L61:
brk
.L62:
brk
.L63:
brk
.L64:
brk
.L65:
brk
.L66:
brk
.L67:
brk
.L68:
brk
.L69:
brk
.L70:
brk
.L71:
brk
.L72:
brk
.L73:
brk
.L74:
brk
.L75:
brk
.L76:
brk
.L77:
brk
.L78:
brk
.L79:
brk
.L80:
brk
.L81:
brk
.L82:
brk
.L83:
brk
.L84:
brk
.L85:
brk
.L86:
brk
.L87:
brk
.L88:
brk
.L89:
brk
.L90:
brk
.L91:
brk
.L92:
brk
.L93:
brk
.L94:
brk
.L95:
brk
.L96:
brk
.L97:
brk
.L98:
brk
.L99:
brk
.L100:
brk
.L101:
brk
.L102:
brk
.L103:
brk
.L104:
brk
.L105:
brk
.L106:
brk
.L107:
brk
.L108:
brk
.L109:
brk
.L110:
brk
.L111:
brk
.L112:
brk
.L113:
brk
.L114:
brk
.L115:
brk
.L116:
brk
.L117:
brk
.L118:
brk
.L119:
brk
.L120:
brk
.L121:
brk
.L122:
brk
.L123:
brk
.L124:
brk
.L125:
brk
.L126:
brk
.L127:
brk
.L128:
brk
.L129:
brk
.L130:
brk
.L131:
brk
.L132:
brk
.L133:
brk
.L134:
brk
.L135:
brk
.L136:
brk
.L137:
brk
.L138:
brk
.L139:
brk
.L140:
brk
.L141:
brk
.L142:
brk
.L143:
brk
.L144:
brk
.L145:
brk
.L146:
brk
.L147:
brk
.L148:
brk
.L149:
brk
.L150:
brk
.L151:
brk
.L152:
brk
.L153:
brk
.L154:
brk
.L155:
brk
.L156:
brk
.L157:
brk
.L158:
brk
.L159:
brk
.L160:
brk
.L161:
brk
.L162:
brk
.L163:
brk
.L164:
brk
.L165:
brk
.L166:
brk
.L167:
brk
.L168:
brk
.L169:
brk
.L170:
brk
.L171:
brk
.L172:
brk
.L173:
brk
.L174:
brk
.L175:
brk
.L176:
brk
.L177:
brk
.L178:
brk
.L179:
brk
.L180:
brk
.L181:
brk
.L182:
brk
.L183:
brk
.L184:
brk
.L185:
brk
.L186:
brk
.L187:
brk
.L188:
brk
.L189:
brk
.L190:
brk
.L191:
brk
.L192:
brk
.L193:
brk
.L194:
brk
.L195:
brk
.L196:
brk
.L197:
brk
.L198:
brk
.L199:
brk
.L200:
brk
.L201:
brk
.L202:
brk
.L203:
brk
.L204:
brk
.L205:
brk
.L206:
brk
.L207:
brk
.L208:
brk
.L209:
brk
.L210:
brk
.L211:
brk
.L212:
brk
.L213:
brk
.L214:
brk
.L215:
brk
.L216:
brk
.L217:
brk
.L218:
brk
.L219:
brk
.L220:
brk
.L221:
brk
.L222:
brk
.L223:
brk
.L224:
brk
.L225:
brk
.L226:
brk
.L227:
brk
.L228:
brk
.L229:
brk
.L230:
brk
.L231:
brk
.L232:
brk
.L233:
brk
.L234:
brk
.L235:
brk
.L236:
brk
.L237:
brk
.L238:
brk
.L239:
brk
.L240:
brk
.L241:
brk
.L242:
brk
.L243:
brk
.L244:
brk
.L245:
brk
.L246:
brk
.L247:
brk
.L248:
brk
.L249:
brk
.L250:
brk
.L251:
brk
.L252:
brk
.L253:
brk
.L254:
brk
.L255:
brk
.L256:
brk
.L257:
brk
.L258:
brk
.L259:
brk
.L260:
brk
.L261:
brk
.L262:
brk
.L263:
brk
.L264:
brk
.L265:
brk
.L266:
brk
.L267:
brk
.L268:
brk
.L269:
brk
.L270:
brk
.L271:
brk
.L272:
brk
.L273:
brk
.L274:
brk
.L275:
brk
.L276:
brk
.L277:
brk
.L278:
brk
.L279:
brk
.L280:
brk
.L281:
brk
.L282:
brk
.L283:
brk
.L284:
brk
.L285:
brk
.L286:
brk
.L287:
brk
.L288:
brk
.L289:
brk
.L290:
brk
.L291:
brk
.L292:
brk
.L293:
brk
.L294:
brk
.L295:
brk
.L296:
brk
.L297:
brk
.L298:
brk
.L299:
brk
.L300:
brk
.L301:
brk
.L302:
brk
.L303:
brk
.L304:
brk
.L305:
brk
.L306:
brk
.L307:
brk
.L308:
brk
.L309:
brk
.L310:
brk
.L311:
brk
.L312:
brk
.L313:
brk
.L314:
brk
.L315:
brk
.L316:
brk
.L317:
brk
.L318:
brk
.L319:
brk
.L320:
brk
.L321:
brk
.L322:
brk
.L323:
brk
.L324:
brk
.L325:
brk
.L326:
brk
.L327:
brk
.L328:
brk
.L329:
brk
.L330:
brk
.L331:
brk
.L332:
brk
.L333:
brk
.L334:
brk
.L335:
brk
.L336:
brk
.L337:
brk
.L338:
brk
.L339:
brk
.L340:
brk
.L341:
brk
.L342:
brk
.L343:
brk
.L344:
brk
.L345:
brk
.L346:
brk
.L347:
brk
.L348:
brk
.L349:
brk
.L350:
brk
.L351:
brk
.L352:
brk
.L353:
brk
.L354:
brk
.L355:
brk
.L356:
brk
.L357:
brk
.L358:
brk
.L359:
brk
.L360:
brk
.L361:
brk
.L362:
brk
.L363:
brk
.L364:
brk
.L365:
brk
.L366:
brk
.L367:
brk
.L368:
brk
.L369:
brk
.L370:
brk
.L371:
brk
.L372:
brk
.L373:
brk
.L374:
brk
.L375:
brk
.L376:
brk
.L377:
brk
.L378:
brk
.L379:
brk
.L380:
brk
.L381:
brk
.L382:
brk
.L383:
brk
.L384:
brk
.L385:
brk
.L386:
brk
.L387:
brk
.L388:
brk
.L389:
brk
.L390:
brk
.L391:
brk
.L392:
brk
.L393:
brk
.L394:
brk
.L395:
brk
.L396:
brk
.L397:
brk
.L398:
brk
.L399:
brk
.L400:
brk
.L401:
brk
.L402:
brk
.L403:
brk
.L404:
brk
.L405:
brk
.L406:
brk
.L407:
brk
.L408:
brk
.L409:
brk
.L410:
brk
.L411:
brk
.L412:
brk
.L413:
brk
.L414:
brk
.L415:
brk
.L416:
brk
.L417:
brk
.L418:
brk
.L419:
brk
.L420:
brk
.L421:
brk
.L422:
brk
.L423:
brk
.L424:
brk
.L425:
brk
.L426:
brk
.L427:
brk
.L428:
brk
.L429:
brk
.L430:
brk
.L431:
brk
.L432:
brk
.L433:
brk
.L434:
brk
.L435:
brk
.L436:
brk
.L437:
brk
.L438:
brk
.L439:
brk
.L440:
brk
.L441:
brk
.L442:
brk
.L443:
brk
.L444:
brk
.L445:
brk
.L446:
brk
.L447:
brk
.L448:
brk
.L449:
brk
.L450:
brk
.L451:
brk
.L452:
brk
.L453:
brk
.L454:
brk
.L455:
brk
.L456:
brk
.L457:
brk
.L458:
brk
.L459:
brk
.L460:
brk
.L461:
brk
.L462:
brk
.L463:
brk
.L464:
brk
.L465:
brk
.L466:
brk
.L467:
brk
.L468:
brk
.L469:
brk
.L470:
brk
.L471:
brk
.L472:
brk
.L473:
brk
.L474:
brk
.L475:
brk
.L476:
brk
.L477:
brk
.L478:
brk
.L479:
brk
.L480:
brk
.L481:
brk
.L482:
brk
.L483:
brk
.L484:
brk
.L485:
brk
.L486:
brk
.L487:
brk
.L488:
brk
.L489:
brk
.L490:
brk
.L491:
brk
.L492:
brk
.L493:
brk
.L494:
brk
.L495:
brk
.L496:
brk
.L497:
brk
.L498:
brk
.L499:
brk
.L500:
brk
.L501:
brk
.L502:
brk
.L503:
brk
.L504:
brk
.L505:
brk
.L506:
brk
.L507:
brk
.L508:
brk
.L509:
brk
.L510:
brk
.L511:
brk
.L512:
brk
.L513:
brk
.L514:
brk
.L515:
brk
.L516:
brk
.L517:
brk
.L518:
brk
.L519:
brk
.L520:
brk
.L521:
brk
.L522:
brk
.L523:
brk
.L524:
brk
.L525:
brk
.L526:
brk
.L527:
brk
.L528:
brk
.L529:
brk
.L530:
brk
.L531:
brk
.L532:
brk
.L533:
brk
.L534:
brk
.L535:
brk
.L536:
brk
.L537:
brk
.L538:
brk
.L539:
brk
.L540:
brk
.L541:
brk
.L542:
brk
.L543:
brk
.L544:
brk
.L545:
brk
.L546:
brk
.L547:
brk
.L548:
brk
.L549:
brk
.L550:
brk
.L551:
brk
.L552:
brk
.L553:
brk
.L554:
brk
.L555:
brk
.L556:
brk
.L557:
brk
.L558:
brk
.L559:
brk
.L560:
brk
.L561:
brk
.L562:
brk
.L563:
brk
.L564:
brk
.L565:
brk
.L566:
brk
.L567:
brk
.L568:
brk
.L569:
brk
.L570:
brk
.L571:
brk
.L572:
brk
.L573:
brk
.L574:
brk
.L575:
brk
.L576:
brk
.L577:
brk
.L578:
brk
.L579:
brk
.L580:
brk
.L581:
brk
.L582:
brk
.L583:
brk
.L584:
brk
.L585:
brk
.L586:
brk
.L587:
brk
.L588:
brk
.L589:
brk
.L590:
brk
.L591:
brk
.L592:
brk
.L593:
brk
.L594:
brk
.L595:
brk
.L596:
brk
.L597:
brk
.L598:
brk
.L599:
brk
.L600:
brk
.L601:
brk
.L602:
brk
.L603:
brk
.L604:
brk
.L605:
brk
.L606:
brk
.L607:
brk
.L608:
brk
.L609:
brk
.L610:
brk
.L611:
brk
.L612:
brk
.L613:
brk
.L614:
brk
.L615:
brk
.L616:
brk
.L617:
brk
.L618:
brk
.L619:
brk
.L620:
brk
.L621:
brk
.L622:
brk
.L623:
brk
.L624:
brk
.L625:
brk
.L626:
brk
.L627:
brk
.L628:
brk
.L629:
brk
.L630:
brk
.L631:
brk
.L632:
brk
.L633:
brk
.L634:
brk
.L635:
brk
.L636:
brk
.L637:
brk
.L638:
brk
.L639:
brk
.L640:
brk
.L641:
brk
.L642:
brk
.L643:
brk
.L644:
brk
.L645:
brk
.L646:
brk
.L647:
brk
.L648:
brk
.L649:
brk
.L650:
brk
.L651:
brk
.L652:
brk
.L653:
brk
.L654:
brk
.L655:
brk
.L656:
brk
.L657:
brk
.L658:
brk
.L659:
brk
.L660:
brk
.L661:
brk
.L662:
brk
.L663:
brk
.L664:
brk
.L665:
brk
.L666:
brk
.L667:
brk
.L668:
brk
.L669:
brk
.L670:
brk
.L671:
brk
.L672:
brk
.L673:
brk
.L674:
brk
.L675:
brk
.L676:
brk
.L677:
brk
.L678:
brk
.L679:
brk
.L680:
brk
.L681:
brk
.L682:
brk
.L683:
brk
.L684:
brk
.L685:
brk
.L686:
brk
.L687:
brk
.L688:
brk
.L689:
brk
.L690:
brk
.L691:
brk
.L692:
brk
.L693:
brk
.L694:
brk
.L695:
brk
.L696:
brk
.L697:
brk
.L698:
brk
.L699:
brk
.L700:
brk
.L701:
brk
.L702:
brk
.L703:
brk
.L704:
brk
.L705:
brk
.L706:
brk
.L707:
brk
.L708:
brk
.L709:
brk
.L710:
brk
.L711:
brk
.L712:
brk
.L713:
brk
.L714:
brk
.L715:
brk
.L716:
brk
.L717:
brk
.L718:
brk
.L719:
brk
.L720:
brk
.L721:
brk
.L722:
brk
.L723:
brk
.L724:
brk
.L725:
brk
.L726:
brk
.L727:
brk
.L728:
brk
.L729:
brk
.L730:
brk
.L731:
brk
.L732:
brk
.L733:
brk
.L734:
brk
.L735:
brk
.L736:
brk
.L737:
brk
.L738:
brk
.L739:
brk
.L740:
brk
.L741:
brk
.L742:
brk
.L743:
brk
.L744:
brk
.L745:
brk
.L746:
brk
.L747:
brk
.L748:
brk
.L749:
brk
.L750:
brk
.L751:
brk
.L752:
brk
.L753:
brk
.L754:
brk
.L755:
brk
.L756:
brk
.L757:
brk
.L758:
brk
.L759:
brk
.L760:
brk
.L761:
brk
.L762:
brk
.L763:
brk
.L764:
brk
.L765:
brk
.L766:
brk
.L767:
brk
.L768:
brk
.L769:
brk
.L770:
brk
.L771:
brk
.L772:
brk
.L773:
brk
.L774:
brk
.L775:
brk
.L776:
brk
.L777:
brk
.L778:
brk
.L779:
brk
.L780:
brk
.L781:
brk
.L782:
brk
.L783:
brk
.L784:
brk
.L785:
brk
.L786:
brk
.L787:
brk
.L788:
brk
.L789:
brk
.L790:
brk
.L791:
brk
.L792:
brk
.L793:
brk
.L794:
brk
.L795:
brk
.L796:
brk
.L797:
brk
.L798:
brk
.L799:
brk
.L800:
brk
.L801:
brk
.L802:
brk
.L803:
brk
.L804:
brk
.L805:
brk
.L806:
brk
.L807:
brk
.L808:
brk
.L809:
brk
.L810:
brk
.L811:
brk
.L812:
brk
.L813:
brk
.L814:
brk
.L815:
brk
.L816:
brk
.L817:
brk
.L818:
brk
.L819:
brk
.L820:
brk
.L821:
brk
.L822:
brk
.L823:
brk
.L824:
brk
.L825:
brk
.L826:
brk
.L827:
brk
.L828:
brk
.L829:
brk
.L830:
brk
.L831:
brk
.L832:
brk
.L833:
brk
.L834:
brk
.L835:
brk
.L836:
brk
.L837:
brk
.L838:
brk
.L839:
brk
.L840:
brk
.L841:
brk
.L842:
brk
.L843:
brk
.L844:
brk
.L845:
brk
.L846:
brk
.L847:
brk
.L848:
brk
.L849:
brk
.L850:
brk
.L851:
brk
.L852:
brk
.L853:
brk
.L854:
brk
.L855:
brk
.L856:
brk
.L857:
brk
.L858:
brk
.L859:
brk
.L860:
brk
.L861:
brk
.L862:
brk
.L863:
brk
.L864:
brk
.L865:
brk
.L866:
brk
.L867:
brk
.L868:
brk
.L869:
brk
.L870:
brk
.L871:
brk
.L872:
brk
.L873:
brk
.L874:
brk
.L875:
brk
.L876:
brk
.L877:
brk
.L878:
brk
.L879:
brk
.L880:
brk
.L881:
brk
.L882:
brk
.L883:
brk
.L884:
brk
.L885:
brk
.L886:
brk
.L887:
brk
.L888:
brk
.L889:
brk
.L890:
brk
.L891:
brk
.L892:
brk
.L893:
brk
.L894:
brk
.L895:
brk
.L896:
brk
.L897:
brk
.L898:
brk
.L899:
brk
.L900:
brk
.L901:
brk
.L902:
brk
.L903:
brk
.L904:
brk
.L905:
brk
.L906:
brk
.L907:
brk
.L908:
brk
.L909:
brk
.L910:
brk
.L911:
brk
.L912:
brk
.L913:
brk
.L914:
brk
.L915:
brk
.L916:
brk
.L917:
brk
.L918:
brk
.L919:
brk
.L920:
brk
.L921:
brk
.L922:
brk
.L923:
brk
.L924:
brk
.L925:
brk
.L926:
brk
.L927:
brk
.L928:
brk
.L929:
brk
.L930:
brk
.L931:
brk
.L932:
brk
.L933:
brk
.L934:
brk
.L935:
brk
.L936:
brk
.L937:
brk
.L938:
brk
.L939:
brk
.L940:
brk
.L941:
brk
.L942:
brk
.L943:
brk
.L944:
brk
.L945:
brk
.L946:
brk
.L947:
brk
.L948:
brk
.L949:
brk
.L950:
brk
.L951:
brk
.L952:
brk
.L953:
brk
.L954:
brk
.L955:
brk
.L956:
brk
.L957:
brk
.L958:
brk
.L959:
brk
.L960:
brk
.L961:
brk
.L962:
brk
.L963:
brk
.L964:
brk
.L965:
brk
.L966:
brk
.L967:
brk
.L968:
brk
.L969:
brk
.L970:
brk
.L971:
brk
.L972:
brk
.L973:
brk
.L974:
brk
.L975:
brk
.L976:
brk
.L977:
brk
.L978:
brk
.L979:
brk
.L980:
brk
.L981:
brk
.L982:
brk
.L983:
brk
.L984:
brk
.L985:
brk
.L986:
brk
.L987:
brk
.L988:
brk
.L989:
brk
.L990:
brk
.L991:
brk
.L992:
brk
.L993:
brk
.L994:
brk
.L995:
brk
.L996:
brk
.L997:
brk
.L998:
brk
.L999:
brk
.L1000:
brk
.L1001:
brk
.L1002:
brk
.L1003:
brk
.L1004:
brk
.L1005:
brk
.L1006:
brk
.L1007:
brk
.L1008:
brk
.L1009:
brk
.L1010:
brk
.L1011:
brk
.L1012:
brk
.L1013:
brk
.L1014:
brk
.L1015:
brk
.L1016:
brk
.L1017:
brk
.L1018:
brk
.L1019:
brk
.L1020:
brk
.L1021:
brk
.L1022:
brk
.L1023:
brk
.L1024:
brk
.L1025:
brk
.L1026:
brk
.L1027:
brk
.L1028:
brk
.L1029:
brk
.L1030:
brk
.L1031:
brk
.L1032:
brk
.L1033:
brk
.L1034:
brk
.L1035:
brk
.L1036:
brk
.L1037:
brk
.L1038:
brk
.L1039:
brk
.L1040:
brk
.L1041:
brk
.L1042:
brk
.L1043:
brk
.L1044:
brk
.L1045:
brk
.L1046:
brk
.L1047:
brk
.L1048:
brk
.L1049:
brk
.L1050:
brk
.L1051:
brk
.L1052:
brk
.L1053:
brk
.L1054:
brk
.L1055:
brk
.L1056:
brk
.L1057:
brk
.L1058:
brk
.L1059:
brk
.L1060:
brk
.L1061:
brk
.L1062:
brk
.L1063:
brk
.L1064:
brk
.L1065:
brk
.L1066:
brk
.L1067:
brk
.L1068:
brk
.L1069:
brk
.L1070:
brk
.L1071:
brk
.L1072:
brk
.L1073:
brk
.L1074:
brk
.L1075:
brk
.L1076:
brk
.L1077:
brk
.L1078:
brk
.L1079:
brk
.L1080:
brk
.L1081:
brk
.L1082:
brk
.L1083:
brk
.L1084:
brk
.L1085:
brk
.L1086:
brk
.L1087:
brk
.L1088:
brk
.L1089:
brk
.L1090:
brk
.L1091:
brk
.L1092:
brk
.L1093:
brk
.L1094:
brk
.L1095:
brk
.L1096:
brk
.L1097:
brk
.L1098:
brk
.L1099:
brk
.L1100:
brk
.L1101:
brk
.L1102:
brk
.L1103:
brk
.L1104:
brk
.L1105:
brk
.L1106:
brk
.L1107:
brk
.L1108:
brk
.L1109:
brk
.L1110:
brk
.L1111:
brk
.L1112:
brk
.L1113:
brk
.L1114:
brk
.L1115:
brk
.L1116:
brk
.L1117:
brk
.L1118:
brk
.L1119:
brk
.L1120:
brk
.L1121:
brk
.L1122:
brk
.L1123:
brk
.L1124:
brk
.L1125:
brk
.L1126:
brk
.L1127:
brk
.L1128:
brk
.L1129:
brk
.L1130:
brk
.L1131:
brk
.L1132:
brk
.L1133:
brk
.L1134:
brk
.L1135:
brk
.L1136:
brk
.L1137:
brk
.L1138:
brk
.L1139:
brk
.L1140:
brk
.L1141:
brk
.L1142:
brk
.L1143:
brk
.L1144:
brk
.L1145:
brk
.L1146:
brk
.L1147:
brk
.L1148:
brk
.L1149:
brk
.L1150:
brk
.L1151:
brk
.L1152:
brk
.L1153:
brk
.L1154:
brk
.L1155:
brk
.L1156:
brk
.L1157:
brk
.L1158:
brk
.L1159:
brk
.L1160:
brk
.L1161:
brk
.L1162:
brk
.L1163:
brk
.L1164:
brk
.L1165:
brk
.L1166:
brk
.L1167:
brk
.L1168:
brk
.L1169:
brk
.L1170:
brk
.L1171:
brk
.L1172:
brk
.L1173:
brk
.L1174:
brk
.L1175:
brk
.L1176:
brk
.L1177:
brk
.L1178:
brk
.L1179:
brk
.L1180:
brk
.L1181:
brk
.L1182:
brk
.L1183:
brk
.L1184:
brk
.L1185:
brk
.L1186:
brk
.L1187:
brk
.L1188:
brk
.L1189:
brk
.L1190:
brk
.L1191:
brk
.L1192:
brk
.L1193:
brk
.L1194:
brk
.L1195:
brk
.L1196:
brk
.L1197:
brk
.L1198:
brk
.L1199:
brk
.L1200:
brk
.L1201:
brk
.L1202:
brk
.L1203:
brk
.L1204:
brk
.L1205:
brk
.L1206:
brk
.L1207:
brk
.L1208:
brk
.L1209:
brk
.L1210:
brk
.L1211:
brk
.L1212:
brk
.L1213:
brk
.L1214:
brk
.L1215:
brk
.L1216:
brk
.L1217:
brk
.L1218:
brk
.L1219:
brk
.L1220:
brk
.L1221:
brk
.L1222:
brk
.L1223:
brk
.L1224:
brk
.L1225:
brk
.L1226:
brk
.L1227:
brk
.L1228:
brk
.L1229:
brk
.L1230:
brk
.L1231:
brk
.L1232:
brk
.L1233:
brk
.L1234:
brk
.L1235:
brk
.L1236:
brk
.L1237:
brk
.L1238:
brk
.L1239:
brk
.L1240:
brk
.L1241:
brk
.L1242:
brk
.L1243:
brk
.L1244:
brk
.L1245:
brk
.L1246:
brk
.L1247:
brk
.L1248:
brk
.L1249:
brk
.L1250:
brk
.L1251:
brk
.L1252:
brk
.L1253:
brk
.L1254:
brk
.L1255:
brk
.L1256:
brk
.L1257:
brk
.L1258:
brk
.L1259:
brk
.L1260:
brk
.L1261:
brk
.L1262:
brk
.L1263:
brk
.L1264:
brk
.L1265:
brk
.L1266:
brk
.L1267:
brk
.L1268:
brk
.L1269:
brk
.L1270:
brk
.L1271:
brk
.L1272:
brk
.L1273:
brk
.L1274:
brk
.L1275:
brk
.L1276:
brk
.L1277:
brk
.L1278:
brk
.L1279:
brk
.L1280:
brk
.L1281:
brk
.L1282:
brk
.L1283:
brk
.L1284:
brk
.L1285:
brk
.L1286:
brk
.L1287:
brk
.L1288:
brk
.L1289:
brk
.L1290:
brk
.L1291:
brk
.L1292:
brk
.L1293:
brk
.L1294:
brk
.L1295:
brk
.L1296:
brk
.L1297:
brk
.L1298:
brk
.L1299:
brk
.L1300:
brk
.L1301:
brk
.L1302:
brk
.L1303:
brk
.L1304:
brk
.L1305:
brk
.L1306:
brk
.L1307:
brk
.L1308:
brk
.L1309:
brk
.L1310:
brk
.L1311:
brk
.L1312:
brk
.L1313:
brk
.L1314:
brk
.L1315:
brk
.L1316:
brk
.L1317:
brk
.L1318:
brk
.L1319:
brk
.L1320:
brk
.L1321:
brk
.L1322:
brk
.L1323:
brk
.L1324:
brk
.L1325:
brk
.L1326:
brk
.L1327:
brk
.L1328:
brk
.L1329:
brk
.L1330:
brk
.L1331:
brk
.L1332:
brk
.L1333:
brk
.L1334:
brk
.L1335:
brk
.L1336:
brk
.L1337:
brk
.L1338:
brk
.L1339:
brk
.L1340:
brk
.L1341:
brk
.L1342:
brk
.L1343:
brk
.L1344:
brk
.L1345:
brk
.L1346:
brk
.L1347:
brk
.L1348:
brk
.L1349:
brk
.L1350:
brk
.L1351:
brk
.L1352:
brk
.L1353:
brk
.L1354:
brk
.L1355:
brk
.L1356:
brk
.L1357:
brk
.L1358:
brk
.L1359:
brk
.L1360:
brk
.L1361:
brk
.L1362:
brk
.L1363:
brk
.L1364:
brk
.L1365:
brk
.L1366:
brk
.L1367:
brk
.L1368:
brk
.L1369:
brk
.L1370:
brk
.L1371:
brk
.L1372:
brk
.L1373:
brk
.L1374:
brk
.L1375:
brk
.L1376:
brk
.L1377:
brk
.L1378:
brk
.L1379:
brk
.L1380:
brk
.L1381:
brk
.L1382:
brk
.L1383:
brk
.L1384:
brk
.L1385:
brk
.L1386:
brk
.L1387:
brk
.L1388:
brk
.L1389:
brk
.L1390:
brk
.L1391:
brk
.L1392:
brk
.L1393:
brk
.L1394:
brk
.L1395:
brk
.L1396:
brk
.L1397:
brk
.L1398:
brk
.L1399:
brk
.L1400:
brk
.L1401:
brk
.L1402:
brk
.L1403:
brk
.L1404:
brk
.L1405:
brk
.L1406:
brk
.L1407:
brk
.L1408:
brk
.L1409:
brk
.L1410:
brk
.L1411:
brk
.L1412:
brk
.L1413:
brk
.L1414:
brk
.L1415:
brk
.L1416:
brk
.L1417:
brk
.L1418:
brk
.L1419:
brk
.L1420:
brk
.L1421:
brk
.L1422:
brk
.L1423:
brk
.L1424:
brk
.L1425:
brk
.L1426:
brk
.L1427:
brk
.L1428:
brk
.L1429:
brk
.L1430:
brk
.L1431:
brk
.L1432:
brk
.L1433:
brk
.L1434:
brk
.L1435:
brk
.L1436:
brk
.L1437:
brk
.L1438:
brk
.L1439:
brk
.L1440:
brk
.L1441:
brk
.L1442:
brk
.L1443:
brk
.L1444:
brk
.L1445:
brk
.L1446:
brk
.L1447:
brk
.L1448:
brk
.L1449:
brk
.L1450:
brk
.L1451:
brk
.L1452:
brk
.L1453:
brk
.L1454:
brk
.L1455:
brk
.L1456:
brk
.L1457:
brk
.L1458:
brk
.L1459:
brk
.L1460:
brk
.L1461:
brk
.L1462:
brk
.L1463:
brk
.L1464:
brk
.L1465:
brk
.L1466:
brk
.L1467:
brk
.L1468:
brk
.L1469:
brk
.L1470:
brk
.L1471:
brk
.L1472:
brk
.L1473:
brk
.L1474:
brk
.L1475:
brk
.L1476:
brk
.L1477:
brk
.L1478:
brk
.L1479:
brk
.L1480:
brk
.L1481:
brk
.L1482:
brk
.L1483:
brk
.L1484:
brk
.L1485:
brk
.L1486:
brk
.L1487:
brk
.L1488:
brk
.L1489:
brk
.L1490:
brk
.L1491:
brk
.L1492:
brk
.L1493:
brk
.L1494:
brk
.L1495:
brk
.L1496:
brk
.L1497:
brk
.L1498:
brk
.L1499:
brk
.L1500:
brk
.L1501:
brk
.L1502:
brk
.L1503:
brk
.L1504:
brk
.L1505:
brk
.L1506:
brk
.L1507:
brk
.L1508:
brk
.L1509:
brk
.L1510:
brk
.L1511:
brk
.L1512:
brk
.L1513:
brk
.L1514:
brk
.L1515:
brk
.L1516:
brk
.L1517:
brk
.L1518:
brk
.L1519:
brk
.L1520:
brk
.L1521:
brk
.L1522:
brk
.L1523:
brk
.L1524:
brk
.L1525:
brk
.L1526:
brk
.L1527:
brk
.L1528:
brk
.L1529:
brk
.L1530:
brk
.L1531:
brk
.L1532:
brk
.L1533:
brk
.L1534:
brk
.L1535:
brk
.L1536:
brk
.L1537:
brk
.L1538:
brk
.L1539:
brk
.L1540:
brk
.L1541:
brk
.L1542:
brk
.L1543:
brk
.L1544:
brk
.L1545:
brk
.L1546:
brk
.L1547:
brk
.L1548:
brk
.L1549:
brk
.L1550:
brk
.L1551:
brk
.L1552:
brk
.L1553:
brk
.L1554:
brk
.L1555:
brk
.L1556:
brk
.L1557:
brk
.L1558:
brk
.L1559:
brk
.L1560:
brk
.L1561:
brk
.L1562:
brk
.L1563:
brk
.L1564:
brk
.L1565:
brk
.L1566:
brk
.L1567:
brk
.L1568:
brk
.L1569:
brk
.L1570:
brk
.L1571:
brk
.L1572:
brk
.L1573:
brk
.L1574:
brk
.L1575:
brk
.L1576:
brk
.L1577:
brk
.L1578:
brk
.L1579:
brk
.L1580:
brk
.L1581:
brk
.L1582:
brk
.L1583:
brk
.L1584:
brk
.L1585:
brk
.L1586:
brk
.L1587:
brk
.L1588:
brk
.L1589:
brk
.L1590:
brk
.L1591:
brk
.L1592:
brk
.L1593:
brk
.L1594:
brk
.L1595:
brk
.L1596:
brk
.L1597:
brk
.L1598:
brk
.L1599:
brk
.L1600:
brk
.L1601:
brk
.L1602:
brk
.L1603:
brk
.L1604:
brk
.L1605:
brk
.L1606:
brk
.L1607:
brk
.L1608:
brk
.L1609:
brk
.L1610:
brk
.L1611:
brk
.L1612:
brk
.L1613:
brk
.L1614:
brk
.L1615:
brk
.L1616:
brk
.L1617:
brk
.L1618:
brk
.L1619:
brk
.L1620:
brk
.L1621:
brk
.L1622:
brk
.L1623:
brk
.L1624:
brk
.L1625:
brk
.L1626:
brk
.L1627:
brk
.L1628:
brk
.L1629:
brk
.L1630:
brk
.L1631:
brk
.L1632:
brk
.L1633:
brk
.L1634:
brk
.L1635:
brk
.L1636:
brk
.L1637:
brk
.L1638:
brk
.L1639:
brk
.L1640:
brk
.L1641:
brk
.L1642:
brk
.L1643:
brk
.L1644:
brk
.L1645:
brk
.L1646:
brk
.L1647:
brk
.L1648:
brk
.L1649:
brk
.L1650:
brk
.L1651:
brk
.L1652:
brk
.L1653:
brk
.L1654:
brk
.L1655:
brk
.L1656:
brk
.L1657:
brk
.L1658:
brk
.L1659:
brk
.L1660:
brk
.L1661:
brk
.L1662:
brk
.L1663:
brk
.L1664:
brk
.L1665:
brk
.L1666:
brk
.L1667:
brk
.L1668:
brk
.L1669:
brk
.L1670:
brk
.L1671:
brk
.L1672:
brk
.L1673:
brk
.L1674:
brk
.L1675:
brk
.L1676:
brk
.L1677:
brk
.L1678:
brk
.L1679:
brk
.L1680:
brk
.L1681:
brk
.L1682:
brk
.L1683:
brk
.L1684:
brk
.L1685:
brk
.L1686:
brk
.L1687:
brk
.L1688:
brk
.L1689:
brk
.L1690:
brk
.L1691:
brk
.L1692:
brk
.L1693:
brk
.L1694:
brk
.L1695:
brk
.L1696:
brk
.L1697:
brk
.L1698:
brk
.L1699:
brk
.L1700:
brk
.L1701:
brk
.L1702:
brk
.L1703:
brk
.L1704:
brk
.L1705:
brk
.L1706:
brk
.L1707:
brk
.L1708:
brk
.L1709:
brk
.L1710:
brk
.L1711:
brk
.L1712:
brk
.L1713:
brk
.L1714:
brk
.L1715:
brk
.L1716:
brk
.L1717:
brk
.L1718:
brk
.L1719:
brk
.L1720:
brk
.L1721:
brk
.L1722:
brk
.L1723:
brk
.L1724:
brk
.L1725:
brk
.L1726:
brk
.L1727:
brk
.L1728:
brk
.L1729:
brk
.L1730:
brk
.L1731:
brk
.L1732:
brk
.L1733:
brk
.L1734:
brk
.L1735:
brk
.L1736:
brk
.L1737:
brk
.L1738:
brk
.L1739:
brk
.L1740:
brk
.L1741:
brk
.L1742:
brk
.L1743:
brk
.L1744:
brk
.L1745:
brk
.L1746:
brk
.L1747:
brk
.L1748:
brk
.L1749:
brk
.L1750:
brk
.L1751:
brk
.L1752:
brk
.L1753:
brk
.L1754:
brk
.L1755:
brk
.L1756:
brk
.L1757:
brk
.L1758:
brk
.L1759:
brk
.L1760:
brk
.L1761:
brk
.L1762:
brk
.L1763:
brk
.L1764:
brk
.L1765:
brk
.L1766:
brk
.L1767:
brk
.L1768:
brk
.L1769:
brk
.L1770:
brk
.L1771:
brk
.L1772:
brk
.L1773:
brk
.L1774:
brk
.L1775:
brk
.L1776:
brk
.L1777:
brk
.L1778:
brk
.L1779:
brk
.L1780:
brk
.L1781:
brk
.L1782:
brk
.L1783:
brk
.L1784:
brk
.L1785:
brk
.L1786:
brk
.L1787:
brk
.L1788:
brk
.L1789:
brk
.L1790:
brk
.L1791:
brk
.L1792:
brk
.L1793:
brk
.L1794:
brk
.L1795:
brk
.L1796:
brk
.L1797:
brk
.L1798:
brk
.L1799:
brk
.L1800:
brk
.L1801:
brk
.L1802:
brk
.L1803:
brk
.L1804:
brk
.L1805:
brk
.L1806:
brk
.L1807:
brk
.L1808:
brk
.L1809:
brk
.L1810:
brk
.L1811:
brk
.L1812:
brk
.L1813:
brk
.L1814:
brk
.L1815:
brk
.L1816:
brk
.L1817:
brk
.L1818:
brk
.L1819:
brk
.L1820:
brk
.L1821:
brk
.L1822:
brk
.L1823:
brk
.L1824:
brk
.L1825:
brk
.L1826:
brk
.L1827:
brk
.L1828:
brk
.L1829:
brk
.L1830:
brk
.L1831:
brk
.L1832:
brk
.L1833:
brk
.L1834:
brk
.L1835:
brk
.L1836:
brk
.L1837:
brk
.L1838:
brk
.L1839:
brk
.L1840:
brk
.L1841:
brk
.L1842:
brk
.L1843:
brk
.L1844:
brk
.L1845:
brk
.L1846:
brk
.L1847:
brk
.L1848:
brk
.L1849:
brk
.L1850:
brk
.L1851:
brk
.L1852:
brk
.L1853:
brk
.L1854:
brk
.L1855:
brk
.L1856:
brk
.L1857:
brk
.L1858:
brk
.L1859:
brk
.L1860:
brk
.L1861:
brk
.L1862:
brk
.L1863:
brk
.L1864:
brk
.L1865:
brk
.L1866:
brk
.L1867:
brk
.L1868:
brk
.L1869:
brk
.L1870:
brk
.L1871:
brk
.L1872:
brk
.L1873:
brk
.L1874:
brk
.L1875:
brk
.L1876:
brk
.L1877:
brk
.L1878:
brk
.L1879:
brk
.L1880:
brk
.L1881:
brk
.L1882:
brk
.L1883:
brk
.L1884:
brk
.L1885:
brk
.L1886:
brk
.L1887:
brk
.L1888:
brk
.L1889:
brk
.L1890:
brk
.L1891:
brk
.L1892:
brk
.L1893:
brk
.L1894:
brk
.L1895:
brk
.L1896:
brk
.L1897:
brk
.L1898:
brk
.L1899:
brk
.L1900:
brk
.L1901:
brk
.L1902:
brk
.L1903:
brk
.L1904:
brk
.L1905:
brk
.L1906:
brk
.L1907:
brk
.L1908:
brk
.L1909:
brk
.L1910:
brk
.L1911:
brk
.L1912:
brk
.L1913:
brk
.L1914:
brk
.L1915:
brk
.L1916:
brk
.L1917:
brk
.L1918:
brk
.L1919:
brk
.L1920:
brk
.L1921:
brk
.L1922:
brk
.L1923:
brk
.L1924:
brk
.L1925:
brk
.L1926:
brk
.L1927:
brk
.L1928:
brk
.L1929:
brk
.L1930:
brk
.L1931:
brk
.L1932:
brk
.L1933:
brk
.L1934:
brk
.L1935:
brk
.L1936:
brk
.L1937:
brk
.L1938:
brk
.L1939:
brk
.L1940:
brk
.L1941:
brk
.L1942:
brk
.L1943:
brk
.L1944:
brk
.L1945:
brk
.L1946:
brk
.L1947:
brk
.L1948:
brk
.L1949:
brk
.L1950:
brk
.L1951:
brk
.L1952:
brk
.L1953:
brk
.L1954:
brk
.L1955:
brk
.L1956:
brk
.L1957:
brk
.L1958:
brk
.L1959:
brk
.L1960:
brk
.L1961:
brk
.L1962:
brk
.L1963:
brk
.L1964:
brk
.L1965:
brk
.L1966:
brk
.L1967:
brk
.L1968:
brk
.L1969:
brk
.L1970:
brk
.L1971:
brk
.L1972:
brk
.L1973:
brk
.L1974:
brk
.L1975:
brk
.L1976:
brk
.L1977:
brk
.L1978:
brk
.L1979:
brk
.L1980:
brk
.L1981:
brk
.L1982:
brk
.L1983:
brk
.L1984:
brk
.L1985:
brk
.L1986:
brk
.L1987:
brk
.L1988:
brk
.L1989:
brk
.L1990:
brk
.L1991:
brk
.L1992:
brk
.L1993:
brk
.L1994:
brk
.L1995:
brk
.L1996:
brk
.L1997:
brk
.L1998:
brk
.L1999:
brk
.L2000:
brk
.L2001:
brk
.L2002:
brk
.L2003:
brk
.L2004:
brk
.L2005:
brk
.L2006:
brk
.L2007:
brk
.L2008:
brk
.L2009:
brk
.L2010:
brk
.L2011:
brk
.L2012:
brk
.L2013:
brk
.L2014:
brk
.L2015:
brk
.L2016:
brk
.L2017:
brk
.L2018:
brk
.L2019:
brk
.L2020:
brk
.L2021:
brk
.L2022:
brk
.L2023:
brk
.L2024:
brk
.L2025:
brk
.L2026:
brk
.L2027:
brk
.L2028:
brk
.L2029:
brk
.L2030:
brk
.L2031:
brk
.L2032:
brk
.L2033:
brk
.L2034:
brk
.L2035:
brk
.L2036:
brk
.L2037:
brk
.L2038:
brk
.L2039:
brk
.L2040:
brk
.L2041:
brk
.L2042:
brk
.L2043:
brk
.L2044:
brk
.L2045:
brk
.L2046:
brk
.L2047:
brk
.L2048:
brk
.L2049:
brk
.L2050:
brk
.L2051:
brk
.L2052:
brk
.L2053:
brk
.L2054:
brk
.L2055:
brk
.L2056:
brk
.L2057:
brk
.L2058:
brk
.L2059:
brk
.L2060:
brk
.L2061:
brk
.L2062:
brk
.L2063:
brk
.L2064:
brk
.L2065:
brk
.L2066:
brk
.L2067:
brk
.L2068:
brk
.L2069:
brk
.L2070:
brk
.L2071:
brk
.L2072:
brk
.L2073:
brk
.L2074:
brk
.L2075:
brk
.L2076:
brk
.L2077:
brk
.L2078:
brk
.L2079:
brk
.L2080:
brk
.L2081:
brk
.L2082:
brk
.L2083:
brk
.L2084:
brk
.L2085:
brk
.L2086:
brk
.L2087:
brk
.L2088:
brk
.L2089:
brk
.L2090:
brk
.L2091:
brk
.L2092:
brk
.L2093:
brk
.L2094:
brk
.L2095:
brk
.L2096:
brk
.L2097:
brk
.L2098:
brk
.L2099:
brk
.L2100:
brk
.L2101:
brk
.L2102:
brk
.L2103:
brk
.L2104:
brk
.L2105:
brk
.L2106:
brk
.L2107:
brk
.L2108:
brk
.L2109:
brk
.L2110:
brk
.L2111:
brk
.L2112:
brk
.L2113:
brk
.L2114:
brk
.L2115:
brk
.L2116:
brk
.L2117:
brk
.L2118:
brk
.L2119:
brk
.L2120:
brk
.L2121:
brk
.L2122:
brk
.L2123:
brk
.L2124:
brk
.L2125:
brk
.L2126:
brk
.L2127:
brk
.L2128:
brk
.L2129:
brk
.L2130:
brk
.L2131:
brk
.L2132:
brk
.L2133:
brk
.L2134:
brk
.L2135:
brk
.L2136:
brk
.L2137:
brk
.L2138:
brk
.L2139:
brk
.L2140:
brk
.L2141:
brk
.L2142:
brk
.L2143:
brk
.L2144:
brk
.L2145:
brk
.L2146:
brk
.L2147:
brk
.L2148:
brk
.L2149:
brk
.L2150:
brk
.L2151:
brk
.L2152:
brk
.L2153:
brk
.L2154:
brk
.L2155:
brk
.L2156:
brk
.L2157:
brk
.L2158:
brk
.L2159:
brk
.L2160:
brk
.L2161:
brk
.L2162:
brk
.L2163:
brk
.L2164:
brk
.L2165:
brk
.L2166:
brk
.L2167:
brk
.L2168:
brk
.L2169:
brk
.L2170:
brk
.L2171:
brk
.L2172:
brk
.L2173:
brk
.L2174:
brk
.L2175:
brk
.L2176:
brk
.L2177:
brk
.L2178:
brk
.L2179:
brk
.L2180:
brk
.L2181:
brk
.L2182:
brk
.L2183:
brk
.L2184:
brk
.L2185:
brk
.L2186:
brk
.L2187:
brk
.L2188:
brk
.L2189:
brk
.L2190:
brk
.L2191:
brk
.L2192:
brk
.L2193:
brk
.L2194:
brk
.L2195:
brk
.L2196:
brk
.L2197:
brk
.L2198:
brk
.L2199:
brk
.L2200:
brk
.L2201:
brk
.L2202:
brk
.L2203:
brk
.L2204:
brk
.L2205:
brk
.L2206:
brk
.L2207:
brk
.L2208:
brk
.L2209:
brk
.L2210:
brk
.L2211:
brk
.L2212:
brk
.L2213:
brk
.L2214:
brk
.L2215:
brk
.L2216:
brk
.L2217:
brk
.L2218:
brk
.L2219:
brk
.L2220:
brk
.L2221:
brk
.L2222:
brk
.L2223:
brk
.L2224:
brk
.L2225:
brk
.L2226:
brk
.L2227:
brk
.L2228:
brk
.L2229:
brk
.L2230:
brk
.L2231:
brk
.L2232:
brk
.L2233:
brk
.L2234:
brk
.L2235:
brk
.L2236:
brk
.L2237:
brk
.L2238:
brk
.L2239:
brk
.L2240:
brk
.L2241:
brk
.L2242:
brk
.L2243:
brk
.L2244:
brk
.L2245:
brk
.L2246:
brk
.L2247:
brk
.L2248:
brk
.L2249:
brk
.L2250:
brk
.L2251:
brk
.L2252:
brk
.L2253:
brk
.L2254:
brk
.L2255:
brk
.L2256:
brk
.L2257:
brk
.L2258:
brk
.L2259:
brk
.L2260:
brk
.L2261:
brk
.L2262:
brk
.L2263:
brk
.L2264:
brk
.L2265:
brk
.L2266:
brk
.L2267:
brk
.L2268:
brk
.L2269:
brk
.L2270:
brk
.L2271:
brk
.L2272:
brk
.L2273:
brk
.L2274:
brk
.L2275:
brk
.L2276:
brk
.L2277:
brk
.L2278:
brk
.L2279:
brk
.L2280:
brk
.L2281:
brk
.L2282:
brk
.L2283:
brk
.L2284:
brk
.L2285:
brk
.L2286:
brk
.L2287:
brk
.L2288:
brk
.L2289:
brk
.L2290:
brk
.L2291:
brk
.L2292:
brk
.L2293:
brk
.L2294:
brk
.L2295:
brk
.L2296:
brk
.L2297:
brk
.L2298:
brk
.L2299:
brk
.L2300:
brk
.L2301:
brk
.L2302:
brk
.L2303:
brk
.L2304:
brk
.L2305:
brk
.L2306:
brk
.L2307:
brk
.L2308:
brk
.L2309:
brk
.L2310:
brk
.L2311:
brk
.L2312:
brk
.L2313:
brk
.L2314:
brk
.L2315:
brk
.L2316:
brk
.L2317:
brk
.L2318:
brk
.L2319:
brk
.L2320:
brk
.L2321:
brk
.L2322:
brk
.L2323:
brk
.L2324:
brk
.L2325:
brk
.L2326:
brk
.L2327:
brk
.L2328:
brk
.L2329:
brk
.L2330:
brk
.L2331:
brk
.L2332:
brk
.L2333:
brk
.L2334:
brk
.L2335:
brk
.L2336:
brk
.L2337:
brk
.L2338:
brk
.L2339:
brk
.L2340:
brk
.L2341:
brk
.L2342:
brk
.L2343:
brk
.L2344:
brk
.L2345:
brk
.L2346:
brk
.L2347:
brk
.L2348:
brk
.L2349:
brk
.L2350:
brk
.L2351:
brk
.L2352:
brk
.L2353:
brk
.L2354:
brk
.L2355:
brk
.L2356:
brk
.L2357:
brk
.L2358:
brk
.L2359:
brk
.L2360:
brk
.L2361:
brk
.L2362:
brk
.L2363:
brk
.L2364:
brk
.L2365:
brk
.L2366:
brk
.L2367:
brk
.L2368:
brk
.L2369:
brk
.L2370:
brk
.L2371:
brk
.L2372:
brk
.L2373:
brk
.L2374:
brk
.L2375:
brk
.L2376:
brk
.L2377:
brk
.L2378:
brk
.L2379:
brk
.L2380:
brk
.L2381:
brk
.L2382:
brk
.L2383:
brk
.L2384:
brk
.L2385:
brk
.L2386:
brk
.L2387:
brk
.L2388:
brk
.L2389:
brk
.L2390:
brk
.L2391:
brk
.L2392:
brk
.L2393:
brk
.L2394:
brk
.L2395:
brk
.L2396:
brk
.L2397:
brk
.L2398:
brk
.L2399:
brk
.L2400:
brk
.L2401:
brk
.L2402:
brk
.L2403:
brk
.L2404:
brk
.L2405:
brk
.L2406:
brk
.L2407:
brk
.L2408:
brk
.L2409:
brk
.L2410:
brk
.L2411:
brk
.L2412:
brk
.L2413:
brk
.L2414:
brk
.L2415:
brk
.L2416:
brk
.L2417:
brk
.L2418:
brk
.L2419:
brk
.L2420:
brk
.L2421:
brk
.L2422:
brk
.L2423:
brk
.L2424:
brk
.L2425:
brk
.L2426:
brk
.L2427:
brk
.L2428:
brk
.L2429:
brk
.L2430:
brk
.L2431:
brk
.L2432:
brk
.L2433:
brk
.L2434:
brk
.L2435:
brk
.L2436:
brk
.L2437:
brk
.L2438:
brk
.L2439:
brk
.L2440:
brk
.L2441:
brk
.L2442:
brk
.L2443:
brk
.L2444:
brk
.L2445:
brk
.L2446:
brk
.L2447:
brk
.L2448:
brk
.L2449:
brk
.L2450:
brk
.L2451:
brk
.L2452:
brk
.L2453:
brk
.L2454:
brk
.L2455:
brk
.L2456:
brk
.L2457:
brk
.L2458:
brk
.L2459:
brk
.L2460:
brk
.L2461:
brk
.L2462:
brk
.L2463:
brk
.L2464:
brk
.L2465:
brk
.L2466:
brk
.L2467:
brk
.L2468:
brk
.L2469:
brk
.L2470:
brk
.L2471:
brk
.L2472:
brk
.L2473:
brk
.L2474:
brk
.L2475:
brk
.L2476:
brk
.L2477:
brk
.L2478:
brk
.L2479:
brk
.L2480:
brk
.L2481:
brk
.L2482:
brk
.L2483:
brk
.L2484:
brk
.L2485:
brk
.L2486:
brk
.L2487:
brk
.L2488:
brk
.L2489:
brk
.L2490:
brk
.L2491:
brk
.L2492:
brk
.L2493:
brk
.L2494:
brk
.L2495:
brk
.L2496:
brk
.L2497:
brk
.L2498:
brk
.L2499:
brk
.L2500:
brk
.L2501:
brk
.L2502:
brk
.L2503:
brk
.L2504:
brk
.L2505:
brk
.L2506:
brk
.L2507:
brk
.L2508:
brk
.L2509:
brk
.L2510:
brk
.L2511:
brk
.L2512:
brk
.L2513:
brk
.L2514:
brk
.L2515:
brk
.L2516:
brk
.L2517:
brk
.L2518:
brk
.L2519:
brk
.L2520:
brk
.L2521:
brk
.L2522:
brk
.L2523:
brk
.L2524:
brk
.L2525:
brk
.L2526:
brk
.L2527:
brk
.L2528:
brk
.L2529:
brk
.L2530:
brk
.L2531:
brk
.L2532:
brk
.L2533:
brk
.L2534:
brk
.L2535:
brk
.L2536:
brk
.L2537:
brk
.L2538:
brk
.L2539:
brk
.L2540:
brk
.L2541:
brk
.L2542:
brk
.L2543:
brk
.L2544:
brk
.L2545:
brk
.L2546:
brk
.L2547:
brk
.L2548:
brk
.L2549:
brk
.L2550:
brk
.L2551:
brk
.L2552:
brk
.L2553:
brk
.L2554:
brk
.L2555:
brk
.L2556:
brk
.L2557:
brk
.L2558:
brk
.L2559:
brk
.L2560:
brk
.L2561:
brk
.L2562:
brk
.L2563:
brk
.L2564:
brk
.L2565:
brk
.L2566:
brk
.L2567:
brk
.L2568:
brk
.L2569:
brk
.L2570:
brk
.L2571:
brk
.L2572:
brk
.L2573:
brk
.L2574:
brk
.L2575:
brk
.L2576:
brk
.L2577:
brk
.L2578:
brk
.L2579:
brk
.L2580:
brk
.L2581:
brk
.L2582:
brk
.L2583:
brk
.L2584:
brk
.L2585:
brk
.L2586:
brk
.L2587:
brk
.L2588:
brk
.L2589:
brk
.L2590:
brk
.L2591:
brk
.L2592:
brk
.L2593:
brk
.L2594:
brk
.L2595:
brk
.L2596:
brk
.L2597:
brk
.L2598:
brk
.L2599:
brk
.L2600:
brk
.L2601:
brk
.L2602:
brk
.L2603:
brk
.L2604:
brk
.L2605:
brk
.L2606:
brk
.L2607:
brk
.L2608:
brk
.L2609:
brk
.L2610:
brk
.L2611:
brk
.L2612:
brk
.L2613:
brk
.L2614:
brk
.L2615:
brk
.L2616:
brk
.L2617:
brk
.L2618:
brk
.L2619:
brk
.L2620:
brk
.L2621:
brk
.L2622:
brk
.L2623:
brk
.L2624:
brk
.L2625:
brk
.L2626:
brk
.L2627:
brk
.L2628:
brk
.L2629:
brk
.L2630:
brk
.L2631:
brk
.L2632:
brk
.L2633:
brk
.L2634:
brk
.L2635:
brk
.L2636:
brk
.L2637:
brk
.L2638:
brk
.L2639:
brk
.L2640:
brk
.L2641:
brk
.L2642:
brk
.L2643:
brk
.L2644:
brk
.L2645:
brk
.L2646:
brk
.L2647:
brk
.L2648:
brk
.L2649:
brk
.L2650:
brk
.L2651:
brk
.L2652:
brk
.L2653:
brk
.L2654:
brk
.L2655:
brk
.L2656:
brk
.L2657:
brk
.L2658:
brk
.L2659:
brk
.L2660:
brk
.L2661:
brk
.L2662:
brk
.L2663:
brk
.L2664:
brk
.L2665:
brk
.L2666:
brk
.L2667:
brk
.L2668:
brk
.L2669:
brk
.L2670:
brk
.L2671:
brk
.L2672:
brk
.L2673:
brk
.L2674:
brk
.L2675:
brk
.L2676:
brk
.L2677:
brk
.L2678:
brk
.L2679:
brk
.L2680:
brk
.L2681:
brk
.L2682:
brk
.L2683:
brk
.L2684:
brk
.L2685:
brk
.L2686:
brk
.L2687:
brk
.L2688:
brk
.L2689:
brk
.L2690:
brk
.L2691:
brk
.L2692:
brk
.L2693:
brk
.L2694:
brk
.L2695:
brk
.L2696:
brk
.L2697:
brk
.L2698:
brk
.L2699:
brk
.L2700:
brk
.L2701:
brk
.L2702:
brk
.L2703:
brk
.L2704:
brk
.L2705:
brk
.L2706:
brk
.L2707:
brk
.L2708:
brk
.L2709:
brk
.L2710:
brk
.L2711:
brk
.L2712:
brk
.L2713:
brk
.L2714:
brk
.L2715:
brk
.L2716:
brk
.L2717:
brk
.L2718:
brk
.L2719:
brk
.L2720:
brk
.L2721:
brk
.L2722:
brk
.L2723:
brk
.L2724:
brk
.L2725:
brk
.L2726:
brk
.L2727:
brk
.L2728:
brk
.L2729:
brk
.L2730:
brk
.L2731:
brk
.L2732:
brk
.L2733:
brk
.L2734:
brk
.L2735:
brk
.L2736:
brk
.L2737:
brk
.L2738:
brk
.L2739:
brk
.L2740:
brk
.L2741:
brk
.L2742:
brk
.L2743:
brk
.L2744:
brk
.L2745:
brk
.L2746:
brk
.L2747:
brk
.L2748:
brk
.L2749:
brk
.L2750:
brk
.L2751:
brk
.L2752:
brk
.L2753:
brk
.L2754:
brk
.L2755:
brk
.L2756:
brk
.L2757:
brk
.L2758:
brk
.L2759:
brk
.L2760:
brk
.L2761:
brk
.L2762:
brk
.L2763:
brk
.L2764:
brk
.L2765:
brk
.L2766:
brk
.L2767:
brk
.L2768:
brk
.L2769:
brk
.L2770:
brk
.L2771:
brk
.L2772:
brk
.L2773:
brk
.L2774:
brk
.L2775:
brk
.L2776:
brk
.L2777:
brk
.L2778:
brk
.L2779:
brk
.L2780:
brk
.L2781:
brk
.L2782:
brk
.L2783:
brk
.L2784:
brk
.L2785:
brk
.L2786:
brk
.L2787:
brk
.L2788:
brk
.L2789:
brk
.L2790:
brk
.L2791:
brk
.L2792:
brk
.L2793:
brk
.L2794:
brk
.L2795:
brk
.L2796:
brk
.L2797:
brk
.L2798:
brk
.L2799:
brk
.L2800:
brk
.L2801:
brk
.L2802:
brk
.L2803:
brk
.L2804:
brk
.L2805:
brk
.L2806:
brk
.L2807:
brk
.L2808:
brk
.L2809:
brk
.L2810:
brk
.L2811:
brk
.L2812:
brk
.L2813:
brk
.L2814:
brk
.L2815:
brk
.L2816:
brk
.L2817:
brk
.L2818:
brk
.L2819:
brk
.L2820:
brk
.L2821:
brk
.L2822:
brk
.L2823:
brk
.L2824:
brk
.L2825:
brk
.L2826:
brk
.L2827:
brk
.L2828:
brk
.L2829:
brk
.L2830:
brk
.L2831:
brk
.L2832:
brk
.L2833:
brk
.L2834:
brk
.L2835:
brk
.L2836:
brk
.L2837:
brk
.L2838:
brk
.L2839:
brk
.L2840:
brk
.L2841:
brk
.L2842:
brk
.L2843:
brk
.L2844:
brk
.L2845:
brk
.L2846:
brk
.L2847:
brk
.L2848:
brk
.L2849:
brk
.L2850:
brk
.L2851:
brk
.L2852:
brk
.L2853:
brk
.L2854:
brk
.L2855:
brk
.L2856:
brk
.L2857:
brk
.L2858:
brk
.L2859:
brk
.L2860:
brk
.L2861:
brk
.L2862:
brk
.L2863:
brk
.L2864:
brk
.L2865:
brk
.L2866:
brk
.L2867:
brk
.L2868:
brk
.L2869:
brk
.L2870:
brk
.L2871:
brk
.L2872:
brk
.L2873:
brk
.L2874:
brk
.L2875:
brk
.L2876:
brk
.L2877:
brk
.L2878:
brk
.L2879:
brk
.L2880:
brk
.L2881:
brk
.L2882:
brk
.L2883:
brk
.L2884:
brk
.L2885:
brk
.L2886:
brk
.L2887:
brk
.L2888:
brk
.L2889:
brk
.L2890:
brk
.L2891:
brk
.L2892:
brk
.L2893:
brk
.L2894:
brk
.L2895:
brk
.L2896:
brk
.L2897:
brk
.L2898:
brk
.L2899:
brk
.L2900:
brk
.L2901:
brk
.L2902:
brk
.L2903:
brk
.L2904:
brk
.L2905:
brk
.L2906:
brk
.L2907:
brk
.L2908:
brk
.L2909:
brk
.L2910:
brk
.L2911:
brk
.L2912:
brk
.L2913:
brk
.L2914:
brk
.L2915:
brk
.L2916:
brk
.L2917:
brk
.L2918:
brk
.L2919:
brk
.L2920:
brk
.L2921:
brk
.L2922:
brk
.L2923:
brk
.L2924:
brk
.L2925:
brk
.L2926:
brk
.L2927:
brk
.L2928:
brk
.L2929:
brk
.L2930:
brk
.L2931:
brk
.L2932:
brk
.L2933:
brk
.L2934:
brk
.L2935:
brk
.L2936:
brk
.L2937:
brk
.L2938:
brk
.L2939:
brk
.L2940:
brk
.L2941:
brk
.L2942:
brk
.L2943:
brk
.L2944:
brk
.L2945:
brk
.L2946:
brk
.L2947:
brk
.L2948:
brk
.L2949:
brk
.L2950:
brk
.L2951:
brk
.L2952:
brk
.L2953:
brk
.L2954:
brk
.L2955:
brk
.L2956:
brk
.L2957:
brk
.L2958:
brk
.L2959:
brk
.L2960:
brk
.L2961:
brk
.L2962:
brk
.L2963:
brk
.L2964:
brk
.L2965:
brk
.L2966:
brk
.L2967:
brk
.L2968:
brk
.L2969:
brk
.L2970:
brk
.L2971:
brk
.L2972:
brk
.L2973:
brk
.L2974:
brk
.L2975:
brk
.L2976:
brk
.L2977:
brk
.L2978:
brk
.L2979:
brk
.L2980:
brk
.L2981:
brk
.L2982:
brk
.L2983:
brk
.L2984:
brk
.L2985:
brk
.L2986:
brk
.L2987:
brk
.L2988:
brk
.L2989:
brk
.L2990:
brk
.L2991:
brk
.L2992:
brk
.L2993:
brk
.L2994:
brk
.L2995:
brk
.L2996:
brk
.L2997:
brk
.L2998:
brk
.L2999:
brk
.L3000:
brk
.L3001:
brk
.L3002:
brk
.L3003:
brk
.L3004:
brk
.L3005:
brk
.L3006:
brk
.L3007:
brk
.L3008:
brk
.L3009:
brk
.L3010:
brk
.L3011:
brk
.L3012:
brk
.L3013:
brk
.L3014:
brk
.L3015:
brk
.L3016:
brk
.L3017:
brk
.L3018:
brk
.L3019:
brk
.L3020:
brk
.L3021:
brk
.L3022:
brk
.L3023:
brk
.L3024:
brk
.L3025:
brk
.L3026:
brk
.L3027:
brk
.L3028:
brk
.L3029:
brk
.L3030:
brk
.L3031:
brk
.L3032:
brk
.L3033:
brk
.L3034:
brk
.L3035:
brk
.L3036:
brk
.L3037:
brk
.L3038:
brk
.L3039:
brk
.L3040:
brk
.L3041:
brk
.L3042:
brk
.L3043:
brk
.L3044:
brk
.L3045:
brk
.L3046:
brk
.L3047:
brk
.L3048:
brk
.L3049:
brk
.L3050:
brk
.L3051:
brk
.L3052:
brk
.L3053:
brk
.L3054:
brk
.L3055:
brk
.L3056:
brk
.L3057:
brk
.L3058:
brk
.L3059:
brk
.L3060:
brk
.L3061:
brk
.L3062:
brk
.L3063:
brk
.L3064:
brk
.L3065:
brk
.L3066:
brk
.L3067:
brk
.L3068:
brk
.L3069:
brk
.L3070:
brk
.L3071:
brk
.L3072:
brk
.L3073:
brk
.L3074:
brk
.L3075:
brk
.L3076:
brk
.L3077:
brk
.L3078:
brk
.L3079:
brk
.L3080:
brk
.L3081:
brk
.L3082:
brk
.L3083:
brk
.L3084:
brk
.L3085:
brk
.L3086:
brk
.L3087:
brk
.L3088:
brk
.L3089:
brk
.L3090:
brk
.L3091:
brk
.L3092:
brk
.L3093:
brk
.L3094:
brk
.L3095:
brk
.L3096:
brk
.L3097:
brk
.L3098:
brk
.L3099:
brk
.L3100:
brk
.L3101:
brk
.L3102:
brk
.L3103:
brk
.L3104:
brk
.L3105:
brk
.L3106:
brk
.L3107:
brk
.L3108:
brk
.L3109:
brk
.L3110:
brk
.L3111:
brk
.L3112:
brk
.L3113:
brk
.L3114:
brk
.L3115:
brk
.L3116:
brk
.L3117:
brk
.L3118:
brk
.L3119:
brk
.L3120:
brk
.L3121:
brk
.L3122:
brk
.L3123:
brk
.L3124:
brk
.L3125:
brk
.L3126:
brk
.L3127:
brk
.L3128:
brk
.L3129:
brk
.L3130:
brk
.L3131:
brk
.L3132:
brk
.L3133:
brk
.L3134:
brk
.L3135:
brk
.L3136:
brk
.L3137:
brk
.L3138:
brk
.L3139:
brk
.L3140:
brk
.L3141:
brk
.L3142:
brk
.L3143:
brk
.L3144:
brk
.L3145:
brk
.L3146:
brk
.L3147:
brk
.L3148:
brk
.L3149:
brk
.L3150:
brk
.L3151:
brk
.L3152:
brk
.L3153:
brk
.L3154:
brk
.L3155:
brk
.L3156:
brk
.L3157:
brk
.L3158:
brk
.L3159:
brk
.L3160:
brk
.L3161:
brk
.L3162:
brk
.L3163:
brk
.L3164:
brk
.L3165:
brk
.L3166:
brk
.L3167:
brk
.L3168:
brk
.L3169:
brk
.L3170:
brk
.L3171:
brk
.L3172:
brk
.L3173:
brk
.L3174:
brk
.L3175:
brk
.L3176:
brk
.L3177:
brk
.L3178:
brk
.L3179:
brk
.L3180:
brk
.L3181:
brk
.L3182:
brk
.L3183:
brk
.L3184:
brk
.L3185:
brk
.L3186:
brk
.L3187:
brk
.L3188:
brk
.L3189:
brk
.L3190:
brk
.L3191:
brk
.L3192:
brk
.L3193:
brk
.L3194:
brk
.L3195:
brk
.L3196:
brk
.L3197:
brk
.L3198:
brk
.L3199:
brk
.L3200:
brk
.L3201:
brk
.L3202:
brk
.L3203:
brk
.L3204:
brk
.L3205:
brk
.L3206:
brk
.L3207:
brk
.L3208:
brk
.L3209:
brk
.L3210:
brk
.L3211:
brk
.L3212:
brk
.L3213:
brk
.L3214:
brk
.L3215:
brk
.L3216:
brk
.L3217:
brk
.L3218:
brk
.L3219:
brk
.L3220:
brk
.L3221:
brk
.L3222:
brk
.L3223:
brk
.L3224:
brk
.L3225:
brk
.L3226:
brk
.L3227:
brk
.L3228:
brk
.L3229:
brk
.L3230:
brk
.L3231:
brk
.L3232:
brk
.L3233:
brk
.L3234:
brk
.L3235:
brk
.L3236:
brk
.L3237:
brk
.L3238:
brk
.L3239:
brk
.L3240:
brk