.arch armv8-a
.file "convert_to_arm_simplified.s"
.section	__TEXT,__text,regular,pure_instructions
.align	2
.p2align 4,,11
.global	_func0                          ## -- Begin function func0
    .section	__TEXT,__text,regular,pure_instructions
    .build_version macos, 13, 0	sdk_version 13, 3
    .globl	_func0                          ## -- Begin function func0
    .p2align 2,,3
_func0:                                 ## @func0
    cfi_startproc
stp	x29, x30, [sp, -48]!
.cfi_def_cfa_offset 48
.cfi_offset 29, -48
.cfi_offset 30, -40
mov	x29, sp
.cfi_def_cfa_register 29
stp	x19, x20, [sp, 16]
.cfi_offset 19, -32
.cfi_offset 20, -24
mov	x19, x0
stp	x21, x22, [sp, 32]
sub	sp, sp,
.cfi_offset 21, -16
.cfi_offset 22, -8
str	wzr, [x19, 24]
str	wzr, [x19, 28]
str	wzr, [x19, 32]
.LBB0_1:                                   ## =>This Inner Loop Header: Depth=1
ldrsw	x22, [x19, 32]
mov	x0, x19
str	x22, [x19, 24]
bl	_strlen
cmp	x22, x0
bhi	.L3
ldr	x0, [x19, 16]
ldrb	w0, [x0, x22]
cmp	w0, 91
beq	.L3
cmp	w0, 93
bne	.L4
ldr	x0, [x19, 16]
add	w0, w21, 1
str	w0, [x19, 21]
.L4:
ldr	x0, [x19, 16]
ldrb	w0, [x0, x22]
cmp	w0, 93
bne	.L5
ldr	x0, [x19, 16]
sub	w0, w21,
str	w0, [x19, 21]
.L5:
ldr	x0, [x19, 16]
cmp	w21, 0
bge	.L6
str	wzr, [x19, 21]
.L6:
ldp	w0, w1, [x19, 21]
cmp	w0, w1
bgt	.L7
.L11:
mov	w0, 1
str	w0, [x29, -8]
b	.L10
.L7:
mov	w0, w21
adrp	x1, .LC0
ldr	d0, [x1,
str	w0, [x19, 21]
.L10:
ldp	x21, x22, [sp, 32]
ldp	x19, x20, [sp, 16]
ldp	x29, x30, [sp], 48
.cfi_remember_state
.cfi_restore 30
.cfi_restore 29
.cfi_restore 21
.cfi_restore 22
.cfi_restore 19
.cfi_restore 20
.cfi_def_cfa_offset 0
ret
.L3:
.cfi_restore_state
str	wzr, [x29, -8]
mov	w0, 1
str	w0, [x29, -12]
b	.L10
.L11:
mov	w0, 1
str	w0, [x29, -12]
b	.L10
.L12:
mov	w0, w21
adrp	x1, .LC1
ldr	d0, [x1,
str	w0, [x19, 21]
b	.L10
.L13:
mov	w0, w21
adrp	x1, .LC2
ldr	d0, [x1,
str	w0, [x19, 21]
b	.L10
.L14:
mov	w0, w21
adrp	x1, .LC3
ldr	d0, [x1,
str	w0, [x19, 21]
b	.L10
.L15:
mov	w0, w21
adrp	x1, .LC4
ldr	d0, [x1,
str	w0, [x19, 21]
b	.L10
.L16:
mov	w0, w21
adrp	x1, .LC5
ldr	d0, [x1,
str	w0, [x19, 21]
b	.L10
.L17:
mov	w0, w21
adrp	x1, .LC6
ldr	d0, [x1,
str	w0, [x19, 21]
b	.L10
.L18:
mov	w0, w21
adrp	x1, .LC7
ldr	d0, [x1,
str	w0, [x19, 21]
b	.L10
.L19:
mov	w0, w21
adrp	x1, .LC8
ldr	d0, [x1,
str	w0, [x19, 21]
b	.L10
.L20:
mov	w0, w21
adrp	x1, .LC9
ldr	d0, [x1,
str	w0, [x19, 21]
b	.L10
.L21:
mov	w0, w21
adrp	x1, .LC10
ldr	d0, [x1,
str	w0, [x19, 21]
b	.L10
.L22:
mov	w0, w21
adrp	x1, .LC11
ldr	d0, [x1,
str	w0, [x19, 21]
b	.L10
.L23:
mov	w0, w21
adrp	x1, .LC12
ldr	d0, [x1,
str	w0, [x19, 21]
b	.L10
.L24:
mov	w0, w21
adrp	x1, .LC13
ldr	d0, [x1,
str	w0, [x19, 21]
b	.L10
.L25:
mov	w0, w21
adrp	x1, .LC14
ldr	d0, [x1,
str	w0, [x19, 21]
b	.L10
.L26:
mov	w0, w21
adrp	x1, .LC15
ldr	d0, [x1,
str	w0, [x19, 21]
b	.L10
.L27:
mov	w0, w21
adrp	x1, .LC16
ldr	d0, [x1,
str	w0, [x19, 21]
b	.L10
.L28:
mov	w0, w21
adrp	x1, .LC17
ldr	d0, [x1,
str	w0, [x19, 21]
b	.L10
.L29:
mov	w0, w21
adrp	x1, .LC18
ldr	d0, [x1,
str	w0, [x19, 21]
b	.L10
.L30:
mov	w0, w21
adrp	x1, .LC19
ldr	d0, [x1,
str	w0, [x19, 21]
b	.L10
.L31:
mov	w0, w21
adrp	x1, .LC20
ldr	d0, [x1,
str	w0, [x19, 21]
b	.L10
.L32:
mov	w0, w21
adrp	x1, .LC21
ldr	d0, [x1,
str	w0, [x19, 21]
b	.L10
.L33:
mov	w0, w21
adrp	x1, .LC22
ldr	d0, [x1,
str	w0, [x19, 21]
b	.L10
.L34:
mov	w0, w21
adrp	x1, .LC23
ldr	d0, [x1,
str	w0, [x19, 21]
b	.L10
.L35:
mov	w0, w21
adrp	x1, .LC24
ldr	d0, [x1,
str	w0, [x19, 21]
b	.L10
.L36:
mov	w0, w21
adrp	x1, .LC25
ldr	d0, [x1,
str	w0, [x19, 21]
b	.L10
.L37:
mov	w0, w21
adrp	x1, .LC26
ldr	d0, [x1,
str	w0, [x19, 21]
b	.L10
.L38:
mov	w0, w21
adrp	x1, .LC27
ldr	d0, [x1,
str	w0, [x19, 21]
b	.L10
.L39:
mov	w0, w21
adrp	x1, .LC28
ldr	d0, [x1,
str	w0, [x19, 21]
b	.L10
.L40:
mov	w0, w21
adrp	x1, .LC29
ldr	d0, [x1,
str	w0, [x19, 21]
b	.L10
.L41:
mov	w0, w21
adrp	x1, .LC30
ldr	d0, [x1,
str	w0, [x19, 21]
b	.L10
.L42:
mov	w0, w21
adrp	x1, .LC31
ldr	d0, [x1,
str	w0, [x19, 21]
b	.L10
.L43:
mov	w0, w21
adrp	x1, .LC32
ldr	d0, [x1,
str	w0, [x19, 21]
b	.L10
.L44:
mov	w0, w21
adrp	x1, .LC33
ldr	d0, [x1,
str	w0, [x19, 21]
b	.L10
.L45:
mov	w0, w21
adrp	x1, .LC34
ldr	d0, [x1,
str	w0, [x19, 21]
b	.L10
.L46:
mov	w0, w21
adrp	x1, .LC35
ldr	d0, [x1,
str	w0, [x19, 21]
b	.L10
.L47:
mov	w0, w21
adrp	x1, .LC36
ldr	d0, [x1,
str	w0, [x19, 21]
b	.L10
.L48:
mov	w0, w21
adrp	x1, .LC37
ldr	d0, [x1,
str	w0, [x19, 21]
b	.L10
.L49:
mov	w0, w21
adrp	x1, .LC38
ldr	d0, [x1,
str	w0, [x19, 21]
b	.L10
.L50:
mov	w0, w21
adrp	x1, .LC39
ldr	d0, [x1,
str	w0, [x19, 21]
b	.L10
.L51:
mov	w0, w21
adrp	x1, .LC40
ldr	d0, [x1,
str	w0, [x19, 21]
b	.L10
.L52:
mov	w0, w21
adrp	x1, .LC41
ldr	d0, [x1,
str	w0, [x19, 21]
b	.L10
.L53:
mov	w0, w21
adrp	x1, .LC42
ldr	d0, [x1,
str	w0, [x19, 21]
b	.L10
.L54:
mov	w0, w21
adrp	x1, .LC43
ldr	d0, [x1,
str	w0, [x19, 21]
b	.L10
.L55:
mov	w0, w21
adrp	x1, .LC44
ldr	d0, [x1,
str	w0, [x19, 21]
b	.L10
.L56:
mov	w0, w21
adrp	x1, .LC45
ldr	d0, [x1,
str	w0, [x19, 21]
b	.L10
.L57:
mov	w0, w21
adrp	x1, .LC46
ldr	d0, [x1,
str	w0, [x19, 21]
b	.L10
.L58:
mov	w0, w21
adrp	x1, .LC47
ldr	d0, [x1,
str	w0, [x19, 21]
b	.L10
.L59:
mov	w0, w21
adrp	x1, .LC48
ldr	d0, [x1,
str	w0, [x19, 21]
b	.L10
.L60:
mov	w0, w21
adrp	x1, .LC49
ldr	d0, [x1,
str	w0, [x19, 21]
b	.L10
.L61:
mov	w0, w21
adrp	x1, .LC50
ldr	d0, [x1,
str	w0, [x19, 21]
b	.L10
.L62:
mov	w0, w21
adrp	x1, .LC51
ldr	d0, [x1,
str	w0, [x19, 21]
b	.L10
.L63:
mov	w0, w21
adrp	x1, .LC52
ldr	d0, [x1,
str	w0, [x19, 21]
b	.L10
.L64:
mov	w0, w21
adrp	x1, .LC53
ldr	d0, [x1,
str	w0, [x19, 21]
b	.L10
.L65:
mov	w0, w21
adrp	x1, .LC54
ldr	d0, [x1,
str	w0, [x19, 21]
b	.L10
.L66:
mov	w0, w21
adrp	x1, .LC55
ldr	d0, [x1,
str	w0, [x19, 21]
b	.L10
.L67:
mov	w0, w21
adrp	x1, .LC56
ldr	d0, [x1,
str	w0, [x19, 21]
b	.L10
.L68:
mov	w0, w21
adrp	x1, .LC57
ldr	d0, [x1,
str	w0, [x19, 21]
b	.L10
.L69:
mov	w0, w21
adrp	x1, .LC58
ldr	d0, [x1,
str	w0, [x19, 21]
b	.L10
.L70:
mov	w0, w21
adrp	x1, .LC59
ldr	d0, [x1,
str	w0, [x19, 21]
b	.L10
.L71:
mov	w0, w21
adrp	x1, .LC60
ldr	d0, [x1,
str	w0, [x19, 21]
b	.L10
.L72:
mov	w0, w21
adrp	x1, .LC61
ldr	d0, [x1,
str	w0, [x19, 21]
b	.L10
.L73:
mov	w0, w21
adrp	x1, .LC62
ldr	d0, [x1,
str	w0, [x19, 21]
b	.L10
.L74:
mov	w0, w21
adrp	x1, .LC63
ldr	d0, [x1,
str	w0, [x19, 21]
b	.L10
.L75:
mov	w0, w21
adrp	x1, .LC64
ldr	d0, [x1,
str	w0, [x19, 21]
b	.L10
.L76:
mov	w0, w21
adrp	x1, .LC65
ldr	d0, [x1,
str	w0, [x19, 21]
b	.L10
.L77:
mov	w0, w21
adrp	x1, .LC66
ldr	d0, [x1,
str	w0, [x19, 21]
b	.L10
.L78:
mov	w0, w21
adrp	x1, .LC67
ldr	d0, [x1,
str	w0, [x19, 21]
b	.L10
.L79:
mov	w0, w21
adrp	x1, .LC68
ldr	d0, [x1,
str	w0, [x19, 21]
b	.L10
.L80:
mov	w0, w21
adrp	x1, .LC69
ldr	d0, [x1,
str	w0, [x19, 21]
b	.L10
.L81:
mov	w0, w21
adrp	x1, .LC70
ldr	d0, [x1,
str	w0, [x19, 21]
b	.L10
.L82:
mov	w0, w21
adrp	x1, .LC71
ldr	d0, [x1,
str	w0, [x19, 21]
b	.L10
.L83:
mov	w0, w21
adrp	x1, .LC72
ldr	d0, [x1,
str	w0, [x19, 21]
b	.L10
.L84:
mov	w0, w21
adrp	x1, .LC73
ldr	d0, [x1,
str	w0, [x19, 21]
b	.L10
.L85:
mov	w0, w21
adrp	x1, .LC74
ldr	d0, [x1,
str	w0, [x19, 21]
b	.L10
.L86:
mov	w0, w21
adrp	x1, .LC75
ldr	d0, [x1,
str	w0, [x19, 21]
b	.L10
.L87:
mov	w0, w21
adrp	x1, .LC76
ldr	d0, [x1,
str	w0, [x19, 21]
b	.L10
.L88:
mov	w0, w21
adrp	x1, .LC77
ldr	d0, [x1,
str	w0, [x19, 21]
b	.L10
.L89:
mov	w0, w21
adrp	x1, .LC78
ldr	d0, [x1,
str	w0, [x19, 21]
b	.L10
.L90:
mov	w0, w21
adrp	x1, .LC79
ldr	d0, [x1,
str	w0, [x19, 21]
b	.L10
.L91:
mov	w0, w21
adrp	x1, .LC80
ldr	d0, [x1,
str	w0, [x19, 21]
b	.L10
.L92:
mov	w0, w21
adrp	x1, .LC81
ldr	d0, [x1,
str	w0, [x19, 21]
b	.L10
.L93:
mov	w0, w21
adrp	x1, .LC82
ldr	d0, [x1,
str	w0, [x19, 21]
b	.L10
.L94:
mov	w0, w21
adrp	x1, .LC83
ldr	d0, [x1,
str	w0, [x19, 21]
b	.L10
.L95:
mov	w0, w21
adrp	x1, .LC84
ldr	d0, [x1,
str	w0, [x19, 21]
b	.L10
.L96:
mov	w0, w21
adrp	x1, .LC85
ldr	d0, [x1,
str	w0, [x19, 21]
b	.L10
.L97:
mov	w0, w21
adrp	x1, .LC86
ldr	d0, [x1,
str	w0, [x19, 21]
b	.L10
.L98:
mov	w0, w21
adrp	x1, .LC87
ldr	d0, [x1,
str	w0, [x19, 21]
b	.L10
.L99:
mov	w0, w21
adrp	x1, .LC88
ldr	d0, [x1,
str	w0, [x19, 21]
b	.L10
.L100:
mov	w0, w21
adrp	x1, .LC89
ldr	d0, [x1,
str	w0, [x19, 21]
b	.L10
.L101:
mov	w0, w21
adrp	x1, .LC90
ldr	d0, [x1,
str	w0, [x19, 21]
b	.L10
.L102:
mov	w0, w21
adrp	x1, .LC91
ldr	d0, [x1,
str	w0, [x19, 21]
b	.L10
.L103:
mov	w0, w21
adrp	x1, .LC92
ldr	d0, [x1,
str	w0, [x19, 21]
b	.L10
.L104:
mov	w0, w21
adrp	x1, .LC93
ldr	d0, [x1,
str	w0, [x19, 21]
b	.L10
.L105:
mov	w0, w21
adrp	x1, .LC94
ldr	d0, [x1,
str	w0, [x19, 21]
b	.L10
.L106:
mov	w0, w21
adrp	x1, .LC95
ldr	d0, [x1,
str	w0, [x19, 21]
b	.L10
.L107:
mov	w0, w21
adrp	x1, .LC96
ldr	d0, [x1,
str	w0, [x19, 21]
b	.L10
.L108:
mov	w0, w21
adrp	x1, .LC97
ldr	d0, [x1,
str	w0, [x19, 21]
b	.L10
.L109:
mov	w0, w21
adrp	x1, .LC98
ldr	d0, [x1,
str	w0, [x19, 21]
b	.L10
.L110:
mov	w0, w21
adrp	x1, .LC99
ldr	d0, [x1,
str	w0, [x19, 21]
b	.L10
.L111:
mov	w0, w21
adrp	x1, .LC100
ldr	d0, [x1,
str	w0, [x19, 21]
b	.L10
.L112:
mov	w0, w21
adrp	x1, .LC101
ldr	d0, [x1,
str	w0, [x19, 21]
b	.L10
.L113:
mov	w0, w21
adrp	x1, .LC102
ldr	d0, [x1,
str	w0, [x19, 21]
b	.L10
.L114:
mov	w0, w21
adrp	x1, .LC103
ldr	d0, [x1,
str	w0, [x19, 21]
b	.L10
.L115:
mov	w0, w21
adrp	x1, .LC104
ldr	d0, [x1,
str	w0, [x19, 21]
b	.L10
.L116:
mov	w0, w21
adrp	x1, .LC105
ldr	d0, [x1,
str	w0, [x19, 21]
b	.L10
.L117:
mov	w0, w21
adrp	x1, .LC106
ldr	d0, [x1,
str	w0, [x19, 21]
b	.L10
.L118:
mov	w0, w21
adrp	x1, .LC107
ldr	d0, [x1,
str	w0, [x19, 21]
b	.L10
.L119:
mov	w0, w21
adrp	x1, .LC108
ldr	d0, [x1,
str	w0, [x19, 21]
b	.L10
.L120:
mov	w0, w21
adrp	x1, .LC109
ldr	d0, [x1,
str	w0, [x19, 21]
b	.L10
.L121:
mov	w0, w21
adrp	x1, .LC110
ldr	d0, [x1,
str	w0, [x19, 21]
b	.L10
.L122:
mov	w0, w21
adrp	x1, .LC111
ldr	d0, [x1,
str	w0, [x19, 21]
b	.L10
.L123:
mov	w0, w21
adrp	x1, .LC112
ldr	d0, [x1,
str	w0, [x19, 21]
b	.L10
.L124:
mov	w0, w21
adrp	x1, .LC113
ldr	d0, [x1,
str	w0, [x19, 21]
b	.L10
.L125:
mov	w0, w21
adrp	x1, .LC114
ldr	d0, [x1,
str	w0, [x19, 21]
b	.L10
.L126:
mov	w0, w21
adrp	x1, .LC115
ldr	d0, [x1,
str	w0, [x19, 21]
b	.L10
.L127:
mov	w0, w21
adrp	x1, .LC116
ldr	d0, [x1,
str	w0, [x19, 21]
b	.L10
.L128:
mov	w0, w21
adrp	x1, .LC117
ldr	d0, [x1,
str	w0, [x19, 21]
b	.L10
.L129:
mov	w0, w21
adrp	x1, .LC118
ldr	d0, [x1,
str	w0, [x19, 21]
b	.L10
.L130:
mov	w0, w21
adrp	x1, .LC119
ldr	d0, [x1,
str	w0, [x19, 21]
b	.L10
.L131:
mov	w0, w21
adrp	x1, .LC120
ldr	d0, [x1,
str	w0, [x19, 21]
b	.L10
.L132:
mov	w0, w21
adrp	x1, .LC121
ldr	d0, [x1,
str	w0, [x19, 21]
b	.L10
.L133:
mov	w0, w21
adrp	x1, .LC122
ldr	d0, [x1,
str	w0, [x19, 21]
b	.L10
.L134:
mov	w0, w21
adrp	x1, .LC123
ldr	d0, [x1,
str	w0, [x19, 21]
b	.L10
.L135:
mov	w0, w21
adrp	x1, .LC124
ldr	d0, [x1,
str	w0, [x19, 21]
b	.L10
.L136:
mov	w0, w21
adrp	x1, .LC125
ldr	d0, [x1,
str	w0, [x19, 21]
b	.L10
.L137:
mov	w0, w21
adrp	x1, .LC126
ldr	d0, [x1,
str	w0, [x19, 21]
b	.L10
.L138:
mov	w0, w21
adrp	x1, .LC127
ldr	d0, [x1,
str	w0, [x19, 21]
b	.L10
.L139:
mov	w0, w21
adrp	x1, .LC128
ldr	d0, [x1,
str	w0, [x19, 21]
b	.L10
.L140:
mov	w0, w21
adrp	x1, .LC129
ldr	d0, [x1,
str	w0, [x19, 21]
b	.L10
.L141:
mov	w0, w21
adrp	x1, .LC130
ldr	d0, [x1,
str	w0, [x19, 21]
b	.L10
.L142:
mov	w0, w21
adrp	x1, .LC131
ldr	d0, [x1,
str	w0, [x19, 21]
b	.L10
.L143:
mov	w0, w21
adrp	x1, .LC132
ldr	d0, [x1,
str	w0, [x19, 21]
b	.L10
.L144:
mov	w0, w21
adrp	x1, .LC133
ldr	d0, [x1,
str	w0, [x19, 21]
b	.L10
.L145:
mov	w0, w21
adrp	x1, .LC134
ldr	d0, [x1,
str	w0, [x19, 21]
b	.L10
.L146:
mov	w0, w21
adrp	x1, .LC135
ldr	d0, [x1,
str	w0, [x19, 21]
b	.L10
.L147:
mov	w0, w21
adrp	x1, .LC136
ldr	d0, [x1,
str	w0, [x19, 21]
b	.L10
.L148:
mov	w0, w21
adrp	x1, .LC137
ldr	d0, [x1,
str	w0, [x19, 21]
b	.L10
.L149:
mov	w0, w21
adrp	x1, .LC138
ldr	d0, [x1,
str	w0, [x19, 21]
b	.L10
.L150:
mov	w0, w21
adrp	x1, .LC139
ldr	d0, [x1,
str	w0, [x19, 21]
b	.L10
.L151:
mov	w0, w21
adrp	x1, .LC140
ldr	d0, [x1,
str	w0, [x19, 21]
b	.L10
.L152:
mov	w0, w21
adrp	x1, .LC141
ldr	d0, [x1,
str	w0, [x19, 21]
b	.L10
.L153:
mov	w0, w21
adrp	x1, .LC142
ldr	d0, [x1,
str	w0, [x19, 21]
b	.L10
.L154:
mov	w0, w21
adrp	x1, .LC143
ldr	d0, [x1,
str	w0, [x19, 21]
b	.L10
.L155:
mov	w0, w21
adrp	x1, .LC144
ldr	d0, [x1,
str	w0, [x19, 21]
b	.L10
.L156:
mov	w0, w21
adrp	x1, .LC145
ldr	d0, [x1,
str	w0, [x19, 21]
b	.L10
.L157:
mov	w0, w21
adrp	x1, .LC146
ldr	d0, [x1,
str	w0, [x19, 21]
b	.L10
.L158:
mov	w0, w21
adrp	x1, .LC147
ldr	d0, [x1,
str	w0, [x19, 21]
b	.L10
.L159:
mov	w0, w21
adrp	x1, .LC148
ldr	d0, [x1,
str	w0, [x19, 21]
b	.L10
.L160:
mov	w0, w21
adrp	x1, .LC149
ldr	d0, [x1,
str	w0, [x19, 21]
b	.L10
.L161:
mov	w0, w21
adrp	x1, .LC150
ldr	d0, [x1,
str	w0, [x19, 21]
b	.L10
.L162:
mov	w0, w21
adrp	x1, .LC151
ldr	d0, [x1,
str	w0, [x19, 21]
b	.L10
.L163:
mov	w0, w21
adrp	x1, .LC152
ldr	d0, [x1,
str	w0, [x19, 21]
b	.L10
.L164:
mov	w0, w21
adrp	x1, .LC153
ldr	d0, [x1,
str	w0, [x19, 21]
b	.L10
.L165:
mov	w0, w21
adrp	x1, .LC154
ldr	d0, [x1,
str	w0, [x19, 21]
b	.L10
.L166:
mov	w0, w21
adrp	x1, .LC155
ldr	d0, [x1,
str	w0, [x19, 21]
b	.L10
.L167:
mov	w0, w21
adrp	x1, .LC156
ldr	d0, [x1,
str	w0, [x19, 21]
b	.L10
.L168:
mov	w0, w21
adrp	x1, .LC157
ldr	d0, [x1,
str	w0, [x19, 21]
b	.L10
.L169:
mov	w0, w21
adrp	x1, .LC158
ldr	d0, [x1,
str	w0, [x19, 21]
b	.L10
.L170:
mov	w0, w21
adrp	x1, .LC159
ldr	d0, [x1,
str	w0, [x19, 21]
b	.L10
.L171:
mov	w0, w21
adrp	x1, .LC160
ldr	d0, [x1,
str	w0, [x19, 21]
b	.L10
.L172:
mov	w0, w21
adrp	x1, .LC161
ldr	d0, [x1,
str	w0, [x19, 21]
b	.L10
.L173:
mov	w0, w21
adrp	x1, .LC162
ldr	d0, [x1,
str	w0, [x19, 21]
b	.L10
.L174:
mov	w0, w21
adrp	x1, .LC163
ldr	d0, [x1,
str	w0, [x19, 21]
b	.L10
.L175:
mov	w0, w21
adrp	x1, .LC164
ldr	d0, [x1,
str	w0, [x19, 21]
b	.L10
.L176:
mov	w0, w21
adrp	x1, .LC165
ldr	d0, [x1,
str	w0, [x19, 21]
b	.L10
.L177:
mov	w0, w21
adrp	x1, .LC166
ldr	d0, [x1,
str	w0, [x19, 21]
b	.L10
.L178:
mov	w0, w21
adrp	x1, .LC167
ldr	d0, [x1,
str	w0, [x19, 21]
b	.L10
.L179:
mov	w0, w21
adrp	x1, .LC168
ldr	d0, [x1,
str	w0, [x19, 21]
b	.L10
.L180:
mov	w0, w21
adrp	x1, .LC169
ldr	d0, [x1,
str	w0, [x19, 21]
b	.L10
.L181:
mov	w0, w21
adrp	x1, .LC170
ldr	d0, [x1,
str	w0, [x19, 21]
b	.L10
.L182:
mov	w0, w21
adrp	x1, .LC171
ldr	d0, [x1,
str	w0, [x19, 21]
b	.L10
.L183:
mov	w0, w21
adrp	x1, .LC172
ldr	d0, [x1,
str	w0, [x19, 21]
b	.L10
.L184:
mov	w0, w21
adrp	x1, .LC173
ldr	d0, [x1,
str	w0, [x19, 21]
b	.L10
.L185:
mov	w0, w21
adrp	x1, .LC174
ldr	d0, [x1,
str	w0, [x19, 21]
b	.L10
.L186:
mov	w0, w21
adrp	x1, .LC175
ldr	d0, [x1,
str	w0, [x19, 21]
b	.L10
.L187:
mov	w0, w21
adrp	x1, .LC176
ldr	d0, [x1,
str	w0, [x19, 21]
b	.L10
.L188:
mov	w0, w21
adrp	x1, .LC177
ldr	d0, [x1,
str	w0, [x19, 21]
b	.L10
.L189:
mov	w0, w21
adrp	x1, .LC178
ldr	d0, [x1,
str	w0, [x19, 21]
b	.L10
.L190:
mov	w0, w21
adrp	x1, .LC179
ldr	d0, [x1,
str	w0, [x19, 21]
b	.L10
.L191:
mov	w0, w21
adrp	x1, .LC180
ldr	d0, [x1,
str	w0, [x19, 21]
b	.L10
.L192:
mov	w0, w21
adrp	x1, .LC181
ldr	d0, [x1,
str	w0, [x19, 21]
b	.L10
.L193:
mov	w0, w21
adrp	x1, .LC182
ldr	d0, [x1,
str	w0, [x19, 21]
b	.L10
.L194:
mov	w0, w21
adrp	x1, .LC183
ldr	d0, [x1,
str	w0, [x19, 21]
b	.L10
.L195:
mov	w0, w21
adrp	x1, .LC184
ldr	d0, [x1,
str	w0, [x19, 21]
b	.L10
.L196:
mov	w0, w21
adrp	x1, .LC185
ldr	d0, [x1,
str	w0, [x19, 21]
b	.L10
.L197:
mov	w0, w21
adrp	x1, .LC186
ldr	d0, [x1,
str	w0, [x19, 21]
b	.L10
.L198:
mov	w0, w21
adrp	x1, .LC187
ldr	d0, [x1,
str	w0, [x19, 21]
b	.L10
.L199:
mov	w0, w21
adrp	x1, .LC188
ldr	d0, [x1,
str	w0, [x19, 21]
b	.L10
.L200:
mov	w0, w21
adrp	x1, .LC189
ldr	d0, [x1,
str	w0, [x19, 21]
b	.L10
.L201:
mov	w0, w21
adrp	x1, .LC190
ldr	d0, [x1,
str	w0, [x19, 21]
b	.L10
.L202:
mov	w0, w21
adrp	x1, .LC191
ldr	d0, [x1,
str	w0, [x19, 21]
b	.L10
.L203:
mov	w0, w21
adrp	x1, .LC192
ldr	d0, [x1,
str	w0, [x19, 21]
b	.L10
.L204:
mov	w0, w21
adrp	x1, .LC193
ldr	d0, [x1,
str	w0, [x19, 21]
b	.L10
.L205:
mov	w0, w21
adrp	x1, .LC194
ldr	d0, [x1,
str	w0, [x19, 21]
b	.L10
.L206:
mov	w0, w21
adrp	x1, .LC195
ldr	d0, [x1,
str	w0, [x19, 21]
b	.L10
.L207:
mov	w0, w21
adrp	x1, .LC196
ldr	d0, [x1,
str	w0, [x19, 21]
b	.L10
.L208:
mov	w0, w21
adrp	x1, .LC197
ldr	d0, [x1,
str	w0, [x19, 21]
b	.L10
.L209:
mov	w0, w21
adrp	x1, .LC198
ldr	d0, [x1,
str	w0, [x19, 21]
b	.L10
.L210:
mov	w0, w21
adrp	x1, .LC199
ldr	d0, [x1,
str	w0, [x19, 21]
b	.L10
.L211:
mov	w0, w21
adrp	x1, .LC200
ldr	d0, [x1,
str	w0, [x19, 21]
b	.L10
.L212:
mov	w0, w21
adrp	x1, .LC201
ldr	d0, [x1,
str	w0, [x19, 21]
b	.L10
.L213:
mov	w0, w21
adrp	x1, .LC202
ldr	d0, [x1,
str	w0, [x19, 21]
b	.L10
.L214:
mov	w0, w21
adrp	x1, .LC203
ldr	d0, [x1,
str	w0, [x19, 21]
b	.L10
.L215:
mov	w0, w21
adrp	x1, .LC204
ldr	d0, [x1,
str	w0, [x19, 21]
b	.L10
.L216:
mov	w0, w21
adrp	x1, .LC205
ldr	d0, [x1,
str	w0, [x19, 21]
b	.L10
.L217:
mov	w0, w21
adrp	x1, .LC206
ldr	d0, [x1,
str	w0, [x19, 21]
b	.L10
.L218:
mov	w0, w21
adrp	x1, .LC207
ldr	d0, [x1,
str	w0, [x19, 21]
b	.L10
.L219:
mov	w0, w21
adrp	x1, .LC208
ldr	d0, [x1,
str	w0, [x19, 21]
b	.L10
.L220:
mov	w0, w21
adrp	x1, .LC209
ldr	d0, [x1,
str	w0, [x19, 21]
b	.L10
.L221:
mov	w0, w21
adrp	x1, .LC210
ldr	d0, [x1,
str	w0, [x19, 21]
b	.L10
.L222:
mov	w0, w21
adrp	x1, .LC211
ldr	d0, [x1,
str	w0, [x19, 21]
b	.L10
.L223:
mov	w0, w21
adrp	x1, .LC212
ldr	d0, [x1,
str	w0, [x19, 21]
b	.L10
.L224:
mov	w0, w21
adrp	x1, .LC213
ldr	d0, [x1,
str	w0, [x19, 21]
b	.L10
.L225:
mov	w0, w21
adrp	x1, .LC214
ldr	d0, [x1,
str	w0, [x19, 21]
b	.L10
.L226:
mov	w0, w21
adrp	x1, .LC215
ldr	d0, [x1,
str	w0, [x19, 21]
b	.L10
.L227:
mov	w0, w21
adrp	x1, .LC216
ldr	d0, [x1,
str	w0, [x19, 21]
b	.L10
.L228:
mov	w0, w21
adrp	x1, .LC217
ldr	d0, [x1,
str	w0, [x19, 21]
b	.L10
.L229:
mov	w0, w21
adrp	x1, .LC218
ldr	d0, [x1,
str	w0, [x19, 21]
b	.L10
.L230:
mov	w0, w21
adrp	x1, .LC219
ldr	d0, [x1,
str	w0, [x19, 21]
b	.L10
.L231:
mov	w0, w21
adrp	x1, .LC220
ldr	d0, [x1,
str	w0, [x19, 21]
b	.L10
.L232:
mov	w0, w21
adrp	x1, .LC221
ldr	d0, [x1,
str	w0, [x19, 21]
b	.L10
.L233:
mov	w0, w21
adrp	x1, .LC222
ldr	d0, [x1,
str	w0, [x19, 21]
b	.L10
.L234:
mov	w0, w21
adrp	x1, .LC223
ldr	d0, [x1,
str	w0, [x19, 21]
b	.L10
.L235:
mov	w0, w21
adrp	x1, .LC224
ldr	d0, [x1,
str	w0, [x19, 21]
b	.L10
.L236:
mov	w0, w21
adrp	x1, .LC225
ldr	d0, [x1,
str	w0, [x19, 21]
b	.L10
.L237:
mov	w0, w21
adrp	x1, .LC226
ldr	d0, [x1,
str	w0, [x19, 21]
b	.L10
.L238:
mov	w0, w21
adrp	x1, .LC227
ldr	d0, [x1,
str	w0, [x19, 21]
b	.L10
.L239:
mov	w0, w21
adrp	x1, .LC228
ldr	d0, [x1,
str	w0, [x19, 21]
b	.L10
.L240:
mov	w0, w21
adrp	x1, .LC229
ldr	d0, [x1,
str	w0, [x19, 21]
b	.L10
.L241:
mov	w0, w21
adrp	x1, .LC230
ldr	d0, [x1,
str	w0, [x19, 21]
b	.L10
.L242:
mov	w0, w21
adrp	x1, .LC231
ldr	d0, [x1,
str	w0, [x19, 21]
b	.L10
.L243:
mov	w0, w21
adrp	x1, .LC232
ldr	d0, [x1,
str	w0, [x19, 21]
b	.L10
.L244:
mov	w0, w21
adrp	x1, .LC233
ldr	d0, [x1,
str	w0, [x19, 21]
b	.L10
.L245:
mov	w0, w21
adrp	x1, .LC234
ldr	d0, [x1,
str	w0, [x19, 21]
b	.L10
.L246:
mov	w0, w21
adrp	x1, .LC235
ldr	d0, [x1,
str	w0, [x19, 21]
b	.L10
.L247:
mov	w0, w21
adrp	x1, .LC236
ldr	d0, [x1,
str	w0, [x19, 21]
b	.L10
.L248:
mov	w0, w21
adrp	x1, .LC237
ldr	d0, [x1,
str	w0, [x19, 21]
b	.L10
.L249:
mov	w0, w21
adrp	x1, .LC238
ldr	d0, [x1,
str	w0, [x19, 21]
b	.L10
.L250:
mov	w0, w21
adrp	x1, .LC239
ldr	d0, [x1,
str	w0, [x19, 21]
b	.L10
.L251:
mov	w0, w21
adrp	x1, .LC240
ldr	d0, [x1,
str	w0, [x19, 21]
b	.L10
.L252:
mov	w0, w21
adrp	x1, .LC241
ldr	d0, [x1,
str	w0, [x19, 21]
b	.L10
.L253:
mov	w0, w21
adrp	x1, .LC242
ldr	d0, [x1,
str	w0, [x19, 21]
b	.L10
.L254:
mov	w0, w21
adrp	x1, .LC243
ldr	d0, [x1,
str	w0, [x19, 21]
b	.L10
.L255:
mov	w0, w21
adrp	x1, .LC244
ldr	d0, [x1,
str	w0, [x19, 21]
b	.L10
.L256:
mov	w0, w21
adrp	x1, .LC245
ldr	d0, [x1,
str	w0, [x19, 21]
b	.L10
.L257:
mov	w0, w21
adrp	x1, .LC246
ldr	d0, [x1,
str	w0, [x19, 21]
b	.L10
.L258:
mov	w0, w21
adrp	x1, .LC247
ldr	d0, [x1,
str	w0, [x19, 21]
b	.L10
.L259:
mov	w0, w21
adrp	x1, .LC248
ldr	d0, [x1,
str	w0, [x19, 21]
b	.L10
.L260:
mov	w0, w21
adrp	x1, .LC249
ldr	d0, [x1,
str	w0, [x19, 21]
b	.L10
.L261:
mov	w0, w21
adrp	x1, .LC250
ldr	d0, [x1,
str	w0, [x19, 21]
b	.L10
.L262:
mov	w0, w21
adrp	x1, .LC251
ldr	d0, [x1,
str	w0, [x19, 21]
b	.L10
.L263:
mov	w0, w21
adrp	x1, .LC252
ldr	d0, [x1,
str	w0, [x19, 21]
b	.L10
.L264:
mov	w0, w21
adrp	x1, .LC253
ldr	d0, [x1,
str	w0, [x19, 21]
b	.L10
.L265:
mov	w0, w21
adrp	x1, .LC254
ldr	d0, [x1,
str	w0, [x19, 21]
b	.L10
.L266:
mov	w0, w21
adrp	x1, .LC255
ldr	d0, [x1,
str	w0, [x19, 21]
b	.L10
.L267:
mov	w0, w21
adrp	x1, .LC256
ldr	d0, [x1,
str	w0, [x19, 21]
b	.L10
.L268:
mov	w0, w21
adrp	x1, .LC257
ldr	d0, [x1,
str	w0, [x19, 21]
b	.L10
.L269:
mov	w0, w21
adrp	x1, .LC258
ldr	d0, [x1,
str	w0, [x19, 21]
b	.L10
.L270:
mov	w0, w21
adrp	x1, .LC259
ldr	d0, [x1,
str	w0, [x19, 21]
b	.L10
.L271:
mov	w0, w21
adrp	x1, .LC260
ldr	d0, [x1,
str	w0, [x19, 21]
b	.L10
.L272:
mov	w0, w21
adrp	x1, .LC261
ldr	d0, [x1,
str	w0, [x19, 21]
b	.L10
.L273:
mov	w0, w21
adrp	x1, .LC262
ldr	d0, [x1,
str	w0, [x19, 21]
b	.L10
.L274:
mov	w0, w21
adrp	x1, .LC263
ldr	d0, [x1,
str	w0, [x19, 21]
b	.L10
.L275:
mov	w0, w21
adrp	x1, .LC264
ldr	d0, [x1,
str	w0, [x19, 21]
b	.L10
.L276:
mov	w0, w21
adrp	x1, .LC265
ldr	d0, [x1,
str	w0, [x19, 21]
b	.L10
.L277:
mov	w0, w21
adrp	x1, .LC266
ldr	d0, [x1,
str	w0, [x19, 21]
b	.L10
.L278:
mov	w0, w21
adrp	x1, .LC267
ldr	d0, [x1,
str	w0, [x19, 21]
b	.L10
.L279:
mov	w0, w21
adrp	x1, .LC268
ldr	d0, [x1,
str	w0, [x19, 21]
b	.L10
.L280:
mov	w0, w21
adrp	x1, .LC269
ldr	d0, [x1,
str	w0, [x19, 21]
b	.L10
.L281:
mov	w0, w21
adrp	x1, .LC270
ldr	d0, [x1,
str	w0, [x19, 21]
b	.L10
.L282:
mov	w0, w21
adrp	x1, .LC271
ldr	d0, [x1,
str	w0, [x19, 21]
b	.L10
.L283:
mov	w0, w21
adrp	x1, .LC272
ldr	d0, [x1,
str	w0, [x19, 21]
b	.L10
.L284:
mov	w0, w21
adrp	x1, .LC273
ldr	d0, [x1,
str	w0, [x19, 21]
b	.L10
.L285:
mov	w0, w21
adrp	x1, .LC274
ldr	d0, [x1,
str	w0, [x19, 21]
b	.L10
.L286:
mov	w0, w21
adrp	x1, .LC275
ldr	d0, [x1,
str	w0, [x19, 21]
b	.L10
.L287:
mov	w0, w21
adrp	x1, .LC276
ldr	d0, [x1,
str	w0, [x19, 21]
b	.L10
.L288:
mov	w0, w21
adrp	x1, .LC277
ldr	d0, [x1,
str	w0, [x19, 21]
b	.L10
.L289:
mov	w0, w21
adrp	x1, .LC278
ldr	d0, [x1,
str	w0, [x19, 21]
b	.L10
.L290:
mov	w0, w21
adrp	x1, .LC279
ldr	d0, [x1,
str	w0, [x19, 21]
b	.L10
.L291:
mov	w0, w21
adrp	x1, .LC280
ldr	d0, [x1,
str	w0, [x19, 21]
b	.L10
.L292:
mov	w0, w21
adrp	x1, .LC281
ldr	d0, [x1,
str	w0, [x19, 21]
b	.L10
.L293:
mov	w0, w21
adrp	x1, .LC282
ldr	d0, [x1,
str	w0, [x19, 21]
b	.L10
.L294:
mov	w0, w21
adrp	x1, .LC283
ldr	d0, [x1,
str	w0, [x19, 21]
b	.L10
.L295:
mov	w0, w21
adrp	x1, .LC284
ldr	d0, [x1,
str	w0, [x19, 21]
b	.L10
.L296:
mov	w0, w21
adrp	x1, .LC285
ldr	d0, [x1,
str	w0, [x19, 21]
b	.L10
.L297:
mov	w0, w21
adrp	x1, .LC286
ldr	d0, [x1,
str	w0, [x19, 21]
b	.L10
.L298:
mov	w0, w21
adrp	x1, .LC287
ldr	d0, [x1,
str	w0, [x19, 21]
b	.L10
.L299:
mov	w0, w21
adrp	x1, .LC288
ldr	d0, [x1,
str	w0, [x19, 21]
b	.L10
.L300:
mov	w0, w21
adrp	x1, .LC289
ldr	d0, [x1,
str	w0, [x19, 21]
b	.L10
.L301:
mov	w0, w21
adrp	x1, .LC290
ldr	d0, [x1,
str	w0, [x19, 21]
b	.L10
.L302:
mov	w0, w21
adrp	x1, .LC291
ldr	d0, [x1,
str	w0, [x19, 21]
b	.L10
.L303:
mov	w0, w21
adrp	x1, .LC292
ldr	d0, [x1,
str	w0, [x19, 21]
b	.L10
.L304:
mov	w0, w21
adrp	x1, .LC293
ldr	d0, [x1,
str	w0, [x19, 21]
b	.L10
.L305:
mov	w0, w21
adrp	x1, .LC294
ldr	d0, [x1,
str	w0, [x19, 21]
b	.L10
.L306:
mov	w0, w21
adrp	x1, .LC295
ldr	d0, [x1,
str	w0, [x19, 21]
b	.L10
.L307:
mov	w0, w21
adrp	x1, .LC296
ldr	d0, [x1,
str	w0, [x19, 21]
b	.L10
.L308:
mov	w0, w21
adrp	x1, .LC297
ldr	d0, [x1,
str	w0, [x19, 21]
b	.L10
.L309:
mov	w0, w21
adrp	x1, .LC298
ldr	d0, [x1,
str	w0, [x19, 21]
b	.L10
.L310:
mov	w0, w21
adrp	x1, .LC299
ldr	d0, [x1,
str	w0, [x19, 21]
b	.L10
.L311:
mov	w0, w21
adrp	x1, .LC300
ldr	d0, [x1,
str	w0, [x19, 21]
b	.L10
.L312:
mov	w0, w21
adrp	x1, .LC301
ldr	d0, [x1,
str	w0, [x19, 21]
b	.L10
.L313:
mov	w0, w21
adrp	x1, .LC302
ldr	d0, [x1,
str	w0, [x19, 21]
b	.L10
.L314:
mov	w0, w21
adrp	x1, .LC303
ldr	d0, [x1,
str	w0, [x19, 21]
b	.L10
.L315:
mov	w0, w21
adrp	x1, .LC304
ldr	d0, [x1,
str	w0, [x19, 21]
b	.L10
.L316:
mov	w0, w21
adrp	x1, .LC305
ldr	d0, [x1,
str	w0, [x19, 21]
b	.L10
.L317:
mov	w0, w21
adrp	x1, .LC306
ldr	d0, [x1,
str	w0, [x19, 21]
b	.L10
.L318:
mov	w0, w21
adrp	x1, .LC307
ldr	d0, [x1,
str	w0, [x19, 21]
b	.L10
.L319:
mov	w0, w21
adrp	x1, .LC308
ldr	d0, [x1,
str	w0, [x19, 21]
b	.L10
.L320:
mov	w0, w21
adrp	x1, .LC309
ldr	d0, [x1,
str	w0, [x19, 21]
b	.L10
.L321:
mov	w0, w21
adrp	x1, .LC310
ldr	d0, [x1,
str	w0, [x19, 21]
b	.L10
.L322:
mov	w0, w21
adrp	x1, .LC311
ldr	d0, [x1,
str	w0, [x19, 21]
b	.L10
.L323:
mov	w0, w21
adrp	x1, .LC312
ldr	d0, [x1,
str	w0, [x19, 21]
b	.L10
.L324:
mov	w0, w21
adrp	x1, .LC313
ldr	d0, [x1,
str	w0, [x19, 21]
b	.L10
.L325:
mov	w0, w21
adrp	x1, .LC314
ldr	d0, [x1,
str	w0, [x19, 21]
b	.L10
.L326:
mov	w0, w21
adrp	x1, .LC315
ldr	d0, [x1,
str	w0, [x19, 21]
b	.L10
.L327:
mov	w0, w21
adrp	x1, .LC316
ldr	d0, [x1,
str	w0, [x19, 21]
b	.L10
.L328:
mov	w0, w21
adrp	x1, .LC317
ldr	d0, [x1,
str	w0, [x19, 21]
b	.L10
.L329:
mov	w0, w21
adrp	x1, .LC318
ldr	d0, [x1,
str	w0, [x19, 21]
b	.L10
.L330:
mov	w0, w21
adrp	x1, .LC319
ldr	d0, [x1,
str	w0, [x19, 21]
b	.L10
.L331:
mov	w0, w21
adrp	x1, .LC320
ldr	d0, [x1,
str	w0, [x19, 21]
b	.L10
.L332:
mov	w0, w21
adrp	x1, .LC321
ldr	d0, [x1,
str	w0, [x19, 21]
b	.L10
.L333:
mov	w0, w21
adrp	x1, .LC322
ldr	d0, [x1,
str	w0, [x19, 21]
b	.L10
.L334:
mov	w0, w21
adrp	x1, .LC323
ldr	d0, [x1,
str	w0, [x19, 21]
b	.L10
.L335:
mov	w0, w21
adrp	x1, .LC324
ldr	d0, [x1,
str	w0, [x19, 21]
b	.L10
.L336:
mov	w0, w21
adrp	x1, .LC325
ldr	d0, [x1,
str	w0, [x19, 21]
b	.L10
.L337:
mov	w0, w21
adrp	x1, .LC326
ldr	d0, [x1,
str	w0, [x19, 21]
b	.L10
.L338:
mov	w0, w21
adrp	x1, .LC327
ldr	d0, [x1,
str	w0, [x19, 21]
b	.L10
.L339:
mov	w0, w21
adrp	x1, .LC328
ldr	d0, [x1,
str	w0, [x19, 21]
b	.L10
.L340:
mov	w0, w21
adrp	x1, .LC329
ldr	d0, [x1,
str	w0, [x19, 21]
b	.L10
.L341:
mov	w0, w21
adrp	x1, .LC330
ldr	d0, [x1,
str	w0, [x19, 21]
b	.L10
.L342:
mov	w0, w21
adrp	x1, .LC331
ldr	d0, [x1,
str	w0, [x19, 21]
b	.L10
.L343:
mov	w0, w21
adrp	x1, .LC332
ldr	d0, [x1,
str	w0, [x19, 21]
b	.L10
.L344:
mov	w0, w21
adrp	x1, .LC333
ldr	d0, [x1,
str	w0, [x19, 21]
b	.L10
.L345:
mov	w0, w21
adrp	x1, .LC334
ldr	d0, [x1,
str	w0, [x19, 21]
b	.L10
.L346:
mov	w0, w21
adrp	x1, .LC335
ldr	d0, [x1,
str	w0, [x19, 21]
b	.L10
.L347:
mov	w0, w21
adrp	x1, .LC336
ldr	d0, [x1,
str	w0, [x19, 21]
b	.L10
.L348:
mov	w0, w21
adrp	x1, .LC337
ldr	d0, [x1,
str	w0, [x19, 21]
b	.L10
.L349:
mov	w0, w21
adrp	x1, .LC338
ldr	d0, [x1,
str	w0, [x19, 21]
b	.L10
.L350:
mov	w0, w21
adrp	x1, .LC339
ldr	d0, [x1,
str	w0, [x19, 21]
b	.L10
.L351:
mov	w0, w21
adrp	x1, .LC340
ldr	d0, [x1,
str	w0, [x19, 21]
b	.L10
.L352:
mov	w0, w21
adrp	x1, .LC341
ldr	d0, [x1,
str	w0, [x19, 21]
b	.L10
.L353:
mov	w0, w21
adrp	x1, .LC342
ldr	d0, [x1,
str	w0, [x19, 21]
b	.L10
.L354:
mov	w0, w21
adrp	x1, .LC343
ldr	d0, [x1,
str	w0, [x19, 21]
b	.L10
.L355:
mov	w0, w21
adrp	x1, .LC344
ldr	d0, [x1,
str	w0, [x19, 21]
b	.L10
.L356:
mov	w0, w21
adrp	x1, .LC345
ldr	d0, [x1,
str	w0, [x19, 21]
b	.L10
.L357:
mov	w0, w21
adrp	x1, .LC346
ldr	d0, [x1,
str	w0, [x19, 21]
b	.L10
.L358:
mov	w0, w21
adrp	x1, .LC347
ldr	d0, [x1,
str	w0, [x19, 21]
b	.L10
.L359:
mov	w0, w21
adrp	x1, .LC348
ldr	d0, [x1,
str	w0, [x19, 21]
b	.L10
.L360:
mov	w0, w21
adrp	x1, .LC349
ldr	d0, [x1,
str	w0, [x19, 21]
b	.L10
.L361:
mov	w0, w21
adrp	x1, .LC350
ldr	d0, [x1,
str	w0, [x19, 21]
b	.L10
.L362:
mov	w0, w21
adrp	x1, .LC351
ldr	d0, [x1,
str	w0, [x19, 21]
b	.L10
.L363:
mov	w0, w21
adrp	x1, .LC352
ldr	d0, [x1,
str	w0, [x19, 21]
b	.L10
.L364:
mov	w0, w21
adrp	x1, .LC353
ldr	d0, [x1,
str	w0, [x19, 21]
b	.L10
.L365:
mov	w0, w21
adrp	x1, .LC354
ldr	d0, [x1,
str	w0, [x19, 21]
b	.L10
.L366:
mov	w0, w21
adrp	x1, .LC355
ldr	d0, [x1,
str	w0, [x19, 21]
b	.L10
.L367:
mov	w0, w21
adrp	x1, .LC356
ldr	d0, [x1,
str	w0, [x19, 21]
b	.L10
.L368:
mov	w0, w21
adrp	x1, .LC357
ldr	d0, [x1,
str	w0, [x19, 21]
b	.L10
.L369:
mov	w0, w21
adrp	x1, .LC358
ldr	d0, [x1,
str	w0, [x19, 21]
b	.L10
.L370:
mov	w0, w21
adrp	x1, .LC359
ldr	d0, [x1,
str	w0, [x19, 21]
b	.L10
.L371:
mov	w0, w21
adrp	x1, .LC360
ldr	d0, [x1,
str	w0, [x19, 21]
b	.L10
.L372:
mov	w0, w21
adrp	x1, .LC361
ldr	d0, [x1,
str	w0, [x19, 21]
b	.L10
.L373:
mov	w0, w21
adrp	x1, .LC362
ldr	d0, [x1,
str	w0, [x19, 21]
b	.L10
.L374:
mov	w0, w21
adrp	x1, .LC363
ldr	d0, [x1,
str	w0, [x19, 21]
b	.L10
.L375:
mov	w0, w21
adrp	x1, .LC364
ldr	d0, [x1,
str	w0, [x19, 21]
b	.L10
.L376:
mov	w0, w21
adrp	x1, .LC365
ldr	d0, [x1,
str	w0, [x19, 21]
b	.L10
.L377:
mov	w0, w21
adrp	x1, .LC366
ldr	d0, [x1,
str	w0, [x19, 21]
b	.L10
.L378:
mov	w0, w21
adrp	x1, .LC367
ldr	d0, [x1,
str	w0, [x19, 21]
b	.L10
.L379:
mov	w0, w21
adrp	x1, .LC368
ldr	d0, [x1,
str	w0, [x19, 21]
b	.L10
.L380:
mov	w0, w21
adrp	x1, .LC369
ldr	d0, [x1,
str	w0, [x19, 21]
b	.L10
.L381:
mov	w0, w21
adrp	x1, .LC370
ldr	d0, [x1,
str	w0, [x19, 21]
b	.L10
.L382:
mov	w0, w21
adrp	x1, .LC371
ldr	d0, [x1,
str	w0, [x19, 21]
b	.L10
.L383:
mov	w0, w21
adrp	x1, .LC372
ldr	d0, [x1,
str	w0, [x19, 21]
b	.L10
.L384:
mov	w0, w21
adrp	x1, .LC373
ldr	d0, [x1,
str	w0, [x19, 21]
b	.L10
.L385:
mov	w0, w21
adrp	x1, .LC374
ldr	d0, [x1,
str	w0, [x19, 21]
b	.L10
.L386:
mov	w0, w21
adrp	x1, .LC375
ldr	d0, [x1,
str	w0, [x19, 21]
b	.L10
.L387:
mov	w0, w21
adrp	x1, .LC376
ldr	d0, [x1,
str	w0, [x19, 21]
b	.L10
.L388:
mov	w0, w21
adrp	x1, .LC377
ldr	d0, [x1,
str	w0, [x19, 21]
b	.L10
.L389:
mov	w0, w21
adrp	x1, .LC378
ldr	d0, [x1,
str	w0, [x19, 21]
b	.L10
.L390:
mov	w0, w21
adrp	x1, .LC379
ldr	d0, [x1,
str	w0, [x19, 21]
b	.L10
.L391:
mov	w0, w21
adrp	x1, .LC380
ldr	d0, [x1,
str	w0, [x19, 21]
b	.L10
.L392:
mov	w0, w21
adrp	x1, .LC381
ldr	d0, [x1,
str	w0, [x19, 21]
b	.L10
.L393:
mov	w0, w21
adrp	x1, .LC382
ldr	d0, [x1,
str	w0, [x19, 21]
b	.L10
.L394:
mov	w0, w21
adrp	x1, .LC383
ldr	d0, [x1,
str	w0, [x19, 21]
b	.L10
.L395:
mov	w0, w21
adrp	x1, .LC384
ldr	d0, [x1,
str	w0, [x19, 21]
b	.L10
.L396:
mov	w0, w21
adrp	x1, .LC385
ldr	d0, [x1,
str	w0, [x19, 21]
b	.L10
.L397:
mov	w0, w21
adrp	x1, .LC386
ldr	d0, [x1,
str	w0, [x19, 21]
b	.L10
.L398:
mov	w0, w21
adrp	x1, .LC387
ldr	d0, [x1,
str	w0, [x19, 21]
b	.L10
.L399:
mov	w0, w21
adrp	x1, .LC388
ldr	d0, [x1,
str	w0, [x19, 21]
b	.L10
.L400:
mov	w0, w21
adrp	x1, .LC389
ldr	d0, [x1,
str	w0, [x19, 21]
b	.L10
.L401:
mov	w0, w21
adrp	x1, .LC390
ldr	d0, [x1,
str	w0, [x19, 21]
b	.L10
.L402:
mov	w0, w21
adrp	x1, .LC391
ldr	d0, [x1,
str	w0, [x19, 21]
b	.L10
.L403:
mov	w0, w21
adrp	x1, .LC392
ldr	d0, [x1,
str	w0, [x19, 21]
b	.L10
.L404:
mov	w0, w21
adrp	x1, .LC393
ldr	d0, [x1,
str	w0, [x19, 21]
b	.L10
.L405:
mov	w0, w21
adrp	x1, .LC394
ldr	d0, [x1,
str	w0, [x19, 21]
b	.L10
.L406:
mov	w0, w21
adrp	x1, .LC395
ldr	d0, [x1,
str	w0, [x19, 21]
b	.L10
.L407:
mov	w0, w21
adrp	x1, .LC396
ldr	d0, [x1,
str	w0, [x19, 21]
b	.L10
.L408:
mov	w0, w21
adrp	x1, .LC397
ldr	d0, [x1,
str	w0, [x19, 21]
b	.L10
.L409:
mov	w0, w21
adrp	x1, .LC398
ldr	d0, [x1,
str	w0, [x19, 21]
b	.L10
.L410:
mov	w0, w21
adrp	x1, .LC399
ldr	d0, [x1,
str	w0, [x19, 21]
b	.L10
.L411:
mov	w0, w21
adrp	x1, .LC400
ldr	d0, [x1,
str	w0, [x19, 21]
b	.L10
.L412:
mov	w0, w21
adrp	x1, .LC401
ldr	d0, [x1,
str	w0, [x19, 21]
b	.L10
.L413:
mov	w0, w21
adrp	x1, .LC402
ldr	d0, [x1,
str	w0, [x19, 21]
b	.L10
.L414:
mov	w0, w21
adrp	x1, .LC403
ldr	d0, [x1,
str	w0, [x19, 21]
b	.L10
.L415:
mov	w0, w21
adrp	x1, .LC404
ldr	d0, [x1,
str	w0, [x19, 21]
b	.L10
.L416:
mov	w0, w21
adrp	x1, .LC405
ldr	d0, [x1,
str	w0, [x19, 21]
b	.L10
.L417:
mov	w0, w21
adrp	x1, .LC406
ldr	d0, [x1,
str	w0, [x19, 21]
b	.L10
.L418:
mov	w0, w21
adrp	x1, .LC407
ldr	d0, [x1,
str	w0, [x19, 21]
b	.L10
.L419:
mov	w0, w21
adrp	x1, .LC408
ldr	d0, [x1,
str	w0, [x19, 21]
b	.L10
.L420:
mov	w0, w21
adrp	x1, .LC409
ldr	d0, [x1,
str	w0, [x19, 21]
b	.L10
.L421:
mov	w0, w21
adrp	x1, .LC410
ldr	d0, [x1,
str	w0, [x19, 21]
b	.L10
.L422:
mov	w0, w21
adrp	x1, .LC411
ldr	d0, [x1,
str	w0, [x19, 21]
b	.L10
.L423:
mov	w0, w21
adrp	x1, .LC412
ldr	d0, [x1,
str	w0, [x19, 21]
b	.L10
.L424:
mov	w0, w21
adrp	x1, .LC413
ldr	d0, [x1,
str	w0, [x19, 21]
b	.L10
.L425:
mov	w0, w21
adrp	x1, .LC414
ldr	d0, [x1,
str	w0, [x19, 21]
b	.L10
.L426:
mov	w0, w21
adrp	x1, .LC415
ldr	d0, [x1,
str	w0, [x19, 21]
b	.L10
.L427:
mov	w0, w21
adrp	x1, .LC416
ldr	d0, [x1,
str	w0, [x19, 21]
b	.L10
.L428:
mov	w0, w21
adrp	x1, .LC417
ldr	d0, [x1,
str	w0, [x19, 21]
b	.L10
.L429:
mov	w0, w21
adrp	x1, .LC418
ldr	d0, [x1,
str	w0, [x19, 21]
b	.L10
.L430:
mov	w0, w21
adrp	x1, .LC419
ldr	d0, [x1,
str	w0, [x19, 21]
b	.L10
.L431:
mov	w0, w21
adrp	x1, .LC420
ldr	d0, [x1,
str	w0, [x19, 21]
b	.L10
.L432:
mov	w0, w21
adrp	x1, .LC421
ldr	d0, [x1,
str	w0, [x19, 21]
b	.L10
.L433:
mov	w0, w21
adrp	x1, .LC422
ldr	d0, [x1,
str	w0, [x19, 21]
b	.L10
.L434:
mov	w0, w21
adrp	x1, .LC423
ldr	d0, [x1,
str	w0, [x19, 21]
b	.L10
.L435:
mov	w0, w21
adrp	x1, .LC424
ldr	d0, [x1,
str	w0, [x19, 21]
b	.L10
.L436:
mov	w0, w21
adrp	x1, .LC425
ldr	d0, [x1,
str	w0, [x19, 21]
b	.L10
.L437:
mov	w0, w21
adrp	x1, .LC426
ldr	d0, [x1,
str	w0, [x19, 21]
b	.L10
.L438:
mov	w0, w21
adrp	x1, .LC427
ldr	d0, [x1,
str	w0, [x19, 21]
b	.L10
.L439:
mov	w0, w21
adrp	x1, .LC428
ldr	d0, [x1,
str	w0, [x19, 21]
b	.L10
.L440:
mov	w0, w21
adrp	x1, .LC429
ldr	d0, [x1,
str	w0, [x19, 21]
b	.L10
.L441:
mov	w0, w21
adrp	x1, .LC430
ldr	d0, [x1,
str	w0, [x19, 21]
b	.L10
.L442:
mov	w0, w21
adrp	x1, .LC431
ldr	d0, [x1,
str	w0, [x19, 21]
b	.L10
.L443:
mov	w0, w21
adrp	x1, .LC432
ldr	d0, [x1,
str	w0, [x19, 21]
b	.L10
.L444:
mov	w0, w21
adrp	x1, .LC433
ldr	d0, [x1,
str	w0, [x19, 21]
b	.L10
.L445:
mov	w0, w21
adrp	x1, .LC434
ldr	d0, [x1,
str	w0, [x19, 21]
b	.L10
.L446:
mov	w0, w21
adrp	x1, .LC435
ldr	d0, [x1,
str	w0, [x19, 21]
b	.L10
.L447:
mov	w0, w21
adrp	x1, .LC436
ldr	d0, [x1,
str	w0, [x19, 21]
b	.L10
.L448:
mov	w0, w21
adrp	x1, .LC437
ldr	d0, [x1,
str	w0, [x19, 21]
b	.L10
.L449:
mov	w0, w21
adrp	x1, .LC438
ldr	d0, [x1,
str	w0, [x19, 21]
b	.L10
.L450:
mov	w0, w21
adrp	x1, .LC439
ldr	d0, [x1,
str	w0, [x19, 21]
b	.L10
.L451:
mov	w0, w21
adrp	x1, .LC440
ldr	d0, [x1,
str	w0, [x19, 21]
b	.L10
.L452:
mov	w0, w21
adrp	x1, .LC441
ldr	d0, [x1,
str	w0, [x19, 21]
b	.L10
.L453:
mov	w0, w21
adrp	x1, .LC442
ldr	d0, [x1,
str	w0, [x19, 21]
b	.L10
.L454:
mov	w0, w21
adrp	x1, .LC443
ldr	d0, [x1,
str	w0, [x19, 21]
b	.L10
.L455:
mov	w0, w21
adrp	x1, .LC444
ldr	d0, [x1,
str	w0, [x19, 21]
b	.L10
.L456:
mov	w0, w21
adrp	x1, .LC445
ldr	d0, [x1,
str	w0, [x19, 21]
b	.L10
.L457:
mov	w0, w21
adrp	x1, .LC446
ldr	d0, [x1,
str	w0, [x19, 21]
b	.L10
.L458:
mov	w0, w21
adrp	x1, .LC447
ldr	d0, [x1,
str	w0, [x19, 21]
b	.L10
.L459:
mov	w0, w21
adrp	x1, .LC448
ldr	d0, [x1,
str	w0, [x19, 21]
b	.L10
.L460:
mov	w0, w21
adrp	x1, .LC449
ldr	d0, [x1,
str	w0, [x19, 21]
b	.L10
.L461:
mov	w0, w21
adrp	x1, .LC450
ldr	d0, [x1,
str	w0, [x19, 21]
b	.L10
.L462:
mov	w0, w21
adrp	x1, .LC451
ldr	d0, [x1,
str	w0, [x19, 21]
b	.L10
.L463:
mov	w0, w21
adrp	x1, .LC452
ldr	d0, [x1,
str	w0, [x19, 21]
b	.L10
.L464:
mov	w0, w21
adrp	x1, .LC453
ldr	d0, [x1,
str	w0, [x19, 21]
b	.L10
.L465:
mov	w0, w21
adrp	x1, .LC454
ldr	d0, [x1,
str	w0, [x19, 21]
b	.L10
.L466:
mov	w0, w21
adrp	x1, .LC455
ldr	d0, [x1,
str	w0, [x19, 21]
b	.L10
.L467:
mov	w0, w21
adrp	x1, .LC456
ldr	d0, [x1,
str	w0, [x19, 21]
b	.L10
.L468:
mov	w0, w21
adrp	x1, .LC457
ldr	d0, [x1,
str	w0, [x19, 21]
b	.L10
.L469:
mov	w0, w21
adrp	x1, .LC458
ldr	d0, [x1,
str	w0, [x19, 21]
b	.L10
.L470:
mov	w0, w21
adrp	x1, .LC459
ldr	d0, [x1,
str	w0, [x19, 21]
b	.L10
.L471:
mov	w0, w21
adrp	x1, .LC460
ldr	d0, [x1,
str	w0, [x19, 21]
b	.L10
.L472:
mov	w0, w21
adrp	x1, .LC461
ldr	d0, [x1,
str	w0, [x19, 21]
b	.L10
.L473:
mov	w0, w21
adrp	x1, .LC462
ldr	d0, [x1,
str	w0, [x19, 21]
b	.L10
.L474:
mov	w0, w21
adrp	x1, .LC463
ldr	d0, [x1,
str	w0, [x19, 21]
b	.L10
.L475:
mov	w0, w21
adrp	x1, .LC464
ldr	d0, [x1,
str	w0, [x19, 21]
b	.L10
.L476:
mov	w0, w21
adrp	x1, .LC465
ldr	d0, [x1,
str	w0, [x19, 21]
b	.L10
.L477:
mov	w0, w21
adrp	x1, .LC466
ldr	d0, [x1,
str	w0, [x19, 21]
b	.L10
.L478:
mov	w0, w21
adrp	x1, .LC467
ldr	d0, [x1,
str	w0, [x19, 21]
b	.L10
.L479:
mov	w0, w21
adrp	x1, .LC468
ldr	d0, [x1,
str	w0, [x19, 21]
b	.L10
.L480:
mov	w0, w21
adrp	x1, .LC469
ldr	d0, [x1,
str	w0, [x19, 21]
b	.L10
.L481:
mov	w0, w21
adrp	x1, .LC470
ldr	d0, [x1,
str	w0, [x19, 21]
b	.L10
.L482:
mov	w0, w21
adrp	x1, .LC471
ldr	d0, [x1,
str	w0, [x19, 21]
b	.L10
.L483:
mov	w0, w21
adrp	x1, .LC472
ldr	d0, [x1,
str	w0, [x19, 21]
b	.L10
.L484:
mov	w0, w21
adrp	x1, .LC473
ldr	d0, [x1,
str	w0, [x19, 21]
b	.L10
.L485:
mov	w0, w21
adrp	x1, .LC474
ldr	d0, [x1,
str	w0, [x19, 21]
b	.L10
.L486:
mov	w0, w21
adrp	x1, .LC475
ldr	d0, [x1,
str	w0, [x19, 21]
b	.L10
.L487:
mov	w0, w21
adrp	x1, .LC476
ldr	d0, [x1,
str	w0, [x19, 21]
b	.L10
.L488:
mov	w0, w21
adrp	x1, .LC477
ldr	d0, [x1,
str	w0, [x19, 21]
b	.L10
.L489:
mov	w0, w21
adrp	x1, .LC478
ldr	d0, [x1,
str	w0, [x19, 21]
b	.L10
.L490:
mov	w0, w21
adrp	x1, .LC479
ldr	d0, [x1,
str	w0, [x19, 21]
b	.L10
.L491:
mov	w0, w21
adrp	x1, .LC480
ldr	d0, [x1,
str	w0, [x19, 21]
b	.L10
.L492:
mov	w0, w21
adrp	x1, .LC481
ldr	d0, [x1,
str	w0, [x19, 21]
b	.L10
.L493:
mov	w0, w21
adrp	x1, .LC482
ldr	d0, [x1,
str	w0, [x19, 21]
b	.L10
.L494:
mov	w0, w21
adrp	x1, .LC483
ldr	d0, [x1,
str	w0, [x19, 21]
b	.L10
.L495:
mov	w0, w21
adrp	x1, .LC484
ldr	d0, [x1,
str	w0, [x19, 21]
b	.L10
.L496:
mov	w0, w21
adrp	x1, .LC485
ldr	d0, [x1,
str	w0, [x19, 21]
b	.L10
.L497:
mov	w0, w21
adrp	x1, .LC486
ldr	d0, [x1,
str	w0, [x19, 21]
b	.L10
.L498:
mov	w0, w21
adrp	x1, .LC487
ldr	d0, [x1,
str	w0, [x19, 21]
b	.L10
.L499:
mov	w0, w21
adrp	x1, .LC488
ldr	d0, [x1,
str	w0, [x19, 21]
b	.L10
.L500:
mov	w0, w21
adrp	x1, .LC489
ldr	d0, [x1,
str	w0, [x19, 21]
b	.L10
.L501:
mov	w0, w21
adrp	x1, .LC490
ldr	d0, [x1,
str	w0, [x19, 21]
b	.L10
.L502:
mov	w0, w21
adrp	x1, .LC491
ldr	d0, [x1,
str	w0, [x19, 21]
b	.L10
.L503:
mov	w0, w21
adrp	x1, .LC492
ldr	d0, [x1,
str	w0, [x19, 21]
b	.L10
.L504:
mov	w0, w21
adrp	x1, .LC493
ldr	d0, [x1,
str	w0, [x19, 21]
b	.L10
.L505:
mov	w0, w21
adrp	x1, .LC494
ldr	d0, [x1,
str	w0, [x19, 21]
b	.L10
.L506:
mov	w0, w21
adrp	x1, .LC495
ldr	d0, [x1,
str	w0, [x19, 21]
b	.L10
.L507:
mov	w0, w21
adrp	x1, .LC496
ldr	d0, [x1,
str	w0, [x19, 21]
b	.L10
.L508:
mov	w0, w21
adrp	x1, .LC497
ldr	d0, [x1,
str	w0, [x19, 21]
b	.L10
.L509:
mov	w0, w21
adrp	x1, .LC498
ldr	d0, [x1,
str	w0, [x19, 21]
b	.L10
.L510:
mov	w0, w21
adrp	x1, .LC499
ldr	d0, [x1,
str	w0, [x19, 21]
b	.L10
.L511:
mov	w0, w21
adrp	x1, .LC500
ldr	d0, [x1,
str	w0, [x19, 21]
b	.L10
.L512:
mov	w0, w21
adrp	x1, .LC501
ldr	d0, [x1,
str	w0, [x19, 21]
b	.L10
.L513:
mov	w0, w21
adrp	x1, .LC502
ldr	d0, [x1,
str	w0, [x19, 21]
b	.L10
.L514:
mov	w0, w21
adrp	x1, .LC503
ldr	d0, [x1,
str	w0, [x19, 21]
b	.L10
.L515:
mov	w0, w21
adrp	x1, .LC504
ldr	d0, [x1,
str	w0, [x19, 21]
b	.L10
.L516:
mov	w0, w21
adrp	x1, .LC505
ldr	d0, [x1,
str	w0, [x19, 21]
b	.L10
.L517:
mov	w0, w21
adrp	x1, .LC506
ldr	d0, [x1,
str	w0, [x19, 21]
b	.L10
.L518:
mov	w0, w21
adrp	x1, .LC507
ldr	d0, [x1,
str	w0, [x19, 21]
b	.L10
.L519:
mov	w0, w21
adrp	x1, .LC508
ldr	d0, [x1,
str	w0, [x19, 21]
b	.L10
.L520:
mov	w0, w21
adrp	x1, .LC509
ldr	d0, [x1,
str	w0, [x19, 21]
b	.L10
.L521:
mov	w0, w21
adrp	x1, .LC510
ldr	d0, [x1,
str	w0, [x19, 21]
b	.L10
.L522:
mov	w0, w21
adrp	x1, .LC511
ldr	d0, [x1,
str	w0, [x19, 21]
b	.L10
.L523:
mov	w0, w21
adrp	x1, .LC512
ldr	d0, [x1,
str	w0, [x19, 21]
b	.L10
.L524:
mov	w0, w21
adrp	x1, .LC513
ldr	d0, [x1,
str	w0, [x19, 21]
b	.L10
.L525:
mov	w0, w21
adrp	x1, .LC514
ldr	d0, [x1,
str	w0, [x19, 21]
b	.L10
.L526:
mov	w0, w21
adrp	x1, .LC515
ldr	d0, [x1,
str	w0, [x19, 21]
b	.L10
.L527:
mov	w0, w21
adrp	x1, .LC516
ldr	d0, [x1,
str	w0, [x19, 21]
b	.L10
.L528:
mov	w0, w21
adrp	x1, .LC517
ldr	d0, [x1,
str	w0, [x19, 21]
b	.L10
.L529:
mov	w0, w21
adrp	x1, .LC518
ldr	d0, [x1,
str	w0, [x19, 21]
b	.L10
.L530:
mov	w0, w21
adrp	x1, .LC519
ldr	d0, [x1,
str	w0, [x19, 21]
b	.L10
.L531:
mov	w0, w21
adrp	x1, .LC520
ldr	d0, [x1,
str	w0, [x19, 21]
b	.L10
.L532:
mov	w0, w21
adrp	x1, .LC521
ldr	d0, [x1,
str	w0, [x19, 21]
b	.L10
.L533:
mov	w0, w21
adrp	x1, .LC522
ldr	d0, [x1,
str	w0, [x19, 21]
b	.L10
.L534:
mov	w0, w21
adrp	x1, .LC523
ldr	d0, [x1,
str	w0, [x19, 21]
b	.L10
.L535:
mov	w0, w21
adrp	x1, .LC524
ldr	d0, [x1,
str	w0, [x19, 21]
b	.L10
.L536:
mov	w0, w21
adrp	x1, .LC525
ldr	d0, [x1,
str	w0, [x19, 21]
b	.L10
.L537:
mov	w0, w21
adrp	x1, .LC526
ldr	d0, [x1,
str	w0, [x19, 21]
b	.L10
.L538:
mov	w0, w21
adrp	x1, .LC527
ldr	d0, [x1,
str	w0, [x19, 21]
b	.L10
.L539:
mov	w0, w21
adrp	x1, .LC528
ldr	d0, [x1,
str	w0, [x19, 21]
b	.L10
.L540:
mov	w0, w21
adrp	x1, .LC529
ldr	d0, [x1,
str	w0, [x19, 21]
b	.L10
.L541:
mov	w0, w21
adrp	x1, .LC530
ldr	d0, [x1,
str	w0, [x19, 21]
b	.L10
.L542:
mov	w0, w21
adrp	x1, .LC531
ldr	d0, [x1,
str	w0, [x19, 21]
b	.L10
.L543:
mov	w0, w21
adrp	x1, .LC532
ldr	d0, [x1,
str	w0, [x19, 21]
b	.L10
.L544:
mov	w0, w21
adrp	x1, .LC533
ldr	d0, [x1,
str	w0, [x19, 21]
b	.L10
.L545:
mov	w0, w21
adrp	x1, .LC534
ldr	d0, [x1,
str	w0, [x19, 21]
b	.L10
.L546:
mov	w0, w21
adrp	x1, .LC535
ldr	d0, [x1,
str	w0, [x19, 21]
b	.L10
.L547:
mov	w0, w21
adrp	x1, .LC536
ldr	d0, [x1,
str	w0, [x19, 21]
b	.L10
.L548:
mov	w0, w21
adrp	x1, .LC537
ldr	d0, [x1,
str	w0, [x19, 21]
b	.L10
.L549:
mov	w0, w21
adrp	x1, .LC538
ldr	d0, [x1,
str	w0, [x19, 21]
b	.L10
.L550:
mov	w0, w21
adrp	x1, .LC539
ldr	d0, [x1,
str	w0, [x19, 21]
b	.L10
.L551:
mov	w0, w21
adrp	x1, .LC540
ldr	d0, [x1,
str	w0, [x19, 21]
b	.L10
.L552:
mov	w0, w21
adrp	x1, .LC541
ldr	d0, [x1,
str	w0, [x19, 21]
b	.L10
.L553:
mov	w0, w21
adrp	x1, .LC542
ldr	d0, [x1,
str	w0, [x19, 21]
b	.L10
.L554:
mov	w0, w21
adrp	x1, .LC543
ldr	d0, [x1,
str	w0, [x19, 21]
b	.L10
.L555:
mov	w0, w21
adrp	x1, .LC544
ldr	d0, [x1,
str	w0, [x19, 21]
b	.L10
.L556:
mov	w0, w21
adrp	x1, .LC545
ldr	d0, [x1,
str	w0, [x19, 21]
b	.L10
.L557:
mov	w0, w21
adrp	x1, .LC546
ldr	d0, [x1,
str	w0, [x19, 21]
b	.L10
.L558:
mov	w0, w21
adrp	x1, .LC547
ldr	d0, [x1,
str	w0, [x19, 21]
b	.L10
.L559:
mov	w0, w21
adrp	x1, .LC548
ldr	d0, [x1,
str	w0, [x19, 21]
b	.L10
.L560:
mov	w0, w21
adrp	x1, .LC549
ldr	d0, [x1,
str	w0, [x19, 21]
b	.L10
.L561:
mov	w0, w21
adrp	x1, .LC550
ldr	d0, [x1,
str	w0, [x19, 21]
b	.L10
.L562:
mov	w0, w21
adrp	x1, .LC551
ldr	d0, [x1,
str	w0, [x19, 21]
b	.L10
.L563:
mov	w0, w21
adrp	x1, .LC552
ldr	d0, [x1,
str	w0, [x19, 21]
b	.L10
.L564:
mov	w0, w21
adrp	x1, .LC553
ldr	d0, [x1,
str	w0, [x19, 21]
b	.L10
.L565:
mov	w0, w21
adrp	x1, .LC554
ldr	d0, [x1,
str	w0, [x19, 21]
b	.L10
.L566:
mov	w0, w21
adrp	x1, .LC555
ldr	d0, [x1,
str	w0, [x19, 21]
b	.L10
.L567:
mov	w0, w21
adrp	x1, .LC556
ldr	d0, [x1,
str	w0, [x19, 21]
b	.L10
.L568:
mov	w0, w21
adrp	x1, .LC557
ldr	d0, [x1,
str	w0, [x19, 21]
b	.L10
.L569:
mov	w0, w21
adrp	x1, .LC558
ldr	d0, [x1,
str	w0, [x19, 21]
b	.L10
.L570:
mov	w0, w21
adrp	x1, .LC559
ldr	d0, [x1,
str	w0, [x19, 21]
b	.L10
.L571:
mov	w0, w21
adrp	x1, .LC560
ldr	d0, [x1,
str	w0, [x19, 21]
b	.L10
.L572:
mov	w0, w21
adrp	x1, .LC561
ldr	d0, [x1,
str	w0, [x19, 21]
b	.L10
.L573:
mov	w0, w21
adrp	x1, .LC562
ldr	d0, [x1,
str	w0, [x19, 21]
b	.L10
.L574:
mov	w0, w21
adrp	x1, .LC563
ldr	d0, [x1,
str	w0, [x19, 21]
b	.L10
.L575:
mov	w0, w21
adrp	x1, .LC564
ldr	d0, [x1,
str	w0, [x19, 21]
b	.L10
.L576:
mov	w0, w21
adrp	x1, .LC565
ldr	d0, [x1,
str	w0, [x19, 21]
b	.L10
.L577:
mov	w0, w21
adrp	x1, .LC566
ldr	d0, [x1,
str	w0, [x19, 21]
b	.L10
.L578:
mov	w0, w21
adrp	x1, .LC567
ldr	d0, [x1,
str	w0, [x19, 21]
b	.L10
.L579:
mov	w0, w21
adrp	x1, .LC568
ldr	d0, [x1,
str	w0, [x19, 21]
b	.L10
.L580:
mov	w0, w21
adrp	x1, .LC569
ldr	d0, [x1,
str	w0, [x19, 21]
b	.L10
.L581:
mov	w0, w21
adrp	x1, .LC570
ldr	d0, [x1,
str	w0, [x19, 21]
b	.L10
.L582:
mov	w0, w21
adrp	x1, .LC571
ldr	d0, [x1,
str	w0, [x19, 21]
b	.L10
.L583:
mov	w0, w21
adrp	x1, .LC572
ldr	d0, [x1,
str	w0, [x19, 21]
b	.L10
.L584:
mov	w0, w21
adrp	x1, .LC573
ldr	d0, [x1,
str	w0, [x19, 21]
b	.L10
.L585:
mov	w0, w21
adrp	x1, .LC574
ldr	d0, [x1,
str	w0, [x19, 21]
b	.L10
.L586:
mov	w0, w21
adrp	x1, .LC575
ldr	d0, [x1,
str	w0, [x19, 21]
b	.L10
.L587:
mov	w0, w21
adrp	x1, .LC576
ldr	d0, [x1,
str	w0, [x19, 21]
b	.L10
.L588:
mov	w0, w21
adrp	x1, .LC577
ldr	d0, [x1,
str	w0, [x19, 21]
b	.L10
.L589:
mov	w0, w21
adrp	x1, .LC578
ldr	d0, [x1,
str	w0, [x19, 21]
b	.L10
.L590:
mov	w0, w21
adrp	x1, .LC579
ldr	d0, [x1,
str	w0, [x19, 21]
b	.L10
.L591:
mov	w0, w21
adrp	x1, .LC580
ldr	d0, [x1,
str	w0, [x19, 21]
b	.L10
.L592:
mov	w0, w21
adrp	x1, .LC581
ldr	d0, [x1,
str	w0, [x19, 21]
b	.L10
.L593:
mov	w0, w21
adrp	x1, .LC582
ldr	d0, [x1,
str	w0, [x19, 21]
b	.L10
.L594:
mov	w0, w21
adrp	x1, .LC583
ldr	d0, [x1,
str	w0, [x19, 21]
b	.L10
.L595:
mov	w0, w21
adrp	x1, .LC584
ldr	d0, [x1,
str	w0, [x19, 21]
b	.L10
.L596:
mov	w0, w21
adrp	x1, .LC585
ldr	d0, [x1,
str	w0, [x19, 21]
b	.L10
.L597:
mov	w0, w21
adrp	x1, .LC586
ldr	d0, [x1,
str	w0, [x19, 21]
b	.L10
.L598:
mov	w0, w21
adrp	x1, .LC587
ldr	d0, [x1,
str	w0, [x19, 21]
b	.L10
.L599:
mov	w0, w21
adrp	x1, .LC588
ldr	d0, [x1,
str	w0, [x19, 21]
b	.L10
.L600:
mov	w0, w21
adrp	x1, .LC589
ldr	d0, [x1,
str	w0, [x19, 21]
b	.L10
.L601:
mov	w0, w21
adrp	x1, .LC590
ldr	d0, [x1,
str	w0, [x19, 21]
b	.L10
.L602:
mov	w0, w21
adrp	x1, .LC591
ldr	d0, [x1,
str	w