.arch armv8-a
.file	__TEXT,__text,regular,pure_instructions
.align	2
.p2align	4,,11
.global	_func0                          ## -- Begin function func0
.section	__TEXT,__text,regular,pure_instructions
.align	2
.p2align	4,,11
_func0:                                 ## @func0
    .section	__TEXT,__text,regular,pure_instructions
    ..align	2
.p2align	4,,11
_LBB0:                                    ## =>This Inner Loop Header: Depth=1
ldp	w1, w2, [x1]
cmp	w1, w2
bgt	.LBB0
stp	x29, x30, [sp, -32]!
.cfi_def_cfa_offset 32
.cfi_offset 29, -32
.cfi_offset 30, -24
mov	w3, 2
mov	x29, sp
stp	x19, x20, [sp, 16]
.cfi_offset 19, -16
.cfi_offset 20, -8
add	x20, sp, 32
mov	w1, 1
str	w1, [x29, -8]
str	w0, [x29, -12]
str	w3, [x29, -16]
bl	__snprintf_chk
ldr	w1, [x29, -16]
sub	w1, w1,
str	w1, [x29, -16]
add	w0, w0, w1
ldr	w1, [x29, -16]
mov	x3, -1
add	w1, w1, 1
str	w1, [x29, -16]
bl	__snprintf_chk
ldr	w1, [x29, -16]
add	w1, w1, 1
str	w1, [x29, -16]
bl	__snprintf_chk
ldr	w1, [x29, -16]
add	w1, w1, 1
str	w1, [x29, -16]
bl	__snprintf_chk
ldr	w1, [x29, -16]
add	w1, w1, 1
str	w1, [x29, -16]
bl	__snprintf_chk
ldr	w1, [x29, -16]
add	w1, w1, 1
str	w1, [x29, -16]
bl	__snprintf_chk
ldr	w1, [x29, -16]
add	w1, w1, 1
str	w1, [x29, -16]
bl	__snprintf_chk
ldr	w1, [x29, -16]
add	w1, w1, 1
str	w1, [x29, -16]
bl	__snprintf_chk
ldr	w1, [x29, -16]
add	w1, w1, 1
str	w1, [x29, -16]
bl	__snprintf_chk
ldr	w1, [x29, -16]
add	w1, w1, 1
str	w1, [x29, -16]
bl	__snprintf_chk
ldr	w1, [x29, -16]
add	w1, w1, 1
str	w1, [x29, -16]
bl	__snprintf_chk
ldr	w1, [x29, -16]
add	w1, w1, 1
str	w1, [x29, -16]
bl	__snprintf_chk
ldr	w1, [x29, -16]
add	w1, w1, 1
str	w1, [x29, -16]
bl	__snprintf_chk
ldr	w1, [x29, -16]
add	w1, w1, 1
str	w1, [x29, -16]
bl	__snprintf_chk
ldr	w1, [x29, -16]
add	w1, w1, 1
str	w1, [x29, -16]
bl	__snprintf_chk
ldr	w1, [x29, -16]
add	w1, w1, 1
str	w1, [x29, -16]
bl	__snprintf_chk
ldr	w1, [x29, -16]
add	w1, w1, 1
str	w1, [x29, -16]
bl	__snprintf_chk
ldr	w1, [x29, -16]
add	w1, w1, 1
str	w1, [x29, -16]
bl	__snprintf_chk
ldr	w1, [x29, -16]
add	w1, w1, 1
str	w1, [x29, -16]
bl	__snprintf_chk
ldr	w1, [x29, -16]
add	w1, w1, 1
str	w1, [x29, -16]
bl	__snprintf_chk
ldr	w1, [x29, -16]
add	w1, w1, 1
str	w1, [x29, -16]
bl	__snprintf_chk
ldr	w1, [x29, -16]
add	w1, w1, 1
str	w1, [x29, -16]
bl	__snprintf_chk
ldr	w1, [x29, -16]
add	w1, w1, 1
str	w1, [x29, -16]
bl	__snprintf_chk
ldr	w1, [x29, -16]
add	w1, w1, 1
str	w1, [x29, -16]
bl	__snprintf_chk
ldr	w1, [x29, -16]
add	w1, w1, 1
str	w1, [x29, -16]
bl	__snprintf_chk
ldr	w1, [x29, -16]
add	w1, w1, 1
str	w1, [x29, -16]
bl	__snprintf_chk
ldr	w1, [x29, -16]
add	w1, w1, 1
str	w1, [x29, -16]
bl	__snprintf_chk
ldr	w1, [x29, -16]
add	w1, w1, 1
str	w1, [x29, -16]
bl	__snprintf_chk
ldr	w1, [x29, -16]
add	w1, w1, 1
str	w1, [x29, -16]
bl	__snprintf_chk
ldr	w1, [x29, -16]
add	w1, w1, 1
str	w1, [x29, -16]
bl	__snprintf_chk
ldr	w1, [x29, -16]
add	w1, w1, 1
str	w1, [x29, -16]
bl	__snprintf_chk
ldr	w1, [x29, -16]
add	w1, w1, 1
str	w1, [x29, -16]
bl	__snprintf_chk
ldr	w1, [x29, -16]
add	w1, w1, 1
str	w1, [x29, -16]
bl	__snprintf_chk
ldr	w1, [x29, -16]
add	w1, w1, 1
str	w1, [x29, -16]
bl	__snprintf_chk
ldr	w1, [x29, -16]
add	w1, w1, 1
str	w1, [x29, -16]
bl	__snprintf_chk
ldr	w1, [x29, -16]
add	w1, w1, 1
str	w1, [x29, -16]
bl	__snprintf_chk
ldr	w1, [x29, -16]
add	w1, w1, 1
str	w1, [x29, -16]
bl	__snprintf_chk
ldr	w1, [x29, -16]
add	w1, w1, 1
str	w1, [x29, -16]
bl	__snprintf_chk
ldr	w1, [x29, -16]
add	w1, w1, 1
str	w1, [x29, -16]
bl	__snprintf_chk
ldr	w1, [x29, -16]
add	w1, w1, 1
str	w1, [x29, -16]
bl	__snprintf_chk
ldr	w1, [x29, -16]
add	w1, w1, 1
str	w1, [x29, -16]
bl	__snprintf_chk
ldr	w1, [x29, -16]
add	w1, w1, 1
str	w1, [x29, -16]
bl	__snprintf_chk
ldr	w1, [x29, -16]
add	w1, w1, 1
str	w1, [x29, -16]
bl	__snprintf_chk
ldr	w1, [x29, -16]
add	w1, w1, 1
str	w1, [x29, -16]
bl	__snprintf_chk
ldr	w1, [x29, -16]
add	w1, w1, 1
str	w1, [x29, -16]
bl	__snprintf_chk
ldr	w1, [x29, -16]
add	w1, w1, 1
str	w1, [x29, -16]
bl	__snprintf_chk
ldr	w1, [x29, -16]
add	w1, w1, 1
str	w1, [x29, -16]
bl	__snprintf_chk
ldr	w1, [x29, -16]
add	w1, w1, 1
str	w1, [x29, -16]
bl	__snprintf_chk
ldr	w1, [x29, -16]
add	w1, w1, 1
str	w1, [x29, -16]
bl	__snprintf_chk
ldr	w1, [x29, -16]
add	w1, w1, 1
str	w1, [x29, -16]
bl	__snprintf_chk
ldr	w1, [x29, -16]
add	w1, w1, 1
str	w1, [x29, -16]
bl	__snprintf_chk
ldr	w1, [x29, -16]
add	w1, w1, 1
str	w1, [x29, -16]
bl	__snprintf_chk
ldr	w1, [x29, -16]
add	w1, w1, 1
str	w1, [x29, -16]
bl	__snprintf_chk
ldr	w1, [x29, -16]
add	w1, w1, 1
str	w1, [x29, -16]
bl	__snprintf_chk
ldr	w1, [x29, -16]
add	w1, w1, 1
str	w1, [x29, -16]
bl	__snprintf_chk
ldr	w1, [x29, -16]
add	w1, w1, 1
str	w1, [x29, -16]
bl	__snprintf_chk
ldr	w1, [x29, -16]
add	w1, w1, 1
str	w1, [x29, -16]
bl	__snprintf_chk
ldr	w1, [x29, -16]
add	w1, w1, 1
str	w1, [x29, -16]
bl	__snprintf_chk
ldr	w1, [x29, -16]
add	w1, w1, 1
str	w1, [x29, -16]
bl	__snprintf_chk
ldr	w1, [x29, -16]
add	w1, w1, 1
str	w1, [x29, -16]
bl	__snprintf_chk
ldr	w1, [x29, -16]
add	w1, w1, 1
str	w1, [x29, -16]
bl	__snprintf_chk
ldr	w1, [x29, -16]
add	w1, w1, 1
str	w1, [x29, -16]
bl	__snprintf_chk
ldr	w1, [x29, -16]
add	w1, w1, 1
str	w1, [x29, -16]
bl	__snprintf_chk
ldr	w1, [x29, -16]
add	w1, w1, 1
str	w1, [x29, -16]
bl	__snprintf_chk
ldr	w1, [x29, -16]
add	w1, w1, 1
str	w1, [x29, -16]
bl	__snprintf_chk
ldr	w1, [x29, -16]
add	w1, w1, 1
str	w1, [x29, -16]
bl	__snprintf_chk
ldr	w1, [x29, -16]
add	w1, w1, 1
str	w1, [x29, -16]
bl	__snprintf_chk
ldr	w1, [x29, -16]
add	w1, w1, 1
str	w1, [x29, -16]
bl	__snprintf_chk
ldr	w1, [x29, -16]
add	w1, w1, 1
str	w1, [x29, -16]
bl	__snprintf_chk
ldr	w1, [x29, -16]
add	w1, w1, 1
str	w1, [x29, -16]
bl	__snprintf_chk
ldr	w1, [x29, -16]
add	w1, w1, 1
str	w1, [x29, -16]
bl	__snprintf_chk
ldr	w1, [x29, -16]
add	w1, w1, 1
str	w1, [x29, -16]
bl	__snprintf_chk
ldr	w1, [x29, -16]
add	w1, w1, 1
str	w1, [x29, -16]
bl	__snprintf_chk
ldr	w1, [x29, -16]
add	w1, w1, 1
str	w1, [x29, -16]
bl	__snprintf_chk
ldr	w1, [x29, -16]
add	w1, w1, 1
str	w1, [x29, -16]
bl	__snprintf_chk
ldr	w1, [x29, -16]
add	w1, w1, 1
str	w1, [x29, -16]
bl	__snprintf_chk
ldr	w1, [x29, -16]
add	w1, w1, 1
str	w1, [x29, -16]
bl	__snprintf_chk
ldr	w1, [x29, -16]
add	w1, w1, 1
str	w1, [x29, -16]
bl	__snprintf_chk
ldr	w1, [x29, -16]
add	w1, w1, 1
str	w1, [x29, -16]
bl	__snprintf_chk
ldr	w1, [x29, -16]
add	w1, w1, 1
str	w1, [x29, -16]
bl	__snprintf_chk
ldr	w1, [x29, -16]
add	w1, w1, 1
str	w1, [x29, -16]
bl	__snprintf_chk
ldr	w1, [x29, -16]
add	w1, w1, 1
str	w1, [x29, -16]
bl	__snprintf_chk
ldr	w1, [x29, -16]
add	w1, w1, 1
str	w1, [x29, -16]
bl	__snprintf_chk
ldr	w1, [x29, -16]
add	w1, w1, 1
str	w1, [x29, -16]
bl	__snprintf_chk
ldr	w1, [x29, -16]
add	w1, w1, 1
str	w1, [x29, -16]
bl	__snprintf_chk
ldr	w1, [x29, -16]
add	w1, w1, 1
str	w1, [x29, -16]
bl	__snprintf_chk
ldr	w1, [x29, -16]
add	w1, w1, 1
str	w1, [x29, -16]
bl	__snprintf_chk
ldr	w1, [x29, -16]
add	w1, w1, 1
str	w1, [x29, -16]
bl	__snprintf_chk
ldr	w1, [x29, -16]
add	w1, w1, 1
str	w1, [x29, -16]
bl	__snprintf_chk
ldr	w1, [x29, -16]
add	w1, w1, 1
str	w1, [x29, -16]
bl	__snprintf_chk
ldr	w1, [x29, -16]
add	w1, w1, 1
str	w1, [x29, -16]
bl	__snprintf_chk
ldr	w1, [x29, -16]
add	w1, w1, 1
str	w1, [x29, -16]
bl	__snprintf_chk
ldr	w1, [x29, -16]
add	w1, w1, 1
str	w1, [x29, -16]
bl	__snprintf_chk
ldr	w1, [x29, -16]
add	w1, w1, 1
str	w1, [x29, -16]
bl	__snprintf_chk
ldr	w1, [x29, -16]
add	w1, w1, 1
str	w1, [x29, -16]
bl	__snprintf_chk
ldr	w1, [x29, -16]
add	w1, w1, 1
str	w1, [x29, -16]
bl	__snprintf_chk
ldr	w1, [x29, -16]
add	w1, w1, 1
str	w1, [x29, -16]
bl	__snprintf_chk
ldr	w1, [x29, -16]
add	w1, w1, 1
str	w1, [x29, -16]
bl	__snprintf_chk
ldr	w1, [x29, -16]
add	w1, w1, 1
str	w1, [x29, -16]
bl	__snprintf_chk
ldr	w1, [x29, -16]
add	w1, w1, 1
str	w1, [x29, -16]
bl	__snprintf_chk
ldr	w1, [x29, -16]
add	w1, w1, 1
str	w1, [x29, -16]
bl	__snprintf_chk
ldr	w1, [x29, -16]
add	w1, w1, 1
str	w1, [x29, -16]
bl	__snprintf_chk
ldr	w1, [x29, -16]
add	w1, w1, 1
str	w1, [x29, -16]
bl	__snprintf_chk
ldr	w1, [x29, -16]
add	w1, w1, 1
str	w1, [x29, -16]
bl	__snprintf_chk
ldr	w1, [x29, -16]
add	w1, w1, 1
str	w1, [x29, -16]
bl	__snprintf_chk
ldr	w1, [x29, -16]
add	w1, w1, 1
str	w1, [x29, -16]
bl	__snprintf_chk
ldr	w1, [x29, -16]
add	w1, w1, 1
str	w1, [x29, -16]
bl	__snprintf_chk
ldr	w1, [x29, -16]
add	w1, w1, 1
str	w1, [x29, -16]
bl	__snprintf_chk
ldr	w1, [x29, -16]
add	w1, w1, 1
str	w1, [x29, -16]
bl	__snprintf_chk
ldr	w1, [x29, -16]
add	w1, w1, 1
str	w1, [x29, -16]
bl	__snprintf_chk
ldr	w1, [x29, -16]
add	w1, w1, 1
str	w1, [x29, -16]
bl	__snprintf_chk
ldr	w1, [x29, -16]
add	w1, w1, 1
str	w1, [x29, -16]
bl	__snprintf_chk
ldr	w1, [x29, -16]
add	w1, w1, 1
str	w1, [x29, -16]
bl	__snprintf_chk
ldr	w1, [x29, -16]
add	w1, w1, 1
str	w1, [x29, -16]
bl	__snprintf_chk
ldr	w1, [x29, -16]
add	w1, w1, 1
str	w1, [x29, -16]
bl	__snprintf_chk
ldr	w1, [x29, -16]
add	w1, w1, 1
str	w1, [x29, -16]
bl	__snprintf_chk
ldr	w1, [x29, -16]
add	w1, w1, 1
str	w1, [x29, -16]
bl	__snprintf_chk
ldr	w1, [x29, -16]
add	w1, w1, 1
str	w1, [x29, -16]
bl	__snprintf_chk
ldr	w1, [x29, -16]
add	w1, w1, 1
str	w1, [x29, -16]
bl	__snprintf_chk
ldr	w1, [x29, -16]
add	w1, w1, 1
str	w1, [x29, -16]
bl	__snprintf_chk
ldr	w1, [x29, -16]
add	w1, w1, 1
str	w1, [x29, -16]
bl	__snprintf_chk
ldr	w1, [x29, -16]
add	w1, w1, 1
str	w1, [x29, -16]
bl	__snprintf_chk
ldr	w1, [x29, -16]
add	w1, w1, 1
str	w1, [x29, -16]
bl	__snprintf_chk
ldr	w1, [x29, -16]
add	w1, w1, 1
str	w1, [x29, -16]
bl	__snprintf_chk
ldr	w1, [x29, -16]
add	w1, w1, 1
str	w1, [x29, -16]
bl	__snprintf_chk
ldr	w1, [x29, -16]
add	w1, w1, 1
str	w1, [x29, -16]
bl	__snprintf_chk
ldr	w1, [x29, -16]
add	w1, w1, 1
str	w1, [x29, -16]
bl	__snprintf_chk
ldr	w1, [x29, -16]
add	w1, w1, 1
str	w1, [x29, -16]
bl	__snprintf_chk
ldr	w1, [x29, -16]
add	w1, w1, 1
str	w1, [x29, -16]
bl	__snprintf_chk
ldr	w1, [x29, -16]
add	w1, w1, 1
str	w1, [x29, -16]
bl	__snprintf_chk
ldr	w1, [x29, -16]
add	w1, w1, 1
str	w1, [x29, -16]
bl	__snprintf_chk
ldr	w1, [x29, -16]
add	w1, w1, 1
str	w1, [x29, -16]
bl	__snprintf_chk
ldr	w1, [x29, -16]
add	w1, w1, 1
str	w1, [x29, -16]
bl	__snprintf_chk
ldr	w1, [x29, -16]
add	w1, w1, 1
str	w1, [x29, -16]
bl	__snprintf_chk
ldr	w1, [x29, -16]
add	w1, w1, 1
str	w1, [x29, -16]
bl	__snprintf_chk
ldr	w1, [x29, -16]
add	w1, w1, 1
str	w1, [x29, -16]
bl	__snprintf_chk
ldr	w1, [x29, -16]
add	w1, w1, 1
str	w1, [x29, -16]
bl	__snprintf_chk
ldr	w1, [x29, -16]
add	w1, w1, 1
str	w1, [x29, -16]
bl	__snprintf_chk
ldr	w1, [x29, -16]
add	w1, w1, 1
str	w1, [x29, -16]
bl	__snprintf_chk
ldr	w1, [x29, -16]
add	w1, w1, 1
str	w1, [x29, -16]
bl	__snprintf_chk
ldr	w1, [x29, -16]
add	w1, w1, 1
str	w1, [x29, -16]
bl	__snprintf_chk
ldr	w1, [x29, -16]
add	w1, w1, 1
str	w1, [x29, -16]
bl	__snprintf_chk
ldr	w1, [x29, -16]
add	w1, w1, 1
str	w1, [x29, -16]
bl	__snprintf_chk
ldr	w1, [x29, -16]
add	w1, w1, 1
str	w1, [x29, -16]
bl	__snprintf_chk
ldr	w1, [x29, -16]
add	w1, w1, 1
str	w1, [x29, -16]
bl	__snprintf_chk
ldr	w1, [x29, -16]
add	w1, w1, 1
str	w1, [x29, -16]
bl	__snprintf_chk
ldr	w1, [x29, -16]
add	w1, w1, 1
str	w1, [x29, -16]
bl	__snprintf_chk
ldr	w1, [x29, -16]
add	w1, w1, 1
str	w1, [x29, -16]
bl	__snprintf_chk
ldr	w1, [x29, -16]
add	w1, w1, 1
str	w1, [x29, -16]
bl	__snprintf_chk
ldr	w1, [x29, -16]
add	w1, w1, 1
str	w1, [x29, -16]
bl	__snprintf_chk
ldr	w1, [x29, -16]
add	w1, w1, 1
str	w1, [x29, -16]
bl	__snprintf_chk
ldr	w1, [x29, -16]
add	w1, w1, 1
str	w1, [x29, -16]
bl	__snprintf_chk
ldr	w1, [x29, -16]
add	w1, w1, 1
str	w1, [x29, -16]
bl	__snprintf_chk
ldr	w1, [x29, -16]
add	w1, w1, 1
str	w1, [x29, -16]
bl	__snprintf_chk
ldr	w1, [x29, -16]
add	w1, w1, 1
str	w1, [x29, -16]
bl	__snprintf_chk
ldr	w1, [x29, -16]
add	w1, w1, 1
str	w1, [x29, -16]
bl	__snprintf_chk
ldr	w1, [x29, -16]
add	w1, w1, 1
str	w1, [x29, -16]
bl	__snprintf_chk
ldr	w1, [x29, -16]
add	w1, w1, 1
str	w1, [x29, -16]
bl	__snprintf_chk
ldr	w1, [x29, -16]
add	w1, w1, 1
str	w1, [x29, -16]
bl	__snprintf_chk
ldr	w1, [x29, -16]
add	w1, w1, 1
str	w1, [x29, -16]
bl	__snprintf_chk
ldr	w1, [x29, -16]
add	w1, w1, 1
str	w1, [x29, -16]
bl	__snprintf_chk
ldr	w1, [x29, -16]
add	w1, w1, 1
str	w1, [x29, -16]
bl	__snprintf_chk
ldr	w1, [x29, -16]
add	w1, w1, 1
str	w1, [x29, -16]
bl	__snprintf_chk
ldr	w1, [x29, -16]
add	w1, w1, 1
str	w1, [x29, -16]
bl	__snprintf_chk
ldr	w1, [x29, -16]
add	w1, w1, 1
str	w1, [x29, -16]
bl	__snprintf_chk
ldr	w1, [x29, -16]
add	w1, w1, 1
str	w1, [x29, -16]
bl	__snprintf_chk
ldr	w1, [x29, -16]
add	w1, w1, 1
str	w1, [x29, -16]
bl	__snprintf_chk
ldr	w1, [x29, -16]
add	w1, w1, 1
str	w1, [x29, -16]
bl	__snprintf_chk
ldr	w1, [x29, -16]
add	w1, w1, 1
str	w1, [x29, -16]
bl	__snprintf_chk
ldr	w1, [x29, -16]
add	w1, w1, 1
str	w1, [x29, -16]
bl	__snprintf_chk
ldr	w1, [x29, -16]
add	w1, w1, 1
str	w1, [x29, -16]
bl	__snprintf_chk
ldr	w1, [x29, -16]
add	w1, w1, 1
str	w1, [x29, -16]
bl	__snprintf_chk
ldr	w1, [x29, -16]
add	w1, w1, 1
str	w1, [x29, -16]
bl	__snprintf_chk
ldr	w1, [x29, -16]
add	w1, w1, 1
str	w1, [x29, -16]
bl	__snprintf_chk
ldr	w1, [x29, -16]
add	w1, w1, 1
str	w1, [x29, -16]
bl	__snprintf_chk
ldr	w1, [x29, -16]
add	w1, w1, 1
str	w1, [x29, -16]
bl	__snprintf_chk
ldr	w1, [x29, -16]
add	w1, w1, 1
str	w1, [x29, -16]
bl	__snprintf_chk
ldr	w1, [x29, -16]
add	w1, w1, 1
str	w1, [x29, -16]
bl	__snprintf_chk
ldr	w1, [x29, -16]
add	w1, w1, 1
str	w1, [x29, -16]
bl	__snprintf_chk
ldr	w1, [x29, -16]
add	w1, w1, 1
str	w1, [x29, -16]
bl	__snprintf_chk
ldr	w1, [x29, -16]
add	w1, w1, 1
str	w1, [x29, -16]
bl	__snprintf_chk
ldr	w1, [x29, -16]
add	w1, w1, 1
str	w1, [x29, -16]
bl	__snprintf_chk
ldr	w1, [x29, -16]
add	w1, w1, 1
str	w1, [x29, -16]
bl	__snprintf_chk
ldr	w1, [x29, -16]
add	w1, w1, 1
str	w1, [x29, -16]
bl	__snprintf_chk
ldr	w1, [x29, -16]
add	w1, w1, 1
str	w1, [x29, -16]
bl	__snprintf_chk
ldr	w1, [x29, -16]
add	w1, w1, 1
str	w1, [x29, -16]
bl	__snprintf_chk
ldr	w1, [x29, -16]
add	w1, w1, 1
str	w1, [x29, -16]
bl	__snprintf_chk
ldr	w1, [x29, -16]
add	w1, w1, 1
str	w1, [x29, -16]
bl	__snprintf_chk
ldr	w1, [x29, -16]
add	w1, w1, 1
str	w1, [x29, -16]
bl	__snprintf_chk
ldr	w1, [x29, -16]
add	w1, w1, 1
str	w1, [x29, -16]
bl	__snprintf_chk
ldr	w1, [x29, -16]
add	w1, w1, 1
str	w1, [x29, -16]
bl	__snprintf_chk
ldr	w1, [x29, -16]
add	w1, w1, 1
str	w1, [x29, -16]
bl	__snprintf_chk
ldr	w1, [x29, -16]
add	w1, w1, 1
str	w1, [x29, -16]
bl	__snprintf_chk
ldr	w1, [x29, -16]
add	w1, w1, 1
str	w1, [x29, -16]
bl	__snprintf_chk
ldr	w1, [x29, -16]
add	w1, w1, 1
str	w1, [x29, -16]
bl	__snprintf_chk
ldr	w1, [x29, -16]
add	w1, w1, 1
str	w1, [x29, -16]
bl	__snprintf_chk
ldr	w1, [x29, -16]
add	w1, w1, 1
str	w1, [x29, -16]
bl	__snprintf_chk
ldr	w1, [x29, -16]
add	w1, w1, 1
str	w1, [x29, -16]
bl	__snprintf_chk
ldr	w1, [x29, -16]
add	w1, w1, 1
str	w1, [x29, -16]
bl	__snprintf_chk
ldr	w1, [x29, -16]
add	w1, w1, 1
str	w1, [x29, -16]
bl	__snprintf_chk
ldr	w1, [x29, -16]
add	w1, w1, 1
str	w1, [x29, -16]
bl	__snprintf_chk
ldr	w1, [x29, -16]
add	w1, w1, 1
str	w1, [x29, -16]
bl	__snprintf_chk
ldr	w1, [x29, -16]
add	w1, w1, 1
str	w1, [x29, -16]
bl	__snprintf_chk
ldr	w1, [x29, -16]
add	w1, w1, 1
str	w1, [x29, -16]
bl	__snprintf_chk
ldr	w1, [x29, -16]
add	w1, w1, 1
str	w1, [x29, -16]
bl	__snprintf_chk
ldr	w1, [x29, -16]
add	w1, w1, 1
str	w1, [x29, -16]
bl	__snprintf_chk
ldr	w1, [x29, -16]
add	w1, w1, 1
str	w1, [x29, -16]
bl	__snprintf_chk
ldr	w1, [x29, -16]
add	w1, w1, 1
str	w1, [x29, -16]
bl	__snprintf_chk
ldr	w1, [x29, -16]
add	w1, w1, 1
str	w1, [x29, -16]
bl	__snprintf_chk
ldr	w1, [x29, -16]
add	w1, w1, 1
str	w1, [x29, -16]
bl	__snprintf_chk
ldr	w1, [x29, -16]
add	w1, w1, 1
str	w1, [x29, -16]
bl	__snprintf_chk
ldr	w1, [x29, -16]
add	w1, w1, 1
str	w1, [x29, -16]
bl	__snprintf_chk
ldr	w1, [x29, -16]
add	w1, w1, 1
str	w1, [x29, -16]
bl	__snprintf_chk
ldr	w1, [x29, -16]
add	w1, w1, 1
str	w1, [x29, -16]
bl	__snprintf_chk
ldr	w1, [x29, -16]
add	w1, w1, 1
str	w1, [x29, -16]
bl	__snprintf_chk
ldr	w1, [x29, -16]
add	w1, w1, 1
str	w1, [x29, -16]
bl	__snprintf_chk
ldr	w1, [x29, -16]
add	w1, w1, 1
str	w1, [x29, -16]
bl	__snprintf_chk
ldr	w1, [x29, -16]
add	w1, w1, 1
str	w1, [x29, -16]
bl	__snprintf_chk
ldr	w1, [x29, -16]
add	w1, w1, 1
str	w1, [x29, -16]
bl	__snprintf_chk
ldr	w1, [x29, -16]
add	w1, w1, 1
str	w1, [x29, -16]
bl	__snprintf_chk
ldr	w1, [x29, -16]
add	w1, w1, 1
str	w1, [x29, -16]
bl	__snprintf_chk
ldr	w1, [x29, -16]
add	w1, w1, 1
str	w1, [x29, -16]
bl	__snprintf_chk
ldr	w1, [x29, -16]
add	w1, w1, 1
str	w1, [x29, -16]
bl	__snprintf_chk
ldr	w1, [x29, -16]
add	w1, w1, 1
str	w1, [x29, -16]
bl	__snprintf_chk
ldr	w1, [x29, -16]
add	w1, w1, 1
str	w1, [x29, -16]
bl	__snprintf_chk
ldr	w1, [x29, -16]
add	w1, w1, 1
str	w1, [x29, -16]
bl	__snprintf_chk
ldr	w1, [x29, -16]
add	w1, w1, 1
str	w1, [x29, -16]
bl	__snprintf_chk
ldr	w1, [x29, -16]
add	w1, w1, 1
str	w1, [x29, -16]
bl	__snprintf_chk
ldr	w1, [x29, -16]
add	w1, w1, 1
str	w1, [x29, -16]
bl	__snprintf_chk
ldr	w1, [x29, -16]
add	w1, w1, 1
str	w1, [x29, -16]
bl	__snprintf_chk
ldr	w1, [x29, -16]
add	w1, w1, 1
str	w1, [x29, -16]
bl	__snprintf_chk
ldr	w1, [x29, -16]
add	w1, w1, 1
str	w1, [x29, -16]
bl	__snprintf_chk
ldr	w1, [x29, -16]
add	w1, w1, 1
str	w1, [x29, -16]
bl	__snprintf_chk
ldr	w1, [x29, -16]
add	w1, w1, 1
str	w1, [x29, -16]
bl	__snprintf_chk
ldr	w1, [x29, -16]
add	w1, w1, 1
str	w1, [x29, -16]
bl	__snprintf_chk
ldr	w1, [x29, -16]
add	w1, w1, 1
str	w1, [x29, -16]
bl	__snprintf_chk
ldr	w1, [x29, -16]
add	w1, w1, 1
str	w1, [x29, -16]
bl	__snprintf_chk
ldr	w1, [x29, -16]
add	w1, w1, 1
str	w1, [x29, -16]
bl	__snprintf_chk
ldr	w1, [x29, -16]
add	w1, w1, 1
str	w1, [x29, -16]
bl	__snprintf_chk
ldr	w1, [x29, -16]
add	w1, w1, 1
str	w1, [x29, -16]
bl	__snprintf_chk
ldr	w1, [x29, -16]
add	w1, w1, 1
str	w1, [x29, -16]
bl	__snprintf_chk
ldr	w1, [x29, -16]
add	w1, w1, 1
str	w1, [x29, -16]
bl	__snprintf_chk
ldr	w1, [x29, -16]
add	w1, w1, 1
str	w1, [x29, -16]
bl	__snprintf_chk
ldr	w1, [x29, -16]
add	w1, w1, 1
str	w1, [x29, -16]
bl	__snprintf_chk
ldr	w1, [x29, -16]
add	w1, w1, 1
str	w1, [x29, -16]
bl	__snprintf_chk
ldr	w1, [x29, -16]
add	w1, w1, 1
str	w1, [x29, -16]
bl	__snprintf_chk
ldr	w1, [x29, -16]
add	w1, w1, 1
str	w1, [x29, -16]
bl	__snprintf_chk
ldr	w1, [x29, -16]
add	w1, w1, 1
str	w1, [x29, -16]
bl	__snprintf_chk
ldr	w1, [x29, -16]
add	w1, w1, 1
str	w1, [x29, -16]
bl	__snprintf_chk
ldr	w1, [x29, -16]
add	w1, w1, 1
str	w1, [x29, -16]
bl	__snprintf_chk
ldr	w1, [x29, -16]
add	w1, w1, 1
str	w1, [x29, -16]
bl	__snprintf_chk
ldr	w1, [x29, -16]
add	w1, w1, 1
str	w1, [x29, -16]
bl	__snprintf_chk
ldr	w1, [x29, -16]
add	w1, w1, 1
str	w1, [x29, -16]
bl	__snprintf_chk
ldr	w1, [x29, -16]
add	w1, w1, 1
str	w1, [x29, -16]
bl	__snprintf_chk
ldr	w1, [x29, -16]
add	w1, w1, 1
str	w1, [x29, -16]
bl	__snprintf_chk
ldr	w1, [x29, -16]
add	w1, w1, 1
str	w1, [x29, -16]
bl	__snprintf_chk
ldr	w1, [x29, -16]
add	w1, w1, 1
str	w1, [x29, -16]
bl	__snprintf_chk
ldr	w1, [x29, -16]
add	w1, w1, 1
str	w1, [x29, -16]
bl	__snprintf_chk
ldr	w1, [x29, -16]
add	w1, w1, 1
str	w1, [x29, -16]
bl	__snprintf_chk
ldr	w1, [x29, -16]
add	w1, w1, 1
str	w1, [x29, -16]
bl	__snprintf_chk
ldr	w1, [x29, -16]
add	w1, w1, 1
str	w1, [x29, -16]
bl	__snprintf_chk
ldr	w1, [x29, -16]
add	w1, w1, 1
str	w1, [x29, -16]
bl	__snprintf_chk
ldr	w1, [x29, -16]
add	w1, w1, 1
str	w1, [x29, -16]
bl	__snprintf_chk
ldr	w1, [x29, -16]
add	w1, w1, 1
str	w1, [x29, -16]
bl	__snprintf_chk
ldr	w1, [x29, -16]
add	w1, w1, 1
str	w1, [x29, -16]
bl	__snprintf_chk
ldr	w1, [x29, -16]
add	w1, w1, 1
str	w1, [x29, -16]
bl	__snprintf_chk
ldr	w1, [x29, -16]
add	w1, w1, 1
str	w1, [x29, -16]
bl	__snprintf_chk
ldr	w1, [x29, -16]
add	w1, w1, 1
str	w1, [x29, -16]
bl	__snprintf_chk
ldr	w1, [x29, -16]
add	w1, w1, 1
str	w1, [x29, -16]
bl	__snprintf_chk
ldr	w1, [x29, -16]
add	w1, w1, 1
str	w1, [x29, -16]
bl	__snprintf_chk
ldr	w1, [x29, -16]
add	w1, w1, 1
str	w1, [x29, -16]
bl	__snprintf_chk
ldr	w1, [x29, -16]
add	w1, w1, 1
str	w1, [x29, -16]
bl	__snprintf_chk
ldr	w1, [x29, -16]
add	w1, w1, 1
str	w1, [x29, -16]
bl	__snprintf_chk
ldr	w1, [x29, -16]
add	w1, w1, 1
str	w1, [x29, -16]
bl	__snprintf_chk
ldr	w1, [x29, -16]
add	w1, w1, 1
str	w1, [x29, -16]
bl	__snprintf_chk
ldr	w1, [x29, -16]
add	w1, w1, 1
str	w1, [x29, -16]
bl	__snprintf_chk
ldr	w1, [x29, -16]
add	w1, w1, 1
str	w1, [x29, -16]
bl	__snprintf_chk
ldr	w1, [x29, -16]
add	w1, w1, 1
str	w1, [x29, -16]
bl	__snprintf_chk
ldr	w1, [x29, -16]
add	w1, w1, 1
str	w1, [x29, -16]
bl	__snprintf_chk
ldr	w1, [x29, -16]
add	w1, w1, 1
str	w1, [x29, -16]
bl	__snprintf_chk
ldr	w1, [x29, -16]
add	w1, w1, 1
str	w1, [x29, -16]
bl	__snprintf_chk
ldr	w1, [x29, -16]
add	w1, w1, 1
str	w1, [x29, -16]
bl	__snprintf_chk
ldr	w1, [x29, -16]
add	w1, w1, 1
str	w1, [x29, -16]
bl	__snprintf_chk
ldr	w1, [x29, -16]
add	w1, w1, 1
str	w1, [x29, -16]
bl	__snprintf_chk
ldr	w1, [x29, -16]
add	w1, w1, 1
str	w1, [x29, -16]
bl	__snprintf_chk
ldr	w1, [x29, -16]
add	w1, w1, 1
str	w1, [x29, -16]
bl	__snprintf_chk
ldr	w1, [x29, -16]
add	w1, w1, 1
str	w1, [x29, -16]
bl	__snprintf_chk
ldr	w1, [x29, -16]
add	w1, w1, 1
str	w1, [x29, -16]
bl	__snprintf_chk
ldr	w1, [x29, -16]
add	w1, w1, 1
str	w1, [x29, -16]
bl	__snprintf_chk
ldr	w1, [x29, -16]
add	w1, w1, 1
str	w1, [x29, -16]
bl	__snprintf_chk
ldr	w1, [x29, -16]
add	w1, w1, 1
str	w1, [x29, -16]
bl	__snprintf_chk
ldr	w1, [x29, -16]
add	w1, w1, 1
str	w1, [x29, -16]
bl	__snprintf_chk
ldr	w1, [x29, -16]
add	w1, w1, 1
str	w1, [x29, -16]
bl	__snprintf_chk
ldr	w1, [x29, -16]
add	w1, w1, 1
str	w1, [x29, -16]
bl	__snprintf_chk
ldr	w1, [x29, -16]
add	w1, w1, 1
str	w1, [x29, -16]
bl	__snprintf_chk
ldr	w1, [x29, -16]
add	w1, w1, 1
str	w1, [x29, -16]
bl	__snprintf_chk
ldr	w1, [x29, -16]
add	w1, w1, 1
str	w1, [x29, -16]
bl	__snprintf_chk
ldr	w1, [x29, -16]
add	w1, w1, 1
str	w1, [x29, -16]
bl	__snprintf_chk
ldr	w1, [x29, -16]
add	w1, w1, 1
str	w1, [x29, -16]
bl	__snprintf_chk
ldr	w1, [x29, -16]
add	w1, w1, 1
str	w1, [x29, -16]
bl	__snprintf_chk
ldr	w1, [x29, -16]
add	w1, w1, 1
str	w1, [x29, -16]
bl	__snprintf_chk
ldr	w1, [x29, -16]
add	w1, w1, 1
str	w1, [x29, -16]
bl	__snprintf_chk
ldr	w1, [x29, -16]
add	w1, w1, 1
str	w1, [x29, -16]
bl	__snprintf_chk
ldr	w1, [x29, -16]
add	w1, w1, 1
str	w1, [x29, -16]
bl	__snprintf_chk
ldr	w1, [x29, -16]
add	w1, w1, 1
str	w1, [x29, -16]
bl	__snprintf_chk
ldr	w1, [x29, -16]
add	w1, w1, 1
str	w1, [x29, -16]
bl	__snprintf_chk
ldr	w1, [x29, -16]
add	w1, w1, 1
str	w1, [x29, -16]
bl	__snprintf_chk
ldr	w1, [x29, -16]
add	w1, w1, 1
str	w1, [x29, -16]
bl	__snprintf_chk
ldr	w1, [x29, -16]
add	w1, w1, 1
str	w1, [x29, -16]
bl	__snprintf_chk
ldr	w1, [x29, -16]
add	w1, w1, 1
str	w1, [x29, -16]
bl	__snprintf_chk
ldr	w1, [x29, -16]
add	w1, w1, 1
str	w1, [x29, -16]
bl	__snprintf_chk
ldr	w1, [x29, -16]
add	w1, w1, 1
str	w1, [x29, -16]
bl	__snprintf_chk
ldr	w1, [x29, -16]
add	w1, w1, 1
str	w1, [x29, -16]
bl	__snprintf_chk
ldr	w1, [x29, -16]
add	w1, w1, 1
str	w1, [x29, -16]
bl	__snprintf_chk
ldr	w1, [x29, -16]
add	w1, w1, 1
str	w1, [x29, -16]
bl	__snprintf_chk
ldr	w1, [x29, -16]
add	w1, w1, 1
str	w1, [x29, -16]
bl	__snprintf_chk
ldr	w1, [x29, -16]
add	w1, w1, 1
str	w1, [x29, -16]
bl	__snprintf_chk
ldr	w1, [x29, -16]
add	w1, w1, 1
str	w1, [x29, -16]
bl	__snprintf_chk
ldr	w1, [x29, -16]
add	w1, w1, 1
str	w1, [x29, -16]
bl	__snprintf_chk
ldr	w1, [x29, -16]
add	w1, w1, 1
str	w1, [x29, -16]
bl	__snprintf_chk
ldr	w1, [x29, -16]
add	w1, w1, 1
str	w1, [x29, -16]
bl	__snprintf_chk
ldr	w1, [x29, -16]
add	w1, w1, 1
str	w1, [x29, -16]
bl	__snprintf_chk
ldr	w1, [x29, -16]
add	w1, w1, 1
str	w1, [x29, -16]
bl	__snprintf_chk
ldr	w1, [x29, -16]
add	w1, w1, 1
str	w1, [x29, -16]
bl	__snprintf_chk
ldr	w1, [x29, -16]
add	w1, w1, 1
str	w1, [x29, -16]
bl	__snprintf_chk
ldr	w1, [x29, -16]
add	w1, w1, 1
str	w1, [x29, -16]
bl	__snprintf_chk
ldr	w1, [x29, -16]
add	w1, w1, 1
str	w1, [x29, -16]
bl	__snprintf_chk
ldr	w1, [x29, -16]
add	w1, w1, 1
str	w1, [x29, -16]
bl	__snprintf_chk
ldr	w1, [x29, -16]
add	w1, w1, 1
str	w1, [x29, -16]
bl	__snprintf_chk
ldr	w1, [x29, -16]
add	w1, w1, 1
str	w1, [x29, -16]
bl	__snprintf_chk
ldr	w1, [x29, -16]
add	w1, w1, 1
str	w1, [x29, -16]
bl	__snprintf_chk
ldr	w1, [x29, -16]
add	w1, w1, 1
str	w1, [x29, -16]
bl	__snprintf_chk
ldr	w1, [x29, -16]
add	w1, w1, 1
str	w1, [x29, -16]
bl	__snprintf_chk
ldr	w1, [x29, -16]
add	w1, w1, 1
str	w1, [x29, -16]
bl	__snprintf_chk
ldr	w1, [x29, -16]
add	w1, w1, 1
str	w1, [x29, -16]
bl	__snprintf_chk
ldr	w1, [x29, -16]
add	w1, w1, 1
str	w1, [x29, -16]
bl	__snprintf_chk
ldr	w1, [x29, -16]
add	w1, w1, 1
str	w1, [x29, -16]
bl	__snprintf_chk
ldr	w1, [x29, -16]
add	w1, w1, 1
str	w1, [x29, -16]
bl	__snprintf_chk
ldr	w1, [x29, -16]
add	w1, w1, 1
str	w1, [x29, -16]
bl	__snprintf_chk
ldr	w1, [x29, -16]
add	w1, w1, 1
str	w1, [x29, -16]
bl	__snprintf_chk
ldr	w1, [x29, -16]
add	w1, w1, 1
str	w1, [x29, -16]
bl	__snprintf_chk
ldr	w1, [x29, -16]
add	w1, w1, 1
str	w1, [x29, -16]
bl	__snprintf_chk
ldr	w1, [x29, -16]
add	w1, w1, 1
str	w1, [x29, -16]
bl	__snprintf_chk
ldr	w1, [x29, -16]
add	w1, w1, 1
str	w1, [x29, -16]
bl	__snprintf_chk
ldr	w1, [x29, -16]
add	w1, w1, 1
str	w1, [x29, -16]
bl	__snprintf_chk
ldr	w1, [x29, -16]
add	w1, w1, 1
str	w1, [x29, -16]
bl	__snprintf_chk
ldr	w1, [x29, -16]
add	w1, w1, 1
str	w1, [x29, -16]
bl	__snprintf_chk
ldr	w1, [x29, -16]
add	w1, w1, 1
str	w1, [x29, -16]
bl	__snprintf_chk
ldr	w1, [x29, -16]
add	w1, w1, 1
str	w1, [x29, -16]
bl	__snprintf_chk
ldr	w1, [x29, -16]
add	w1, w1, 1
str	w1, [x29, -16]
bl	__snprintf_chk
ldr	w1, [x29, -16]
add	w1, w1, 1
str	w1, [x29, -16]
bl	__snprintf_chk
ldr	w1, [x29, -16]
add	w1, w1, 1
str	w1, [x29, -16]
bl	__snprintf_chk
ldr	w1, [x29, -16]
add	w1, w1, 1
str	w1, [x29, -16]
bl	__snprintf_chk
ldr	w1, [x29, -16]
add	w1, w1, 1
str	w1, [x29, -16]
bl	__snprintf_chk
ldr	w1, [x29, -16]
add	w1, w1, 1
str	w1, [x29, -16]
bl	__snprintf_chk
ldr	w1, [x29, -16]
add	w1, w1, 1
str	w1, [x29, -16]
bl	__snprintf_chk
ldr	w1, [x29, -16]
add	w1, w1, 1
str	w1, [x29, -16]
bl	__snprintf_chk
ldr	w1, [x29, -16]
add	w1, w1, 1
str	w1, [x29, -16]
bl	__snprintf_chk
ldr	w1, [x29, -16]
add	w1, w1, 1
str	w1, [x29, -16]
bl	__snprintf_chk
ldr	w1, [x29, -16]
add	w1, w1, 1
str	w1, [x29, -16]
bl	__snprintf_chk
ldr	w1, [x29, -16]
add	w1, w1, 1
str	w1, [x29, -16]
bl	__snprintf_chk
ldr	w1, [x29, -16]
add	w1, w1, 1
str	w1, [x29, -16]
bl	__snprintf_chk
ldr	w1, [x29, -16]
add	w1, w1, 1
str	w1, [x29, -16]
bl	__snprintf_chk
ldr	w1, [x29, -16]
add	w1, w1, 1
str	w1, [x29, -16]
bl	__snprintf_chk
ldr	w1, [x29, -16]
add	w1, w1, 1
str	w1, [x29, -16]
bl	__snprintf_chk
ldr	w1, [x29, -16]
add	w1, w1, 1
str	w1, [x29, -16]
bl	__snprintf_chk
ldr	w1, [x29, -16]
add	w1, w1, 1
str	w1, [x29, -16]
bl	__snprintf_chk
ldr	w1, [x29, -16]
add	w1, w1, 1
str	w1, [x29, -16]
bl	__snprintf_chk
ldr	w1, [x29, -16]
add	w1, w1, 1
str	w1, [x29, -16]
bl	__snprintf_chk
ldr	w1, [x29, -16]
add	w1, w1, 1
str	w1, [x29, -16]
bl	__snprintf_chk
ldr	w1, [x29, -16]
add	w1, w1, 1
str	w1, [x29, -16]
bl	__snprintf_chk
ldr	w1, [x29, -16]
add	w1, w1, 1
str	w1, [x29, -16]
bl	__snprintf_chk
ldr	w1, [x29, -16]
add	w1, w1, 1
str	w1, [x29, -16]
bl	__snprintf_chk
ldr	w1, [x29, -16]
add	w1, w1, 1
str	w1, [x29, -16]
bl	__snprintf_chk
ldr	w1, [x29, -16]
add	w1, w1, 1
str	w1, [x29, -16]
bl	__snprintf_chk
ldr	w1, [x29, -16]
add	w1, w1, 1
str	w1, [x29, -16]
bl	__snprintf_chk
ldr	w1, [x29, -16]
add	w1, w1, 1
str	w1, [x29, -16]
bl	__snprintf_chk
ldr	w1, [x29, -16]
add	w1, w1, 1
str	w1, [x29, -16]
bl	__snprintf_chk
ldr	w1, [x29, -16]
add	w1, w1, 1
str	w1, [x29, -16]
bl	__snprintf_chk
ldr	w1, [x29, -16]
add	w1, w1, 1
str	w1, [x29, -16]
bl	__snprintf_chk
ldr	w1, [x29, -16]
add	w1, w1, 1
str	w1, [x29, -16]
bl	__snprintf_chk
ldr	w1, [x29, -16]
add	w1, w1, 1
str	w1, [x29, -16]
bl	__snprintf_chk
ldr	w1, [x29, -16]
add	w1, w1, 1
str	w1, [x29, -16]
bl	__snprintf_chk
ldr	w1, [x29, -16]
add	w1, w1, 1
str	w1, [x29, -16]
bl	__snprintf_chk
ldr	w1, [x29, -16]
add	w1, w1, 1
str	w1, [x29, -16]
bl	__snprintf_chk
ldr	w1, [x29, -16]
add	w1, w1, 1
str	w1, [x29, -16]
bl	__snprintf_chk
ldr	w1, [x29, -16]
add	w1, w1, 1
str	w1, [x29, -16]
bl	__snprintf_chk
ldr	w1, [x29, -16]
add	w1, w1, 1
str	w1, [x29, -16]
bl	__snprintf_chk
ldr	w1, [x29, -16]
add	w1, w1, 1
str	w1, [x29, -16]
bl	__snprintf_chk
ldr	w1, [x29, -16]
add	w1, w1, 1
str	w1, [x29, -16]
bl	__snprintf_chk
ldr	w1, [x29, -16]
add	w1, w1, 1
str	w1, [x29, -16]
bl	__snprintf_chk
ldr	w1, [x29, -16]
add	w1, w1, 1
str	w1, [x29, -16]
bl	__snprintf_chk
ldr	w1, [x29, -16]
add	w1, w1, 1
str	w1, [x29, -16]
bl	__snprintf_chk
ldr	w1, [x29, -16]
add	w1, w1, 1
str	w1, [x29, -16]
bl	__snprintf_chk
ldr	w1, [x29, -16]
add	w1, w1, 1
str	w1, [x29, -16]
bl	__snprintf_chk
ldr	w1, [x29, -16]
add	w1, w1, 1
str	w1, [x29, -16]
bl	__snprintf_chk
ldr	w1, [x29, -16]
add	w1, w1, 1
str	w1, [x29, -16]
bl	__snprintf_chk
ldr	w1, [x29, -16]
add	w1, w1, 1
str	w1, [x29, -16]
bl	__snprintf_chk
ldr	w1, [x29, -16]
add	w1, w1, 1
str	w1, [x29, -16]
bl	__snprintf_chk
ldr	w1, [x29, -16]
add	w1, w1, 1
str	w1, [x29, -16]
bl	__snprintf_chk
ldr	w1, [x29, -16]
add	w1, w1, 1
str	w1, [x29, -16]
bl	__snprintf_chk
ldr	w1, [x29, -16]
add	w1, w1, 1
str	w1, [x29, -16]
bl	__snprintf_chk
ldr	w1, [x29, -16]
add	w1, w1, 1
str	w1, [x29, -16]
bl	__snprintf_chk
ldr	w1, [x29, -16]
add	w1, w1, 1
str	w1, [x29, -16]
bl	__snprintf_chk
ldr	w1, [x29, -16]
add	w1, w1, 1
str	w1, [x29, -16]
bl	__snprintf_chk
ldr	w1, [x29, -16]
add	w1, w1, 1
str	w1, [x29, -16]
bl	__snprintf_chk
ldr	w1, [x29, -16]
add	w1, w1, 1
str	w1, [x29, -16]
bl	__snprintf_chk
ldr	w1, [x29, -16]
add	w1, w1, 1
str	w1, [x29, -16]
bl	__snprintf_chk
ldr	w1, [x29, -16]
add	w1, w1, 1
str	w1, [x29, -16]
bl	__snprintf_chk
ldr	w1, [x29, -16]
add	w1, w1, 1
str	w1, [x29, -16]
bl	__snprintf_chk
ldr	w1, [x29, -16]
add	w1, w1, 1
str	w1, [x29, -16]
bl	__snprintf_chk
ldr	w1, [x29, -16]
add	w1, w1, 1
str	w1, [x29, -16]
bl	__snprintf_chk
ldr	w1, [x29, -16]
add	w1, w1, 1
str	w1, [x29, -16]
bl	__snprintf_chk
ldr	w1, [x29, -16]
add	w1, w1, 1
str	w1, [x29, -16]
bl	__snprintf_chk
ldr	w1, [x29, -16]
add	w1, w1, 1
str	w1, [x29, -16]
bl	__snprintf_chk
ldr	w1, [x29, -16]
add	w1, w1, 1
str	w1, [x29, -16]
bl	__snprintf_chk
ldr	w1, [x29, -16]
add	w1, w1, 1
str	w1, [x29, -16]
bl	__snprintf_chk
ldr	w1, [x29, -16]
add	w1, w1, 1
str	w1, [x29, -16]
bl	__snprintf_chk
ldr	w1, [x29, -16]
add	w1, w1, 1
str	w1, [x29, -16]
bl	__snprintf_chk
ldr	w1, [x29, -16]
add	w1, w1, 1
str	w1, [x29, -16]
bl	__snprintf_chk
ldr	w1, [x29, -16]
add	w1, w1, 1
str	w1, [x29, -16]
bl	__snprintf_chk
ldr	w1, [x29, -16]
add	w1, w1, 1
str	w1, [x29, -16]
bl	__snprintf_chk
ldr	w1, [x29, -16]
add	w1, w1, 1
str	w1, [x29, -16]
bl	__snprintf_chk
ldr	w1, [x29, -16]
add	w1, w1, 1
str	w1, [x29, -16]
bl	__snprintf_chk
ldr	w1, [x29, -16]
add	w1, w1, 1
str	w1, [x29, -16]
bl	__snprintf_chk
ldr	w1, [x29, -16]
add	w1, w1, 1
str	w1, [x29, -16]
bl	__snprintf_chk
ldr	w1, [x29, -16]
add	w1, w1, 1
str	w1, [x29, -16]
bl	__snprintf_chk
ldr	w1, [x29, -16]
add	w1, w1, 1
str	w1, [x29, -16]
bl	__snprintf_chk
ldr	w1, [x29, -16]
add	w1, w1, 1
str	w1, [x29, -16]
bl	__snprintf_chk
ldr	w1, [x29, -16]
add	w1, w1, 1
str	w1, [x29, -16]
bl	__snprintf_chk
ldr	w1, [x29, -16]
add	w1, w1, 1
str	w1, [x29, -16]
bl	__snprintf_chk
ldr	w1, [x29, -16]
add	w1, w1, 1
str	w1, [x29, -16]
bl	__snprintf_chk
ldr	w1, [x29, -16]
add	w1, w1, 1
str	w1, [x29, -16]
bl	__snprintf_chk
ldr	w1, [x29, -16]
add	w1, w1, 1
str	w1, [x29, -16]
bl	__snprintf_chk
ldr	w1, [x29, -16]
add	w1, w1, 1
str	w1, [x29, -16]
bl	__snprintf_chk
ldr	w1, [x29, -16]
add	w1, w1, 1
str	w1, [x29, -16]
bl	__snprintf_chk
ldr	w1, [x29, -16]
add	w1, w1, 1
str	w1, [x29, -16]
bl	__snprintf_chk
ldr	w1, [x29, -16]
add	w1, w1, 1
str	w1, [x29, -16]
bl	__snprintf_chk
ldr	w1, [x29, -16]
add	w1, w1, 1
str	w1, [x29, -16]
bl	__snprintf_chk
ldr	w1, [x29, -16]
add	w1, w1, 1
str	w1, [x29, -16]
bl	__snprintf_chk
ldr	w1, [x29, -16]
add	w1, w1, 1
str	w1, [x29, -16]
bl	__snprintf_chk
ldr	w1, [x29, -16]
add	w1, w1, 1
str	w1, [x29, -16]
bl	__snprintf_chk
ldr	w1, [x29, -16]
add	w1, w1, 1
str	w1, [x29, -16]
bl	__snprintf_chk
ldr	w1, [x29, -16]
add	w1, w1, 1
str	w1, [x29, -16]
bl	__snprintf_chk
ldr	w1, [x29, -16]
add	w1, w1, 1
str	w1, [x29, -16]
bl	__snprintf_chk
ldr	w1, [x29, -16]
add	w1, w1, 1
str	w1, [x29, -16]
bl	__snprintf_chk
ldr	w1, [x29, -16]
add	w1, w1, 1
str	w1, [x29, -16]
bl	__snprintf_chk
ldr	w1, [x29, -16]
add	w1, w1, 1
str	w1, [x29, -16]
bl	__snprintf_chk
ldr	w1, [x29, -16]
add	w1, w1, 1
str	w1, [x29, -16]
bl	__snprintf_chk
ldr	w1, [x29, -16]
add	w1, w1, 1
str	w1, [x29, -16]
bl	__snprintf_chk
ldr	w1, [x29, -16]
add	w1, w1, 1
str	w1, [x29, -16]
bl	__snprintf_chk
ldr	w1, [x29, -16]
add	w1, w1, 1
str	w1, [x29, -16]
bl	__snprintf_chk
ldr	w1, [x29, -16]
add	w1, w1, 1
str	w1, [x29, -16]
bl	__snprintf_chk
ldr	w1, [x29, -16]
add	w1, w1, 1
str	w1, [x29, -16]
bl	__snprintf_chk
ldr	w1, [x29, -16]
add	w1, w1, 1
str	w1, [x29, -16]
bl	__snprintf_chk
ldr	w1, [x29, -16]
add	w1, w1, 1
str	w1, [x29, -16]
bl	__snprintf_chk
ldr	w1, [x29, -16]
add	w1, w1, 1
str	w1, [x29, -16]
bl	__snprintf_chk
ldr	w1, [x29, -16]
add	w1, w1, 1
str	w1, [x29, -16]
bl	__snprintf_chk
ldr	w1, [x29, -16]
add	w1, w1, 1
str	w1, [x29, -16]
bl	__snprintf_chk
ldr	w1, [x29, -16]
add	w1, w1, 1
str	w1, [x29, -16]
bl	__snprintf_chk
ldr	w1, [x29, -16]
add	w1, w1, 1
str	w1, [x29, -16]
bl	__snprintf_chk
ldr	w1, [x29, -16]
add	w1, w1, 1
str	w1, [x29, -16]
bl	__snprintf_chk
ldr	w1, [x29, -16]
add	w1, w1, 1
str	w1, [x29, -16]
bl	__snprintf_chk
ldr	w1, [x29, -16]
add	w1, w1, 1
str	w1, [x29, -16]
bl	__snprintf_chk
ldr	w1, [x29, -16]
add	w1, w1, 1
str	w1, [x29, -16]
bl	__snprintf_chk
ldr	w1, [x29, -16]
add	w1, w1, 1
str	w1, [x29, -16]
bl	__snprintf_chk
ldr	w1, [x29, -16]
add	w1, w1, 1
str	w1, [x29, -16]
bl	__snprintf_chk
ldr	w1, [x29, -16]
add	w1, w1, 1
str	w1, [x29, -16]
bl	__snprintf_chk
ldr	w1, [x29, -16]
add	w1, w1, 1
str	w1, [x29, -16]
bl	__snprintf_chk
ldr	w1, [x29, -16]
add	w1, w1, 1
str	w1, [x29, -16]
bl	__snprintf_chk
ldr	w1, [x29, -16]
add	w1, w1, 1
str	w1, [x29, -16]
bl	__snprintf_chk
ldr	w1, [x29, -16]
add	w1, w1, 1
str	w1, [x29, -16]
bl	__snprintf_chk
ldr	w1, [x29, -16]
add	w1, w1, 1
str	w1, [x29, -16]
bl	__snprintf_chk
ldr	w1, [x29, -16]
add	w1, w1, 1
str	w1, [x29, -16]
bl	__snprintf_chk
ldr	w1, [x29, -16]
add	w1, w1, 1
str	w1, [x29, -16]
bl	__snprintf_chk
ldr	w1, [x29, -16]
add	w1, w1, 1
str	w1, [x29, -16]
bl	__snprintf_chk
ldr	w1, [x29, -16]
add	w1, w1, 1
str	w1, [x29, -16]
bl	__snprintf_chk
ldr	w1, [x29, -16]
add	w1, w1, 1
str	w1, [x29, -16]
bl	__snprintf_chk
ldr	w1, [x29, -16]
add	w1, w1, 1
str	w1, [x29, -16]
bl	__snprintf_chk
ldr	w1, [x29, -16]
add	w1, w1, 1
str	w1, [x29, -16]
bl	__snprintf_chk
ldr	w1, [x29, -16]
add	w1, w1, 1
str	w1, [x29, -16]
bl	__snprintf_chk
ldr	w1, [x29, -16]
add	w1, w1, 1
str	w1, [x29, -16]
bl	__snprintf_chk
ldr	w1, [x29, -16]
add	w1, w1, 1
str	w1, [x29, -16]
bl	__snprintf_chk
ldr	w1, [x29, -16]
add	w1, w1, 1
str	w1, [x29, -16]
bl	__snprintf_chk
ldr	w1, [x29, -16]
add	w1, w1, 1
str	w1, [x29, -16]
bl	__snprintf_chk
ldr	w1, [x29, -16]
add	w1, w1, 1
str	w1, [x29, -16]
bl	__snprintf_chk
ldr	w1, [x29, -16]
add	w1, w1, 1
str	w1, [x29, -16]
bl	__snprintf_chk
ldr	w1, [x29, -16]
add	w1, w1, 1
str	w1, [x29, -16]
bl	__snprintf_chk
ldr	w1, [x29, -16]
add	w1, w1, 1
str	w1, [x29, -16]
bl	__snprintf_chk
ldr	w1, [x29, -16]
add	w1, w1, 1
str	w1, [x29, -16]
bl	__snprintf_chk
ldr	w1, [x29, -16]
add	w1, w1, 1
str	w1, [x29, -16]
bl	__snprintf_chk
ldr	w1, [x29, -16]
add	w1, w1, 1
str	w1, [x29, -16]
bl	__snprintf_chk
ldr	w1, [x29, -16]
add	w1, w1, 1
str	w1, [x29, -16]
bl	__snprintf_chk
ldr	w1, [x29, -16]
add	w1, w1, 1
str	w1, [x29, -16]
bl	__snprintf_chk
ldr	w1, [x29, -16]
add	w1, w1, 1
str	w1, [x29, -16]
bl	__snprintf_chk
ldr	w1, [x29, -16]
add	w1, w1, 1
str	w1, [x29, -16]
bl	__snprintf_chk
ldr	w1, [x29, -16]
add	w1, w1, 1
str	w1, [x29, -16]
bl	__snprintf_chk
ldr	w1, [x29, -16]
add	w1, w1, 1
str	w1, [x29, -16]
bl	__snprintf_chk
ldr	w1, [x29, -16]
add	w1, w1, 1
str	w1, [x29, -16]
bl	__snprintf_chk
ldr	w1, [x29, -16]
add	w1, w1, 1
str	w1, [x29, -16]
bl	__snprintf_chk
ldr	w1, [x29, -16]
add	w1, w1, 1
str	w1, [x29, -16]
bl	__snprintf_chk
ldr	w1, [x29, -16]
add	w1, w1, 1
str	w1, [x29, -16]
bl	__snprintf_chk
ldr	w1, [x29, -16]
add	w1, w1, 1
str	w1, [x29, -16]
bl	__snprintf_chk
ldr	w1, [x29, -16]
add	w1, w1, 1
str	w1, [x29, -16]
bl	__snprintf_chk
ldr	w1, [x29, -16]
add	w1, w1, 1
str	w1, [x29, -16]
bl	__snprintf_chk
ldr	w1, [x29, -16]
add	w1, w1, 1
str	w1, [x29, -16]
bl	__snprintf_chk
ldr	w1, [x29, -16]
add	w1, w1, 1
str	w1, [x29, -16]
bl	__snprintf_chk
ldr	w1, [x29, -16]
add	w1, w1, 1
str	w1, [x29, -16]
bl	__snprintf_chk
ldr	w1, [x29, -16]
add	w1, w1, 1
str	w1, [x29, -16]
bl	__snprintf_chk
ldr	w1, [x29, -16]
add	w1, w1, 1
str	w1, [x29, -16]
bl	__snprintf_chk
ldr	w1, [x29, -16]
add	w1, w1, 1
str	w1, [x29, -16]
bl	__snprintf_chk
ldr	w1, [x29, -16]
add	w1, w1, 1
str	w1, [x29, -16]
bl	__snprintf_chk
ldr	w1, [x29, -16]
add	w1, w1, 1
str	w1, [x29, -16]
bl	__snprintf_chk
ldr	w1, [x29, -16]
add	w1, w1, 1
str	w1, [x29, -16]
bl	__snprintf_chk
ldr	w1, [x29, -16]
add	w1, w1, 1
str	w1, [x29, -16]
bl	__snprintf_chk
ldr	w1, [x29, -16]
add	w1, w1, 1
str	w1, [x29, -16]
bl	__snprintf_chk
ldr	w1, [x29, -16]
add	w1, w1, 1
str	w1, [x29, -16]
bl	__snprintf_chk
ldr	w1, [x29, -16]
add	w1, w1, 1
str	w1, [x29, -16]
bl	__snprintf_chk
ldr	w1, [x29, -16]
add	w1, w1, 1
str	w1, [x29, -16]
bl	__snprintf_chk
ldr	w1, [x29, -16]
add	w1, w1, 1
str	w1, [x29, -16]
bl	__snprintf_chk
ldr	w1, [x29, -16]
add	w1, w1, 1
str	w1, [x29, -16]
bl	__snprintf_chk
ldr	w1, [x29, -16]
add	w1, w1, 1
str	w1, [x29, -16]
bl	__snprintf_chk
ldr	w1, [x29, -16]
add	w1, w1, 1
str	w1, [x29, -16]
bl	__snprintf_chk
ldr	w1, [x29, -16]
add	w1, w1, 1
str	w1, [x29, -16]
bl	__snprintf_chk
ldr	w1, [x29, -16]
add	w1, w1, 1
str	w1, [x29, -16]
bl	__snprintf_chk
ldr	w1, [x29, -16]
add	w1, w1, 1
str	w1, [x29, -16]
bl	__snprintf_chk
ldr	w1, [x29, -16]
add	w1, w1, 1
str	w1, [x29, -16]
bl	__snprintf_chk
ldr	w1, [x29, -16]
add	w1, w1, 1
str	w1, [x29, -16]
bl	__snprintf_chk
ldr	w1, [x29, -16]
add	w1, w1, 1
str	w1, [x29, -16]
bl	__snprintf_chk
ldr	w1, [x29, -16]
add	w1, w1, 1
str	w1, [x29, -16]
bl	__snprintf_chk
ldr	w1, [x29, -16]
add	w1, w1, 1
str	w1, [x29, -16]
bl	__snprintf_chk
ldr	w1, [x29, -16]
add	w1, w1, 1
str	w1, [x29, -16]
bl	__snprintf_chk
ldr	w1, [x29, -16]
add	w1, w1, 1
str	w1, [x29, -16]
bl	__snprintf_chk
ldr	w1, [x29, -16]
add	w1, w1, 1
str	w1, [x29, -16]
bl	__snprintf_chk
ldr	w1, [x29, -16]
add	w1, w1, 1
str	w1, [x29, -16]
bl	__snprintf_chk
ldr	w1, [x29, -16]
add	w1, w1, 1
str	w1, [x29, -16]
bl	__snprintf_chk
ldr	w1, [x29, -16]
add	w1, w1, 1
str	w1, [x29, -16]
bl	__snprintf_chk
ldr	w1, [x29, -16]
add	w1, w1, 1
str	w1, [x29, -16]
bl	__snprintf_chk
ldr	w1, [x29, -16]
add	w1, w1, 1
str	w1, [x29, -16]
bl	__snprintf_chk
ldr	w1, [x29, -16]
add	w1, w1, 1
str	w1, [x29, -16]
bl	__snprintf_chk
ldr	w1, [x29, -16]
add	w1, w1, 1
str	w1, [x29, -16]
bl	__snprintf_chk
ldr	w1, [x29, -16]
add	w1, w1, 1
str	w1, [x29, -16]
bl	__snprintf_chk
ldr	w1, [x29, -16]
add	w1, w1, 1
str	w1, [x29, -16]
bl	__snprintf_chk
ldr	w1, [x29, -16]
add	w1, w1, 1
str	w1, [x29, -16]
bl	__snprintf_chk
ldr	w1, [x29, -16]
add	w1, w1, 1
str	w1, [x29, -16]
bl	__snprintf_chk
ldr	w1, [x29, -16]
add	w1, w1, 1
str	w1, [x29, -16]
bl	__snprintf_chk
ldr	w1, [x29, -16]
add	w1, w1, 1
str	w1, [x29, -16]
bl	__snprintf_chk
ldr	w1, [x29, -16]
add	w1, w1, 1
str	w1, [x29, -16]
bl	__snprintf_chk
ldr	w1, [x29, -16]
add	w1, w1, 1
str	w1, [x29, -16]
bl	__snprintf_chk
ldr	w1, [x29, -16]
add	w1, w1, 1
str	w1, [x29, -16]
bl	__snprintf_chk
ldr	w1, [x29, -16]
add	w1, w1, 1
str	w1, [x29, -16]
bl	__snprintf_chk
ldr	w1, [x29, -16]
add	w1, w1, 1
str	w1, [x29, -16]
bl	__snprintf_chk
ldr	w1, [x29, -16]
add	w1, w1, 1
str	w1, [x29, -16]
bl	__snprintf_chk
ldr	w1, [x29, -16]
add	w1, w1, 1
str	w1, [x29, -16]
bl	__snprintf_chk
ldr	w1, [x29, -16]
add	w1, w1, 1
str	w1, [x29, -16]
bl	__snprintf_chk
ldr	w1, [x29, -16]
add	w1, w1, 1
str	w1, [x29, -16]
bl	__snprintf_chk
ldr	w1, [x29, -16]
add	w1, w1, 1
str	w1, [x29, -16]
bl	__snprintf_chk
ldr	w1, [x29, -16]
add	w1, w1, 1
str	w1, [x29, -16]
bl	__snprintf_chk
ldr	w1, [x29, -16]
add	w1, w1, 1
str	w1, [x29, -16]
bl	__snprintf_chk
ldr	w1, [x29, -16]
add	w1, w1, 1
str	w1, [x29, -16]
bl	__snprintf_chk
ldr	w1, [x29, -16]
add	w1, w1, 1
str	w1, [x29, -16]
bl	__snprintf_chk
ldr	w1, [x29, -16]
add	w1, w1, 1
str	w1, [x29, -16]
bl	__snprintf_chk
ldr	w1, [x29, -16]
add	w1, w1, 1
str	w1, [x29, -16]
bl	__snprintf_chk
ldr	w1, [x29, -16]
add	w1, w1, 1
str	w1, [x29, -16]
bl	__snprintf_chk
ldr	w1, [x29, -16]
add	w1, w1, 1
str	w1, [x29, -16]
bl	__snprintf_chk
ldr	w1, [x29, -16]
add	w1, w1, 1
str	w1, [x29, -16]
bl	__snprintf_chk
ldr	w1, [x29, -16]
add	w1, w1, 1
str	w1, [x29, -16]
bl	__snprintf_chk
ldr	w1, [x29, -16]
add	w1, w1, 1
str	w1, [x29, -16]
bl	__snprintf_chk
ldr	w1, [x29, -16]
add	w1, w1, 1
str	w1, [x29, -16]
bl	__snprintf_chk
ldr	w1, [x29, -16]
add	w1, w1, 1
str	w1, [x29, -16]
bl	__snprintf_chk
ldr	w1, [x29, -16]
add	w1, w1, 1
str	w1, [x29, -16]
bl	__snprintf_chk
ldr	w1, [x29, -16]
add	w1, w1, 1
str	w1, [x29, -16]
bl	__snprintf_chk
ldr	w1, [x29, -16]
add	w1, w1, 1
str	w1, [x29, -16]
bl	__snprintf_chk
ldr	w1, [x29, -16]
add	w1, w1, 1
str	w1, [x29, -16]
bl	__snprintf_chk
ldr	w1, [x29, -16]
add	w1, w1, 1
str	w1, [x29, -16]
bl	__snprintf_chk
ldr	w1, [x29, -16]
add	w1, w1, 1
str	w1, [x29, -16]
bl	__snprintf_chk
ldr	w1, [x29, -16]
add	w1, w1, 1
str	w1, [x29, -16]
bl	__snprintf_chk
ldr	w1, [x29, -16]
add	w1, w1, 1
str	w1, [x29, -16]
bl	__snprintf_chk
ldr	w1, [x29, -16]
add	w1, w1, 1
str	w1, [x29, -16]
bl	__snprintf_chk
ldr	w1, [x29, -16]
add	w1, w1, 1
str	w1, [x29, -16]
bl	__snprintf_chk
ldr	w1, [x29, -16]
add	w1, w1, 1
str	w1, [x29, -16]
bl	__snprintf_chk
ldr	w1, [x29, -16]
add	w1, w1, 1
str	w1, [x29, -16]
bl	__snprintf_chk
ldr	w1, [x29, -16]
add	w1, w1, 1
str	w1, [x29, -16]
bl	__snprintf_chk
ldr	w1, [x29, -16]
add	w1, w1, 1
str	w1, [x29, -16]
bl	__snprintf_chk
ldr	w1, [x29, -16]
add	w1, w1, 1
str	w1, [x29, -16]
bl	__snprintf_chk
ldr	w1, [x29, -16]
add	w1, w1, 1
str	w1, [x29, -16]
bl	__snprintf_chk
ldr	w1, [x29, -16]
add	w1, w1, 1
str	w1, [x29, -16]
bl	__snprintf_chk
ldr	w1, [x29, -16]
add	w1, w1, 1
str	w1, [x29, -16]
bl	__snprintf_chk
ldr	w1, [x29, -16]
add	w1, w1, 1
str	w1, [x29, -16]
bl	__snprintf_chk
ldr	w1, [x29, -16]
add	w1, w1, 1
str	w1, [x29, -16]
bl	__snprintf_chk
ldr	w1, [x29, -16]
add	w1, w1, 1
str	w1, [x29, -16]
bl	__snprintf_chk
ldr	w1, [x29, -16]
add	w1, w1, 1
str	w1, [x29, -16]
bl	__snprintf_chk
ldr	w1, [x29, -16]
add	w1, w1, 1
str	w1, [x29, -16]
bl	__snprintf_chk
ldr	w1, [x29, -16]
add	w1, w1, 1
str	w1, [x29, -16]
bl	__snprintf_chk
ldr	w1, [x29, -16]
add	w1, w1, 1
str	w1, [x29, -16]
bl	__snprintf_chk
ldr	w1, [x29, -16]
add	w1, w1, 1
str	w1, [x29, -16]
bl	__snprintf_chk
ldr	w1, [x29, -16]
add	w1, w1, 1
str	w1, [x29, -16]
bl	__snprintf_chk
ldr	w1, [x29, -16]
add	w1, w1, 1
str	w1, [x29, -16]
bl	__snprintf_chk
ldr	w1, [x29, -16]
add	w1, w1, 1
str	w1, [x29, -16]
bl	__snprintf_chk
ldr	w1, [x29, -16]
add	w1, w1, 1
str	w1, [x29, -16]
bl	__snprintf_chk
ldr	w1, [x29, -16]
add	w1, w1, 1
str	w1, [x29, -16]
bl	__snprintf_chk
ldr	w1, [x29, -16]
add	w1, w1, 1
str	w1, [x29, -16]
bl	__snprintf_chk
ldr	w1, [x29, -16]
add	w1, w1, 1
str	w1, [x29, -16]
bl	__snprintf_chk
ldr	w1, [x29, -16]
add	w1, w1, 1
str	w1, [x29, -16]
bl	__snprintf_chk
ldr	w1, [x29, -16]
add	w1, w1, 1
str	w1, [x29, -16]
bl	__snprintf_chk
ldr	w1, [x29, -16]
add	w1, w1, 1
str	w1, [x29, -16]
bl	__snprintf_chk
ldr	w1, [x29, -16]
add	w1, w1, 1
str	w1, [x29, -16]
bl	__snprintf_chk
ldr	w1, [x29, -16]
add	w1, w1, 1
str	w1, [x29, -16]
bl	__snprintf_chk
ldr	w1, [x29, -16]
add	w1, w1, 1
str	w1, [x29, -16]
bl	__snprintf_chk
ldr	w1, [x29, -16]
add	w1, w1, 1
str	w1, [x29, -16]
bl	__snprintf_chk
ldr	w1, [x29, -16]
add	w1, w1, 1
str	w1, [x29, -16]
bl	__snprintf_chk
ldr	w1, [x29, -16]
add	w1, w1, 1
str	w1, [x29, -16]
bl	__snprintf_chk
ldr	w1, [x29, -16]
add	w1, w1, 1
str	w1, [x29, -16]
bl	__snprintf_chk
ldr	w1, [x29, -16]
add	w1, w1, 1
str	w1, [x29, -16]
bl	__snprintf_chk
ldr	w1, [x29, -16]
add	w1, w1, 1
str	w1, [x29, -16]
bl	__snprintf_chk
ldr	w1, [x29, -16]
add	w1, w1, 1
str	w1, [x29, -16]
bl	__snprintf_chk
ldr	w1, [x29, -16]
add	w1, w1, 1
str	w1, [x29, -16]
bl	__snprintf_chk
ldr	w1, [x29, -16]
add	w1, w1, 1
str	w1, [x29, -16]
bl	__snprintf_chk
ldr	w1, [x29, -16]
add	w1, w1, 1
str	w1, [x29, -16]
bl	__snprintf_chk
ldr	w1, [x29, -16]
add	w1, w1, 1
str	w1, [x29, -16]
bl	__snprintf_chk
ldr	w1, [x29, -16]
add	w1, w1, 1
str	w1, [x29, -16]
bl	__snprintf_chk
ldr	w1, [x29, -16]
add	w1, w1, 1
str	w1, [x29, -16]
bl	__snprintf_chk
ldr	w1, [x29, -16]
add	w1, w1, 1
str	w1, [x29, -16]
bl	__snprintf_chk
ldr	w1, [x29, -16]
add	w1, w1, 1
str	w1, [x29, -16]
bl	__snprintf_chk
ldr	w1, [x29, -16]
add	w1, w1, 1
str	w1, [x29, -16]
bl	__snprintf_chk
ldr	w1, [x29, -16]
add	w1, w1, 1
str	w1, [x29, -16]
bl	__snprintf_chk
ldr	w1, [x29, -16]
add	w1, w1, 1
str	w1, [x29, -16]
bl	__snprintf_chk
ldr	w1, [x29, -16]
add	w1, w1, 1
str	w1, [x29, -16]
bl	__snprintf_chk
ldr	w1, [x29, -16]
add	w1, w1, 1
str	w1, [x29, -16]
bl	__snprintf_chk
ldr	w1, [x29, -16]
add	w1, w1, 1
str	w1, [x29, -16]
bl	__snprintf_chk
ldr	w1, [x29, -16]
add	w1, w1, 1
str	w1, [x29, -16]
bl	__snprintf_chk
ldr	w1, [x29, -16]
add	w1, w1, 1
str	w1, [x29, -16]
bl	__snprintf_chk
ldr	w1, [x29, -16]
add	w1, w1, 1
str	w1, [x29, -16]
bl	__snprintf_chk
ldr	w1, [x29, -16]
add	w1, w1, 1
str	w1, [x29, -16]
bl	__snprintf_chk
ldr	w1, [x29, -16]
add	w1, w1, 1
str	w1, [x29, -16]
bl	__snprintf_chk
ldr	w1, [x29, -16]
add	w1, w1, 1
str	w1, [x29, -16]
bl	__snprintf_chk
ldr	w1, [x29, -16]
add	w1, w1, 1
str	w1, [x29, -16]
bl	__snprintf_chk
ldr	w1, [x29, -16]
add	w1, w1, 1
str	w1, [x29, -16]
bl	__snprintf_chk
ldr	w1, [x29, -16]
add	w1, w1, 1
str	w1, [x29, -16]
bl	__snprintf_chk
ldr	w1, [x29, -16]
add	w1, w1, 1
str	w1, [x29, -16]
bl	__snprintf_chk
ldr	w1, [x29, -16]
add	w1, w1, 1
str	w1, [x29, -16]
bl	__snprintf_chk
ldr	w1, [x29, -16]
add	w1, w1, 1
str	w1, [x29, -16]
bl	__snprintf_chk
ldr	w1, [x29, -16]
add	w1, w1, 1
str	w1, [x29, -16]
bl	__snprintf_chk
ldr	w1, [x29, -16]
add	w1, w1, 1
str	w1, [x29, -16]
bl	__snprintf_chk
ldr	w1, [x29, -16]
add	w1, w1, 1
str	w1, [x29, -16]
bl	__snprintf_chk
ldr	w1, [x29, -16]
add	w1, w1, 1
str	w1, [x29, -16]
bl	__snprintf_chk
ldr	w1, [x29, -16]
add	w1, w1, 1
str	w1, [x29, -16]
bl	__snprintf_chk
ldr	w1, [x29, -16]
add	w1, w1, 1
str	w1, [x29, -16]
bl	__snprintf_chk
ldr	w1, [x29, -16]
add	w1, w1, 1
str	w1, [x29, -16]
bl	__snprintf_chk
ldr	w1, [x29, -16]
add	w1, w1, 1
str	w1, [x29, -16]
bl	__snprintf_chk
ldr	w1, [x29, -16]
add	w1, w1, 1
str	w1, [x29, -16]
bl	__snprintf_chk
ldr	w1, [x29, -16]
add	w1, w1, 1
str	w1, [x29, -16]
bl	__snprintf_chk
ldr	w1, [x29, -16]
add	w1, w1, 1
str	w1, [x29, -16]
bl	__snprintf_chk
ldr	w1, [x29, -16]
add	w1, w1, 1
str	w1, [x29, -16]
bl	__snprintf_chk
ldr	w1, [x29, -16]
add	w1, w1, 1
str	w1, [x29, -16]
bl	__snprintf_chk
ldr	w1, [x29, -16]
add	w1, w1, 1
str	w1, [x29, -16]
bl	__snprintf_chk
ldr	w1, [x29, -16]
add	w1, w1, 1
str	w1, [x29, -16]
bl	__snprintf_chk
ldr	w1, [x29, -16]
add	w1, w1, 1
str	w1, [x29, -16]
bl	__snprintf_chk
ldr	w1, [x29, -16]
add	w1, w1, 1
str	w1, [x29, -16]
bl	__snprintf_chk
ldr	w1, [x29, -16]
add	w1, w1, 1
str	w1, [x29, -16]
bl	__snprintf_chk
ldr	w1, [x29, -16]
add	w1, w1, 1
str	w1, [x29, -16]
bl	__snprintf_chk
ldr	w1, [x29, -16]
add	w1, w1, 1
str	w1, [x29, -16]
bl	__snprintf_chk
ldr	w1, [x29, -16]
add	w1, w1, 1
str	w1, [x29, -16]
bl	__snprintf_chk
ldr	w1, [x29, -16]
add	w1, w1, 1
str	w1, [x29, -16]
bl	__snprintf_chk
ldr	w1, [x29, -16]
add	w1, w1, 1
str	w1, [x29, -16]
bl	__snprintf_chk
ldr	w1, [x29, -16]
add	w1, w1, 1
str	w1, [x29, -16]
bl	__snprintf_chk
ldr	w1, [x29, -16]
add	w1, w1, 1
str	w1, [x29, -16]
bl	__snprintf_chk
ldr	w1, [x29, -16]
add	w1, w1, 1
str	w1, [x29, -16]
bl	__snprintf_chk
ldr	w1, [x29, -16]
add	w1, w1, 1
str	w1, [x29, -16]
bl	__snprintf_chk
ldr	w1, [x29, -16]
add	w1, w1, 1
str	w1, [x29, -16]
bl	__snprintf_chk
ldr	w1, [x29, -16]
add	w1, w1, 1
str	w1, [x29, -16]
bl	__snprintf_chk
ldr	w1, [x29, -16]
add	w1, w1, 1
str	w1, [x29, -16]
bl	__snprintf_chk
ldr	w1, [x29, -16]
add	w1, w1, 1
str	w1, [x29, -16]
bl	__snprintf_chk
ldr	w1, [x29, -16]
add	w1, w1, 1
str	w1, [x29, -16]
bl	__snprintf_chk
ldr	w1, [x29, -16]
add	w1, w1, 1
str	w1, [x29, -16]
bl	__snprintf_chk
ldr	w1, [x29, -16]
add	w1, w1, 1
str	w1, [x29, -16]
bl	__snprintf_chk
ldr	w1, [x29, -16]
add	w1, w1, 1
str	w1, [x29, -16]
bl	__snprintf_chk
ldr	w1, [x29, -16]
add	w1, w1, 1
str	w1, [x29, -16]
bl	__snprintf_chk
ldr	w1, [x29, -16]
add	w1, w1, 1
str	w1, [x29, -16]
bl	__snprintf_chk
ldr	w1, [x29, -16]
add	w1, w1, 1
str	w1, [x29, -16]
bl	__snprintf_chk
ldr	w1, [x29, -16]
add	w1, w1, 1
str	w1, [x29, -16]
bl	__snprintf_chk
ldr	w1, [x29, -16]
add	w1, w1, 1
str	w1, [x29, -16]
bl	__snprintf_chk
ldr	w1, [x29, -16]
add	w1, w1, 1
str	w1, [x29, -16]
bl	__snprintf_chk
ldr	w1, [x29, -16]
add	w1, w1, 1
str	w1, [x29, -16]
bl	__snprintf_chk
ldr	w1, [x29, -16]
add	w1, w1, 1
str	w1, [x29, -16]
bl	__snprintf_chk
ldr	w1, [x29, -16]
add	w1, w1, 1
str	w1, [x29, -16]
bl	__snprintf_chk
ldr	w1, [x29, -16]
add	w1, w1, 1
str	w1, [x29, -16]
bl	__snprintf_chk
ldr	w1, [x29, -16]
add	w1, w1, 1
str	w1, [x29, -16]
bl	__snprintf_chk
ldr	w1, [x29, -16]
add	w1, w1, 1
str	w1, [x29, -16]
bl	__snprintf_chk
ldr	w1, [x29, -16]
add	w1, w1, 1
str	w1, [x29, -16]
bl	__snprintf_chk
ldr	w1, [x29, -16]
add	w1, w1, 1
str	w1, [x29, -16]
bl	__snprintf_chk
ldr	w1, [x29, -16]
add	w1, w1, 1
str	w1, [x29, -16]
bl	__snprintf_chk
ldr	w1, [x29, -16]
add	w1, w1, 1
str	w1, [x29, -16]
bl	__snprintf_chk
ldr	w1, [x29, -16]
add	w1, w1, 1
str	w1, [x29, -16]
bl	__snprintf_chk
ldr	w1, [x29, -16]
add	w1, w1, 1
str	w1, [x29, -16]
bl	__snprintf_chk
ldr	w1, [x29, -16]
add	w1, w1, 1
str	w1, [x29, -16]
bl	__snprintf_chk
ldr	w1, [x29, -16]
add	w1, w1, 1
str	w1, [x29, -16]
bl	__snprintf_chk
ldr	w1, [x29, -16]
add	w1, w1, 1
str	w1, [x29, -16]
bl	__snprintf_chk
ldr	w1, [x29, -16]
add	w1, w1, 1
str	w1, [x29, -16]
bl	__snprintf_chk
ldr	w1, [x29, -16]
add	w1, w1, 1
str	w1, [x29, -16]
bl	__snprintf_chk
ldr	w1, [x29, -16]
add	w1, w1, 1
str	w1, [x29, -16]
bl	__snprintf_chk
ldr	w1, [x29, -16]
add	w1, w1, 1
str	w1, [x29, -16]
bl	__snprintf_chk
ldr	w1, [x29, -16]
add	w1, w1, 1
str	w1, [x29, -16]
bl	__snprintf_chk
ldr	w1, [x29, -16]
add	w1, w1, 1
str	w1, [x29, -16]
bl	__snprintf_chk
ldr	w1, [x29, -16]
add	w1, w1, 1
str	w1, [x29, -16]
bl	__snprintf_chk
ldr	w1, [x29, -16]
add	w1, w1, 1
str	w1, [x29, -16]
bl	__snprintf_chk
ldr	w1, [x29, -16]
add	w1, w1, 1
str	w1, [x29, -16]
bl	__snprintf_chk
ldr	w1, [x29, -16]
add	w1, w1, 1
str	w1, [x29, -16]
bl	__snprintf_chk
ldr	w1, [x29, -16]