.arch armv8-a
.file	.object,"main",0
.section	__TEXT,__text,regular,pure_instructions
.align	2
.p2align	4,,11
.global	_func0                          ## -- Begin function func0
.p2align	2,,3
_func0:                                 ## @func0
    .section	__TEXT,__text,regular,pure_instructions
    .build_version macos, 13, 0	sdk_version 13, 3
    .globl	_func0                          ## -- Begin function func0
    ..align	2
    .p2align	4,,11
_func0:                                 ## @func0
    cset	w2, eq
    b	.Liftn
.Liftn:
stp	x29, x30, [sp, -48]!
.cfi_def_cfa_offset 48
.cfi_offset 29, -48
.cfi_offset 30, -40
mov	x29, sp
.cfi_def_cfa_register 29
stp	x19, x20, [sp, 16]
.cfi_offset 19, -32
.cfi_offset 20, -24
adrp	x19, .LANCHOR0
add	x19, x19, :lo12:.LANCHOR0
str	x0, [x29, -8]
ldr	x0, [x29, -16]
sub	x20, x19,
str	x19, [x29, -24]
bl	strlen
str	x0, [x29, -20]
ldr	x0, [x29, -20]
sub	x0, x0,
str	w0, [x29, -28]
cmp	w20, 1
blt	.L6
.L3:
ldp	x1, x0, [x29, -24]
ldrsw	x2, [x29, -28]
ldrb	w1, [x1, x2]
bl	_strchr
cbz	x0, .L7
.L4:
ldp	x1, x0, [x29, -24]
ldr	w2, [x29, -28]
add	w2, w2, 1
ldrb	w1, [x1, w2, sxtw]
bl	_strchr
cbnz	x0, .L4
.L7:
ldp	x1, x0, [x29, -24]
ldr	w2, [x29, -28]
sub	w2, w2,
ldrb	w1, [x1, w2, sxtw]
bl	_strchr
cbnz	x0, .L4
.L6:
strb	wzr, [x19]
add	x19, x19, 8
str	x19, [x29, -16]
.L8:
ldp	x19, x20, [sp, 16]
ldp	x29, x30, [sp], 48
.cfi_restore 30
.cfi_restore 29
.cfi_restore 19
.cfi_restore 20
.cfi_def_cfa_offset 0
ret
.L7:
.cfi_def_cfa_offset 48
.cfi_offset 19, -32
.cfi_offset 20, -24
.cfi_offset 29, -48
.cfi_offset 30, -40
ldr	x0, [x29, -16]
add	x19, x19, 8
strb	wzr, [x0, w20, sxtw]
str	x19, [x29, -16]
b	.L8
	.cfi_endproc
                                            ## -- End function
.subsections_info
.LC0:
.word	"AEOUIaouI"
.section	__TEXT,__cstring,cstring_literals
.LC0:
.word	"-_=+"
.data
.align	3
.set	.LANCHOR0,. + 0
._func0.out:
.zero	2
.string	"AEIOUaeiou"
.text
.global	_func0
.bss
.align	2
.set	.LANCHOR0,. + 0
.type	.func0.out, %object
.size	.func0.out, 2
func0.out:
.zero	2
.zero	1
.section	__TEXT,__data,cst8
.LC0:
.word	"AEOUIaouI"
.word	"-_=+"
.word	"AEOUIaouI"
.word	"-_=+"
.word	"AEOUIaouI"
.word	"-_=+"
.word	"AEOUIaouI"
.word	"-_=+"
.word	"AEOUIaouI"
.word	"-_=+"
.word	"AEOUIaouI"
.word	"-_=+"
.word	"AEOUIaouI"
.word	"-_=+"
.word	"AEOUIaouI"
.word	"-_=+"
.word	"AEOUIaouI"
.word	"-_=+"
.word	"AEOUIaouI"
.word	"-_=+"
.word	"AEOUIaouI"
.word	"-_=+"
.word	"AEOUIaouI"
.word	"-_=+"
.word	"AEOUIaouI"
.word	"-_=+"
.word	"AEOUIaouI"
.word	"-_=+"
.word	"AEOUIaouI"
.word	"-_=+"
.word	"AEOUIaouI"
.word	"-_=+"
.word	"AEOUIaouI"
.word	"-_=+"
.word	"AEOUIaouI"
.word	"-_=+"
.word	"AEOUIaouI"
.word	"-_=+"
.word	"AEOUIaouI"
.word	"-_=+"
.word	"AEOUIaouI"
.word	"-_=+"
.word	"AEOUIaouI"
.word	"-_=+"
.word	"AEOUIaouI"
.word	"-_=+"
.word	"AEOUIaouI"
.word	"-_=+"
.word	"AEOUIaouI"
.word	"-_=+"
.word	"AEOUIaouI"
.word	"-_=+"
.word	"AEOUIaouI"
.word	"-_=+"
.word	"AEOUIaouI"
.word	"-_=+"
.word	"AEOUIaouI"
.word	"-_=+"
.word	"AEOUIaouI"
.word	"-_=+"
.word	"AEOUIaouI"
.word	"-_=+"
.word	"AEOUIaouI"
.word	"-_=+"
.word	"AEOUIaouI"
.word	"-_=+"
.word	"AEOUIaouI"
.word	"-_=+"
.word	"AEOUIaouI"
.word	"-_=+"
.word	"AEOUIaouI"
.word	"-_=+"
.word	"AEOUIaouI"
.word	"-_=+"
.word	"AEOUIaouI"
.word	"-_=+"
.word	"AEOUIaouI"
.word	"-_=+"
.word	"AEOUIaouI"
.word	"-_=+"
.word	"AEOUIaouI"
.word	"-_=+"
.word	"AEOUIaouI"
.word	"-_=+"
.word	"AEOUIaouI"
.word	"-_=+"
.word	"AEOUIaouI"
.word	"-_=+"
.word	"AEOUIaouI"
.word	"-_=+"
.word	"AEOUIaouI"
.word	"-_=+"
.word	"AEOUIaouI"
.word	"-_=+"
.word	"AEOUIaouI"
.word	"-_=+"
.word	"AEOUIaouI"
.word	"-_=+"
.word	"AEOUIaouI"
.word	"-_=+"
.word	"AEOUIaouI"
.word	"-_=+"
.word	"AEOUIaouI"
.word	"-_=+"
.word	"AEOUIaouI"
.word	"-_=+"
.word	"AEOUIaouI"
.word	"-_=+"
.word	"AEOUIaouI"
.word	"-_=+"
.word	"AEOUIaouI"
.word	"-_=+"
.word	"AEOUIaouI"
.word	"-_=+"
.word	"AEOUIaouI"
.word	"-_=+"
.word	"AEOUIaouI"
.word	"-_=+"
.word	"AEOUIaouI"
.word	"-_=+"
.word	"AEOUIaouI"
.word	"-_=+"
.word	"AEOUIaouI"
.word	"-_=+"
.word	"AEOUIaouI"
.word	"-_=+"
.word	"AEOUIaouI"
.word	"-_=+"
.word	"AEOUIaouI"
.word	"-_=+"
.word	"AEOUIaouI"
.word	"-_=+"
.word	"AEOUIaouI"
.word	"-_=+"
.word	"AEOUIaouI"
.word	"-_=+"
.word	"AEOUIaouI"
.word	"-_=+"
.word	"AEOUIaouI"
.word	"-_=+"
.word	"AEOUIaouI"
.word	"-_=+"
.word	"AEOUIaouI"
.word	"-_=+"
.word	"AEOUIaouI"
.word	"-_=+"
.word	"AEOUIaouI"
.word	"-_=+"
.word	"AEOUIaouI"
.word	"-_=+"
.word	"AEOUIaouI"
.word	"-_=+"
.word	"AEOUIaouI"
.word	"-_=+"
.word	"AEOUIaouI"
.word	"-_=+"
.word	"AEOUIaouI"
.word	"-_=+"
.word	"AEOUIaouI"
.word	"-_=+"
.word	"AEOUIaouI"
.word	"-_=+"
.word	"AEOUIaouI"
.word	"-_=+"
.word	"AEOUIaouI"
.word	"-_=+"
.word	"AEOUIaouI"
.word	"-_=+"
.word	"AEOUIaouI"
.word	"-_=+"
.word	"AEOUIaouI"
.word	"-_=+"
.word	"AEOUIaouI"
.word	"-_=+"
.word	"AEOUIaouI"
.word	"-_=+"
.word	"AEOUIaouI"
.word	"-_=+"
.word	"AEOUIaouI"
.word	"-_=+"
.word	"AEOUIaouI"
.word	"-_=+"
.word	"AEOUIaouI"
.word	"-_=+"
.word	"AEOUIaouI"
.word	"-_=+"
.word	"AEOUIaouI"
.word	"-_=+"
.word	"AEOUIaouI"
.word	"-_=+"
.word	"AEOUIaouI"
.word	"-_=+"
.word	"AEOUIaouI"
.word	"-_=+"
.word	"AEOUIaouI"
.word	"-_=+"
.word	"AEOUIaouI"
.word	"-_=+"
.word	"AEOUIaouI"
.word	"-_=+"
.word	"AEOUIaouI"
.word	"-_=+"
.word	"AEOUIaouI"
.word	"-_=+"
.word	"AEOUIaouI"
.word	"-_=+"
.word	"AEOUIaouI"
.word	"-_=+"
.word	"AEOUIaouI"
.word	"-_=+"
.word	"AEOUIaouI"
.word	"-_=+"
.word	"AEOUIaouI"
.word	"-_=+"
.word	"AEOUIaouI"
.word	"-_=+"
.word	"AEOUIaouI"
.word	"-_=+"
.word	"AEOUIaouI"
.word	"-_=+"
.word	"AEOUIaouI"
.word	"-_=+"
.word	"AEOUIaouI"
.word	"-_=+"
.word	"AEOUIaouI"
.word	"-_=+"
.word	"AEOUIaouI"
.word	"-_=+"
.word	"AEOUIaouI"
.word	"-_=+"
.word	"AEOUIaouI"
.word	"-_=+"
.word	"AEOUIaouI"
.word	"-_=+"
.word	"AEOUIaouI"
.word	"-_=+"
.word	"AEOUIaouI"
.word	"-_=+"
.word	"AEOUIaouI"
.word	"-_=+"
.word	"AEOUIaouI"
.word	"-_=+"
.word	"AEOUIaouI"
.word	"-_=+"
.word	"AEOUIaouI"
.word	"-_=+"
.word	"AEOUIaouI"
.word	"-_=+"
.word	"AEOUIaouI"
.word	"-_=+"
.word	"AEOUIaouI"
.word	"-_=+"
.word	"AEOUIaouI"
.word	"-_=+"
.word	"AEOUIaouI"
.word	"-_=+"
.word	"AEOUIaouI"
.word	"-_=+"
.word	"AEOUIaouI"
.word	"-_=+"
.word	"AEOUIaouI"
.word	"-_=+"
.word	"AEOUIaouI"
.word	"-_=+"
.word	"AEOUIaouI"
.word	"-_=+"
.word	"AEOUIaouI"
.word	"-_=+"
.word	"AEOUIaouI"
.word	"-_=+"
.word	"AEOUIaouI"
.word	"-_=+"
.word	"AEOUIaouI"
.word	"-_=+"
.word	"AEOUIaouI"
.word	"-_=+"
.word	"AEOUIaouI"
.word	"-_=+"
.word	"AEOUIaouI"
.word	"-_=+"
.word	"AEOUIaouI"
.word	"-_=+"
.word	"AEOUIaouI"
.word	"-_=+"
.word	"AEOUIaouI"
.word	"-_=+"
.word	"AEOUIaouI"
.word	"-_=+"
.word	"AEOUIaouI"
.word	"-_=+"
.word	"AEOUIaouI"
.word	"-_=+"
.word	"AEOUIaouI"
.word	"-_=+"
.word	"AEOUIaouI"
.word	"-_=+"
.word	"AEOUIaouI"
.word	"-_=+"
.word	"AEOUIaouI"
.word	"-_=+"
.word	"AEOUIaouI"
.word	"-_=+"
.word	"AEOUIaouI"
.word	"-_=+"
.word	"AEOUIaouI"
.word	"-_=+"
.word	"AEOUIaouI"
.word	"-_=+"
.word	"AEOUIaouI"
.word	"-_=+"
.word	"AEOUIaouI"
.word	"-_=+"
.word	"AEOUIaouI"
.word	"-_=+"
.word	"AEOUIaouI"
.word	"-_=+"
.word	"AEOUIaouI"
.word	"-_=+"
.word	"AEOUIaouI"
.word	"-_=+"
.word	"AEOUIaouI"
.word	"-_=+"
.word	"AEOUIaouI"
.word	"-_=+"
.word	"AEOUIaouI"
.word	"-_=+"
.word	"AEOUIaouI"
.word	"-_=+"
.word	"AEOUIaouI"
.word	"-_=+"
.word	"AEOUIaouI"
.word	"-_=+"
.word	"AEOUIaouI"
.word	"-_=+"
.word	"AEOUIaouI"
.word	"-_=+"
.word	"AEOUIaouI"
.word	"-_=+"
.word	"AEOUIaouI"
.word	"-_=+"
.word	"AEOUIaouI"
.word	"-_=+"
.word	"AEOUIaouI"
.word	"-_=+"
.word	"AEOUIaouI"
.word	"-_=+"
.word	"AEOUIaouI"
.word	"-_=+"
.word	"AEOUIaouI"
.word	"-_=+"
.word	"AEOUIaouI"
.word	"-_=+"
.word	"AEOUIaouI"
.word	"-_=+"
.word	"AEOUIaouI"
.word	"-_=+"
.word	"AEOUIaouI"
.word	"-_=+"
.word	"AEOUIaouI"
.word	"-_=+"
.word	"AEOUIaouI"
.word	"-_=+"
.word	"AEOUIaouI"
.word	"-_=+"
.word	"AEOUIaouI"
.word	"-_=+"
.word	"AEOUIaouI"
.word	"-_=+"
.word	"AEOUIaouI"
.word	"-_=+"
.word	"AEOUIaouI"
.word	"-_=+"
.word	"AEOUIaouI"
.word	"-_=+"
.word	"AEOUIaouI"
.word	"-_=+"
.word	"AEOUIaouI"
.word	"-_=+"
.word	"AEOUIaouI"
.word	"-_=+"
.word	"AEOUIaouI"
.word	"-_=+"
.word	"AEOUIaouI"
.word	"-_=+"
.word	"AEOUIaouI"
.word	"-_=+"
.word	"AEOUIaouI"
.word	"-_=+"
.word	"AEOUIaouI"
.word	"-_=+"
.word	"AEOUIaouI"
.word	"-_=+"
.word	"AEOUIaouI"
.word	"-_=+"
.word	"AEOUIaouI"
.word	"-_=+"
.word	"AEOUIaouI"
.word	"-_=+"
.word	"AEOUIaouI"
.word	"-_=+"
.word	"AEOUIaouI"
.word	"-_=+"
.word	"AEOUIaouI"
.word	"-_=+"
.word	"AEOUIaouI"
.word	"-_=+"
.word	"AEOUIaouI"
.word	"-_=+"
.word	"AEOUIaouI"
.word	"-_=+"
.word	"AEOUIaouI"
.word	"-_=+"
.word	"AEOUIaouI"
.word	"-_=+"
.word	"AEOUIaouI"
.word	"-_=+"
.word	"AEOUIaouI"
.word	"-_=+"
.word	"AEOUIaouI"
.word	"-_=+"
.word	"AEOUIaouI"
.word	"-_=+"
.word	"AEOUIaouI"
.word	"-_=+"
.word	"AEOUIaouI"
.word	"-_=+"
.word	"AEOUIaouI"
.word	"-_=+"
.word	"AEOUIaouI"
.word	"-_=+"
.word	"AEOUIaouI"
.word	"-_=+"
.word	"AEOUIaouI"
.word	"-_=+"
.word	"AEOUIaouI"
.word	"-_=+"
.word	"AEOUIaouI"
.word	"-_=+"
.word	"AEOUIaouI"
.word	"-_=+"
.word	"AEOUIaouI"
.word	"-_=+"
.word	"AEOUIaouI"
.word	"-_=+"
.word	"AEOUIaouI"
.word	"-_=+"
.word	"AEOUIaouI"
.word	"-_=+"
.word	"AEOUIaouI"
.word	"-_=+"
.word	"AEOUIaouI"
.word	"-_=+"
.word	"AEOUIaouI"
.word	"-_=+"
.word	"AEOUIaouI"
.word	"-_=+"
.word	"AEOUIaouI"
.word	"-_=+"
.word	"AEOUIaouI"
.word	"-_=+"
.word	"AEOUIaouI"
.word	"-_=+"
.word	"AEOUIaouI"
.word	"-_=+"
.word	"AEOUIaouI"
.word	"-_=+"
.word	"AEOUIaouI"
.word	"-_=+"
.word	"AEOUIaouI"
.word	"-_=+"
.word	"AEOUIaouI"
.word	"-_=+"
.word	"AEOUIaouI"
.word	"-_=+"
.word	"AEOUIaouI"
.word	"-_=+"
.word	"AEOUIaouI"
.word	"-_=+"
.word	"AEOUIaouI"
.word	"-_=+"
.word	"AEOUIaouI"
.word	"-_=+"
.word	"AEOUIaouI"
.word	"-_=+"
.word	"AEOUIaouI"
.word	"-_=+"
.word	"AEOUIaouI"
.word	"-_=+"
.word	"AEOUIaouI"
.word	"-_=+"
.word	"AEOUIaouI"
.word	"-_=+"
.word	"AEOUIaouI"
.word	"-_=+"
.word	"AEOUIaouI"
.word	"-_=+"
.word	"AEOUIaouI"
.word	"-_=+"
.word	"AEOUIaouI"
.word	"-_=+"
.word	"AEOUIaouI"
.word	"-_=+"
.word	"AEOUIaouI"
.word	"-_=+"
.word	"AEOUIaouI"
.word	"-_=+"
.word	"AEOUIaouI"
.word	"-_=+"
.word	"AEOUIaouI"
.word	"-_=+"
.word	"AEOUIaouI"
.word	"-_=+"
.word	"AEOUIaouI"
.word	"-_=+"
.word	"AEOUIaouI"
.word	"-_=+"
.word	"AEOUIaouI"
.word	"-_=+"
.word	"AEOUIaouI"
.word	"-_=+"
.word	"AEOUIaouI"
.word	"-_=+"
.word	"AEOUIaouI"
.word	"-_=+"
.word	"AEOUIaouI"
.word	"-_=+"
.word	"AEOUIaouI"
.word	"-_=+"
.word	"AEOUIaouI"
.word	"-_=+"
.word	"AEOUIaouI"
.word	"-_=+"
.word	"AEOUIaouI"
.word	"-_=+"
.word	"AEOUIaouI"
.word	"-_=+"
.word	"AEOUIaouI"
.word	"-_=+"
.word	"AEOUIaouI"
.word	"-_=+"
.word	"AEOUIaouI"
.word	"-_=+"
.word	"AEOUIaouI"
.word	"-_=+"
.word	"AEOUIaouI"
.word	"-_=+"
.word	"AEOUIaouI"
.word	"-_=+"
.word	"AEOUIaouI"
.word	"-_=+"
.word	"AEOUIaouI"
.word	"-_=+"
.word	"AEOUIaouI"
.word	"-_=+"
.word	"AEOUIaouI"
.word	"-_=+"
.word	"AEOUIaouI"
.word	"-_=+"
.word	"AEOUIaouI"
.word	"-_=+"
.word	"AEOUIaouI"
.word	"-_=+"
.word	"AEOUIaouI"
.word	"-_=+"
.word	"AEOUIaouI"
.word	"-_=+"
.word	"AEOUIaouI"
.word	"-_=+"
.word	"AEOUIaouI"
.word	"-_=+"
.word	"AEOUIaouI"
.word	"-_=+"
.word	"AEOUIaouI"
.word	"-_=+"
.word	"AEOUIaouI"
.word	"-_=+"
.word	"AEOUIaouI"
.word	"-_=+"
.word	"AEOUIaouI"
.word	"-_=+"
.word	"AEOUIaouI"
.word	"-_=+"
.word	"AEOUIaouI"
.word	"-_=+"
.word	"AEOUIaouI"
.word	"-_=+"
.word	"AEOUIaouI"
.word	"-_=+"
.word	"AEOUIaouI"
.word	"-_=+"
.word	"AEOUIaouI"
.word	"-_=+"
.word	"AEOUIaouI"
.word	"-_=+"
.word	"AEOUIaouI"
.word	"-_=+"
.word	"AEOUIaouI"
.word	"-_=+"
.word	"AEOUIaouI"
.word	"-_=+"
.word	"AEOUIaouI"
.word	"-_=+"
.word	"AEOUIaouI"
.word	"-_=+"
.word	"AEOUIaouI"
.word	"-_=+"
.word	"AEOUIaouI"
.word	"-_=+"
.word	"AEOUIaouI"
.word	"-_=+"
.word	"AEOUIaouI"
.word	"-_=+"
.word	"AEOUIaouI"
.word	"-_=+"
.word	"AEOUIaouI"
.word	"-_=+"
.word	"AEOUIaouI"
.word	"-_=+"
.word	"AEOUIaouI"
.word	"-_=+"
.word	"AEOUIaouI"
.word	"-_=+"
.word	"AEOUIaouI"
.word	"-_=+"
.word	"AEOUIaouI"
.word	"-_=+"
.word	"AEOUIaouI"
.word	"-_=+"
.word	"AEOUIaouI"
.word	"-_=+"
.word	"AEOUIaouI"
.word	"-_=+"
.word	"AEOUIaouI"
.word	"-_=+"
.word	"AEOUIaouI"
.word	"-_=+"
.word	"AEOUIaouI"
.word	"-_=+"
.word	"AEOUIaouI"
.word	"-_=+"
.word	"AEOUIaouI"
.word	"-_=+"
.word	"AEOUIaouI"
.word	"-_=+"
.word	"AEOUIaouI"
.word	"-_=+"
.word	"AEOUIaouI"
.word	"-_=+"
.word	"AEOUIaouI"
.word	"-_=+"
.word	"AEOUIaouI"
.word	"-_=+"
.word	"AEOUIaouI"
.word	"-_=+"
.word	"AEOUIaouI"
.word	"-_=+"
.word	"AEOUIaouI"
.word	"-_=+"
.word	"AEOUIaouI"
.word	"-_=+"
.word	"AEOUIaouI"
.word	"-_=+"
.word	"AEOUIaouI"
.word	"-_=+"
.word	"AEOUIaouI"
.word	"-_=+"
.word	"AEOUIaouI"
.word	"-_=+"
.word	"AEOUIaouI"
.word	"-_=+"
.word	"AEOUIaouI"
.word	"-_=+"
.word	"AEOUIaouI"
.word	"-_=+"
.word	"AEOUIaouI"
.word	"-_=+"
.word	"AEOUIaouI"
.word	"-_=+"
.word	"AEOUIaouI"
.word	"-_=+"
.word	"AEOUIaouI"
.word	"-_=+"
.word	"AEOUIaouI"
.word	"-_=+"
.word	"AEOUIaouI"
.word	"-_=+"
.word	"AEOUIaouI"
.word	"-_=+"
.word	"AEOUIaouI"
.word	"-_=+"
.word	"AEOUIaouI"
.word	"-_=+"
.word	"AEOUIaouI"
.word	"-_=+"
.word	"AEOUIaouI"
.word	"-_=+"
.word	"AEOUIaouI"
.word	"-_=+"
.word	"AEOUIaouI"
.word	"-_=+"
.word	"AEOUIaouI"
.word	"-_=+"
.word	"AEOUIaouI"
.word	"-_=+"
.word	"AEOUIaouI"
.word	"-_=+"
.word	"AEOUIaouI"
.word	"-_=+"
.word	"AEOUIaouI"
.word	"-_=+"
.word	"AEOUIaouI"
.word	"-_=+"
.word	"AEOUIaouI"
.word	"-_=+"
.word	"AEOUIaouI"
.word	"-_=+"
.word	"AEOUIaouI"
.word	"-_=+"
.word	"AEOUIaouI"
.word	"-_=+"
.word	"AEOUIaouI"
.word	"-_=+"
.word	"AEOUIaouI"
.word	"-_=+"
.word	"AEOUIaouI"
.word	"-_=+"
.word	"AEOUIaouI"
.word	"-_=+"
.word	"AEOUIaouI"
.word	"-_=+"
.word	"AEOUIaouI"
.word	"-_=+"
.word	"AEOUIaouI"
.word	"-_=+"
.word	"AEOUIaouI"
.word	"-_=+"
.word	"AEOUIaouI"
.word	"-_=+"
.word	"AEOUIaouI"
.word	"-_=+"
.word	"AEOUIaouI"
.word	"-_=+"
.word	"AEOUIaouI"
.word	"-_=+"
.word	"AEOUIaouI"
.word	"-_=+"
.word	"AEOUIaouI"
.word	"-_=+"
.word	"AEOUIaouI"
.word	"-_=+"
.word	"AEOUIaouI"
.word	"-_=+"
.word	"AEOUIaouI"
.word	"-_=+"
.word	"AEOUIaouI"
.word	"-_=+"
.word	"AEOUIaouI"
.word	"-_=+"
.word	"AEOUIaouI"
.word	"-_=+"
.word	"AEOUIaouI"
.word	"-_=+"
.word	"AEOUIaouI"
.word	"-_=+"
.word	"AEOUIaouI"
.word	"-_=+"
.word	"AEOUIaouI"
.word	"-_=+"
.word	"AEOUIaouI"
.word	"-_=+"
.word	"AEOUIaouI"
.word	"-_=+"
.word	"AEOUIaouI"
.word	"-_=+"
.word	"AEOUIaouI"
.word	"-_=+"
.word	"AEOUIaouI"
.word	"-_=+"
.word	"AEOUIaouI"
.word	"-_=+"
.word	"AEOUIaouI"
.word	"-_=+"
.word	"AEOUIaouI"
.word	"-_=+"
.word	"AEOUIaouI"
.word	"-_=+"
.word	"AEOUIaouI"
.word	"-_=+"
.word	"AEOUIaouI"
.word	"-_=+"
.word	"AEOUIaouI"
.word	"-_=+"
.word	"AEOUIaouI"
.word	"-_=+"
.word	"AEOUIaouI"
.word	"-_=+"
.word	"AEOUIaouI"
.word	"-_=+"
.word	"AEOUIaouI"
.word	"-_=+"
.word	"AEOUIaouI"
.word	"-_=+"
.word	"AEOUIaouI"
.word	"-_=+"
.word	"AEOUIaouI"
.word	"-_=+"
.word	"AEOUIaouI"
.word	"-_=+"
.word	"AEOUIaouI"
.word	"-_=+"
.word	"AEOUIaouI"
.word	"-_=+"
.word	"AEOUIaouI"
.word	"-_=+"
.word	"AEOUIaouI"
.word	"-_=+"
.word	"AEOUIaouI"
.word	"-_=+"
.word	"AEOUIaouI"
.word	"-_=+"
.word	"AEOUIaouI"
.word	"-_=+"
.word	"AEOUIaouI"
.word	"-_=+"
.word	"AEOUIaouI"
.word	"-_=+"
.word	"AEOUIaouI"
.word	"-_=+"
.word	"AEOUIaouI"
.word	"-_=+"
.word	"AEOUIaouI"
.word	"-_=+"
.word	"AEOUIaouI"
.word	"-_=+"
.word	"AEOUIaouI"
.word	"-_=+"
.word	"AEOUIaouI"
.word	"-_=+"
.word	"AEOUIaouI"
.word	"-_=+"
.word	"AEOUIaouI"
.word	"-_=+"
.word	"AEOUIaouI"
.word	"-_=+"
.word	"AEOUIaouI"
.word	"-_=+"
.word	"AEOUIaouI"
.word	"-_=+"
.word	"AEOUIaouI"
.word	"-_=+"
.word	"AEOUIaouI"
.word	"-_=+"
.word	"AEOUIaouI"
.word	"-_=+"
.word	"AEOUIaouI"
.word	"-_=+"
.word	"AEOUIaouI"
.word	"-_=+"
.word	"AEOUIaouI"
.word	"-_=+"
.word	"AEOUIaouI"
.word	"-_=+"
.word	"AEOUIaouI"
.word	"-_=+"
.word	"AEOUIaouI"
.word	"-_=+"
.word	"AEOUIaouI"
.word	"-_=+"
.word	"AEOUIaouI"
.word	"-_=+"
.word	"AEOUIaouI"
.word	"-_=+"
.word	"AEOUIaouI"
.word	"-_=+"
.word	"AEOUIaouI"
.word	"-_=+"
.word	"AEOUIaouI"
.word	"-_=+"
.word	"AEOUIaouI"
.word	"-_=+"
.word	"AEOUIaouI"
.word	"-_=+"
.word	"AEOUIaouI"
.word	"-_=+"
.word	"AEOUIaouI"
.word	"-_=+"
.word	"AEOUIaouI"
.word	"-_=+"
.word	"AEOUIaouI"
.word	"-_=+"
.word	"AEOUIaouI"
.word	"-_=+"
.word	"AEOUIaouI"
.word	"-_=+"
.word	"AEOUIaouI"
.word	"-_=+"
.word	"AEOUIaouI"
.word	"-_=+"
.word	"AEOUIaouI"
.word	"-_=+"
.word	"AEOUIaouI"
.word	"-_=+"
.word	"AEOUIaouI"
.word	"-_=+"
.word	"AEOUIaouI"
.word	"-_=+"
.word	"AEOUIaouI"
.word	"-_=+"
.word	"AEOUIaouI"
.word	"-_=+"
.word	"AEOUIaouI"
.word	"-_=+"
.word	"AEOUIaouI"
.word	"-_=+"
.word	"AEOUIaouI"
.word	"-_=+"
.word	"AEOUIaouI"
.word	"-_=+"
.word	"AEOUIaouI"
.word	"-_=+"
.word	"AEOUIaouI"
.word	"-_=+"
.word	"AEOUIaouI"
.word	"-_=+"
.word	"AEOUIaouI"
.word	"-_=+"
.word	"AEOUIaouI"
.word	"-_=+"
.word	"AEOUIaouI"
.word	"-_=+"
.word	"AEOUIaouI"
.word	"-_=+"
.word	"AEOUIaouI"
.word	"-_=+"
.word	"AEOUIaouI"
.word	"-_=+"
.word	"AEOUIaouI"
.word	"-_=+"
.word	"AEOUIaouI"
.word	"-_=+"
.word	"AEOUIaouI"
.word	"-_=+"
.word	"AEOUIaouI"
.word	"-_=+"
.word	"AEOUIaouI"
.word	"-_=+"
.word	"AEOUIaouI"
.word	"-_=+"
.word	"AEOUIaouI"
.word	"-_=+"
.word	"AEOUIaouI"
.word	"-_=+"
.word	"AEOUIaouI"
.word	"-_=+"
.word	"AEOUIaouI"
.word	"-_=+"
.word	"AEOUIaouI"
.word	"-_=+"
.word	"AEOUIaouI"
.word	"-_=+"
.word	"AEOUIaouI"
.word	"-_=+"
.word	"AEOUIaouI"
.word	"-_=+"
.word	"AEOUIaouI"
.word	"-_=+"
.word	"AEOUIaouI"
.word	"-_=+"
.word	"AEOUIaouI"
.word	"-_=+"
.word	"AEOUIaouI"
.word	"-_=+"
.word	"AEOUIaouI"
.word	"-_=+"
.word	"AEOUIaouI"
.word	"-_=+"
.word	"AEOUIaouI"
.word	"-_=+"
.word	"AEOUIaouI"
.word	"-_=+"
.word	"AEOUIaouI"
.word	"-_=+"
.word	"AEOUIaouI"
.word	"-_=+"
.word	"AEOUIaouI"
.word	"-_=+"
.word	"AEOUIaouI"
.word	"-_=+"
.word	"AEOUIaouI"
.word	"-_=+"
.word	"AEOUIaouI"
.word	"-_=+"
.word	"AEOUIaouI"
.word	"-_=+"
.word	"AEOUIaouI"
.word	"-_=+"
.word	"AEOUIaouI"
.word	"-_=+"
.word	"AEOUIaouI"
.word	"-_=+"
.word	"AEOUIaouI"
.word	"-_=+"
.word	"AEOUIaouI"
.word	"-_=+"
.word	"AEOUIaouI"
.word	"-_=+"
.word	"AEOUIaouI"
.word	"-_=+"
.word	"AEOUIaouI"
.word	"-_=+"
.word	"AEOUIaouI"
.word	"-_=+"
.word	"AEOUIaouI"
.word	"-_=+"
.word	"AEOUIaouI"
.word	"-_=+"
.word	"AEOUIaouI"
.word	"-_=+"
.word	"AEOUIaouI"
.word	"-_=+"
.word	"AEOUIaouI"
.word	"-_=+"
.word	"AEOUIaouI"
.word	"-_=+"
.word	"AEOUIaouI"
.word	"-_=+"
.word	"AEOUIaouI"
.word	"-_=+"
.word	"AEOUIaouI"
.word	"-_=+"
.word	"AEOUIaouI"
.word	"-_=+"
.word	"AEOUIaouI"
.word	"-_=+"
.word	"AEOUIaouI"
.word	"-_=+"
.word	"AEOUIaouI"
.word	"-_=+"
.word	"AEOUIaouI"
.word	"-_=+"
.word	"AEOUIaouI"
.word	"-_=+"
.word	"AEOUIaouI"
.word	"-_=+"
.word	"AEOUIaouI"
.word	"-_=+"
.word	"AEOUIaouI"
.word	"-_=+"
.word	"AEOUIaouI"
.word	"-_=+"
.word	"AEOUIaouI"
.word	"-_=+"
.word	"AEOUIaouI"
.word	"-_=+"
.word	"AEOUIaouI"
.word	"-_=+"
.word	"AEOUIaouI"
.word	"-_=+"
.word	"AEOUIaouI"
.word	"-_=+"
.word	"AEOUIaouI"
.word	"-_=+"
.word	"AEOUIaouI"
.word	"-_=+"
.word	"AEOUIaouI"
.word	"-_=+"
.word	"AEOUIaouI"
.word	"-_=+"
.word	"AEOUIaouI"
.word	"-_=+"
.word	"AEOUIaouI"
.word	"-_=+"
.word	"AEOUIaouI"
.word	"-_=+"
.word	"AEOUIaouI"
.word	"-_=+"
.word	"AEOUIaouI"
.word	"-_=+"
.word	"AEOUIaouI"
.word	"-_=+"
.word	"AEOUIaouI"
.word	"-_=+"
.word	"AEOUIaouI"
.word	"-_=+"
.word	"AEOUIaouI"
.word	"-_=+"
.word	"AEOUIaouI"
.word	"-_=+"
.word	"AEOUIaouI"
.word	"-_=+"
.word	"AEOUIaouI"
.word	"-_=+"
.word	"AEOUIaouI"
.word	"-_=+"
.word	"AEOUIaouI"
.word	"-_=+"
.word	"AEOUIaouI"
.word	"-_=+"
.word	"AEOUIaouI"
.word	"-_=+"
.word	"AEOUIaouI"
.word	"-_=+"
.word	"AEOUIaouI"
.word	"-_=+"
.word	"AEOUIaouI"
.word	"-_=+"
.word	"AEOUIaouI"
.word	"-_=+"
.word	"AEOUIaouI"
.word	"-_=+"
.word	"AEOUIaouI"
.word	"-_=+"
.word	"AEOUIaouI"
.word	"-_=+"
.word	"AEOUIaouI"
.word	"-_=+"
.word	"AEOUIaouI"
.word	"-_=+"
.word	"AEOUIaouI"
.word	"-_=+"
.word	"AEOUIaouI"
.word	"-_=+"
.word	"AEOUIaouI"
.word	"-_=+"
.word	"AEOUIaouI"
.word	"-_=+"
.word	"AEOUIaouI"
.word	"-_=+"
.word	"AEOUIaouI"
.word	"-_=+"
.word	"AEOUIaouI"
.word	"-_=+"
.word	"AEOUIaouI"
.word	"-_=+"
.word	"AEOUIaouI"
.word	"-_=+"
.word	"AEOUIaouI"
.word	"-_=+"
.word	"AEOUIaouI"
.word	"-_=+"
.word	"AEOUIaouI"
.word	"-_=+"
.word	"AEOUIaouI"
.word	"-_=+"
.word	"AEOUIaouI"
.word	"-_=+"
.word	"AEOUIaouI"
.word	"-_=+"
.word	"AEOUIaouI"
.word	"-_=+"
.word	"AEOUIaouI"
.word	"-_=+"
.word	"AEOUIaouI"
.word	"-_=+"
.word	"AEOUIaouI"
.word	"-_=+"
.word	"AEOUIaouI"
.word	"-_=+"
.word	"AEOUIaouI"
.word	"-_=+"
.word	"AEOUIaouI"
.word	"-_=+"
.word	"AEOUIaouI"
.word	"-_=+"
.word	"AEOUIaouI"
.word	"-_=+"
.word	"AEOUIaouI"
.word	"-_=+"
.word	"AEOUIaouI"
.word	"-_=+"
.word	"AEOUIaouI"
.word	"-_=+"
.word	"AEOUIaouI"
.word	"-_=+"
.word	"AEOUIaouI"
.word	"-_=+"
.word	"AEOUIaouI"
.word	"-_=+"
.word	"AEOUIaouI"
.word	"-_=+"
.word	"AEOUIaouI"
.word	"-_=+"
.word	"AEOUIaouI"
.word	"-_=+"
.word	"AEOUIaouI"
.word	"-_=+"
.word	"AEOUIaouI"
.word	"-_=+"
.word	"AEOUIaouI"
.word	"-_=+"
.word	"AEOUIaouI"
.word	"-_=+"
.word	"AEOUIaouI"
.word	"-_=+"
.word	"AEOUIaouI"
.word	"-_=+"
.word	"AEOUIaouI"
.word	"-_=+"
.word	"AEOUIaouI"
.word	"-_=+"
.word	"AEOUIaouI"
.word	"-_=+"
.word	"AEOUIaouI"
.word	"-_=+"
.word	"AEOUIaouI"
.word	"-_=+"
.word	"AEOUIaouI"
.word	"-_=+"
.word	"AEOUIaouI"
.word	"-_=+"
.word	"AEOUIaouI"
.word	"-_=+"
.word	"AEOUIaouI"
.word	"-_=+"
.word	"AEOUIaouI"
.word	"-_=+"
.word	"AEOUIaouI"
.word	"-_=+"
.word	"AEOUIaouI"
.word	"-_=+"
.word	"AEOUIaouI"
.word	"-_=+"
.word	"AEOUIaouI"
.word	"-_=+"
.word	"AEOUIaouI"
.word	"-_=+"
.word	"AEOUIaouI"
.word	"-_=+"
.word	"AEOUIaouI"
.word	"-_=+"
.word	"AEOUIaouI"
.word	"-_=+"
.word	"AEOUIaouI"
.word	"-_=+"
.word	"AEOUIaouI"
.word	"-_=+"
.word	"AEOUIaouI"
.word	"-_=+"
.word	"AEOUIaouI"
.word	"-_=+"
.word	"AEOUIaouI"
.word	"-_=+"
.word	"AEOUIaouI"
.word	"-_=+"
.word	"AEOUIaouI"
.word	"-_=+"
.word	"AEOUIaouI"
.word	"-_=+"
.word	"AEOUIaouI"
.word	"-_=+"
.word	"AEOUIaouI"
.word	"-_=+"
.word	"AEOUIaouI"
.word	"-_=+"
.word	"AEOUIaouI"
.word	"-_=+"
.word	"AEOUIaouI"
.word	"-_=+"
.word	"AEOUIaouI"
.word	"-_=+"
.word	"AEOUIaouI"
.word	"-_=+"
.word	"AEOUIaouI"
.word	"-_=+"
.word	"AEOUIaouI"
.word	"-_=+"
.word	"AEOUIaouI"
.word	"-_=+"
.word	"AEOUIaouI"
.word	"-_=+"
.word	"AEOUIaouI"
.word	"-_=+"
.word	"AEOUIaouI"
.word	"-_=+"
.word	"AEOUIaouI"
.word	"-_=+"
.word	"AEOUIaouI"
.word	"-_=+"
.word	"AEOUIaouI"
.word	"-_=+"
.word	"AEOUIaouI"
.word	"-_=+"
.word	"AEOUIaouI"
.word	"-_=+"
.word	"AEOUIaouI"
.word	"-_=+"
.word	"AEOUIaouI"
.word	"-_=+"
.word	"AEOUIaouI"
.word	"-_=+"
.word	"AEOUIaouI"
.word	"-_=+"
.word	"AEOUIaouI"
.word	"-_=+"
.word	"AEOUIaouI"
.word	"-_=+"
.word	"AEOUIaouI"
.word	"-_=+"
.word	"AEOUIaouI"
.word	"-_=+"
.word	"AEOUIaouI"
.word	"-_=+"
.word	"AEOUIaouI"
.word	"-_=+"
.word	"AEOUIaouI"
.word	"-_=+"
.word	"AEOUIaouI"
.word	"-_=+"
.word	"AEOUIaouI"
.word	"-_=+"
.word	"AEOUIaouI"
.word	"-_=+"
.word	"AEOUIaouI"
.word	"-_=+"
.word	"AEOUIaouI"
.word	"-_=+"
.word	"AEOUIaouI"
.word	"-_=+"
.word	"AEOUIaouI"
.word	"-_=+"
.word	"AEOUIaouI"
.word	"-_=+"
.word	"AEOUIaouI"
.word	"-_=+"
.word	"AEOUIaouI"
.word	"-_=+"
.word	"AEOUIaouI"
.word	"-_=+"
.word	"AEOUIaouI"
.word	"-_=+"
.word	"AEOUIaouI"
.word	"-_=+"
.word	"AEOUIaouI"
.word	"-_=+"
.word	"AEOUIaouI"
.word	"-_=+"
.word	"AEOUIaouI"
.word	"-_=+"
.word	"AEOUIaouI"
.word	"-_=+"
.word	"AEOUIaouI"
.word	"-_=+"
.word	"AEOUIaouI"
.word	"-_=+"
.word	"AEOUIaouI"
.word	"-_=+"
.word	"AEOUIaouI"
.word	"-_=+"
.word	"AEOUIaouI"
.word	"-_=+"
.word	"AEOUIaouI"
.word	"-_=+"
.word	"AEOUIaouI"
.word	"-_=+"
.word	"AEOUIaouI"
.word	"-_=+"
.word	"AEOUIaouI"
.word	"-_=+"
.word	"AEOUIaouI"
.word	"-_=+"
.word	"AEOUIaouI"
.word	"-_=+"
.word	"AEOUIaouI"
.word	"-_=+"
.word	"AEOUIaouI"
.word	"-_=+"
.word	"AEOUIaouI"
.word	"-_=+"
.word	"AEOUIaouI"
.word	"-_=+"
.word	"AEOUIaouI"
.word	"-_=+"
.word	"AEOUIaouI"
.word	"-_=+"
.word	"AEOUIaouI"
.word	"-_=+"
.word	"AEOUIaouI"
.word	"-_=+"
.word	"AEOUIaouI"
.word	"-_=+"
.word	"AEOUIaouI"
.word	"-_=+"
.word	"AEOUIaouI"
.word	"-_=+"
.word	"AEOUIaouI"
.word	"-_=+"
.word	"AEOUIaouI"
.word	"-_=+"
.word	"AEOUIaouI"
.word	"-_=+"
.word	"AEOUIaouI"
.word	"-_=+"
.word	"AEOUIaouI"
.word	"-_=+"
.word	"AEOUIaouI"
.word	"-_=+"
.word	"AEOUIaouI"
.word	"-_=+"
.word	"AEOUIaouI"
.word	"-_=+"
.word	"AEOUIaouI"
.word	"-_=+"
.word	"AEOUIaouI"
.word	"-_=+"
.word	"AEOUIaouI"
.word	"-_=+"
.word	"AEOUIaouI"
.word	"-_=+"
.word	"AEOUIaouI"
.word	"-_=+"
.word	"AEOUIaouI"
.word	"-_=+"
.word	"AEOUIaouI"
.word	"-_=+"
.word	"AEOUIaouI"
.word	"-_=+"
.word	"AEOUIaouI"
.word	"-_=+"
.word	"AEOUIaouI"
.word	"-_=+"
.word	"AEOUIaouI"
.word	"-_=+"
.word	"AEOUIaouI"
.word	"-_=+"
.word	"AEOUIaouI"
.word	"-_=+"
.word	"AEOUIaouI"
.word	"-_=+"
.word	"AEOUIaouI"
.word	"-_=+"
.word	"AEOUIaouI"
.word	"-_=+"
.word	"AEOUIaouI"
.word	"-_=+"
.word	"AEOUIaouI"
.word	"-_=+"
.word	"AEOUIaouI"
.word	"-_=+"
.word	"AEOUIaouI"
.word	"-_=+"
.word	"AEOUIaouI"
.word	"-_=+"
.word	"AEOUIaouI"
.word	"-_=+"
.word	"AEOUIaouI"
.word	"-_=+"
.word	"AEOUIaouI"
.word	"-_=+"
.word	"AEOUIaouI"
.word	"-_=+"
.word	"AEOUIaouI"
.word	"-_=+"
.word	"AEOUIaouI"
.word	"-_=+"
.word	"AEOUIaouI"
.word	"-_=+"
.word	"AEOUIaouI"
.word	"-_=+"
.word	"AEOUIaouI"
.word	"-_=+"
.word	"AEOUIaouI"
.word	"-_=+"
.word	"AEOUIaouI"
.word	"-_=+"
.word	"AEOUIaouI"
.word	"-_=+"
.word	"AEOUIaouI"
.word	"-_=+"
.word	"AEOUIaouI"
.word	"-_=+"
.word	"AEOUIaouI"
.word	"-_=+"
.word	"AEOUIaouI"
.word	"-_=+"
.word	"AEOUIaouI"
.word	"-_=+"
.word	"AEOUIaouI"
.word	"-_=+"
.word	"AEOUIaouI"
.word	"-_=+"
.word	"AEOUIaouI"
.word	"-_=+"
.word	"AEOUIaouI"
.word	"-_=+"
.word	"AEOUIaouI"
.word	"-_=+"
.word	"AEOUIaouI"
.word	"-_=+"
.word	"AEOUIaouI"
.word	"-_=+"
.word	"AEOUIaouI"
.word	"-_=+"
.word	"AEOUIaouI"
.word	"-_=+"
.word	"AEOUIaouI"
.word	"-_=+"
.word	"AEOUIaouI"
.word	"-_=+"
.word	"AEOUIaouI"
.word	"-_=+"
.word	"AEOUIaouI"
.word	"-_=+"
.word	"AEOUIaouI"
.word	"-_=+"
.word	"AEOUIaouI"
.word	"-_=+"
.word	"AEOUIaouI"
.word	"-_=+"
.word	"AEOUIaouI"
.word	"-_=+"
.word	"AEOUIaouI"
.word	"-_=+"
.word	"AEOUIaouI"
.word	"-_=+"
.word	"AEOUIaouI"
.word	"-_=+"
.word	"AEOUIaouI"
.word	"-_=+"
.word	"AEOUIaouI"
.word	"-_=+"
.word	"AEOUIaouI"
.word	"-_=+"
.word	"AEOUIaouI"
.word	"-_=+"
.word	"AEOUIaouI"
.word	"-_=+"
.word	"AEOUIaouI"
.word	"-_=+"
.word	"AEOUIaouI"
.word	"-_=+"
.word	"AEOUIaouI"
.word	"-_=+"
.word	"AEOUIaouI"
.word	"-_=+"
.word	"AEOUIaouI"
.word	"-_=+"
.word	"AEOUIaouI"
.word	"-_=+"
.word	"AEOUIaouI"
.word	"-_=+"
.word	"AEOUIaouI"
.word	"-_=+"
.word	"AEOUIaouI"
.word	"-_=+"
.word	"AEOUIaouI"
.word	"-_=+"
.word	"AEOUIaouI"
.word	"-_=+"
.word	"AEOUIaouI"
.word	"-_=+"
.word	"AEOUIaouI"
.word	"-_=+"
.word	"AEOUIaouI"
.word	"-_=+"
.word	"AEOUIaouI"
.word	"-_=+"
.word	"AEOUIaouI"
.word	"-_=+"
.word	"AEOUIaouI"
.word	"-_=+"
.word	"AEOUIaouI"
.word	"-_=+"
.word	"AEOUIaouI"
.word	"-_=+"
.word	"AEOUIaouI"
.word	"-_=+"
.word	"AEOUIaouI"
.word	"-_=+"
.word	"AEOUIaouI"
.word	"-_=+"
.word	"AEOUIaouI"
.word	"-_=+"
.word	"AEOUIaouI"
.word	"-_=+"
.word	"AEOUIaouI"
.word	"-_=+"
.word	"AEOUIaouI"
.word	"-_=+"
.word	"AEOUIaouI"
.word	"-_=+"
.word	"AEOUIaouI"
.word	"-_=+"
.word	"AEOUIaouI"
.word	"-_=+"
.word	"AEOUIaouI"
.word	"-_=+"
.word	"AEOUIaouI"
.word	"-_=+"
.word	"AEOUIaouI"
.word	"-_=+"
.word	"AEOUIaouI"
.word	"-_=+"
.word	"AEOUIaouI"
.word	"-_=+"
.word	"AEOUIaouI"
.word	"-_=+"
.word	"AEOUIaouI"
.word	"-_=+"
.word	"AEOUIaouI"
.word	"-_=+"
.word	"AEOUIaouI"
.word	"-_=+"
.word	"AEOUIaouI"
.word	"-_=+"
.word	"AEOUIaouI"
.word	"-_=+"
.word	"AEOUIaouI"
.word	"-_=+"
.word	"AEOUIaouI"
.word	"-_=+"
.word	"AEOUIaouI"
.word	"-_=+"
.word	"AEOUIaouI"
.word	"-_=+"
.word	"AEOUIaouI"
.word	"-_=+"
.word	"AEOUIaouI"
.word	"-_=+"
.word	"AEOUIaouI"
.word	"-_=+"
.word	"AEOUIaouI"
.word	"-_=+"
.word	"AEOUIaouI"
.word	"-_=+"
.word	"AEOUIaouI"
.word	"-_=+"
.word	"AEOUIaouI"
.word	"-_=+"
.word	"AEOUIaouI"
.word	"-_=+"
.word	"AEOUIaouI"
.word	"-_=+"
.word	"AEOUIaouI"
.word	"-_=+"
.word	"AEOUIaouI"
.word	"-_=+"
.word	"AEOUIaouI"
.word	"-_=+"
.word	"AEOUIaouI"
.word	"-_=+"
.word	"AEOUIaouI"
.word	"-_=+"
.word	"AEOUIaouI"
.word	"-_=+"
.word	"AEOUIaouI"
.word	"-_=+"
.word	"AEOUIaouI"
.word	"-_=+"
.word	"AEOUIaouI"
.word	"-_=+"
.word	"AEOUIaouI"
.word	"-_=+"
.word	"AEOUIaouI"
.word	"-_=+"
.word	"AEOUIaouI"
.word	"-_=+"
.word	"AEOUIaouI"
.word	"-_=+"
.word	"AEOUIaouI"
.word	"-_=+"
.word	"AEOUIaouI"
.word	"-_=+"
.word	"AEOUIaouI"
.word	"-_=+"
.word	"AEOUIaouI"
.word	"-_=+"
.word	"AEOUIaouI"
.word	"-_=+"
.word	"AEOUIaouI"
.word	"-_=+"
.word	"AEOUIaouI"
.word	"-_=+"
.word	"AEOUIaouI"
.word	"-_=+"
.word	"AEOUIaouI"
.word	"-_=+"
.word	"AEOUIaouI"
.word	"-_=+"
.word	"AEOUIaouI"
.word	"-_=+"
.word	"AEOUIaouI"
.word	"-_=+"
.word	"AEOUIaouI"
.word	"-_=+"
.word	"AEOUIaouI"
.word	"-_=+"
.word	"AEOUIaouI"
.word	"-_=+"
.word	"AEOUIaouI"
.word	"-_=+"
.word	"AEOUIaouI"
.word	"-_=+"
.word	"AEOUIaouI"
.word	"-_=+"
.word	"AEOUIaouI"
.word	"-_=+"
.word	"AEOUIaouI"
.word	"-_=+"
.word	"AEOUIaouI"
.word	"-_=+"
.word	"AEOUIaouI"
.word	"-_=+"
.word	"AEOUIaouI"
.word	"-_=+"
.word	"AEOUIaouI"
.word	"-_=+"
.word	"AEOUIaouI"
.word	"-_=+"
.word	"AEOUIaouI"
.word	"-_=+"
.word	"AEOUIaouI"
.word	"-_=+"
.word	"AEOUIaouI"
.word	"-_=+"
.word	"AEOUIaouI"
.word	"-_=+"
.word	"AEOUIaouI"
.word	"-_=+"
.word	"AEOUIaouI"
.word	"-_=+"
.word	"AEOUIaouI"
.word	"-_=+"
.word	"AEOUIaouI"
.word	"-_=+"
.word	"AEOUIaouI"
.word	"-_=+"
.word	"AEOUIaouI"
.word	"-_=+"
.word	"AEOUIaouI"
.word	"-_=+"
.word	"AEOUIaouI"
.word	"-_=+"
.word	"AEOUIaouI"
.word	"-_=+"
.word	"AEOUIaouI"
.word	"-_=+"
.word	"AEOUIaouI"
.word	"-_=+"
.word	"AEOUIaouI"
.word	"-_=+"
.word	"AEOUIaouI"
.word	"-_=+"
.word	"AEOUIaouI"
.word	"-_=+"
.word	"AEOUIaouI"
.word	"-_=+"
.word	"AEOUIaouI"
.word	"-_=+"
.word	"AEOUIaouI"
.word	"-_=+"
.word	"AEOUIaouI"
.word	"-_=+"
.word	"AEOUIaouI"
.word	"-_=+"
.word	"AEOUIaouI"
.word	"-_=+"
.word	"AEOUIaouI"
.word	"-_=+"
.word	"AEOUIaouI"
.word	"-_=+"
.word	"AEOUIaouI"
.word	"-_=+"
.word	"AEOUIaouI"
.word	"-_=+"
.word	"AEOUIaouI"
.word	"-_=+"
.word	"AEOUIaouI"
.word	"-_=+"
.word	"AEOUIaouI"
.word	"-_=+"
.word	"AEOUIaouI"
.word	"-_=+"
.word	"AEOUIaouI"
.word	"-_=+"
.word	"AEOUIaouI"
.word	"-_=+"
.word	"AEOUIaouI"
.word	"-_=+"
.word	"AEOUIaouI"
.word	"-_=+"
.word	"AEOUIaouI"
.word	"-_=+"
.word	"AEOUIaouI"
.word	"-_=+"
.word	"AEOUIaouI"
.word	"-_=+"
.word	"AEOUIaouI"
.word	"-_=+"
.word	"AEOUIaouI"
.word	"-_=+"
.word	"AEOUIaouI"
.word	"-_=+"
.word	"AEOUIaouI"
.word	"-_=+"
.word	"AEOUIaouI"
.word	"-_=+"
.word	"AEOUIaouI"
.word	"-_=+"
.word	"AEOUIaouI"
.word	"-_=+"
.word	"AEOUIaouI"
.word	"-_=+"
.word	"AEOUIaouI"
.word	"-_=+"
.word	"AEOUIaouI"
.word	"-_=+"
.word	"AEOUIaouI"
.word	"-_=+"
.word	"AEOUIaouI"
.word	"-_=+"
.word	"AEOUIaouI"
.word	"-_=+"
.word	"AEOUIaouI"
.word	"-_=+"
.word	"AEOUIaouI"
.word	"-_=+"
.word	"AEOUIaouI"
.word	"-_=+"
.word	"AEOUIaouI"
.word	"-_=+"
.word	"AEOUIaouI"
.word	"-_=+"
.word	"AEOUIaouI"
.word	"-_=+"
.word	"AEOUIaouI"
.word	"-_=+"
.word	"AEOUIaouI"
.word	"-_=+"
.word	"AEOUIaouI"
.word	"-_=+"
.word	"AEOUIaouI"
.word	"-_=+"
.word	"AEOUIaouI"
.word	"-_=+"
.word	"AEOUIaouI"
.word	"-_=+"
.word	"AEOUIaouI"
.word	"-_=+"
.word	"AEOUIaouI"
.word	"-_=+"
.word	"AEOUIaouI"
.word	"-_=+"
.word	"AEOUIaouI"
.word	"-_=+"
.word	"AEOUIaouI"
.word	"-_=+"
.word	"AEOUIaouI"
.word	"-_=+"
.word	"AEOUIaouI"
.word	"-_=+"
.word	"AEOUIaouI"
.word	"-_=+"
.word	"AEOUIaouI"
.word	"-_=+"
.word	"AEOUIaouI"
.word	"-_=+"
.word	"AEOUIaouI"
.word	"-_=+"
.word	"AEOUIaouI"
.word	"-_=+"
.word	"AEOUIaouI"
.word	"-_=+"
.word	"AEOUIaouI"
.word	"-_=+"
.word	"AEOUIaouI"
.word	"-_=+"
.word	"AEOUIaouI"
.word	"-_=+"
.word	"AEOUIaouI"
.word	"-_=+"
.word	"AEOUIaouI"
.word	"-_=+"
.word	"AEOUIaouI"
.word	"-_=+"
.word	"AEOUIaouI"
.word	"-_=+"
.word	"AEOUIaouI"
.word	"-_=+"
.word	"AEOUIaouI"
.word	"-_=+"
.word	"AEOUIaouI"
.word	"-_=+"
.word	"AEOUIaouI"
.word	"-_=+"
.word	"AEOUIaouI"
.word	"-_=+"
.word	"AEOUIaouI"
.word	"-_=+"
.word	"AEOUIaouI"
.word	"-_=+"
.word	"AEOUIaouI"
.word	"-_=+"
.word	"AEOUIaouI"
.word	"-_=+"
.word	"AEOUIaouI"
.word	"-_=+"
.word	"AEOUIaouI"
.word	"-_=+"
.word	"AEOUIaouI"
.word	"-_=+"
.word	"AEOUIaouI"
.word	"-_=+"
.word	"AEOUIaouI"
.word	"-_=+"
.word	"AEOUIaouI"
.word	"-_=+"
.word	"AEOUIaouI"
.word	"-_=+"
.word	"AEOUIaouI"
.word	"-_=+"
.word	"AEOUIaouI"
.word	"-_=+"
.word	"AEOUIaouI"
.word	"-_=+"
.word	"AEOUIaouI"
.word	"-_=+"
.word	"AEOUIaouI"
.word	"-_=+"
.word	"AEOUIaouI"
.word	"-_=+"
.word	"AEOUIaouI"
.word	"-_=+"
.word	"AEOUIaouI"
.word	"-_=+"
.word	"AEOUIaouI"
.word	"-_=+"
.word	"AEOUIaouI"
.word	"-_=+"
.word	"AEOUIaouI"
.word	"-_=+"
.word	"AEOUIaouI"
.word	"-_=+"
.word	"AEOUIaouI"
.word	"-_=+"
.word	"AEOUIaouI"
.word	"-_=+"
.word	"AEOUIaouI"
.word	"-_=+"
.word	"AEOUIaouI"
.word	"-_=+"
.word	"AEOUIaouI"
.word	"-_=+"
.word	"AEOUIaouI"
.word	"-_=+"
.word	"AEOUIaouI"
.word	"-_=+"
.word	"AEOUIaouI"
.word	"-_=+"
.word	"AEOUIaouI"
.word	"-_=+"
.word	"AEOUIaouI"
.word	"-_=+"
.word	"AEOUIaouI"
.word	"-_=+"
.word	"AEOUIaouI"
.word	"-_=+"
.word	"AEOUIaouI"
.word	"-_=+"
.word	"AEOUIaouI"
.word	"-_=+"
.word	"AEOUIaouI"
.word	"-_=+"
.word	"AEOUIaouI"
.word	"-_=+"
.word	"AEOUIaouI"
.word	"-_=+"
.word	"AEOUIaouI"
.word	"-_=+"
.word	"AEOUIaouI"
.word	"-_=+"
.word	"AEOUIaouI"
.word	"-_=+"
.word	"AEOUIaouI"
.word	"-_=+"
.word	"AEOUIaouI"
.word	"-_=+"
.word	"AEOUIaouI"
.word	"-_=+"
.word	"AEOUIaouI"
.word	"-_=+"
.word	"AEOUIaouI"
.word	"-_=+"
.word	"AEOUIaouI"
.word	"-_=+"
.word	"AEOUIaouI"
.word	"-_=+"
.word	"AEOUIaouI"
.word	"-_=+"
.word	"AEOUIaouI"
.word	"-_=+"
.word	"AEOUIaouI"
.word	"-_=+"
.word	"AEOUIaouI"
.word	"-_=+"
.word	"AEOUIaouI"
.word	"-_=+"
.word	"AEOUIaouI"
.word	"-_=+"
.word	"AEOUIaouI"
.word	"-_=+"
.word	"AEOUIaouI"
.word	"-_=+"
.word	"AEOUIaouI"
.word	"-_=+"
.word	"AEOUIaouI"
.word	"-_=+"
.word	"AEOUIaouI"
.word	"-_=+"
.word	"AEOUIaouI"
.word	"-_=+"
.word	"AEOUIaouI"
.word	"-_=+"
.word	"AEOUIaouI"
.word	"-_=+"
.word	"AEOUIaouI"
.word	"-_=+"
.word	"AEOUIaouI"
.word	"-_=+"
.word	"AEOUIaouI"
.word	"-_=+"
.word	"AEOUIaouI"
.word	"-_=+"
.word	"AEOUIaouI"
.word	"-_=+"
.word	"AEOUIaouI"
.word	"-_=+"
.word	"AEOUIaouI"
.word	"-_=+"
.word	"AEOUIaouI"
.word	"-_=+"
.word	"AEOUIaouI"
.word	"-_=+"
.word	"AEOUIaouI"
.word	"-_=+"
.word	"AEOUIaouI"
.word	"-_=+"
.word	"AEOUIaouI"
.word	"-_=+"
.word	"AEOUIaouI"
.word	"-_=+"
.word	"AEOUIaouI"
.word	"-_=+"
.word	"AEOUIaouI"
.word	"-_=+"
.word	"AEOUIaouI"
.word	"-_=+"
.word	"AEOUIaouI"
.word	"-_=+"
.word	"AEOUIaouI"
.word	"-_=+"
.word	"AEOUIaouI"
.word	"-_=+"
.word	"AEOUIaouI"
.word	"-_=+"
.word	"AEOUIaouI"
.word	"-_=+"
.word	"AEOUIaouI"
.word	"-_=+"
.word	"AEOUIaouI"
.word	"-_=+"
.word	"AEOUIaouI"
.word	"-_=+"
.word	"AEOUIaouI"
.word	"-_=+"
.word	"AEOUIaouI"
.word	"-_=+"
.word	"AEOUIaouI"
.word	"-_=+"
.word	"AEOUIaouI"
.word	"-_=+"
.word	"AEOUIaouI"
.word	"-_=+"
.word	"AEOUIaouI"
.word	"-_=+"
.word	"AEOUIaouI"
.word	"-_=+"
.word	"AEOUIaouI"
.word	"-_=+"
.word	"AEOUIaouI"
.word	"-_=+"
.word	"AEOUIaouI"
.word	"-_=+"
.word	"AEOUIaouI"
.word	"-_=+"
.word	"AEOUIaouI"
.word	"-_=+"
.word	"AEOUIaouI"
.word	"-_=+"
.word	"AEOUIaouI"
.word	"-_=+"
.word	"AEOUIaouI"
.word	"-_=+"
.word	"AEOUIaouI"
.word	"-_=+"
.word	"AEOUIaouI"
.word	"-_=+"
.word	"AEOUIaouI"
.word	"-_=+"
.word	"AEOUIaouI"
.word	"-_=+"
.word	"AEOUIaouI"
.word	"-_=+"
.word	"AEOUIaouI"
.word	"-_=+"
.word	"AEOUIaouI"
.word	"-_=+"
.word	"AEOUIaouI"
.word	"-_=+"
.word	"AEOUIaouI"
.word	"-_=+"
.word	"AEOUIaouI"
.word	"-_=+"
.word	"AEOUIaouI"
.word	"-_=+"
.word	"AEOUIaouI"
.word	"-_=+"
.word	"AEOUIaouI"
.word	"-_=+"
.word	"AEOUIaouI"
.word	"-_=+"
.word	"AEOUIaouI"
.word	"-_=+"
.word	"AEOUIaouI"
.word	"-_=+"
.word	"AEOUIaouI"
.word	"-_=+"
.word	"AEOUIaouI"
.word	"-_=+"
.word	"AEOUIaouI"
.word	"-_=+"
.word	"AEOUIaouI"
.word	"-_=+"
.word	"AEOUIaouI"
.word	"-_=+"
.word	"AEOUIaouI"
.word	"-_=+"
.word	"AEOUIaouI"
.word	"-_=+"
.word	"AEOUIaouI"
.word	"-_=+"
.word	"AEOUIaouI"
.word	"-_=+"
.word	"AEOUIaouI"
.word	"-_=+"
.word	"AEOUIaouI"
.word	"-_=+"
.word	"AEOUIaouI"
.word	"-_=+"
.word	"AEOUIaouI"
.word	"-_=+"
.word	"AEOUIaouI"
.word	"-_=+"
.word	"AEOUIaouI"
.word	"-_=+"
.word	"AEOUIaouI"
.word	"-_=+"
.word	"AEOUIaouI"
.word	"-_=+"
.word	"AEOUIaouI"
.word	"-_=+"
.word	"AEOUIaouI"
.word	"-_=+"
.word	"AEOUIaouI"
.word	"-_=+"
.word	"AEOUIaouI"
.word	"-_=+"
.word	"AEOUIaouI"
.word	"-_=+"
.word	"AEOUIaouI"
.word	"-_=+"
.word	"AEOUIaouI"
.word	"-_=+"
.word	"AEOUIaouI"
.word	"-_=+"
.word	"AEOUIaouI"
.word	"-_=+"
.word	"AEOUIaouI"
.word	"-_=+"
.word	"AEOUIaouI"
.word	"-_=+"
.word	"AEOUIaouI"
.word	"-_=+"
.word	"AEOUIaouI"
.word	"-_=+"
.word	"AEOUIaouI"
.word	"-_=+"
.word	"AEOUIaouI"
.word	"-_=+"
.word	"AEOUIaouI"
.word	"-_=+"
.word	"AEOUIaouI"
.word	"-_=+"
.word	"AEOUIaouI"
.word	"-_=+"
.word	"AEOUIaouI"
.word	"-_=+"
.word	"AEOUIaouI"
.word	"-_=+"
.word	"AEOUIaouI"
.word	"-_=+"
.word	"AEOUIaouI"
.word	"-_=+"
.word	"AEOUIaouI"
.word	"-_=+"
.word	"AEOUIaouI"
.word	"-_=+"
.word	"AEOUIaouI"
.word	"-_=+"
.word	"AEOUIaouI"
.word	"-_=+"
.word	"AEOUIaouI"
.word	"-_=+"
.word	"AEOUIaouI"
.word	"-_=+"
.word	"AEOUIaouI"
.word	"-_=+"
.word	"AEOUIaouI"
.word	"-_=+"
.word	"AEOUIaouI"
.word	"-_=+"
.word	"AEOUIaouI"
.word	"-_=+"
.word	"AEOUIaouI"
.word	"-_=+"
.word	"AEOUIaouI"
.word	"-_=+"
.word	"AEOUIaouI"
.word	"-_=+"
.word	"AEOUIaouI"
.word	"-_=+"
.word	"AEOUIaouI"
.word	"-_=+"
.word	"AEOUIaouI"
.word	"-_=+"
.word	"AEOUIaouI"
.word	"-_=+"
.word	"AEOUIaouI"
.word	"-_=+"
.word	"AEOUIaouI"
.word	"-_=+"
.word	"AEOUIaouI"
.word	"-_=+"
.word	"AEOUIaouI"
.word	"-_=+"
.word	"AEOUIaouI"
.word	"-_=+"
.word	"AEOUIaouI"
.word	"-_=+"
.word	"AEOUIaouI"
.word	"-_=+"
.word	"AEOUIaouI"
.word	"-_=+"
.word	"AEOUIaouI"
.word	"-_=+"
.word	"AEOUIaouI"
.word	"-_=+"
.word	"AEOUIaouI"
.word	"-_=+"
.word	"AEOUIaouI"
.word	"-_=+"
.word	"AEOUIaouI"
.word	"-_=+"
.word	"AEOUIaouI"
.word	"-_=+"
.word	"AEOUIaouI"
.word	"-_=+"
.word	"AEOUIaouI"
.word	"-_=+"
.word	"AEOUIaouI"
.word	"-_=+"
.word	"AEOUIaouI"
.word	"-_=+"
.word	"AEOUIaouI"
.word	"-_=+"
.word	"AEOUIaouI"
.word	"-_=+"
.word	"AEOUIaouI"
.word	"-_=+"
.word	"AEOUIaouI"
.word	"-_=+"
.word	"AEOUIaouI"
.word	"-_=+"
.word	"AEOUIaouI"
.word	"-_=+"
.word	"AEOUIaouI"
.word	"-_=+"
.word	"AEOUIaouI"
.word	"-_=+"
.word	"AEOUIaouI"
.word	"-_=+"
.word	"AEOUIaouI"
.word	"-_=+"
.word	"AEOUIaouI"
.word	"-_=+"
.word	"AEOUIaouI"
.word	"-_=+"
.word	"AEOUIaouI"
.word	"-_=+"
.word	"AEOUIaouI"
.word	"-_=+"
.word	"AEOUIaouI"
.word	"-_=+"
.word	"AEOUIaouI"
.word	"-_=+"
.word	"AEOUIaouI"
.word	"-_=+"
.word	"AEOUIaouI"
.word	"-_=+"
.word	"AEOUIaouI"
.word	"-_=+"
.word	"AEOUIaouI"
.word	"-_=+"
.word	"AEOUIaouI"
.word	"-_=+"
.word	"AEOUIaouI"
.word	"-_=+"
.word	"AEOUIaouI"
.word	"-_=+"
.word	"AEOUIaouI"
.word	"-_=+"
.word	"AEOUIaouI"
.word	"-_=+"
.word	"AEOUIaouI"
.word	"-_=+"
.word	"AEOUIaouI"
.word	"-_=+"
.word	"AEOUIaouI"
.word	"-_=+"
.word	"AEOUIaouI"
.word	"-_=+"
.word	"AEOUIaouI"
.word	"-_=+"
.word	"AEOUIaouI"
.word	"-_=+"
.word	"AEOUIaouI"
.word	"-_=+"
.word	"AEOUIaouI"
.word	"-_=+"
.word	"AEOUIaouI"
.word	"-_=+"
.word	"AEOUIaouI"
.word	"-_=+"
.word	"AEOUIaouI"
.word	"-_=+"
.word	"AEOUIaouI"
.word	"-_=+"
.word	"AEOUIaouI"
.word	"-_=+"
.word	"AEOUIaouI"
.word	"-_=+"
.word	"AEOUIaouI"
.word	"-_=+"
.word	"AEOUIaouI"
.word	"-_=+"
.word	"AEOUIaouI"
.word	"-_=+"
.word	"AEOUIaouI"
.word	"-_=+"
.word	"AEOUIaouI"
.word	"-_=+"
.word	"AEOUIaouI"
.word	"-_=+"
.word	"AEOUIaouI"
.word	"-_=+"
.word	"AEOUIaouI"
.word	"-_=+"
.word	"AEOUIaouI"
.word	"-_=+"
.word	"AEOUIaouI"
.word	"-_=+"
.word	"AEOUIaouI"
.word	"-_=+"
.word	"AEOUIaouI"
.word	"-_=+"
.word	"AEOUIaouI"
.word	"-_=+"
.word	"AEOUIaouI"
.word	"-_=+"
.word	"AEOUIaouI"
.word	"-_=+"
.word	"AEOUIaouI"
.word	"-_=+"
.word	"AEOUIaouI"
.word	"-_=+"
.word	"AEOUIaouI"
.word	"-_=+"
.word	"AEOUIaouI"
.word	"-_=+"
.word	"AEOUIaouI"
.word	"-_=+"
.word	"AEOUIaouI"
.word	"-_=+"
.word	"AEOUIaouI"
.word	"-_=+"
.word	"AEOUIaouI"
.word	"-_=+"
.word	"AEOUIaouI"
.word	"-_=+"
.word	"AEOUIaouI"
.word	"-_=+"
.word	"AEOUIaouI"
.word	"-_=+"
.word	"AEOUIaouI"
.word	"-_=+"
.word	"AEOUIaouI"
.word	"-_=+"
.word	"AEOUIaouI"
.word	"-_=+"
.word	"AEOUIaouI"
.word	"-_=+"
.word	"AEOUIaouI"
.word	"-_=+"
.word	"AEOUIaouI"
.word	"-_=+"
.word	"AEOUIaouI"
.word	"-_=+"
.word	"AEOUIaouI"
.word	"-_=+"
.word	"AEOUIaouI"
.word	"-_=+"
.word	"AEOUIaouI"
.word	"-_=+"
.word	"AEOUIaouI"
.word	"-_=+"
.word	"AEOUIaouI"
.word	"-_=+"
.word	"AEOUIaouI"
.word	"-_=+"
.word	"AEOUIaouI"
.word	"-_=+"
.word	"AEOUIaouI"
.word	"-_=+"
.word	"AEOUIaouI"
.word	"-_=+"
.word	"AEOUIaouI"
.word	"-_=+"
.word	"AEOUIaouI"
.word	"-_=+"
.word	"AEOUIaouI"
.word	"-_=+"
.word	"AEOUIaouI"
.word	"-_=+"
.word	"AEOUIaouI"
.word	"-_=+"
.word	"AEOUIaouI"
.word	"-_=+"
.word	"AEOUIaouI"
.word	"-_=+"
.word	"AEOUIaouI"
.word	"-_=+"
.word	"AEOUIaouI"
.word	"-_=+"
.word	"AEOUIaouI"
.word	"-_=+"
.word	"AEOUIaouI"
.word	"-_=+"
.word	"AEOUIaouI"
.word	"-_=+"
.word	"AEOUIaouI"
.word	"-_=+"
.word	"AEOUIaouI"
.word	"-_=+"
.word	"AEOUIaouI"
.word	"-_=+"
.word	"AEOUIaouI"
.word	"-_=+"
.word	"AEOUIaouI"
.word	"-_=+"
.word	"AEOUIaouI"
.word	"-_=+"
.word	"AEOUIaouI"
.word	"-_=+"
.word	"AEOUIaouI"
.word	"-_=+"
.word	"AEOUIaouI"
.word	"-_=+"
.word	"AEOUIaouI"
.word	"-_=+"
.word	"AEOUIaouI"
.word	"-_=+"
.word	"AEOUIaouI"
.word	"-_=+"
.word	"AEOUIaouI"
.word	"-_=+"
.word	"AEOUIaouI"
.word	"-_=+"
.word	"AEOUIaouI"
.word	"-_=+"
.word	"AEOUIaouI"
.word	"-_=+"
.word	"AEOUIaouI"
.word	"-_=+"
.word	"AEOUIaouI"
.word	"-_=+"
.word	"AEOUIaouI"
.word	"-_=+"
.word	"AEOUIaouI"
.word	"-_=+"
.word	"AEOUIaouI"
.word	"-_=+"
.word	"AEOUIaouI"
.word	"-_=+"
.word	"AEOUIaouI"
.word	"-_=+"
.word	"AEOUIaouI"
.word	"-_=+"
.word	"AEOUIaouI"
.word	"-_=+"
.word	"AEOUIaouI"
.word	"-_=+"
.word	"AEOUIaouI"
.word	"-_=+"
.word	"AEOUIaouI"
.word	"-_=+"
.word	"AEOUIaouI"
.word	"-_=+"
.word	"AEOUIaouI"
.word	"-_=+"
.word	"AEOUIaouI"
.word	"-_=+"
.word	"AEOUIaouI"
.word	"-_=+"
.word	"AEOUIaouI"
.word	"-_=+"
.word	"AEOUIaouI"
.word	"-_=+"
.word	"AEOUIaouI"
.word	"-_=+"
.word	"AEOUIaouI"
.word	"-_=+"
.word	"AEOUIaouI"
.word	"-_=+"
.word	"AEOUIaouI"
.word	"-_=+"
.word	"AEOUIaouI"
.word	"-_=+"
.word	"AEOUIaouI"
.word	"-_=+"
.word	"AEOUIaouI"
.word	"-_=+"
.word	"AEOUIaouI"
.word	"-_=+"
.word	"AEOUIaouI"
.word	"-_=+"
.word	"AEOUIaouI"
.word	"-_=+"
.word	"AEOUIaouI"
.word	"-_=+"
.word	"AEOUIaouI"
.word	"-_=+"
.word	"AEOUIaouI"
.word	"-_=+"
.word	"AEOUIaouI"
.word	"-_=+"
.word	"AEOUIaouI"
.word	"-_=+"
.word	"AEOUIaouI"
.word	"-_=+"
.word	"AEOUIaouI"
.word	"-_=+"
.word	"AEOUIaouI"
.word	"-_=+"
.word	"AEOUIaouI"
.word	"-_=+"
.word	"AEOUIaouI"
.word	"-_=+"
.word	"AEOUIaouI"
.word	"-_=+"
.word	"AEOUIaouI"
.word	"-_=+"
.word	"AEOUIaouI"
.word	"-_=+"
.word	"AEOUIaouI"
.word	"-_=+"
.word	"AEOUIaouI"
.word	"-_=+"
.word	"AEOUIaouI"
.word	"-_=+"
.word	"AEOUIaouI"
.word	"-_=+"
.word	"AEOUIaouI"
.word	"-_=+"
.word	"AEOUIaouI"
.word	"-_=+"
.word	"AEOUIaouI"
.word	"-_=+"
.word	"AEOUIaouI"
.word	"-_=+"
.word	"AEOUIaouI"
.word	"-_=+"
.word	"AEOUIaouI"
.word	"-_=+"
.word	"AEOUIaouI"
.word	"-_=+"
.word	"AEOUIaouI"
.word	"-_=+"
.word	"AEOUIaouI"
.word	"-_=+"
.word	"AEOUIaouI"
.word	"-_=+"
.word	"AEOUIaouI"
.word	"-_=+"
.word	"AEOUIaouI"
.word	"-_=+"
.word	"AEOUIaouI"
.word	"-_=+"
.word	"AEOUIaouI"
.word	"-_=+"
.word	"AEOUIaouI"
.word	"-_=+"
.word	"AEOUIaouI"
.word	"-_=+"
.word	"AEOUIaouI"
.word	"-_=+"
.word	"AEOUIaouI"
.word	"-_=+"
.word	"AEOUIaouI"
.word	"-_=+"
.word	"AEOUIaouI"
.word	"-_=+"
.word	"AEOUIaouI"
.word	"-_=+"
.word	"AEOUIaouI"
.word	"-_=+"
.word	"AEOUIaouI"
.word	"-_=+"
.word	"AEOUIaouI"
.word	"-_=+"
.word	"AEOUIaouI"
.word	"-_=+"
.word	"AEOUIaouI"
.word	"-_=+"
.word	"AEOUIaouI"
.word	"-_=+"
.word	"AEOUIaouI"
.word	"-_=+"
.word	"AEOUIaouI"
.word	"-_=+"
.word	"AEOUIaouI"
.word	"-_=+"
.word	"AEOUIaouI"
.word	"-_=+"
.word	"AEOUIaouI"
.word	"-_=+"
.word	"AEOUIaouI"
.word	"-_=+"
.word	"AEOUIaouI"
.word	"-_=+"
.word	"AEOUIaouI"
.word	"-_=+"
.word	"AEOUIaouI"
.word	"-_=+"
.word	"AEOUIaouI"
.word	"-_=+"
.word	"AEOUIaouI"
.word	"-_=+"
.word	"AEOUIaouI"
.word	"-_=+"
.word	"AEOUIaouI"
.word	"-_=+"
.word	"AEOUIaouI"
.word	"-_=+"
.word	"AEOUIaouI"
.word	"-_=+"
.word	"AEOUIaouI"
.word	"-_=+"
.word	"AEOUIaouI"
.word	"-_=+"
.word	"AEOUIaouI"
.word	"-_=+"
.word	"AEOUIaouI"
.word	"-_=+"
.word	"AEOUIaouI"
.word	"-_=+"
.word	"AEOUIaouI"
.word	"-_=+"
.word	"AEOUIaouI"
.word	"-_=+"
.word	"AEOUIaouI"
.word	"-_=+"
.word	"AEOUIaouI"
.word	"-_=+"
.word	"AEOUIaouI"
.word	"-_=+"
.word	"AEOUIaouI"
.word	"-_=+"
.word	"AEOUIaouI"
.word	"-_=+"
.word	"AEOUIaouI"
.word	"-_=+"
.word	"AEOUIaouI"
.word	"-_=+"
.word	"AEOUIaouI"
.word	"-_=+"
.word	"AEOUIaouI"
.word	"-_=+"
.word	"AEOUIaouI"
.word	"-_=+"
.word	"AEOUIaouI"
.word	"-_=+"
.word	"AEOUIaouI"
.word	"-_=+"
.word	"AEOUIaouI"
.word	"-_=+"
.word	"AEOUIaouI"
.word	"-_=+"
.word	"AEOUIaouI"
.word	"-_=+"
.word	"AEOUIaouI"
.word	"-_=+"
.word	"AEOUIaouI"
.word	"-_=+"
.word	"AEOUIaouI"
.word	"-_=+"
.word	"AEOUIaouI"
.word	"-_=+"
.word	"AEOUIaouI"
.word	"-_=+"
.word	"AEOUIaouI"
.word	"-_=+"
.word	"AEOUIaouI"
.word	"-_=+"
.word	"AEOUIaouI"
.word	"-_=+"
.word	"AEOUIaouI"
.word	"-_=+"
.word	"AEOUIaouI"
.word	"-_=+"
.word	"AEOUIaouI"
.word	"-_=+"
.word	"AEOUIaouI"
.word	"-_=+"
.word	"AEOUIaouI"
.word	"-_=+"
.word	"AEOUIaouI"
.word	"-_=+"
.word	"AEOUIaouI"
.word	"-_=+"
.word	"AEOUIaouI"
.word	"-_=+"
.word	"AEOUIaouI"
.word	"-_=+"
.word	"AEOUIaouI"
.word	"-_=+"
.word	"AEOUIaouI"
.word	"-_=+"
.word	"AEOUIaouI"
.word	"-_=+"
.word	"AEOUIaouI"
.word	"-_=+"
.word	"AEOUIaouI"
.word	"-_=+"
.word	"AEOUIaouI"
.word	"-_=+"
.word	"AEOUIaouI"
.word	"-_=+"
.word	"AEOUIaouI"
.word	"-_=+"
.word	"AEOUIaouI"
.word	"-_=+"
.word	"AEOUIaouI"
.word	"-_=+"
.word	"AEOUIaouI"
.word	"-_=+"
.word	"AEOUIaouI"
.word	"-_=+"
.word	"AEOUIaouI"
.word	"-_=+"
.word	"AEOUIaouI"
.word	"-_=+"
.word	"AEOUIaouI"
.word	"-_=+"
.word	"AEOUIaouI"
.word	"-_=+"
.word	"AEOUIaouI"
.word	"-_=+"
.word	"AEOUIaouI"
.word	"-_=+"
.word	"AEOUIaouI"
.word	"-_=+"
.word	"AEOUIaouI"
.word	"-_=+"
.word	"AEOUIaouI"
.word	"-_=+"
.word	"AEOUIaouI"
.word	"-_=+"
.word	"AEOUIaouI"
.word	"-_=+"
.word	"AEOUIaouI"
.word	"-_=+"
.word	"AEOUIaouI"
.word	"-_=+"
.word	"AEOUIaouI"
.word	"-_=+"
.word	"AEOUIaouI"
.word	"-_=+"
.word	"AEOUIaouI"
.word	"-_=+"
.word	"AEOUIaouI"
.word	"-_=+"
.word	"AEOUIaouI"
.word	"-_=+"
.word	"AEOUIaouI"
.word	"-_=+"
.word	"AEOUIaouI"
.word	"-_=+"
.word	"AEOUIaouI"
.word	"-_=+"
.word	"AEOUIaouI"
.word	"-_=+"
.word	"AEOUIaouI"
.word	"-_=+"
.word	"AEOUIaouI"
.word	"-_=+"
.word	"AEOUIaouI"
.word	"-_=+"
.word	"AEOUIaouI"
.word	"-_=+"
.word	"AEOUIaouI"
.word	"-_=+"
.word	"AEOUIaouI"
.word	"-_=+"
.word	"AEOUIaouI"
.word	"-_=+"
.word	"AEOUIaouI"
.word	"-_=+"
.word	"AEOUIaouI"
.word	"-_=+"
.word	"AEOUIaouI"
.word	"-_=+"
.word	"AEOUIaouI"
.word	"-_=+"
.word	"AEOUIaouI"
.word	"-_=+"
.word	"AEOUIaouI"
.word	"-_=+"
.word	"AEOUIaouI"
.word	"-_=+"
.word	"AEOUIaouI"
.word	"-_=+"
.word	"AEOUIaouI"
.word	"-_=+"
.word	"AEOUIaouI"
.word	"-_=+"
.word	"AEOUIaouI"
.word	"-_=+"
.word	"AEOUIaouI"
.word	"-_=+"
.word	"AEOUIaouI"
.word	"-_=+"
.word	"AEOUIaouI"
.word	"-_=+"
.word	"AEOUIaouI"
.word	"-_=+"
.word	"AEOUIaouI"
.word	"-_=+"
.word	"AEOUIaouI"
.word	"-_=+"
.word	"AEOUIaouI"
.word	"-_=+"
.word	"AEOUIaouI"
.word	"-_=+"
.word	"AEOUIaouI"
.word	"-_=+"
.word	"AEOUIaouI"
.word	"-_=+"
.word	"AEOUIaouI"
.word	"-_=+"
.word	"AEOUIaouI"
.word	"-_=+"
.word	"AEOUIaouI"
.word	"-_=+"
.word	"AEOUIaouI"
.word	"-_=+"
.word	"AEOUIaouI"
.word	"-_=+"
.word	"AEOUIaouI"
.word	"-_=+"
.word	"AEOUIaouI"
.word	"-_=+"
.word	"AEOUIaouI"
.word	"-_=+"
.word	"AEOUIaouI"
.word	"-_=+"
.word	"AEOUIaouI"
.word	"-_=+"
.word	"AEOUIaouI"
.word	"-_=+"
.word	"AEOUIaouI"
.word	"-_=+"
.word	"AEOUIaouI"
.word	"-_=+"
.word	"AEOUIaouI"
.word	"-_=+"
.word	"AEOUIaouI"
.word	"-_=+"
.word	"AEOUIaouI"
.word	"-_=+"
.word	"AEOUIaouI"
.word	"-_=+"
.word	"AEOUIaouI"
.word	"-_=+"
.word	"AEOUIaouI"
.word	"-_=+"
.word	"AEOUIaouI"
.word	"-_=+"
.word	"AEOUIaouI"
.word	"-_=+"
.word	"AEOUIaouI"
.word	"-_=+"
.word	"AEOUIaouI"
.word	"-_=+"
.word	"AEOUIaouI"
.word	"-_=+"
.word	"AEOUIaouI"
.word	"-_=+"
.word	"AEOUIaouI"
.word	"-_=+"
.word	"AEOUIaouI"
.word	"-_=+"
.word	"AEOUIaouI"
.word	"-_=+"
.word	"AEOUIaouI"
.word	"-_=+"
.word	"AEOUIaouI"
.word	"-_=+"
.word	"AEOUIaouI"
.word	"-_=+"
.word	"AEOUIaouI"
.word	"-_=+"
.word	"AEOUIaouI"
.word	"-_=+"
.word	"AEOUIaouI"
.word	"-_=+"
.word	"AEOUIaouI"
.word	"-_=+"
.word	"AEOUIaouI"
.word	"-_=+"
.word	"AEOUIaouI"
.word	"-_=+"
.word	"AEOUIaouI"
.word	"-_=+"
.word	"AEOUIaouI"
.word	"-_=+"
.word	"AEOUIaouI"
.word	"-_=+"
.word	"AEOUIaouI"
.word	"-_=+"
.word	"AEOUIaouI"
.word	"-_=+"
.word	"AEOUIaouI"
.word	"-_=+"
.word	"AEOUIaouI"
.word	"-_=+"
.word	"AEOUIaouI"
.word	"-_=+"
.word	"AEOUIaouI"
.word	"-_=+"
.word	"AEOUIaouI"
.word	"-_=+"
.word	"AEOUIaouI"
.word	"-_=+"
.word	"AEOUIaouI"
.word	"-_=+"
.word	"AEOUIaouI"
.word	"-_=+"
.word	"AEOUIaouI"
.word	"-_=+"
.word	"AEOUIaouI"
.word	"-_=+"
.word	"AEOUIaouI"
.word	"-_=+"
.word	"AEOUIaouI"
.word	"-_=+"
.word	"AEOUIaouI"
.word	"-_=+"
.word	"AEOUIaouI"
.word	"-_=+"
.word	"AEOUIaouI"
.word	"-_=+"
.word	"AEOUIaouI"
.word	"-_=+"
.word	"AEOUIaouI"
.word	"-_=+"
.word	"AEOUIaouI"
.word	"-_=+"
.word	"AEOUIaouI"
.word	"-_=+"
.word	"AEOUIaouI"
.word	"-_=+"
.word	"AEOUIaouI"
.word	"-_=+"
.word	"AEOUIaouI"
.word	"-_=+"
.word	"AEOUIaouI"
.word	"-_=+"
.word	"AEOUIaouI"
.word	"-_=+"
.word	"AEOUIaouI"
.word	"-_=+"
.word	"AEOUIaouI"
.word	"-_=+"
.word	"AEOUIaouI"
.word	"-_=+"
.word	"AEOUIaouI"
.word	"-_=+"
.word	"AEOUIaouI"
.word	"-_=+"
.word	"AEOUIaouI"
.word	"-_=+"
.word	"AEOUIaouI"
.word	"-_=+"
.word	"AEOUIaouI"
.word	"-_=+"
.word	"AEOUIaouI"
.word	"-_=+"
.word	"AEOUIaouI"
.word	"-_=+"
.word	"AEOUIaouI"
.word	"-_=+"
.word	"AEOUIaouI"
.word	"-_=+"
.word	"AEOUIaouI"
.word	"-_=+"
.word	"AEOUIaouI"
.word	"-_=+"
.word	"AEOUIaouI"
.word	"-_=+"
.word	"AEOUIaouI"
.word	"-_=+"
.word	"AEOUIaouI"
.word	"-_=+"
.word	"AEOUIaouI"
.word	"-_=+"
.word	"AEOUIaouI"
.word	"-_=+"
.word	"AEOUIaouI"
.word	"-_=+"
.word	"AEOUIaouI"
.word	"-_=+"
.word	"AEOUIaouI"
.word	"-_=+"
.word	"AEOUIaouI"
.word	"-_=+"
.word	"AEOUIaouI"
.word	"-_=+"
.word	"AEOUIaouI"
.word	"-_=+"
.word	"AEOUIaouI"
.word	"-_=+"
.word	"AEOUIaouI"
.word	"-_=+"
.word	"AEOUIaouI"
.word	"-_=+"
.word	"AEOUIaouI"
.word	"-_=+"
.word	"AEOUIaouI"
.word	"-_=+"
.word	"AEOUIaouI"
.word	"-_=+"
.word	"AEOUIaouI"
.word	"-_=+"
.word	"AEOUIaouI"
.word	"-_=+"
.word	"AEOUIaouI"
.word	"-_=+"
.word	"AEOUIaouI"
.word	"-_=+"
.word	"AEOUIaouI"
.word	"-_=+"
.word	"AEOUIaouI"
.word	"-_=+"
.word	"AEOUIaouI"
.word	"-_=+"
.word	"AEOUIaouI"
.word	"-_=+"
.word	"AEOUIaouI"
.word	"-_=+"
.word	"AEOUIaouI"
.word	"-_=+"
.word	"AEOUIaouI"
.word	"-_=+"
.word	"AEOUIaouI"
.word	"-_=+"
.word	"AEOUIaouI"
.word	"-_=+"
.word	"AEOUIaouI"
.word	"-_=+"
.word	"AEOUIaouI"
.word	"-_=+"
.word	"AEOUIaouI"
.word	"-_=+"
.word	"AEOUIaouI"
.word	"-_=+"
.word	"AEOUIaouI"
.word	"-_=+"
.word	"AEOUIaouI"
.word	"-_=+"
.word	"AEOUIaouI"
.word	"-_=+"
.word	"AEOUIaouI"
.word	"-_=+"
.word	"AEOUIaouI"
.word	"-_=+"
.word	"AEOUIaouI"
.word	"-_=+"
.word	"AEOUIaouI"
.word	"-_=+"
.word	"AEOUIaouI"
.word	"-_=+"
.word	"AEOUIaouI"
.word	"-_=+"
.word	"AEOUIaouI"
.word	"-_=+"
.word	"AEOUIaouI"
.word	"-_=+"
.word	"AEOUIaouI"
.word	"-_=+"
.word	"AEOUIaouI"
.word	"-_=+"
.word	"AEOUIaouI"
.word	"-_=+"
.word	"AEOUIaouI"
.word	"-_=+"
.word	"AEOUIaouI"
.word	"-_=+"
.word	"AEOUIaouI"
.word	"-_=+"
.word	"AEOUIaouI"
.word	"-_=+"
.word	"AEOUIaouI"
.word	"-_=+"
.word	"AEOUIaouI"
.word	"-_=+"
.word	"AEOUIaouI"
.word	"-_=+"
.word	"AEOUIaouI"
.word	"-_=+"
.word	"AEOUIaouI"
.word	"-_=+"
.word	"AEOUIaouI"
.word	"-_=+"
.word	"AEOUIaouI"
.word	"-_=+"
.word	"AEOUIaouI"
.word	"-_=+"
.word	"AEOUIaouI"
.word	"-_=+"
.word	"AEOUIaouI"
.word	"-_=+"
.word	"AEOUIaouI"
.word	"-_=+"
.word	"AEOUIaouI"
.word	"-_=+"
.word	"AEOUIaouI"
.word	"-_=+"
.word	"AEOUIaouI"
.word	"-_=+"
.word	"AEOUIaouI"
.word	"-_=+"
.word	"AEOUIaouI"
.word	"-_=+"
.word	"AEOUIaouI"
.word	"-_=+"
.word	"AEOUIaouI"
.word	"-_=+"
.word	"AEOUIaouI"
.word	"-_=+"
.word	"AEOUIaouI"
.word	"-_=+"
.word	"AEOUIaouI"
.word	"-_=+"
.word	"AEOUIaouI"
.word	"-_=+"
.word	"AEOUIaouI"
.word	"-_=+"
.word	"AEOUIaouI"
.word	"-_=+"
.word	"AEOUIaouI"
.word	"-_=+"
.word	"AEOUIaouI"
.word	"-_=+"
.word	"AEOUIaouI"
.word	"-_=+"
.word	"AEOUIaouI"
.word	"-_=+"
.word	"AEOUIaouI"
.word	"-_=+"
.word	"AEOUIaouI"
.word	"-_=+"
.word	"AEOUIaouI"
.word	"-_=+"
.word	"AEOUIaouI"
.word	"-_=+"
.word	"AEOUIaouI"
.word	"-_=+"
.word	"AEOUIaouI"
.word	"-_=+"
.word	"AEOUIaouI"
.word	"-_=+"
.word	"AEOUIaouI"
.word	"-_=+"
.word	"AEOUIaouI"
.word	"-_=+"
.word	"AEOUIaouI"
.word	"-_=+"
.word	"AEOUIaouI"
.word	"-_=+"
.word	"AEOUIaouI"
.word	"-_=+"
.word	"AEOUIaouI"
.word	"-_=+"
.word	"AEOUIaouI"
.word	"-_=+"
.word	"AEOUIaouI"
.word	"-_=+"
.word	"AEOUIaouI"
.word	"-_=+"
.word	"AEOUIaouI"
.word	"-_=+"
.word	"AEOUIaouI"
.word	"-_=+"
.word	"AEOUIaouI"
.word	"-_=+"
.word	"AEOUIaouI"
.word	"-_=+"
.word	"AEOUIaouI"
.word	"-_=+"
.word	"AEOUIaouI"
.word	"-_=+"
.word	"AEOUIaouI"
.word	"-_=+"
.word	"AEOUIaouI"
.word	"-_=+"
.word	"AEOUIaouI"
.word	"-_=+"
.word	"AEOUIaouI"
.word	"-_=+"
.word	"AEOUIaouI"
.word	"-_=+"
.word	"AEOUIaouI"
.word	"-_=+"
.word	"AEOUIaouI"
.word	"-_=+"
.word	"AEOUIaouI"
.word	"-_=+"
.word	"AEOUIaouI"
.word	"-_=+"
.word	"AEOUIaouI"
.word	"-_=+"
.word	"AEOUIaouI"
.word	"-_=+"
.word	"AEOUIaouI"
.word	"-_=+"
.word	"AEOUIaouI"
.word	"-_=+"
.word	"AEOUIaouI"
.word	"-_=+"
.word	"AEOUIaouI"
.word	"-_=+"
.word	"AEOUIaouI"
.word	"-_=+"
.word	"AEOUIaouI"
.word	"-_=+"
.word	"AEOUIaouI"
.word	"-_=+"
.word	"AEOUIaouI"
.word	"-_=+"
.word	"AEOUIaouI"
.word	"-_=+"
.word	"AEOUIaouI"
.word	"-_=+"
.word	"AEOUIaouI"
.word	"-_=+"
.word	"AEOUIaouI"
.word	"-_=+"
.word	"AEOUIaouI"
.word	"-_=+"
.word	"AEOUIaouI"
.word	"-_=+"
.word	"AEOUIaouI"
.word	"-_=+"
.word	"AEOUIaouI"
.word	"-_=+"
.word	"AEOUIaouI"
.word	"-_=+"
.word	"AEOUIaouI"
.word	"-_=+"
.word	"AEOUIaouI"
.word	"-_=+"
.word	"AEOUIaouI"
.word	"-_=+"
.word	"AEOUIaouI"
.word	"-_=+"
.word	"AEOUIaouI"
.word	"-_=+"
.word	"AEOUIaouI"
.word	"-_=+"
.word	"AEOUIaouI"
.word	"-_=+"
.word	"AEOUIaouI"
.word	"-_=+"
.word	"AEOUIaouI"
.word	"-_=+"
.word	"AEOUIaouI"
.word	"-_=+"
.word	"AEOUIaouI"
.word	"-_=+"
.word	"AEOUIaouI"
.word	"-_=+"
.word	"AEOUIaouI"
.word	"-_=+"
.word	"AEOUIaouI"
.word	"-_=+"
.word	"AEOUIaouI"
.word	"-_=+"
.word	"AEOUIaouI"
.word	"-_=+"
.word	"AEOUIaouI"
.word	"-_=+"
.word	"AEOUIaouI"
.word	"-_=+"
.word	"AEOUIaouI"
.word	"-_=+"
.word	"AEOUIaouI"
.word	"-_=+"
.word	"AEOUIaouI"
.word	"-_=+"
.word	"AEOUIaouI"
.word	"-_=+"
.word	"AEOUIaouI"
.word	"-_=+"
.word	"AEOUIaouI"
.word	"-_=+"
.word	"AEOUIaouI"
.word	"-_=+"
.word	"AEOUIaouI"
.word	"-_=+"
.word	"AEOUIaouI"
.word	"-_=+"
.word	"AEOUIaouI"
.word	"-_=+"
.word	"AEOUIaouI"
.word	"-_=+"
.word	"AEOUIaouI"
.word	"-_=+"
.word	"AEOUIaouI"
.word	"-_=+"
.word	"AEOUIaouI"
.word	"-_=+"
.word	"AEOUIaouI"
.word	"-_=+"
.word	"AEOUIaouI"
.word	"-_=+"
.word	"AEOUIaouI"
.word	"-_=+"
.word	"AEOUIaouI"
.word	"-_=+"
.word	"AEOUIaouI"
.word	"-_=+"
.word	"AEOUIaouI"
.word	"-_=+"
.word	"AEOUIaouI"
.word	"-_=+"
.word	"AEOUIaouI"
.word	"-_=+"
.word	"AEOUIaouI"
.word	"-_=+"
.word	"AEOUIaouI"
.word	"-_=+"
.word	"AEOUIaouI"
.word	"-_=+"
.word	"AEOUIaouI"
.word	"-_=+"
.word	"AEOUIaouI"
.word	"-_=+"
.word	"AEOUIaouI"
.word	"-_=+"
.word	"AEOUIaouI"
.word	"-_=+"
.word	"AEOUIaouI"
.word	"-_=+"
.word	"AEOUIaouI"
.word	"-_=+"
.word	"AEOUIaouI"
.word	"-_=+"
.word	"AEOUIaouI"
.word	"-_=+"
.word	"AEOUIaouI"
.word	"-_=+"
.word	"AEOUIaouI"
.word	"-_=+"
.word	"AEOUIaouI"
.word	"-_=+"
.word	"AEOUIaouI"
.word	"-_=+"
.word	"AEOUIaouI"
.word	"-_=+"
.word	"AEOUIaouI"
.word	"-_=+"
.word	"AEOUIaouI"
.word	"-_=+"
.word	"AEOUIaouI"
.word	"-_=+"
.word	"AEOUIaouI"
.word	"-_=+"
.word	"AEOUIaouI"
.word	"-_=+"
.word	"AEOUIaouI"
.word	"-_=+"
.word	"AEOUIaouI"
.word	"-_=+"
.word	"AEOUIaouI"
.word	"-_=+"
.word	"AEOUIaouI"
.word	"-_=+"
.word	"AEOUIaouI"
.word	"-_=+"
.word	"AEOUIaouI"
.word	"-_=+"
.word	"AEOUIaouI"
.word	"-_=+"
.word	"AEOUIaouI"
.word	"-_=+"
.word	"AEOUIaouI"
.word	"-_=+"
.word	"AEOUIaouI"
.word	"-_=+"
.word	"AEOUIaouI"
.word	"-_=+"
.word	"AEOUIaouI"
.word	"-_=+"
.word	"AEOUIaouI"
.word	"-_=+"
.word	"AEOUIaouI"
.word	"-_=+"
.word	"AEOUIaouI"
.word	"-_=+"
.word	"AEOUIaouI"
.word	"-_=+"
.word	"AEOUIaouI"
.word	"-_=+"
.word	"AEOUIaouI"
.word	"-_=+"
.word	"AEOUIaouI"
.word	"-_=+"
.word	"AEOUIaouI"
.word	"-_=+"
.word	"AEOUIaouI"
.word	"-_=+"
.word	"AEOUIaouI"
.word	"-_=+"
.word	"AEOUIaouI"
.word	"-_=+"
.word	"AEOUIaouI"
.word	"-_=+"
.word	"AEOUIaouI"
.word	"-_=+"
.word	"AEOUIaouI"
.word	"-_=+"
.word	"AEOUIaouI"
.word	"-_=+"
.word	"AEOUIaouI"
.word	"-_=+"
.word	"AEOUIaouI"
.word	"-_=+"
.word	"AEOUIaouI"
.word	"-_=+"
.word	"AEOUIaouI"
.word	"-_=+"
.word	"AEOUIaouI"
.word	"-_=+"
.word	"AEOUIaouI"
.word	"-_=+"
.word	"AEOUIaouI"
.word	"-_=+"
.word	"AEOUIaouI"
.word	"-_=+"
.word	"AEOUIaouI"
.word	"-_=+"
.word	"AEOUIaouI"
.word	"-_=+"
.word	"AEOUIaouI"
.word	"-_=+"
.word	"AEOUIaouI"
.word	"-_=+"
.word	"AEOUIaouI"
.word	"-_=+"
.word	"AEOUIaouI"
.word	"-_=+"
.word	"AEOUIaouI"
.word	"-_=+"
.word	"AEOUIaouI"
.word	"-_=+"
.word	"AEOUIaouI"
.word	"-_=+"
.word	"AEOUIaouI"
.word	"-_=+"
.word	"AEOUIaouI"
.word	"-_=+"
.word	"AEOUIaouI"
.word	"-_=+"
.word	"AEOUIaouI"
.word	"-_=+"
.word	"AEOUIaouI"
.word	"-_=+"
.word	"AEOUIaouI"
.word	"-_=+"
.word	"AEOUIaouI"
.word	"-_=+"
.word	"AEOUIaouI"
.word	"-_=+"
.word	"AEOUIaouI"
.word	"-_=+"
.word	"AEOUIaouI"
.word	"-_=+"
.word	"AEOUIaouI"
.word	"-_=+"
.word	"AEOUIaouI"
.word	"-_=+"
.word	"AEOUIaouI"
.word	"-_=+"
.word	"AEOUIaouI"
.word	"-_=+"
.word	"AEOUIaouI"
.word	"-_=+"
.word	"AEOUIaouI"
.word	"-_=+"
.word	"AEOUIaouI"
.word	"-_=+"
.word	"AEOUIaouI"
.word	"-_=+"
.word	"AEOUIaouI"
.word	"-_=+"
.word	"AEOUIaouI"
.word	"-_=+"
.word	"AEOUIaouI"
.word	"-_=+"
.word	"AEOUIaouI"
.word	"-_=+"
.word	"AEOUIaouI"
.word	"-_=+"
.word	"AEOUIaouI"
.word	"-_=+"
.word	"AEOUIaouI"
.word	"-_=+"
.word	"AEOUIaouI"
.word	"-_=+"
.word	"AEOUIaouI"
.word	"-_=+"
.word	"AEOUIaouI"
.word	"-_=+"
.word	"AEOUIaouI"
.word	"-_=+"
.word	"AEOUIaouI"
.word	"-_=+"
.word	"AEOUIaouI"
.word	"-_=+"
.word	"AEOUIaouI"
.word	"-_=+"
.word	"AEOUIaouI"
.word	"-_=+"
.word	"AEOUIaouI"
.word	"-_=+"
.word	"AEOUIaouI"
.word	"-_=+"
.word	"AEOUIaouI"
.word	"-_=+"
.word	"AEOUIaouI"
.word	"-_=+"
.word	"AEOUIaouI"
.word	"-_=+"
.word	"AEOUIaouI"
.word	"-_=+"
.word	"AEOUIaouI"
.word	"-_=+"
.word	"AEOUIaouI"
.word	"-_=+"
.word	"AEOUIaouI"
.word	"-_=+"
.word	"AEOUIaouI"
.word	"-_=+"
.word	"AEOUIaouI"
.word	"-_=+"
.word	"AEOUIaouI"
.word	"-_=+"
.word	"AEOUIaouI"
.word	"-_=+"
.word	"AEOUIaouI"
.word	"-_=+"
.word	"AEOUIaouI"
.word	"-_=+"
.word	"AEOUIaouI"
.word	"-_=+"
.word	"AEOUIaouI"
.word	"-_=+"
.word	"AEOUIaouI"
.word	"-_=+"
.word	"AEOUIaouI"
.word	"-_=+"
.word	"AEOUIaouI"
.word	"-_=+"
.word	"AEOUIaouI"
.word	"-_=+"
.word	"AEOUIaouI"
.word	"-_=+"
.word	"AEOUIaouI"
.word	"-_=+"
.word	"AEOUIaouI"
.word	"-_=+"
.word	"AEOUIaouI"
.word	"-_=+"
.word	"AEOUIaouI"
.word	"-_=+"
.word	"AEOUIaouI"
.word	"-_=+"
.word	"AEOUIaouI"
.word	"-_=+"
.word	"AEOUIaouI"
.word	"-_=+"
.word	"AEOUIaouI"
.word	"-_=+"
.word	"AEOUIaouI"
.word	"-_=+"
.word	"AEOUIaouI"
.word	"-_=+"
.word	"AEOUIaouI"
.word	"-_=+"
.word	"AEOUIaouI"
.word	"-_=+"
.word	"AEOUIaouI"
.word	"-_=+"
.word	"AEOUIaouI"
.word	"-_=+"
.word	"AEOUIaouI"
.word	"-_=+"
.word	"AEOUIaouI"
.word	"-_=+"
.word	"AEOUIaouI"
.word	"-_=+"
.word	"AEOUIaouI"
.word	"-_=+"
.word	"AEOUIaouI"
.word	"-_=+"
.word	"AEOUIaouI"
.word	"-_=+"
.word	"AEOUIaouI"
.word	"-_=+"
.word	"AEOUIaouI"
.word	"-_=+"
.word	"AEOUIaouI"
.word	"-_=+"
.word	"AEOUIaouI"
.word	"-_=+"
.word	"AEOUIaouI"
.word	"-_=+"
.word	"AEOUIaouI"
.word	"-_=+"
.word	"AEOUIaouI"
.word	"-_=+"
.word	"AEOUIaouI"
.word	"-_=+"
.word	"AEOUIaouI"
.word	"-_=+"
.word	"AEOUIaouI"
.word	"-_=+"
.word	"AEOUIaouI"
.word	"-_=+"
.word	"AEOUIaouI"
.word	"-_=+"
.word	"AEOUIaouI"
.word	"-_=+"
.word	"AEOUIaouI"
.word	"-_=+"
.word	"AEOUIaouI"
.word	"-_=+"
.word	"AEOUIaouI"
.word	"-_=+"
.word	"AEOUIaouI"
.word	"-_=+"
.word	"AEOUIaouI"
.word	"-_=+"
.word	"AEOUIaouI"
.word	"-_=+"
.word	"AEOUIaouI"
.word	"-_=+"
.word	"AEOUIaouI"
.word	"-_=+"
.word	"AEOUIaouI"
.word	"-_=+"
.word	"AEOUIaouI"
.word	"-_=+"
.word	"AEOUIaouI"
.word	"-_=+"
.word	"AEOUIaouI"
.word	"-_=+"
.word	"AEOUIaouI"
.word	"-_=+"
.word	"AEOUIaouI"
.word	"-_=+"
.word	"AEOUIaouI"
.word	"-_=+"
.word	"AEOUIaouI"
.word	"-_=+"
.word	"AEOUIaouI"
.word	"-_=+"
.word	"AEOUIaouI"
.word	"-_=+"
.word	"AEOUIaouI"
.word	"-_=+"
.word	"AEOUIaouI"
.word	"-_=+"
.word	"AEOUIaouI"
.word	"-_=+"
.word	"AEOUIaouI"
.word	"-_=+"
.word	"AEOUIaouI"
.word	"-_=+"
.word	"AEOUIaouI"
.word	"-_=+"
.word	"AEOUIaouI"
.word	"-_=+"
.word	"AEOUIaouI"
.word	"-_=+"
.word	"AEOUIaouI"
.word	"-_=+"
.word	"AEOUIaouI"
.word	"-_=+"
.word	"AEOUIaouI"
.word	"-_=+"
.word	"AEOUIaouI"
.word	"-_=+"
.word	"AEOUIaouI"
.word	"-_=+"
.word	"AEOUIaouI"
.word	"-_=+"
.word	"AEOUIaouI"
.word	"-_=+"
.word	"AEOUIaouI"
.word	"-_=+"
.word	"AEOUIaouI"
.word	"-_=+"
.word	"AEOUIaouI"
.word	"-_=+"
.word	"AEOUIaouI"
.word	"-_=+"
.word	"AEOUIaouI"
.word	"-_=+"
.word	"AEOUIaouI"
.word	"-_=+"
.word	"AEOUIaouI"
.word	"-_=+"
.word	"AEOUIaouI"
.word	"-_=+"
.word	"AEOUIaouI"
.word	"-_=+"
.word	"AEOUIaouI"
.word	"-_=+"
.word	"AEOUIaouI"
.word	"-_=+"
.word	"AEOUIaouI"
.word	"-_=+"
.word	"AEOUIaouI"
.word	"-_=+"
.word	"AEOUIaouI"
.word	"-_=+"
.word	"AEOUIaouI"
.word	"-_=+"
.word	"AEOUIaouI"
.word	"-_=+"
.word	"AEOUIaouI"
.word	"-_=+"
.word	"AEOUIaouI"
.word	"-_=+"
.word	"AEOUIaouI"
.word	"-_=+"
.word	"AEOUIaouI"
.word	"-_=+"
.word	"AEOUIaouI"
.word	"-_=+"
.word	"AEOUIaouI"
.word	"-_=+"
.word	"AEOUIaouI"
.word	"-_=+"
.word	"AEOUIaouI"
.word	"-_=+"
.word	"AEOUIaouI"
.word	"-_=+"
.word	"AEOUIaouI"
.word	"-_=+"
.word	"AEOUIaouI"
.word	"-_=+"
.word	"AEOUIaouI"
.word	"-_=+"
.word	"AEOUIaouI"
.word	"-_=+"
.word	"AEOUIaouI"
.word	"-_=+"
.word	"AEOUIaouI"
.word	"-_=+"
.word	"AEOUIaouI"
.word	"-_=+"
.word	"AEOUIaouI"
.word	"-_=+"
.word	"AEOUIaouI"
.word	"-_=+"
.word	"AEOUIaouI"
.word	"-_=+"
.word	"AEOUIaouI"
.word	"-_=+"
.word	"AEOUIaouI"
.word	"-_=+"
.word	"AEOUIaouI"
.word	"-_=+"
.word	"AEOUIaouI"
.word	"-_=+"
.word	"AEOUIaouI"
.word	"-_=+"
.word	"AEOUIaouI"
.word	"-_=+"
.word	"AEOUIaouI"
.word	"-_=+"
.word	"AEOUIaouI"
.word	"-_=+"
.word	"AEOUIaouI"
.word	"-_=+"
.word	"AEOUIaouI"
.word	"-_=+"
.word	"AEOUIaouI"
.word	"-_=+"
.word	"AEOUIaouI"
.word	"-_=+"
.word	"AEOUIaouI"
.word	"-_=+"
.word	"AEOUIaouI"
.word	"-_=+"
.word	"AEOUIaouI"
.word	"-_=+"
.word	"AEOUIaouI"
.word	"-_=+"
.word	"AEOUIaouI"
.word	"-_=+"
.word	"AEOUIaouI"
.word	"-_=+"
.word	"AEOUIaouI"
.word	"-_=+"
.word	"AEOUIaouI"
.word	"-_=+"
.word	"AEOUIaouI"
.word	"-_=+"
.word	"AEOUIaouI"
.word	"-_=+"
.word	"AEOUIaouI"
.word	"-_=+"
.word	"AEOUIaouI"
.word	"-_=+"
.word	"AEOUIaouI"
.word	"-_=+"
.word	"AEOUIaouI"
.word	"-_=+"
.word	"AEOUIaouI"
.word	"-_=+"
.word	"AEOUIaouI"
.word	"-_=+"
.word	"AEOUIaouI"
.word	"-_=+"
.word	"AEOUIaouI"
.word	"-_=+"
.word	"AEOUIaouI"
.word	"-_=+"
.word	"AEOUIaouI"
.word	"-_=+"
.word	"AEOUIaouI"
.word	"-_=+"
.word	"AEOUIaouI"
.word	"-_=+"
.word	"AEOUIaouI"
.word	"-_=+"
.word	"AEOUIaouI"
.word	"-_=+"
.word	"AEOUIaouI"
.word	"-_=+"
.word	"AEOUIaouI"
.word	"-_=+"
.word	"AEOUIaouI"
.word	"-_=+"
.word	"AEOUIaouI"
.word	"-_=+"
.word	"AEOUIaouI"
.word	"-_=+"
.word	"AEOUIaouI"
.word	"-_=+"
.word	"AEOUIaouI"
.word	"-_=+"
.word	"AEOUIaouI"
.word	"-_=+"
.word	"AEOUIaouI"
.word	"-_=+"
.word	"AEOUIaouI"
.word	"-_=+"
.word	"AEOUIaouI"
.word	"-_=+"
.word	"AEOUIaouI"
.word	"-_=+"
.word	"AEOUIaouI"
.word	"-_=+"
.word	"AEOUIaouI"
.word	"-_=+"
.word	"AEOUIaouI"
.word	"-_=+"
.word	"AEOUIaouI"
.word	"-_=+"
.word	"AEOUIaouI"
.word	"-_=+"
.word	"AEOUIaouI"
.word	"-_=+"
.word	"AEOUIaouI"
.word	"-_=+"
.word	"AEOUIaouI"
.word	"-_=+"
.word	"AEOUIaouI"
.word	"-_=+"
.word	"AEOUIaouI"
.word	"-_=+"
.word	"AEOUIaouI"
.word	"-_=+"
.word	"AEOUIaouI"
.word	"-_=+"
.word	"AEOUIaouI"
.word	"-_=+"
.word	"AEOUIaouI"
.word	"-_=+"
.word	"AEOUIaouI"
.word	"-_=+"
.word	"AEOUIaouI"
.word	"-_=+"
.word	"AEOUIaouI"
.word	"-_=+"
.word	"AEOUIaouI"
.word	"-_=+"
.word	"AEOUIaouI"
.word	"-_=+"
.word	"AEOUIaouI"
.word	"-_=+"
.word	"AEOUIaouI"
.word	"-_=+"
.word	"AEOUIaouI"
.word	"-_=+"
.word	"AEOUIaouI"
.word	"-_=+"
.word	"AEOUIaouI"
.word	"-_=+"
.word	"AEOUIaouI"
.word	"-_=+"
.word	"AEOUIaouI"
.word	"-_=+"
.word	"AEOUIaouI"
.word	"-_=+"
.word	"AEOUIaouI"
.word	"-_=+"
.word	"AEOUIaouI"
.word	"-_=+"
.word	"AEOUIaouI"
.word	"-_=+"
.word	"AEOUIaouI"
.word	"-_=+"
.word	"AEOUIaouI"
.word	"-_=+"
.word	"AEOUIaouI"
.word	"-_=+"
.word	"AEOUIaouI"
.word	"-_=+"
.word	"AEOUIaouI"
.word	"-_=+"
.word	"AEOUIaouI"
.word	"-_=+"
.word	"AEOUIaouI"
.word	"-_=+"
.word	"AEOUIaouI"
.word	"-_=+"
.word	"AEOUIaouI"
.word	"-_=+"
.word	"AEOUIaouI"
.word	"-_=+"
.word	"AEOUIaouI"
.word	"-_=+"
.word	"AEO