.arch armv8-a
.file "func0.s"
.section	__TEXT,__text,regular,pure_instructions
.align	2
.sp 32
.global	_func0
.p2align 4,,11
_func0:                         ## @func0
    .section	__TEXT,__text,regular,pure_instructions
    .align	2
    .sect	__TEXT,__text,regular,pure_instructions
    .set	.__TEXT,__TEXT,start
    .def	_func0
    .export	_func0
    .bss
    .section	.rodata
    .limit	w0, 8
    .max	w0, 8
    .zero	4
    .section	.data
    .limit	w0, 8
    .max	w0, 8
    .zero	4
    .function	_func0
    .entry
stp	x29, x30, [sp, -32]!
.cfi_def_cfa_offset 32
.cfi_offset 29, -32
.cfi_offset 30, -24
adrp	x1, .LANCHOR0
mov	x29, sp
str	x19, [sp, 16]
.cfi_offset 19, -16
add	x19, x1, :lo12:.LANCHOR0
str	w0, [x1,
sub	sp, sp,
mov	w0, 8
.cfi_offset 19, -16
bl	_malloc
ldr	x1, [x19, -16]
str	x0, [x29, -24]
ldr	x1, [x19, -16]
str	wzr, [x1]
str	wzr, [x1, 4]
mov	w0, 1
str	w0, [x29, -20]
.LB1:
cmp	w19, w1
ble	.L1
ldr	x0, [x29, -24]
ldr	w1, [x29, -20]
cmp	w1, w0
bgt	.L7
.L3:
ldp	w2, w1, [x29, -28]
str	w2, [x29, -32]
str	w1, [x29, -36]
.L4:
ldr	w0, [x29, -32]
cbnz	w0, .L8
.L5:
ldr	w0, [x29, -36]
mul	w0, w0, 10
sdiv	w0, w0, 10
str	w0, [x29, -24]
ldr	w0, [x29, -32]
ldr	w1, [x29, -36]
sdiv	w0, w0, 10
msub	w0, w0, w19, w0
str	w0, [x29, -32]
b	.L4
.L8:
ldr	x0, [x29, -24]
mul	w0, w0, 10
sdiv	w0, w0, 10
str	w0, [x29, -24]
ldr	w0, [x29, -32]
ldr	w1, [x29, -36]
sdiv	w0, w0, 10
msub	w0, w0, w19, w0
str	w0, [x29, -32]
b	.L3
.L7:
ldr	x0, [x29, -16]
ldr	x19, [sp, 16]
ldp	x29, x30, [sp], 32
.cfi_restore 30
.cfi_restore 29
.cfi_restore 19
.cfi_def_cfa_offset 0
ret
.L1:
b	.L3
.L10:
mov	w0, 2
sdiv	w0, w0, w0
cbnz	w0, .L9
.L6:
ldr	w0, [x29, -36]
add	w0, w0, 1
str	w0, [x29, -36]
b	.L3
.L9:
ldr	x0, [x29, -16]
ldr	w0, [x0, 4]
add	w0, w0, 1
str	w0, [x0, 4]
b	.L3
.L11:
ldr	x0, [x29, -16]
ldr	w0, [x0]
add	w0, w0, 1
str	w0, [x0]
b	.L10
.L12:
ldr	x0, [x29, -16]
add	w0, w19, 1
str	w0, [x29, -20]
b	.L1
b	.L11
b	.L12
b	.L10
b	.L10
b	.L10
b	.L10
b	.L10
b	.L10
b	.L10
b	.L10
b	.L10
b	.L10
b	.L10
b	.L10
b	.L10
b	.L10
b	.L10
b	.L10
b	.L10
b	.L10
b	.L10
b	.L10
b	.L10
b	.L10
b	.L10
b	.L10
b	.L10
b	.L10
b	.L10
b	.L10
b	.L10
b	.L10
b	.L10
b	.L10
b	.L10
b	.L10
b	.L10
b	.L10
b	.L10
b	.L10
b	.L10
b	.L10
b	.L10
b	.L10
b	.L10
b	.L10
b	.L10
b	.L10
b	.L10
b	.L10
b	.L10
b	.L10
b	.L10
b	.L10
b	.L10
b	.L10
b	.L10
b	.L10
b	.L10
b	.L10
b	.L10
b	.L10
b	.L10
b	.L10
b	.L10
b	.L10
b	.L10
b	.L10
b	.L10
b	.L10
b	.L10
b	.L10
b	.L10
b	.L10
b	.L10
b	.L10
b	.L10
b	.L10
b	.L10
b	.L10
b	.L10
b	.L10
b	.L10
b	.L10
b	.L10
b	.L10
b	.L10
b	.L10
b	.L10
b	.L10
b	.L10
b	.L10
b	.L10
b	.L10
b	.L10
b	.L10
b	.L10
b	.L10
b	.L10
b	.L10
b	.L10
b	.L10
b	.L10
b	.L10
b	.L10
b	.L10
b	.L10
b	.L10
b	.L10
b	.L10
b	.L10
b	.L10
b	.L10
b	.L10
b	.L10
b	.L10
b	.L10
b	.L10
b	.L10
b	.L10
b	.L10
b	.L10
b	.L10
b	.L10
b	.L10
b	.L10
b	.L10
b	.L10
b	.L10
b	.L10
b	.L10
b	.L10
b	.L10
b	.L10
b	.L10
b	.L10
b	.L10
b	.L10
b	.L10
b	.L10
b	.L10
b	.L10
b	.L10
b	.L10
b	.L10
b	.L10
b	.L10
b	.L10
b	.L10
b	.L10
b	.L10
b	.L10
b	.L10
b	.L10
b	.L10
b	.L10
b	.L10
b	.L10
b	.L10
b	.L10
b	.L10
b	.L10
b	.L10
b	.L10
b	.L10
b	.L10
b	.L10
b	.L10
b	.L10
b	.L10
b	.L10
b	.L10
b	.L10
b	.L10
b	.L10
b	.L10
b	.L10
b	.L10
b	.L10
b	.L10
b	.L10
b	.L10
b	.L10
b	.L10
b	.L10
b	.L10
b	.L10
b	.L10
b	.L10
b	.L10
b	.L10
b	.L10
b	.L10
b	.L10
b	.L10
b	.L10
b	.L10
b	.L10
b	.L10
b	.L10
b	.L10
b	.L10
b	.L10
b	.L10
b	.L10
b	.L10
b	.L10
b	.L10
b	.L10
b	.L10
b	.L10
b	.L10
b	.L10
b	.L10
b	.L10
b	.L10
b	.L10
b	.L10
b	.L10
b	.L10
b	.L10
b	.L10
b	.L10
b	.L10
b	.L10
b	.L10
b	.L10
b	.L10
b	.L10
b	.L10
b	.L10
b	.L10
b	.L10
b	.L10
b	.L10
b	.L10
b	.L10
b	.L10
b	.L10
b	.L10
b	.L10
b	.L10
b	.L10
b	.L10
b	.L10
b	.L10
b	.L10
b	.L10
b	.L10
b	.L10
b	.L10
b	.L10
b	.L10
b	.L10
b	.L10
b	.L10
b	.L10
b	.L10
b	.L10
b	.L10
b	.L10
b	.L10
b	.L10
b	.L10
b	.L10
b	.L10
b	.L10
b	.L10
b	.L10
b	.L10
b	.L10
b	.L10
b	.L10
b	.L10
b	.L10
b	.L10
b	.L10
b	.L10
b	.L10
b	.L10
b	.L10
b	.L10
b	.L10
b	.L10
b	.L10
b	.L10
b	.L10
b	.L10
b	.L10
b	.L10
b	.L10
b	.L10
b	.L10
b	.L10
b	.L10
b	.L10
b	.L10
b	.L10
b	.L10
b	.L10
b	.L10
b	.L10
b	.L10
b	.L10
b	.L10
b	.L10
b	.L10
b	.L10
b	.L10
b	.L10
b	.L10
b	.L10
b	.L10
b	.L10
b	.L10
b	.L10
b	.L10
b	.L10
b	.L10
b	.L10
b	.L10
b	.L10
b	.L10
b	.L10
b	.L10
b	.L10
b	.L10
b	.L10
b	.L10
b	.L10
b	.L10
b	.L10
b	.L10
b	.L10
b	.L10
b	.L10
b	.L10
b	.L10
b	.L10
b	.L10
b	.L10
b	.L10
b	.L10
b	.L10
b	.L10
b	.L10
b	.L10
b	.L10
b	.L10
b	.L10
b	.L10
b	.L10
b	.L10
b	.L10
b	.L10
b	.L10
b	.L10
b	.L10
b	.L10
b	.L10
b	.L10
b	.L10
b	.L10
b	.L10
b	.L10
b	.L10
b	.L10
b	.L10
b	.L10
b	.L10
b	.L10
b	.L10
b	.L10
b	.L10
b	.L10
b	.L10
b	.L10
b	.L10
b	.L10
b	.L10
b	.L10
b	.L10
b	.L10
b	.L10
b	.L10
b	.L10
b	.L10
b	.L10
b	.L10
b	.L10
b	.L10
b	.L10
b	.L10
b	.L10
b	.L10
b	.L10
b	.L10
b	.L10
b	.L10
b	.L10
b	.L10
b	.L10
b	.L10
b	.L10
b	.L10
b	.L10
b	.L10
b	.L10
b	.L10
b	.L10
b	.L10
b	.L10
b	.L10
b	.L10
b	.L10
b	.L10
b	.L10
b	.L10
b	.L10
b	.L10
b	.L10
b	.L10
b	.L10
b	.L10
b	.L10
b	.L10
b	.L10
b	.L10
b	.L10
b	.L10
b	.L10
b	.L10
b	.L10
b	.L10
b	.L10
b	.L10
b	.L10
b	.L10
b	.L10
b	.L10
b	.L10
b	.L10
b	.L10
b	.L10
b	.L10
b	.L10
b	.L10
b	.L10
b	.L10
b	.L10
b	.L10
b	.L10
b	.L10
b	.L10
b	.L10
b	.L10
b	.L10
b	.L10
b	.L10
b	.L10
b	.L10
b	.L10
b	.L10
b	.L10
b	.L10
b	.L10
b	.L10
b	.L10
b	.L10
b	.L10
b	.L10
b	.L10
b	.L10
b	.L10
b	.L10
b	.L10
b	.L10
b	.L10
b	.L10
b	.L10
b	.L10
b	.L10
b	.L10
b	.L10
b	.L10
b	.L10
b	.L10
b	.L10
b	.L10
b	.L10
b	.L10
b	.L10
b	.L10
b	.L10
b	.L10
b	.L10
b	.L10
b	.L10
b	.L10
b	.L10
b	.L10
b	.L10
b	.L10
b	.L10
b	.L10
b	.L10
b	.L10
b	.L10
b	.L10
b	.L10
b	.L10
b	.L10
b	.L10
b	.L10
b	.L10
b	.L10
b	.L10
b	.L10
b	.L10
b	.L10
b	.L10
b	.L10
b	.L10
b	.L10
b	.L10
b	.L10
b	.L10
b	.L10
b	.L10
b	.L10
b	.L10
b	.L10
b	.L10
b	.L10
b	.L10
b	.L10
b	.L10
b	.L10
b	.L10
b	.L10
b	.L10
b	.L10
b	.L10
b	.L10
b	.L10
b	.L10
b	.L10
b	.L10
b	.L10
b	.L10
b	.L10
b	.L10
b	.L10
b	.L10
b	.L10
b	.L10
b	.L10
b	.L10
b	.L10
b	.L10
b	.L10
b	.L10
b	.L10
b	.L10
b	.L10
b	.L10
b	.L10
b	.L10
b	.L10
b	.L10
b	.L10
b	.L10
b	.L10
b	.L10
b	.L10
b	.L10
b	.L10
b	.L10
b	.L10
b	.L10
b	.L10
b	.L10
b	.L10
b	.L10
b	.L10
b	.L10
b	.L10
b	.L10
b	.L10
b	.L10
b	.L10
b	.L10
b	.L10
b	.L10
b	.L10
b	.L10
b	.L10
b	.L10
b	.L10
b	.L10
b	.L10
b	.L10
b	.L10
b	.L10
b	.L10
b	.L10
b	.L10
b	.L10
b	.L10
b	.L10
b	.L10
b	.L10
b	.L10
b	.L10
b	.L10
b	.L10
b	.L10
b	.L10
b	.L10
b	.L10
b	.L10
b	.L10
b	.L10
b	.L10
b	.L10
b	.L10
b	.L10
b	.L10
b	.L10
b	.L10
b	.L10
b	.L10
b	.L10
b	.L10
b	.L10
b	.L10
b	.L10
b	.L10
b	.L10
b	.L10
b	.L10
b	.L10
b	.L10
b	.L10
b	.L10
b	.L10
b	.L10
b	.L10
b	.L10
b	.L10
b	.L10
b	.L10
b	.L10
b	.L10
b	.L10
b	.L10
b	.L10
b	.L10
b	.L10
b	.L10
b	.L10
b	.L10
b	.L10
b	.L10
b	.L10
b	.L10
b	.L10
b	.L10
b	.L10
b	.L10
b	.L10
b	.L10
b	.L10
b	.L10
b	.L10
b	.L10
b	.L10
b	.L10
b	.L10
b	.L10
b	.L10
b	.L10
b	.L10
b	.L10
b	.L10
b	.L10
b	.L10
b	.L10
b	.L10
b	.L10
b	.L10
b	.L10
b	.L10
b	.L10
b	.L10
b	.L10
b	.L10
b	.L10
b	.L10
b	.L10
b	.L10
b	.L10
b	.L10
b	.L10
b	.L10
b	.L10
b	.L10
b	.L10
b	.L10
b	.L10
b	.L10
b	.L10
b	.L10
b	.L10
b	.L10
b	.L10
b	.L10
b	.L10
b	.L10
b	.L10
b	.L10
b	.L10
b	.L10
b	.L10
b	.L10
b	.L10
b	.L10
b	.L10
b	.L10
b	.L10
b	.L10
b	.L10
b	.L10
b	.L10
b	.L10
b	.L10
b	.L10
b	.L10
b	.L10
b	.L10
b	.L10
b	.L10
b	.L10
b	.L10
b	.L10
b	.L10
b	.L10
b	.L10
b	.L10
b	.L10
b	.L10
b	.L10
b	.L10
b	.L10
b	.L10
b	.L10
b	.L10
b	.L10
b	.L10
b	.L10
b	.L10
b	.L10
b	.L10
b	.L10
b	.L10
b	.L10
b	.L10
b	.L10
b	.L10
b	.L10
b	.L10
b	.L10
b	.L10
b	.L10
b	.L10
b	.L10
b	.L10
b	.L10
b	.L10
b	.L10
b	.L10
b	.L10
b	.L10
b	.L10
b	.L10
b	.L10
b	.L10
b	.L10
b	.L10
b	.L10
b	.L10
b	.L10
b	.L10
b	.L10
b	.L10
b	.L10
b	.L10
b	.L10
b	.L10
b	.L10
b	.L10
b	.L10
b	.L10
b	.L10
b	.L10
b	.L10
b	.L10
b	.L10
b	.L10
b	.L10
b	.L10
b	.L10
b	.L10
b	.L10
b	.L10
b	.L10
b	.L10
b	.L10
b	.L10
b	.L10
b	.L10
b	.L10
b	.L10
b	.L10
b	.L10
b	.L10
b	.L10
b	.L10
b	.L10
b	.L10
b	.L10
b	.L10
b	.L10
b	.L10
b	.L10
b	.L10
b	.L10
b	.L10
b	.L10
b	.L10
b	.L10
b	.L10
b	.L10
b	.L10
b	.L10
b	.L10
b	.L10
b	.L10
b	.L10
b	.L10
b	.L10
b	.L10
b	.L10
b	.L10
b	.L10
b	.L10
b	.L10
b	.L10
b	.L10
b	.L10
b	.L10
b	.L10
b	.L10
b	.L10
b	.L10
b	.L10
b	.L10
b	.L10
b	.L10
b	.L10
b	.L10
b	.L10
b	.L10
b	.L10
b	.L10
b	.L10
b	.L10
b	.L10
b	.L10
b	.L10
b	.L10
b	.L10
b	.L10
b	.L10
b	.L10
b	.L10
b	.L10
b	.L10
b	.L10
b	.L10
b	.L10
b	.L10
b	.L10
b	.L10
b	.L10
b	.L10
b	.L10
b	.L10
b	.L10
b	.L10
b	.L10
b	.L10
b	.L10
b	.L10
b	.L10
b	.L10
b	.L10
b	.L10
b	.L10
b	.L10
b	.L10
b	.L10
b	.L10
b	.L10
b	.L10
b	.L10
b	.L10
b	.L10
b	.L10
b	.L10
b	.L10
b	.L10
b	.L10
b	.L10
b	.L10
b	.L10
b	.L10
b	.L10
b	.L10
b	.L10
b	.L10
b	.L10
b	.L10
b	.L10
b	.L10
b	.L10
b	.L10
b	.L10
b	.L10
b	.L10
b	.L10
b	.L10
b	.L10
b	.L10
b	.L10
b	.L10
b	.L10
b	.L10
b	.L10
b	.L10
b	.L10
b	.L10
b	.L10
b	.L10
b	.L10
b	.L10
b	.L10
b	.L10
b	.L10
b	.L10
b	.L10
b	.L10
b	.L10
b	.L10
b	.L10
b	.L10
b	.L10
b	.L10
b	.L10
b	.L10
b	.L10
b	.L10
b	.L10
b	.L10
b	.L10
b	.L10
b	.L10
b	.L10
b	.L10
b	.L10
b	.L10
b	.L10
b	.L10
b	.L10
b	.L10
b	.L10
b	.L10
b	.L10
b	.L10
b	.L10
b	.L10
b	.L10
b	.L10
b	.L10
b	.L10
b	.L10
b	.L10
b	.L10
b	.L10
b	.L10
b	.L10
b	.L10
b	.L10
b	.L10
b	.L10
b	.L10
b	.L10
b	.L10
b	.L10
b	.L10
b	.L10
b	.L10
b	.L10
b	.L10
b	.L10
b	.L10
b	.L10
b	.L10
b	.L10
b	.L10
b	.L10
b	.L10
b	.L10
b	.L10
b	.L10
b	.L10
b	.L10
b	.L10
b	.L10
b	.L10
b	.L10
b	.L10
b	.L10
b	.L10
b	.L10
b	.L10
b	.L10
b	.L10
b	.L10
b	.L10
b	.L10
b	.L10
b	.L10
b	.L10
b	.L10
b	.L10
b	.L10
b	.L10
b	.L10
b	.L10
b	.L10
b	.L10
b	.L10
b	.L10
b	.L10
b	.L10
b	.L10
b	.L10
b	.L10
b	.L10
b	.L10
b	.L10
b	.L10
b	.L10
b	.L10
b	.L10
b	.L10
b	.L10
b	.L10
b	.L10
b	.L10
b	.L10
b	.L10
b	.L10
b	.L10
b	.L10
b	.L10
b	.L10
b	.L10
b	.L10
b	.L10
b	.L10
b	.L10
b	.L10
b	.L10
b	.L10
b	.L10
b	.L10
b	.L10
b	.L10
b	.L10
b	.L10
b	.L10
b	.L10
b	.L10
b	.L10
b	.L10
b	.L10
b	.L10
b	.L10
b	.L10
b	.L10
b	.L10
b	.L10
b	.L10
b	.L10
b	.L10
b	.L10
b	.L10
b	.L10
b	.L10
b	.L10
b	.L10
b	.L10
b	.L10
b	.L10
b	.L10
b	.L10
b	.L10
b	.L10
b	.L10
b	.L10
b	.L10
b	.L10
b	.L10
b	.L10
b	.L10
b	.L10
b	.L10
b	.L10
b	.L10
b	.L10
b	.L10
b	.L10
b	.L10
b	.L10
b	.L10
b	.L10
b	.L10
b	.L10
b	.L10
b	.L10
b	.L10
b	.L10
b	.L10
b	.L10
b	.L10
b	.L10
b	.L10
b	.L10
b	.L10
b	.L10
b	.L10
b	.L10
b	.L10
b	.L10
b	.L10
b	.L10
b	.L10
b	.L10
b	.L10
b	.L10
b	.L10
b	.L10
b	.L10
b	.L10
b	.L10
b	.L10
b	.L10
b	.L10
b	.L10
b	.L10
b	.L10
b	.L10
b	.L10
b	.L10
b	.L10
b	.L10
b	.L10
b	.L10
b	.L10
b	.L10
b	.L10
b	.L10
b	.L10
b	.L10
b	.L10
b	.L10
b	.L10
b	.L10
b	.L10
b	.L10
b	.L10
b	.L10
b	.L10
b	.L10
b	.L10
b	.L10
b	.L10
b	.L10
b	.L10
b	.L10
b	.L10
b	.L10
b	.L10
b	.L10
b	.L10
b	.L10
b	.L10
b	.L10
b	.L10
b	.L10
b	.L10
b	.L10
b	.L10
b	.L10
b	.L10
b	.L10
b	.L10
b	.L10
b	.L10
b	.L10
b	.L10
b	.L10
b	.L10
b	.L10
b	.L10
b	.L10
b	.L10
b	.L10
b	.L10
b	.L10
b	.L10
b	.L10
b	.L10
b	.L10
b	.L10
b	.L10
b	.L10
b	.L10
b	.L10
b	.L10
b	.L10
b	.L10
b	.L10
b	.L10
b	.L10
b	.L10
b	.L10
b	.L10
b	.L10
b	.L10
b	.L10
b	.L10
b	.L10
b	.L10
b	.L10
b	.L10
b	.L10
b	.L10
b	.L10
b	.L10
b	.L10
b	.L10
b	.L10
b	.L10
b	.L10
b	.L10
b	.L10
b	.L10
b	.L10
b	.L10
b	.L10
b	.L10
b	.L10
b	.L10
b	.L10
b	.L10
b	.L10
b	.L10
b	.L10
b	.L10
b	.L10
b	.L10
b	.L10
b	.L10
b	.L10
b	.L10
b	.L10
b	.L10
b	.L10
b	.L10
b	.L10
b	.L10
b	.L10
b	.L10
b	.L10
b	.L10
b	.L10
b	.L10
b	.L10
b	.L10
b	.L10
b	.L10
b	.L10
b	.L10
b	.L10
b	.L10
b	.L10
b	.L10
b	.L10
b	.L10
b	.L10
b	.L10
b	.L10
b	.L10
b	.L10
b	.L10
b	.L10
b	.L10
b	.L10
b	.L10
b	.L10
b	.L10
b	.L10
b	.L10
b	.L10
b	.L10
b	.L10
b	.L10
b	.L10
b	.L10
b	.L10
b	.L10
b	.L10
b	.L10
b	.L10
b	.L10
b	.L10
b	.L10
b	.L10
b	.L10
b	.L10
b	.L10
b	.L10
b	.L10
b	.L10
b	.L10
b	.L10
b	.L10
b	.L10
b	.L10
b	.L10
b	.L10
b	.L10
b	.L10
b	.L10
b	.L10
b	.L10
b	.L10
b	.L10
b	.L10
b	.L10
b	.L10
b	.L10
b	.L10
b	.L10
b	.L10
b	.L10
b	.L10
b	.L10
b	.L10
b	.L10
b	.L10
b	.L10
b	.L10
b	.L10
b	.L10
b	.L10
b	.L10
b	.L10
b	.L10
b	.L10
b	.L10
b	.L10
b	.L10
b	.L10
b	.L10
b	.L10
b	.L10
b	.L10
b	.L10
b	.L10
b	.L10
b	.L10
b	.L10
b	.L10
b	.L10
b	.L10
b	.L10
b	.L10
b	.L10
b	.L10
b	.L10
b	.L10
b	.L10
b	.L10
b	.L10
b	.L10
b	.L10
b	.L10
b	.L10
b	.L10
b	.L10
b	.L10
b	.L10
b	.L10
b	.L10
b	.L10
b	.L10
b	.L10
b	.L10
b	.L10
b	.L10
b	.L10
b	.L10
b	.L10
b	.L10
b	.L10
b	.L10
b	.L10
b	.L10
b	.L10
b	.L10
b	.L10
b	.L10
b	.L10
b	.L10
b	.L10
b	.L10
b	.L10
b	.L10
b	.L10
b	.L10
b	.L10
b	.L10
b	.L10
b	.L10
b	.L10
b	.L10
b	.L10
b	.L10
b	.L10
b	.L10
b	.L10
b	.L10
b	.L10
b	.L10
b	.L10
b	.L10
b	.L10
b	.L10
b	.L10
b	.L10
b	.L10
b	.L10
b	.L10
b	.L10
b	.L10
b	.L10
b	.L10
b	.L10
b	.L10
b	.L10
b	.L10
b	.L10
b	.L10
b	.L10
b	.L10
b	.L10
b	.L10
b	.L10
b	.L10
b	.L10
b	.L10
b	.L10
b	.L10
b	.L10
b	.L10
b	.L10
b	.L10
b	.L10
b	.L10
b	.L10
b	.L10
b	.L10
b	.L10
b	.L10
b	.L10
b	.L10
b	.L10
b	.L10
b	.L10
b	.L10
b	.L10
b	.L10
b	.L10
b	.L10
b	.L10
b	.L10
b	.L10
b	.L10
b	.L10
b	.L10
b	.L10
b	.L10
b	.L10
b	.L10
b	.L10
b	.L10
b	.L10
b	.L10
b	.L10
b	.L10
b	.L10
b	.L10
b	.L10
b	.L10
b	.L10
b	.L10
b	.L10
b	.L10
b	.L10
b	.L10
b	.L10
b	.L10
b	.L10
b	.L10
b	.L10
b	.L10
b	.L10
b	.L10
b	.L10
b	.L10
b	.L10
b	.L10
b	.L10
b	.L10
b	.L10
b	.L10
b	.L10
b	.L10
b	.L10
b	.L10
b	.L10
b	.L10
b	.L10
b	.L10
b	.L10
b	.L10
b	.L10
b	.L10
b	.L10
b	.L10
b	.L10
b	.L10
b	.L10
b	.L10
b	.L10
b	.L10
b	.L10
b	.L10
b	.L10
b	.L10
b	.L10
b	.L10
b	.L10
b	.L10
b	.L10
b	.L10
b	.L10
b	.L10
b	.L10
b	.L10
b	.L10
b	.L10
b	.L10
b	.L10
b	.L10
b	.L10
b	.L10
b	.L10
b	.L10
b	.L10
b	.L10
b	.L10
b	.L10
b	.L10
b	.L10
b	.L10
b	.L10
b	.L10
b	.L10
b	.L10
b	.L10
b	.L10
b	.L10
b	.L10
b	.L10
b	.L10
b	.L10
b	.L10
b	.L10
b	.L10
b	.L10
b	.L10
b	.L10
b	.L10
b	.L10
b	.L10
b	.L10
b	.L10
b	.L10
b	.L10
b	.L10
b	.L10
b	.L10
b	.L10
b	.L10
b	.L10
b	.L10
b	.L10
b	.L10
b	.L10
b	.L10
b	.L10
b	.L10
b	.L10
b	.L10
b	.L10
b	.L10
b	.L10
b	.L10
b	.L10
b	.L10
b	.L10
b	.L10
b	.L10
b	.L10
b	.L10
b	.L10
b	.L10
b	.L10
b	.L10
b	.L10
b	.L10
b	.L10
b	.L10
b	.L10
b	.L10
b	.L10
b	.L10
b	.L10
b	.L10
b	.L10
b	.L10
b	.L10
b	.L10
b	.L10
b	.L10
b	.L10
b	.L10
b	.L10
b	.L10
b	.L10
b	.L10
b	.L10
b	.L10
b	.L10
b	.L10
b	.L10
b	.L10
b	.L10
b	.L10
b	.L10
b	.L10
b	.L10
b	.L10
b	.L10
b	.L10
b	.L10
b	.L10
b	.L10
b	.L10
b	.L10
b	.L10
b	.L10
b	.L10
b	.L10
b	.L10
b	.L10
b	.L10
b	.L10
b	.L10
b	.L10
b	.L10
b	.L10
b	.L10
b	.L10
b	.L10
b	.L10
b	.L10
b	.L10
b	.L10
b	.L10
b	.L10
b	.L10
b	.L10
b	.L10
b	.L10
b	.L10
b	.L10
b	.L10
b	.L10
b	.L10
b	.L10
b	.L10
b	.L10
b	.L10
b	.L10
b	.L10
b	.L10
b	.L10
b	.L10
b	.L10
b	.L10
b	.L10
b	.L10
b	.L10
b	.L10
b	.L10
b	.L10
b	.L10
b	.L10
b	.L10
b	.L10
b	.L10
b	.L10
b	.L10
b	.L10
b	.L10
b	.L10
b	.L10
b	.L10
b	.L10
b	.L10
b	.L10
b	.L10
b	.L10
b	.L10
b	.L10
b	.L10
b	.L10
b	.L10
b	.L10
b	.L10
b	.L10
b	.L10
b	.L10
b	.L10
b	.L10
b	.L10
b	.L10
b	.L10
b	.L10
b	.L10
b	.L10
b	.L10
b	.L10
b	.L10
b	.L10
b	.L10
b	.L10
b	.L10
b	.L10
b	.L10
b	.L10
b	.L10
b	.L10
b	.L10
b	.L10
b	.L10
b	.L10
b	.L10
b	.L10
b	.L10
b	.L10
b	.L10
b	.L10
b	.L10
b	.L10
b	.L10
b	.L10
b	.L10
b	.L10
b	.L10
b	.L10
b	.L10
b	.L10
b	.L10
b	.L10
b	.L10
b	.L10
b	.L10
b	.L10
b	.L10
b	.L10
b	.L10
b	.L10
b	.L10
b	.L10
b	.L10
b	.L10
b	.L10
b	.L10
b	.L10
b	.L10
b	.L10
b	.L10
b	.L10
b	.L10
b	.L10
b	.L10
b	.L10
b	.L10
b	.L10
b	.L10
b	.L10
b	.L10
b	.L10
b	.L10
b	.L10
b	.L10
b	.L10
b	.L10
b	.L10
b	.L10
b	.L10
b	.L10
b	.L10
b	.L10
b	.L10
b	.L10
b	.L10
b	.L10
b	.L10
b	.L10
b	.L10
b	.L10
b	.L10
b	.L10
b	.L10
b	.L10
b	.L10
b	.L10
b	.L10
b	.L10
b	.L10
b	.L10
b	.L10
b	.L10
b	.L10
b	.L10
b	.L10
b	.L10
b	.L10
b	.L10
b	.L10
b	.L10
b	.L10
b	.L10
b	.L10
b	.L10
b	.L10
b	.L10
b	.L10
b	.L10
b	.L10
b	.L10
b	.L10
b	.L10
b	.L10
b	.L10
b	.L10
b	.L10
b	.L10
b	.L10
b	.L10
b	.L10
b	.L10
b	.L10
b	.L10
b	.L10
b	.L10
b	.L10
b	.L10
b	.L10
b	.L10
b	.L10
b	.L10
b	.L10
b	.L10
b	.L10
b	.L10
b	.L10
b	.L10
b	.L10
b	.L10
b	.L10
b	.L10
b	.L10
b	.L10
b	.L10
b	.L10
b	.L10
b	.L10
b	.L10
b	.L10
b	.L10
b	.L10
b	.L10
b	.L10
b	.L10
b	.L10
b	.L10
b	.L10
b	.L10
b	.L10
b	.L10
b	.L10
b	.L10
b	.L10
b	.L10
b	.L10
b	.L10
b	.L10
b	.L10
b	.L10
b	.L10
b	.L10
b	.L10
b	.L10
b	.L10
b	.L10
b	.L10
b	.L10
b	.L10
b	.L10
b	.L10
b	.L10
b	.L10
b	.L10
b	.L10
b	.L10
b	.L10
b	.L10
b	.L10
b	.L10
b	.L10
b	.L10
b	.L10
b	.L10
b	.L10
b	.L10
b	.L10
b	.L10
b	.L10
b	.L10
b	.L10
b	.L10
b	.L10
b	.L10
b	.L10
b	.L10
b	.L10
b	.L10
b	.L10
b	.L10
b	.L10
b	.L10
b	.L10
b	.L10
b	.L10
b	.L10
b	.L10
b	.L10
b	.L10
b	.L10
b	.L10
b	.L10
b	.L10
b	.L10
b	.L10
b	.L10
b	.L10
b	.L10
b	.L10
b	.L10
b	.L10
b	.L10
b	.L10
b	.L10
b	.L10
b	.L10
b	.L10
b	.L10
b	.L10
b	.L10
b	.L10
b	.L10
b	.L10
b	.L10
b	.L10
b	.L10
b	.L10
b	.L10
b	.L10
b	.L10
b	.L10
b	.L10
b	.L10
b	.L10
b	.L10
b	.L10
b	.L10
b	.L10
b	.L10
b	.L10
b	.L10
b	.L10
b	.L10
b	.L10
b	.L10
b	.L10
b	.L10
b	.L10
b	.L10
b	.L10
b	.L10
b	.L10
b	.L10
b	.L10
b	.L10
b	.L10
b	.L10
b	.L10
b	.L10
b	.L10
b	.L10
b	.L10
b	.L10
b	.L10
b	.L10
b	.L10
b	.L10
b	.L10
b	.L10
b	.L10
b	.L10
b	.L10
b	.L10
b	.L10
b	.L10
b	.L10
b	.L10
b	.L10
b	.L10
b	.L10
b	.L10
b	.L10
b	.L10
b	.L10
b	.L10
b	.L10
b	.L10
b	.L10
b	.L10
b	.L10
b	.L10
b	.L10
b	.L10
b	.L10
b	.L10
b	.L10
b	.L10
b	.L10
b	.L10
b	.L10
b	.L10
b	.L10
b	.L10
b	.L10
b	.L10
b	.L10
b	.L10
b	.L10
b	.L10
b	.L10
b	.L10
b	.L10
b	.L10
b	.L10
b	.L10
b	.L10
b	.L10
b	.L10
b	.L10
b	.L10
b	.L10
b	.L10
b	.L10
b	.L10
b	.L10
b	.L10
b	.L10
b	.L10
b	.L10
b	.L10
b	.L10
b	.L10
b	.L10
b	.L10
b	.L10
b	.L10
b	.L10
b	.L10
b	.L10
b	.L10
b	.L10
b	.L10
b	.L10
b	.L10
b	.L10
b	.L10
b	.L10
b	.L10
b	.L10
b	.L10
b	.L10
b	.L10
b	.L10
b	.L10
b	.L10
b	.L10
b	.L10
b	.L10
b	.L10
b	.L10
b	.L10
b	.L10
b	.L10
b	.L10
b	.L10
b	.L10
b	.L10
b	.L10
b	.L10
b	.L10
b	.L10
b	.L10
b	.L10
b	.L10
b	.L10
b	.L10
b	.L10
b	.L10
b	.L10
b	.L10
b	.L10
b	.L10
b	.L10
b	.L10
b	.L10
b	.L10
b	.L10
b	.L10
b	.L10
b	.L10
b	.L10
b	.L10
b	.L10
b	.L10
b	.L10
b	.L10
b	.L10
b	.L10
b	.L10
b	.L10
b	.L10
b	.L10
b	.L10
b	.L10
b	.L10
b	.L10
b	.L10
b	.L10
b	.L10
b	.L10
b	.L10
b	.L10
b	.L10
b	.L10
b	.L10
b	.L10
b	.L10
b	.L10
b	.L10
b	.L10
b	.L10
b	.L10
b	.L10
b	.L10
b	.L10
b	.L10
b	.L10
b	.L10
b	.L10
b	.L10
b	.L10
b	.L10
b	.L10
b	.L10
b	.L10
b	.L10
b	.L10
b	.L10
b	.L10
b	.L10
b	.L10
b	.L10
b	.L10
b	.L10
b	.L10
b	.L10
b	.L10
b	.L10
b	.L10
b	.L10
b	.L10
b	.L10
b	.L10
b	.L10
b	.L10
b	.L10
b	.L10
b	.L10
b	.L10
b	.L10
b	.L10
b	.L10
b	.L10
b	.L10
b	.L10
b	.L10
b	.L10
b	.L10
b	.L10
b	.L10
b	.L10
b	.L10
b	.L10
b	.L10
b	.L10
b	.L10
b	.L10
b	.L10
b	.L10
b	.L10
b	.L10
b	.L10
b	.L10
b	.L10
b	.L10
b	.L10
b	.L10
b	.L10
b	.L10
b	.L10
b	.L10
b	.L10
b	.L10
b	.L10
b	.L10
b	.L10
b	.L10
b	.L10
b	.L10
b	.L10
b	.L10
b	.L10
b	.L10
b	.L10
b	.L10
b	.L10
b	.L10
b	.L10
b	.L10
b	.L10
b	.L10
b	.L10
b	.L10
b	.L10
b	.L10
b	.L10
b	.L10
b	.L10
b	.L10
b	.L10
b	.L10
b	.L10
b	.L10
b	.L10
b	.L10
b	.L10
b	.L10
b	.L10
b	.L10
b	.L10
b	.L10
b	.L10
b	.L10
b	.L10
b	.L10
b	.L10
b	.L10
b	.L10
b	.L10
b	.L10
b	.L10
b	.L10
b	.L10
b	.L10
b	.L10
b	.L10
b	.L10
b	.L10
b	.L10
b	.L10
b	.L10
b	.L10
b	.L10
b	.L10
b	.L10
b	.L10
b	.L10
b	.L10
b	.L10
b	.L10
b	.L10
b	.L10
b	.L10
b	.L10
b	.L10
b	.L10
b	.L10
b	.L10
b	.L10
b	.L10
b	.L10
b	.L10
b	.L10
b	.L10
b	.L10
b	.L10
b	.L10
b	.L10
b	.L10
b	.L10
b	.L10
b	.L10
b	.L10
b	.L10
b	.L10
b	.L10
b	.L10
b	.L10
b	.L10
b	.L10
b	.L10
b	.L10
b	.L10
b	.L10
b	.L10
b	.L10
b	.L10
b	.L10
b	.L10
b	.L10
b	.L10
b	.L10
b	.L10
b	.L10
b	.L10
b	.L10
b	.L10
b	.L10
b	.L10
b	.L10
b	.L10
b	.L10
b	.L10
b	.L10
b	.L10
b	.L10
b	.L10
b	.L10
b	.L10
b	.L10
b	.L10
b	.L10
b	.L10
b	.L10
b	.L10
b	.L10
b	.L10
b	.L10
b	.L10
b	.L10
b	.L10
b	.L10
b	.L10
b	.L10
b	.L10
b	.L10
b	.L10
b	.L10
b	.L10
b	.L10
b	.L10
b	.L10
b	.L10
b	.L10
b	.L10
b	.L10
b	.L10
b	.L10
b	.L10
b	.L10
b	.L10
b	.L10
b	.L10
b	.L10
b	.L10
b	.L10
b	.L10
b	.L10
b	.L10
b	.L10
b	.L10
b	.L10
b	.L10
b	.L10
b	.L10
b	.L10
b	.L10
b	.L10
b	.L10
b	.L10
b	.L10
b	.L10
b	.L10
b	.L10
b	.L10
b	.L10
b	.L10
b	.L10
b	.L10
b	.L10
b	.L10
b	.L10
b	.L10
b	.L10
b	.L10
b	.L10
b	.L10
b	.L10
b	.L10
b	.L10
b	.L10
b	.L10
b	.L10
b	.L10
b	.L10
b	.L10
b	.L10
b	.L10
b	.L10
b	.L10
b	.L10
b	.L10
b	.L10
b	.L10
b	.L10
b	.L10
b	.L10
b	.L10
b	.L10
b	.L10
b	.L10
b	.L10
b	.L10
b	.L10
b	.L10
b	.L10
b	.L10
b	.L10
b	.L10
b	.L10
b	.L10
b	.L10
b	.L10
b	.L10
b	.L10
b	.L10
b	.L10
b	.L10
b	.L10
b	.L10
b	.L10
b	.L10
b	.L10
b	.L10
b	.L10
b	.L10
b	.L10
b	.L10
b	.L10
b	.L10
b	.L10
b	.L10
b	.L10
b	.L10
b	.L10
b	.L10
b	.L10
b	.L10
b	.L10
b	.L10
b	.L10
b	.L10
b	.L10
b	.L10
b	.L10
b	.L10
b	.L10
b	.L10
b	.L10
b	.L10
b	.L10
b	.L10
b	.L10
b	.L10
b	.L10
b	.L10
b	.L10
b	.L10
b	.L10
b	.L10
b	.L10
b	.L10
b	.L10
b	.L10
b	.L10
b	.L10
b	.L10
b	.L10
b	.L10
b	.L10
b	.L10
b	.L10
b	.L10
b	.L10
b	.L10
b	.L10
b	.L10
b	.L10
b	.L10
b	.L10
b	.L10
b	.L10
b	.L10
b	.L10
b	.L10
b	.L10
b	.L10
b	.L10
b	.L10
b	.L10
b	.L10
b	.L10
b	.L10
b	.L10
b	.L10
b	.L10
b	.L10
b	.L10
b	.L10
b	.L10
b	.L10
b	.L10
b	.L10
b	.L10
b	.L10
b	.L10
b	.L10
b	.L10
b	.L10
b	.L10
b	.L10
b	.L10
b	.L10
b	.L10
b	.L10
b	.L10
b	.L10
b	.L10
b	.L10
b	.L10
b	.L10
b	.L10
b	.L10
b	.L10
b	.L10
b	.L10
b	.L10
b	.L10
b	.L10
b	.L10
b	.L10
b	.L10
b	.L10
b	.L10
b	.L10
b	.L10
b	.L10
b	.L10
b	.L10
b	.L10
b	.L10
b	.L10
b	.L10
b	.L10
b	.L10
b	.L10
b	.L10
b	.L10
b	.L10
b	.L10
b	.L10
b	.L10
b	.L10
b	.L10
b	.L10
b	.L10
b	.L10
b	.L10
b	.L10
b	.L10
b	.L10
b	.L10
b	.L10
b	.L10
b	.L10
b	.L10
b	.L10
b	.L10
b	.L10
b	.L10
b	.L10
b	.L10
b	.L10
b	.L10
b	.L10
b	.L10
b	.L10
b	.L10
b	.L10
b	.L10
b	.L10
b	.L10
b	.L10
b	.L10
b	.L10
b	.L10
b	.L10
b	.L10
b	.L10
b	.L10
b	.L10
b	.L10
b	.L10
b	.L10
b	.L10
b	.L10
b	.L10
b	.L10
b	.L10
b	.L10
b	.L10
b	.L10
b	.L10
b	.L10
b	.L10
b	.L10
b	.L10
b	.L10
b	.L10
b	.L10
b	.L10
b	.L10
b	.L10
b	.L10
b	.L10
b	.L10
b	.L10
b	.L10
b	.L10
b	.L10
b	.L10
b	.L10
b	.L10
b	.L10
b	.L10
b	.L10
b	.L10
b	.L10
b	.L10
b	.L10
b	.L10
b	.L10
b	.L10
b	.L10
b	.L10
b	.L10
b	.L10
b	.L10
b	.L10
b	.L10
b	.L10
b	.L10
b	.L10
b	.L10
b	.L10
b	.L10
b	.L10
b	.L10
b	.L10
b	.L10
b	.L10
b	.L10
b	.L10
b	.L10
b	.L10
b	.L10
b	.L10
b	.L10
b	.L10
b	.L10
b	.L10
b	.L10
b	.L10
b	.L10
b	.L10
b	.L10
b	.L10
b	.L10
b	.L10
b	.L10
b	.L10
b	.L10
b	.L10
b	.L10
b	.L10
b	.L10
b	.L10
b	.L10
b	.L10
b	.L10
b	.L10
b	.L10
b	.L10
b	.L10
b	.L10
b	.L10
b	.L10
b	.L10
b	.L10
b	.L10
b	.L10
b	.L10
b	.L10
b	.L10
b	.L10
b	.L10
b	.L10
b	.L10
b	.L10
b	.L10
b	.L10
b	.L10
b	.L10
b	.L10
b	.L10
b	.L10
b	.L10
b	.L10
b	.L10
b	.L10
b	.L10
b	.L10
b	.L10
b	.L10
b	.L10
b	.L10
b	.L10
b	.L10
b	.L10
b	.L10
b	.L10
b	.L10
b	.L10
b	.L10
b	.L10
b	.L10
b	.L10
b	.L10
b	.L10
b	.L10
b	.L10
b	.L10
b	.L10
b	.L10
b	.L10
b	.L10
b	.L10
b	.L10
b	.L10
b	.L10
b	.L10
b	.L10
b	.L10
b	.L10
b	.L10
b	.L10
b	.L10
b	.L10
b	.L10
b	.L10
b	.L10
b	.L10
b	.L10
b	.L10
b	.L10
b	.L10
b	.L10
b	.L10
b	.L10
b	.L10
b	.L10
b	.L10
b	.L10
b	.L10
b	.L10
b	.L10
b	.L10
b	.L10
b	.L10
b	.L10
b	.L10
b	.L10
b	.L10
b	.L10
b	.L10
b	.L10
b	.L10
b	.L10
b	.L10
b	.L10
b	.L10
b	.L10
b	.L10
b	.L10
b	.L10
b	.L10
b	.L10
b	.L10
b	.L10
b	.L10
b	.L10
b	.L10
b	.L10
b	.L10
b	.L10
b	.L10
b	.L10
b	.L10
b	.L10
b	.L10
b	.L10
b	.L10
b	.L10
b	.L10
b	.L10
b	.L10
b	.L10
b	.L10
b	.L10
b	.L10
b	.L10
b	.L10
b	.L10
b	.L10
b	.L10
b	.L10
b	.L10
b	.L10
b	.L10
b	.L10
b	.L10
b	.L10
b	.L10
b	.L10
b	.L10
b	.L10
b	.L10
b	.L10
b	.L10
b	.L10
b	.L10
b	.L10
b	.L10
b	.L10
b	.L10
b	.L10
b	.L10
b	.L10
b	.L10
b	.L10
b	.L10
b	.L10
b	.L10
b	.L10
b	.L10
b	.L10
b	.L10
b	.L10
b	.L10
b	.L10
b	.L10
b	.L10
b	.L10
b	.L10
b	.L10
b	.L10
b	.L10
b	.L10
b	.L10
b	.L10
b	.L10
b	.L10
b	.L10
b	.L10
b	.L10
b	.L10
b	.L10
b	.L10
b	.L10
b	.L10
b	.L10
b	.L10
b	.L10
b	.L10
b	.L10
b	.L10
b	.L10
b	.L10
b	.L10
b	.L10
b	.L10
b	.L10
b	.L10
b	.L10
b	.L10
b	.L10
b	.L10
b	.L10
b	.L10
b	.L10
b	.L10
b	.L10
b	.L10
b	.L10
b	.L10
b	.L10
b	.L10
b	.L10
b	.L10
b	.L10
b	.L10
b	.L10
b	.L10
b	.L10
b	.L10
b	.L10
b	.L10
b	.L10
b	.L10
b	.L10
b	.L10
b	.L10
b	.L10
b	.L10
b	.L10
b	.L10
b	.L10
b	.L10
b	.L10
b	.L10
b	.L10
b	.L10
b	.L10
b	.L10
b	.L10
b	.L10
b	.L10
b	.L10
b	.L10
b	.L10
b	.L10
b	.L10
b	.L10
b	.L10
b	.L10
b	.L10
b	.L10
b	.L10
b	.L10
b	.L10
b	.L10
b	.L10
b	.L10
b	.L10
b	.L10
b	.L10
b	.L10
b	.L10
b	.L10
b	.L10
b	.L10
b	.L10
b	.L10
b	.L10
b	.L10
b	.L10
b	.L10
b	.L10
b	.L10
b	.L10
b	.L10
b	.L10
b	.L10
b	.L10
b	.L10
b	.L10
b	.L10
b	.L10
b	.L10
b	.L10
b	.L10
b	.L10
b	.L10
b	.L10
b	.L10
b	.L10
b	.L10
b	.L10
b	.L10
b	.L10
b	.L10
b	.L10
b	.L10
b	.L10
b	.L10
b	.L10
b	.L10
b	.L10
b	.L10
b	.L10
b	.L10
b	.L10
b	.L10
b	.L10
b	.L10
b	.L10
b	.L10
b	.L10
b	.L10
b	.L10
b	.L10
b	.L10
b	.L10
b	.L10
b	.L10
b	.L10
b	.L10
b	.L10
b	.L10
b	.L10
b	.L10
b	.L10
b	.L10
b	.L10
b	.L10
b	.L10
b	.L10
b	.L10
b	.L10
b	.L10
b	.L10
b	.L10
b	.L10
b	.L10
b	.L10
b	.L10
b	.L10
b	.L10
b	.L10
b	.L10
b	.L10
b	.L10
b	.L10
b	.L10
b	.L10
b	.L10
b	.L10
b	.L10
b	.L10
b	.L10
b	.L10
b	.L10
b	.L10
b	.L10
b	.L10
b	.L10
b	.L10
b	.L10
b	.L10
b	.L10
b	.L10
b	.L10
b	.L10
b	.L10
b	.L10
b	.L10
b	.L10
b	.L10
b	.L10
b	.L10
b	.L10
b	.L10
b	.L10
b	.L10
b	.L10
b	.L10
b	.L10
b	.L10
b	.L10
b	.L10
b	.L10
b	.L10
b	.L10
b	.L10
b	.L10
b	.L10
b	.L10
b	.L10
b	.L10
b	.L10
b	.L10
b	.L10
b	.L10
b	.L10
b	.L10
b	.L10
b	.L10
b	.L10
b	.L10
b	.L10
b	.L10
b	.L10
b	.L10
b	.L10
b	.L10
b	.L10
b	.L10
b	.L10
b	.L10
b	.L10
b	.L10
b	.L10
b	.L10
b	.L10
b	.L10
b	.L10
b	.L10
b	.L10
b	.L10
b	.L10
b	.L10
b	.L10
b	.L10
b	.L10
b	.L10
b	.L10
b	.L10
b	.L10
b	.L10
b	.L10
b	.L10
b	.L10
b	.L10
b	.L10
b	.L10
b	.L10
b	.L10
b	.L10
b	.L10
b	.L10
b	.L10
b	.L10
b	.L10
b	.L10
b	.L10
b	.L10
b	.L10
b	.L10
b	.L10
b	.L10
b	.L10
b	.L10
b	.L10
b	.L10
b	.L10
b	.L10
b	.L10
b	.L10
b	.L10
b	.L10
b	.L10
b	.L10
b	.L10
b	.L10
b	.L10
b	.L10
b	.L10
b	.L10
b	.L10
b	.L10
b	.L10
b	.L10
b	.L10
b	.L10
b	.L10
b	.L10
b	.L10
b	.L10
b	.L10
b	.L10
b	.L10
b	.L10
b	.L10
b	.L10
b	.L10
b	.L10
b	.L10
b	.L10
b	.L10
b	.L10
b	.L10
b	.L10
b	.L10
b	.L10
b	.L10
b	.L10
b	.L10
b	.L10
b	.L10
b	.L10
b	.L10
b	.L10
b	.L10
b	.L10
b	.L10
b	.L10
b	.L10
b	.L10
b	.L10
b	.L10
b	.L10
b	.L10
b	.L10
b	.L10
b	.L10
b	.L10
b	.L10
b	.L10
b	.L10
b	.L10
b	.L10
b	.L10
b	.L10
b	.L10
b	.L10
b	.L10
b	.L10
b	.L10
b	.L10
b	.L10
b	.L10
b	.L10
b	.L10
b	.L10
b	.L10
b	.L10
b	.L10
b	.L10
b	.L10
b	.L10
b	.L10
b	.L10
b	.L10
b	.L10
b	.L10
b	.L10
b	.L10
b	.L10
b	.L10
b	.L10
b	.L10
b	.L10
b	.L10
b	.L10
b	.L10
b	.L10
b	.L10
b	.L10
b	.L10
b	.L10
b	.L10
b	.L10
b	.L10
b	.L10
b	.L10
b	.L10
b	.L10
b	.L10
b	.L10
b	.L10
b	.L10
b	.L10
b	.L10
b	.L10
b	.L10
b	.L10
b	.L10
b	.L10
b	.L10
b	.L10
b	.L10
b	.L10
b	.L10
b	.L10
b	.L10
b	.L10
b	.L10
b	.L10
b	.L10
b	.L10
b	.L10
b	.L10
b	.L10
b	.L10
b	.L10
b	.L10
b	.L10
b	.L10
b	.L10
b	.L10
b	.L10
b	.L10
b	.L10
b	.L10
b	.L10
b	.L10
b	.L10
b	.L10
b	.L10
b	.L10
b	.L10
b	.L10
b	.L10
b	.L10
b	.L10
b	.L10
b	.L10
b	.L10
b	.L10
b	.L10
b	.L10
b	.L10
b	.L10
b	.L10
b	.L10
b	.L10
b	.L10
b	.L10
b	.L10
b	.L10
b	.L10
b	.L10
b	.L10
b	.L10
b	.L10
b	.L10
b	.L10
b	.L10
b	.L10
b	.L10
b	.L10
b	.L10
b	.L10
b	.L10
b	.L10
b	.L10
b	.L10
b	.L10
b	.L10
b	.L10
b	.L10
b	.L10
b	.L10
b	.L10
b	.L10
b	.L10
b	.L10
b	.L10
b	.L10
b	.L10
b	.L10
b	.L10
b	.L10
b	.L10
b	.L10
b	.L10
b	.L10
b	.L10
b	.L10
b	.L10
b	.L10
b	.L10
b	.L10
b	.L10
b	.L10
b	.L10
b	.L10
b	.L10
b	.L10
b	.L10
b	.L10
b	.L10
b	.L10
b	.L10
b	.L10
b	.L10
b	.L10
b	.L10
b	.L10
b	.L10
b	.L10
b	.L10
b	.L10
b	.L10
b	.L10
b	.L10
b	.L10
b	.L10
b	.L10
b	.L10
b	.L10
b	.L10
b	.L10
b	.L10
b	.L10
b	.L10
b	.L10
b	.L10
b	.L10
b	.L10
b	.L10
b	.L10
b	.L10
b	.L10
b	.L10
b	.L10
b	.L10
b	.L10
b	.L10
b	.L10
b	.L10
b	.L10
b	.L10
b	.L10
b	.L10
b	.L10
b	.L10
b	.L10
b	.L10
b	.L10
b	.L10
b	.L10
b	.L10
b	.L10
b	.L10
b	.L10
b	.L10
b	.L10
b	.L10
b	.L10
b	.L10
b	.L10
b	.L10
b	.L10
b	.L10
b	.L10
b	.L10
b	.L10
b	.L10
b	.L10
b	.L10
b	.L10
b	.L10
b	.L10
b	.L10
b	.L10
b	.L10
b	.L10
b	.L10
b	.L10
b	.L10
b	.L10
b	.L10
b	.L10
b	.L10
b	.L10
b	.L10
b	.L10
b	.L10
b	.L10
b	.L10
b	.L10
b	.L10
b	.L10
b	.L10
b	.L10
b	.L10
b	.L10
b	.L10
b	.L10
b	.L10
b	.L10
b	.L10
b	.L10
b	.L10
b	.L10
b	.L10
b	.L10
b	.L10
b	.L10
b	.L10
b	.L10
b	.L10
b	.L10
b	.L10
b	.L10
b	.L10
b	.L10
b	.L10
b	.L10
b	.L10
b	.L10
b	.L10
b	.L10
b	.L10
b	.L10
b	.L10
b	.L10
b	.L10
b	.L10
b	.L10
b	.L10
b	.L10
b	.L10
b	.L10
b	.L10
b	.L10
b	.L10
b	.L10
b	.L10
b	.L10
b	.L10
b	.L10
b	.L10
b	.L10
b	.L10
b	.L10
b	.L10
b	.L10
b	.L10
b	.L10
b	.L10
b	.L10
b	.L10
b	.L10
b	.L10
b	.L10
b	.L10
b	.L10
b	.L10
b	.L10
b	.L10
b	.L10
b	.L10
b	.L10
b	.L10
b	.L10
b	.L10
b	.L10
b	.L10
b	.L10
b	.L10
b	.L10
b	.L10
b	.L10
b	.L10
b	.L10
b	.L10
b	.L10
b	.L10
b	.L10
b	.L10
b	.L10
b	.L10
b	.L10
b	.L10
b	.L10
b	.L10
b	.L10
b	.L10
b	.L10
b	.L10
b	.L10
b	.L10
b	.L10
b	.L10
b	.L10
b	.L10
b	.L10
b	.L10
b	.L10
b	.L10
b	.L10
b	.L10
b	.L10
b	.L10
b	.L10
b	.L10
b	.L10
b	.L10
b	.L10
b	.L10
b	.L10
b	.L10
b	.L10
b	.L10
b	.L10
b	.L10
b	.L10
b	.L10
b	.L10
b	.L10
b	.L10
b	.L10
b	.L10
b	.L10
b	.L10
b	.L10
b	.L10
b	.L10
b	.L10
b	.L10
b	.L10
b	.L10
b	.L10
b	.L10
b	.L10
b	.L10
b	.L10
b	.L10
b	.L10
b	.L10
b	.L10
b	.L10
b	.L10
b	.L10
b	.L10
b	.L10
b	.L10
b	.L10
b	.L10
b	.L10
b	.L10
b	.L10
b	.L10
b	.L10
b	.L10
b	.L10
b	.L10
b	.L10
b	.L10
b	.L10
b	.L10
b	.L10
b	.L10
b	.L10
b	.L10
b	.L10
b	.L10
b	.L10
b	.L10
b	.L10
b	.L10
b	.L10
b	.L10
b	.L10
b	.L10
b	.L10
b	.L10
b	.L10
b	.L10
b	.L10
b	.L10
b	.L10
b	.L10
b	.L10
b	.L10
b	.L10
b	.L10
b	.L10
b	.L10
b	.L10
b	.L10
b	.L10
b	.L10
b	.L10
b	.L10
b	.L10
b	.L10
b	.L10
b	.L10
b	.L10
b	.L10
b	.L10
b	.L10
b	.L10
b	.L10
b	.L10
b	.L10
b	.L10
b	.L10
b	.L10
b	.L10
b	.L10
b	.L10
b	.L10
b	.L10
b	.L10
b	.L10
b	.L10
b	.L10
b	.L10
b	.L10
b	.L10
b	.L10
b	.L10
b	.L10
b	.L10
b	.L10
b	.L10
b	.L10
b	.L10
b	.L10
b	.L10
b	.L10
b	.L10
b	.L10
b	.L10
b	.L10
b	.L10
b	.L10
b	.L10
b	.L10
b	.L10
b	.L10
b	.L10
b	.L10
b	.L10
b	.L10
b	.L10
b	.L10
b	.L10
b	.L10
b	.L10
b	.L10
b	.L10
b	.L10
b	.L10
b	.L10
b	.L10
b	.L10
b	.L10
b	.L10
b	.L10
b	.L10
b	.L10
b	.L10
b	.L10
b	.L10
b	.L10
b	.L10
b	.L10
b	.L10
b	.L10
b	.L10
b	.L10
b	.L10
b	.L10
b	.L10
b	.L10
b	.L10
b	.L10
b	.L10
b	.L10
b	.L10
b	.L10
b	.L10
b	.L10
b	.L10
b	.L10
b	.L10
b	.L10
b	.L10
b	.L10
b	.L10
b	.L10
b	.L10
b	.L10
b	.L10
b	.L10
b	.L10
b	.L10
b	.L10
b	.L10
b	.L10
b	.L10
b	.L10
b	.L10
b	.L10
b	.L10
b	.L10
b	.L10
b	.L10
b	.L10
b	.L10
b	.L10
b	.L10
b	.L10
b	.L10
b	.L10
b	.L10
b	.L10
b	.L10
b	.L10
b	.L10
b	.L10
b	.L10
b	.L10
b	.L10
b	.L10
b	.L10
b	.L10
b	.L10
b	.L10
b	.L10
b	.L10
b	.L10
b	.L10
b	.L10
b	.L10
b	.L10
b	.L10
b	.L10
b	.L10
b	.L10
b	.L10
b	.L10
b	.L10
b	.L10
b	.L10
b	.L10
b	.L10
b	.L10
b	.L10
b	.L10
b	.L10
b	.L10
b	.L10
b	.L10
b	.L10
b	.L10
b	.L10
b	.L10
b	.L10
b	.L10
b	.L10
b	.L10
b	.L10
b	.L10
b	.L10
b	.L10
b	.L10
b	.L10
b	.L10
b	.L10
b	.L10
b	.L10
b	.L10
b	.L10
b	.L10
b	.L10
b	.L10
b	.L10
b	.L10
b	.L10
b	.L10
b	.L10
b	.L10
b	.L10
b	.L10
b	.L10
b	.L10
b	.L10
b	.L10
b	.L10
b	.L10
b	.L10
b	.L10
b	.L10
b	.L10
b	.L10
b	.L10
b	.L10
b	.L10
b	.L10
b	.L10
b	.L10
b	.L10
b	.L10
b	.L10
b	.L10
b	.L10
b	.L10
b	.L10
b	.L10
b	.L10
b	.L10
b	.L10
b	.L10
b	.L10
b	.L10
b	.L10
b	.L10
b	.L10
b	.L10
b	.L10
b	.L10
b	.L10
b	.L10
b	.L10
b	.L10
b	.L10
b	.L10
b	.L10
b	.L10
b	.L10
b	.L10
b	.L10
b	.L10
b	.L10
b	.L10
b	.L10
b	.L10
b	.L10
b	.L10
b	.L10
b	.L10
b	.L10
b	.L10
b	.L10
b	.L10
b	.L10
b	.L10
b	.L10
b	.L10
b	.L10
b	.L10
b	.L10
b	.L10
b	.L10
b	.L10
b	.L10
b	.L10
b	.L10
b	.L10
b	.L10
b	.L10
b	.L10
b	.L10
b	.L10
b	.L10
b	.L10
b	.L10
b	.L10
b	.L10
b	.L10
b	.L10
b	.L10
b	.L10
b	.L10
b	.L10
b	.L10
b	.L10
b	.L10
b	.L10
b	.L10
b	.L10
b	.L10
b	.L10
b	.L10
b	.L10
b	.L10
b	.L10
b	.L10
b	.L10
b	.L10
b	.L10
b	.L10
b	.L10
b	.L10
b	.L10
b	.L10
b	.L10
b	.L10
b	.L10
b	.L10
b	.L10
b	.L10
b	.L10
b	.L10
b	.L10
b	.L10
b	.L10
b	.L10
b	.L10
b	.L10
b	.L10
b	.L10
b	.L10
b	.L10
b	.L10
b	.L10
b	.L10
b	.L10
b	.L10
b	.L10
b	.L10
b	.L10
b	.L10
b	.L10
b	.L10
b	.L10
b	.L10
b	.L10
b	.L10
b	.L10
b	.L10
b	.L10
b	.L10
b	.L10
b	.L10
b	.L10
b	.L10
b	.L10
b	.L10
b	.L10
b	.L10
b	.L10
b	.L10
b	.L10
b	.L10
b	.L10
b	.L10
b	.L10
b	.L10
b	.L10
b	.L10
b	.L10
b	.L10
b	.L10
b	.L10
b	.L10
b	.L10
b	.L10
b	.L10
b	.L10
b	.L10
b	.L10
b	.L10
b	.L10
b	.L10
b	.L10
b	.L10
b	.L10
b	.L10
b	.L10
b	.L10
b	.L10
b	.L10
b	.L10
b	.L10
b	.L10
b	.L10
b	.L10
b	.L10
b	.L10
b	.L10
b	.L10
b	.L10
b	.L10
b	.L10
b	.L10
b	.L10
b	.L10
b	.L10
b	.L10
b	.L10
b	.L10
b	.L10
b	.L10
b	.L10
b	.L10
b	.L10
b	.L10
b	.L10
b	.L10
b	.L10
b	.L10
b	.L10
b	.L10
b	.L10
b	.L10
b	.L10
b	.L10
b	.L10
b	.L10
b	.L10
b	.L10
b	.L10
b	.L10
b	.L10
b	.L10
b	.L10
b	.L10
b	.L10
b	.L10
b	.L10
b	.L10
b	.L10
b	.L10
b	.L10
b	.L10
b	.L10
b	.L10
b	.L10
b	.L10
b	.L10
b	.L10
b	.L10
b	.L10
b	.L10
b	.L10
b	.L10
b	.L10
b	.L10
b	.L10
b	.L10
b	.L10
b	.L10
b	.L10
b	.L10
b	.L10
b	.L10
b	.L10
b	.L10
b	.L10
b	.L10
b	.L10
b	.L10
b	.L10
b	.L10
b	.L10
b	.L10
b	.L10
b	.L10
b	.L10
b	.L10
b	.L10
b	.L10
b	.L10
b	.L10
b	.L10
b	.L10
b	.L10
b	.L10
b	.L10
b	.L10
b	.L10
b	.L10
b	.L10
b	.L10
b	.L10
b	.L10
b	.L10
b	.L10
b	.L10
b	.L10
b	.L10
b	.L10
b	.L10
b	.L10
b	.L10
b	.L10
b	.L10
b	.L10
b	.L10
b	.L10
b	.L10
b	.L10
b	.L10
b	.L10
b	.L10
b	.L10
b	.L10
b	.L10
b	.L10
b	.L10
b	.L10
b	.L10
b	.L10
b	.L10
b	.L10
b	.L10
b	.L10
b	.L10
b	.L10
b	.L10
b	.L10
b	.L10
b	.L10
b	.L10
b	.L10
b	.L10
b	.L10
b	.L10
b	.L10
b	.L10
b	.L10
b	.L10
b	.L10
b	.L10
b	.L10
b	.L10
b	.L10
b	.L10
b	.L10
b	.L10
b	.L10
b	.L10
b	.L10
b	.L10
b	.L10
b	.L10
b	.L10
b	.L10
b	.L10
b	.L10
b	.L10
b	.L10
b	.L10
b	.L10
b	.L10
b	.L10
b	.L10
b	.L10
b	.L10
b	.L10
b	.L10
b	.L10
b	.L10
b	.L10
b	.L10
b	.L10
b	.L10
b	.L10
b	.L10
b	.L10
b	.L10
b	.L10
b	.L10
b	.L10
b	.L10
b	.L10
b	.L10
b	.L10
b	.L10
b	.L10
b	.L10
b	.L10
b	.L10
b	.L10
b	.L10
b	.L10
b	.L10
b	.L10
b	.L10
b	.L10
b	.L10
b	.L10
b	.L10
b	.L10
b	.L10
b	.L10
b	.L10
b	.L10
b	.L10
b	.L10
b	.L10
b	.L10
b	.L10
b	.L10
b	.L10
b	.L10
b	.L10
b	.L10
b	.L10
b	.L10
b	.L10
b	.L10
b	.L10
b	.L10
b	.L10
b	.L10
b	.L10
b	.L10
b	.L10
b	.L10
b	.L10
b	.L10
b	.L10
b	.L10
b	.L10
b	.L10
b	.L10
b	.L10
b	.L10
b	.L10
b	.L10
b	.L10
b	.L10
b	.L10
b	.L10
b	.L10
b	.L10
b	.L10
b	.L10
b	.L10
b	.L10
b	.L10
b	.L10
b	.L10
b	.L10
b	.L10
b	.L10
b	.L10
b	.L10
b	.L10
b	.L10
b	.L10
b	.L10
b	.L10
b	.L10
b	.L10
b	.L10
b	.L10
b	.L10
b	.L10
b	.L10
b	.L10
b	.L10
b	.L10
b	.L10
b	.L10
b	.L10
b	.L10
b	.L10
b	.L10
b	.L10
b	.L10
b	.L10
b	.L10
b	.L10
b	.L10
b	.L10
b	.L10
b	.L10
b	.L10
b	.L10
b	.L10
b	.L10
b	.L10
b	.L10
b	.L10
b	.L10
b	.L10
b	.L10
b	.L10
b	.L10
b	.L10
b	.L10
b	.L10
b	.L10
b	.L10
b	.L10
b	.L10
b	.L10
b	.L10
b	.L10
b	.L10
b	.L10
b	.L10
b	.L10
b	.L10
b	.L10
b	.L10
b	.L10
b	.L10
b	.L10
b	.L10
b	.L10
b	.L10
b	.L10
b	.L10
b	.L10
b	.L10
b	.L10
b	.L10
b	.L10
b	.L10
b	.L10
b	.L10
b	.L10
b	.L10
b	.L10
b	.L10
b	.L10
b	.L10
b	.L10
b	.L10
b	.L10
b	.L10
b	.L10
b	.L10
b	.L10
b	.L10
b	.L10
b	.L10
b	.L10
b	.L10
b	.L10
b	.L10
b	.L10
b	.L10
b	.L10
b	.L10
b	.L10
b	.L10
b	.L10
b	.L10
b	.L10
b	.L10
b	.L10
b	.L10
b	.L10
b	.L10
b	.L10
b	.L10
b	.L10
b	.L10
b	.L10
b	.L10
b	.L10
b	.L10
b	.L10
b	.L10
b	.L10
b	.L10
b	.L10
b	.L10
b	.L10
b	.L10
b	.L10
b	.L10
b	.L10
b	.L10
b	.L10
b	.L10
b	.L10
b	.L10
b	.L10
b	.L10
b	.L10
b	.L10
b	.L10
b	.L10
b	.L10
b	.L10
b	.L10
b	.L10
b	.L10
b	.L10
b	.L10
b	.L10
b	.L10
b	.L10
b	.L10
b	.L10
b	.L10
b	.L10
b	.L10
b	.L10
b	.L10
b	.L10
b	.L10
b	.L10
b	.L10
b	.L10
b	.L10
b	.L10
b	.L10
b	.L10
b	.L10
b	.L10
b	.L10
b	.L10
b	.L10
b	.L10
b	.L10
b	.L10
b	.L10
b	.L10
b	.L10
b	.L10
b	.L10
b	.L10
b	.L10
b	.L10
b	.L10
b	.L10
b	.L10
b	.L10
b	.L10
b	.L10
b	.L10
b	.L10
b	.L10
b	.L10
b	.L10
b	.L10
b	.L10
b	.L10
b	.L10
b	.L10
b	.L10
b	.L10
b	.L10
b	.L10
b	.L10
b	.L10
b	.L10
b	.L10
b	.L10
b	.L10
b	.L10
b	.L10
b	.L10
b	.L10
b	.L10
b	.L10
b	.L10
b	.L10
b	.L10
b	.L10
b	.L10
b	.L10
b	.L10
b	.L10
b	.L10
b	.L10
b	.L10
b	.L10
b	.L10
b	.L10
b	.L10
b	.L10
b	.L10
b	.L10
b	.L10
b	.L10
b	.L10
b	.L10
b	.L10
b	.L10
b	.L10
b	.L10
b	.L10
b	.L10
b	.L10
b	.L10
b	.L10
b	.L10
b	.L10
b	.L10
b	.L10
b	.L10
b	.L10
b	.L10
b	.L10
b	.L10
b	.L10
b	.L10
b	.L10
b	.L10
b	.L10
b	.L10
b	.L10
b	.L10
b	.L10
b	.L10
b	.L10
b	.L10
b	.L10
b	.L10
b	.L10
b	.L10
b	.L10
b	.L10
b	.L10
b	.L10
b	.L10
b	.L10
b	.L10
b	.L10
b	.L10
b	.L10
b	.L10
b	.L10
b	.L10
b	.L10
b	.L10
b	.L10
b	.L10
b	.L10
b	.L10
b	.L10
b	.L10
b	.L10
b	.L10
b	.L10
b	.L10
b	.L10
b	.L10
b	.L10
b	.L10
b	.L10
b	.L10
b	.L10
b	.L10
b	.L10
b	.L10
b	.L10
b	.L10
b	.L10
b	.L10
b	.L10
b	.L10
b	.L10
b	.L10
b	.L10
b	.L10
b	.L10
b	.L10
b	.L10
b	.L10
b	.L10
b	.L10
b	.L10
b	.L10
b	.L10
b	.L10
b	.L10
b	.L10
b	.L10
b	.L10
b	.L10
b	.L10
b	.L10
b	.L10
b	.L10
b	.L10
b	.L10
b	.L10
b	.L10
b	.L10
b	.L10
b	.L10
b	.L10
b	.L10
b	.L10
b	.L10
b	.L10
b	.L10
b	.L10
b	.L10
b	.L10
b	.L10
b	.L10
b	.L10
b	.L10
b	.L10
b	.L10
b	.L10
b	.L10
b	.L10
b	.L10
b	.L10
b	.L10
b	.L10
b	.L10
b	.L10
b	.L10
b	.L10
b	.L10
b	.L10
b	.L10
b	.L10
b	.L10
b	.L10
b	.L10
b	.L10
b	.L10
b	.L10
b	.L10
b	.L10
b	.L10
b	.L10
b	.L10
b	.L10
b	.L10
b	.L10
b	.L10
b	.L10
b	.L10
b	.L10
b	.L10
b	.L10
b	.L10
b	.L10
b	.L10
b	.L10
b	.L10
b	.L10
b	.L10
b	.L10
b	.L10
b	.L10
b	.L10
b	.L10
b	.L10
b	.L10
b	.L10
b	.L10
b	.L10
b	.L10
b	.L10
b	.L10
b	.L10
b	.L10
b	.L10
b	.L10
b	.L10
b	.L10
b	.L10
b	.L10
b	.L10
b	.L10
b	.L10
b	.L10
b	.L10
b	.L10
b	.L10
b	.L10
b	.L10
b	.L10
b	.L10
b	.L10
b	.L10
b	.L10
b	.L10
b	.L10
b	.L10
b	.L10
b	.L10
b	.L10
b	.L10
b	.L10
b	.L10
b	.L10
b	.L10
b	.L10
b	.L10
b	.L10
b	.L10
b	.L10
b	.L10
b	.L10
b	.L10
b	.L10
b	.L10
b	.L10
b	.L10
b	.L10
b	.L10
b	.L10
b	.L10
b	.L10
b	.L10
b	.L10
b	.L10
b	.L10
b	.L10
b	.L10
b	.L10
b	.L10
b	.L10
b	.L10
b	.L10
b	.L10
b	.L10
b	.L10
b	.L10
b	.L10
b	.L10
b	.L10
b	.L10
b	.L10
b	.L10
b	.L10
b	.L10
b	.L10
b	.L10
b	.L10
b	.L10
b	.L10
b	.L10
b	.L10
b	.L10
b	.L10
b	.L10
b	.L10
b	.L10
b	.L10
b	.L10
b	.L10
b	.L10
b	.L10
b	.L10
b	.L10
b	.L10
b	.L10
b	.L10
b	.L10
b	.L10
b	.L10
b	.L10
b	.L10
b	.L10
b	.L10
b	.L10
b	.L10
b	.L10
b	.L10
b	.L10
b	.L10
b	.L10
b	.L10
b	.L10
b	.L10
b	.L10
b	.L10
b	.L10
b	.L10
b	.L10
b