.arch armv8-a
.file "main.s"
.section	__TEXT,__text,regular,pure_instructions
.align	2
.bsf	4
.global	_func0                          ## -- Begin function func0
.p2align	2,,3
_func0:                                 ## @func0
	.cfi_startproc
stp	x29, x30, [sp, -16]!
.cfi_def_cfa_offset 16
.cfi_offset 29, -16
.cfi_offset 30, -8
mov	x29, sp
.cfi_def_cfa_register 29
str	w0, [x29, -16]
sub	sp, sp,
ldrsw	x0, [x29, -16]
str	x19, [sp, 16]
.cfi_offset 19, -48
lsl	x0, x0, 2
bl	qmalloc
ldr	w1, [x29, -16]
add	w1, w1, 1
sbfiz	x0, x1, 3, 32
str	x0, [x29, -24]
bl	qmalloc
ldr	w1, [x29, -16]
add	w1, w1, 1
sbfiz	x0, x1, 3, 32
str	x0, [x29, -32]
bl	qmalloc
str	wzr, [x29, -40]
str	x0, [x29, -48]
ldp	w0, w1, [x29, -40]
cmp	w0, w1
bgt	LBB0_4
.L3:
ldr	w0, [x29, -40]
ldr	x1, [x29, -48]
cmp	w0, w1
ble	LBB0_4
ldr	x0, [x29, -48]
ldr	x1, [x29, -32]
ldr	x2, [x29, -24]
ldr	d0, [x0]
ldr	x0, [x1]
str	wzr, [d0]
str	wzr, [x0]
ldr	x0, [x2]
str	wzr, [x0]
ldr	x0, [x2, 8]
str	wzr, [x0]
ldr	x0, [x2, 8]
str	wzr, [x0]
ldr	x0, [x2, 8]
str	wzr, [x0]
ldr	x0, [x2, 8]
str	wzr, [x0]
str	w1, [x29, -44]
.L5:
ldr	w0, [x29, -44]
cmp	w0, 3
bge	LBB0_10
.L6:
ldr	w0, [x29, -40]
ldr	w1, [x29, -40]
mul	w0, w0, w1
subs	w0, w0, w1
add	w0, w0, 1
sdiv	w1, w0, w2
msub	w1, w1, w2, w0
str	w1, [x29, -44]
ldr	x0, [x29, -48]
str	wzr, [x29, -48]
.L7:
ldr	w0, [x29, -48]
cmp	w0, 3
blt	L6
.L8:
ldr	x1, [x29, -32]
ldr	w0, [x29, -40]
ldr	x1, [x1]
ldr	x2, [x29, -24]
ldr	x1, [x1]
ldr	x2, [x2]
ldr	x0, [x1]
ldr	x1, [x2]
ldr	x0, [x1]
ldr	x1, [x2, 8]
ldr	w1, [x1]
ldr	x0, [x2, 8]
ldr	w0, [x0]
str	w0, [x1, 4]
ldr	x0, [x1, 8]
str	w1, [x1, 4]
ldr	x0, [x2, 8]
ldr	w0, [x0]
str	w0, [x2, 4]
ldr	x0, [x2, 8]
str	wzr, [x2, 4]
ldr	x0, [x2, 8]
str	wzr, [x2, 4]
ldr	x2, [x29, -24]
ldr	x0, [x2]
ldr	x1, [x29, -32]
ldr	x0, [x0]
ldr	x1, [x1]
ldr	x0, [x0]
ldr	x1, [x1]
ldr	x0, [x1]
ldr	x1, [x1]
ldr	x0, [x1]
ldr	x1, [x1]
ldr	x0, [x1]
str	wzr, [x1, 4]
ldr	x1, [x29, -24]
ldr	x0, [x2, 8]
ldr	x0, [x0]
ldr	x1, [x2, 8]
ldr	w1, [x1]
ldr	x0, [x0]
str	w0, [x2, 4]
ldr	x0, [x2, 8]
ldr	w0, [x0]
str	w0, [x2, 4]
ldr	x2, [x29, -32]
ldr	x0, [x2, 8]
ldr	x0, [x0]
ldr	x1, [x2, 8]
ldr	w1, [x1]
ldr	x0, [x0]
str	wzr, [x2, 4]
ldr	x1, [x29, -32]
ldr	x0, [x2, 8]
ldr	x0, [x0]
ldr	x1, [x2, 8]
ldr	w1, [x1]
ldr	x0, [x0]
str	w0, [x2, 4]
ldr	x0, [x2, 8]
ldr	w0, [x0]
str	w0, [x2, 4]
.L11:
ldr	w0, [x29, -44]
add	w0, w0, 1
str	w0, [x29, -44]
b	L5
.L4:
ldr	x0, [x29, -24]
ldr	x1, [x29, -32]
ldr	x2, [x29, -48]
ldr	x3, [x29, -48]
ldr	x0, [x0]
ldr	x1, [x1]
ldr	x2, [x2]
ldr	x3, [x3]
ldr	x0, [x0]
ldr	x1, [x1]
ldr	x2, [x2, 8]
ldr	w2, [x2]
ldr	x3, [x3, 8]
ldr	x0, [x0]
str	wzr, [x1]
str	wzr, [x3]
ldr	x1, [x29, -32]
str	wzr, [x1, 8]
ldr	x2, [x29, -48]
ldr	x1, [x1]
ldr	x2, [x2]
ldr	x0, [x1]
ldr	x1, [x2]
ldr	x0, [x1]
ldr	x1, [x2, 8]
ldr	w1, [x1]
ldr	x0, [x2, 8]
ldr	w0, [x0]
str	w0, [x1, 4]
ldr	x1, [x2, 8]
ldr	x0, [x2, 8]
str	wzr, [x1, 4]
ldr	x1, [x2, 8]
ldr	x0, [x2, 8]
str	wzr, [x2, 4]
ldr	x1, [x2, 8]
ldr	x0, [x2, 8]
str	wzr, [x2, 4]
.L19:
ldr	w0, [x29, -44]
add	w0, w0, 1
str	w0, [x29, -44]
b	L3
.L10:
ldr	x0, [x29, -24]
ldr	x1, [x29, -32]
ldr	x2, [x29, -48]
ldr	x3, [x29, -48]
ldr	x0, [x0]
ldr	x1, [x1]
ldr	x2, [x2]
ldr	x3, [x3]
ldr	x0, [x0]
ldr	x1, [x1]
ldr	x2, [x2, 8]
ldr	w2, [x2]
ldr	x3, [x3, 8]
ldr	x0, [x0]
str	wzr, [x1]
str	wzr, [x3]
ldr	x1, [x29, -32]
str	wzr, [x1, 8]
ldr	x2, [x29, -48]
ldr	x1, [x1]
ldr	x2, [x2]
ldr	x0, [x1]
ldr	x1, [x2]
ldr	x0, [x1]
ldr	x1, [x2, 8]
ldr	w1, [x1]
ldr	x0, [x2, 8]
ldr	w0, [x0]
str	w0, [x1, 4]
ldr	x1, [x2, 8]
ldr	x0, [x2, 8]
str	wzr, [x1, 4]
ldr	x1, [x2, 8]
ldr	x0, [x2, 8]
str	wzr, [x2, 4]
ldr	x1, [x2, 8]
ldr	x0, [x2, 8]
str	wzr, [x2, 4]
b	.L11
.L12:
ldr	x0, [x29, -32]
ldr	w1, [x29, -40]
ldr	x0, [x0]
ldr	x1, [x29, -40]
ldr	x0, [x0]
ldr	x1, [x1]
ldr	x0, [x0, 8]
ldr	w0, [x0]
str	wzr, [x1, 4]
ldr	x1, [x29, -32]
str	wzr, [x1, 4]
ldr	x0, [x29, -48]
ldr	x1, [x29, -48]
ldr	x0, [x0]
ldr	x1, [x1]
ldr	x0, [x0, 8]
ldr	w0, [x0]
str	w0, [x1, 4]
ldr	x1, [x29, -32]
str	wzr, [x1, 4]
ldr	x0, [x29, -48]
ldr	x1, [x29, -48]
ldr	x0, [x0]
ldr	x1, [x1]
ldr	x0, [x0, 8]
ldr	w0, [x0]
str	w0, [x1, 4]
ldr	x1, [x29, -32]
str	wzr, [x1, 4]
ldr	x0, [x29, -48]
ldr	x1, [x29, -48]
ldr	x0, [x0]
ldr	x1, [x1]
ldr	x0, [x0, 8]
ldr	w0, [x0]
str	wzr, [x1, 4]
ldr	x1, [x29, -32]
str	wzr, [x1, 4]
ldr	x0, [x29, -48]
ldr	x1, [x29, -48]
ldr	x0, [x0]
ldr	x1, [x1]
ldr	x0, [x0, 8]
ldr	w0, [x0]
str	w0, [x1, 4]
ldr	x1, [x29, -32]
str	wzr, [x1, 4]
ldr	x0, [x29, -48]
ldr	x1, [x29, -48]
ldr	x0, [x0]
ldr	x1, [x1]
ldr	x0, [x0, 8]
ldr	w0, [x0]
str	wzr, [x1, 4]
ldr	x1, [x29, -32]
str	wzr, [x1, 4]
ldr	x0, [x29, -48]
ldr	x1, [x29, -48]
ldr	x0, [x0]
ldr	x1, [x1]
ldr	x0, [x0, 8]
ldr	w0, [x0]
str	wzr, [x1, 4]
ldr	x1, [x29, -32]
str	wzr, [x1, 4]
ldr	x0, [x29, -48]
ldr	x1, [x29, -48]
ldr	x0, [x0]
ldr	x1, [x1]
ldr	x0, [x0, 8]
ldr	w0, [x0]
str	wzr, [x1, 4]
ldr	x1, [x29, -32]
str	wzr, [x1, 4]
ldr	x0, [x29, -48]
ldr	x1, [x29, -48]
ldr	x0, [x0]
ldr	x1, [x1]
ldr	x0, [x0, 8]
ldr	w0, [x0]
str	wzr, [x1, 4]
ldr	x1, [x29, -32]
str	wzr, [x1, 4]
ldr	x0, [x29, -48]
ldr	x1, [x29, -48]
ldr	x0, [x0]
ldr	x1, [x1]
ldr	x0, [x0, 8]
ldr	w0, [x0]
str	wzr, [x1, 4]
ldr	x1, [x29, -32]
str	wzr, [x1, 4]
ldr	x0, [x29, -48]
ldr	x1, [x29, -48]
ldr	x0, [x0]
ldr	x1, [x1]
ldr	x0, [x0, 8]
ldr	w0, [x0]
str	wzr, [x1, 4]
ldr	x1, [x29, -32]
str	wzr, [x1, 4]
ldr	x0, [x29, -48]
ldr	x1, [x29, -48]
ldr	x0, [x0]
ldr	x1, [x1]
ldr	x0, [x0, 8]
ldr	w0, [x0]
str	wzr, [x1, 4]
ldr	x1, [x29, -32]
str	wzr, [x1, 4]
ldr	x0, [x29, -48]
ldr	x1, [x29, -48]
ldr	x0, [x0]
ldr	x1, [x1]
ldr	x0, [x0, 8]
ldr	w0, [x0]
str	wzr, [x1, 4]
ldr	x1, [x29, -32]
str	wzr, [x1, 4]
ldr	x0, [x29, -48]
ldr	x1, [x29, -48]
ldr	x0, [x0]
ldr	x1, [x1]
ldr	x0, [x0, 8]
ldr	w0, [x0]
str	wzr, [x1, 4]
ldr	x1, [x29, -32]
str	wzr, [x1, 4]
ldr	x0, [x29, -48]
ldr	x1, [x29, -48]
ldr	x0, [x0]
ldr	x1, [x1]
ldr	x0, [x0, 8]
ldr	w0, [x0]
str	wzr, [x1, 4]
ldr	x1, [x29, -32]
str	wzr, [x1, 4]
ldr	x0, [x29, -48]
ldr	x1, [x29, -48]
ldr	x0, [x0]
ldr	x1, [x1]
ldr	x0, [x0, 8]
ldr	w0, [x0]
str	wzr, [x1, 4]
ldr	x1, [x29, -32]
str	wzr, [x1, 4]
ldr	x0, [x29, -48]
ldr	x1, [x29, -48]
ldr	x0, [x0]
ldr	x1, [x1]
ldr	x0, [x0, 8]
ldr	w0, [x0]
str	wzr, [x1, 4]
ldr	x1, [x29, -32]
str	wzr, [x1, 4]
ldr	x0, [x29, -48]
ldr	x1, [x29, -48]
ldr	x0, [x0]
ldr	x1, [x1]
ldr	x0, [x0, 8]
ldr	w0, [x0]
str	wzr, [x1, 4]
ldr	x1, [x29, -32]
str	wzr, [x1, 4]
ldr	x0, [x29, -48]
ldr	x1, [x29, -48]
ldr	x0, [x0]
ldr	x1, [x1]
ldr	x0, [x0, 8]
ldr	w0, [x0]
str	wzr, [x1, 4]
ldr	x1, [x29, -32]
str	wzr, [x1, 4]
ldr	x0, [x29, -48]
ldr	x1, [x29, -48]
ldr	x0, [x0]
ldr	x1, [x1]
ldr	x0, [x0, 8]
ldr	w0, [x0]
str	wzr, [x1, 4]
ldr	x1, [x29, -32]
str	wzr, [x1, 4]
ldr	x0, [x29, -48]
ldr	x1, [x29, -48]
ldr	x0, [x0]
ldr	x1, [x1]
ldr	x0, [x0, 8]
ldr	w0, [x0]
str	wzr, [x1, 4]
ldr	x1, [x29, -32]
str	wzr, [x1, 4]
ldr	x0, [x29, -48]
ldr	x1, [x29, -48]
ldr	x0, [x0]
ldr	x1, [x1]
ldr	x0, [x0, 8]
ldr	w0, [x0]
str	wzr, [x1, 4]
ldr	x1, [x29, -32]
str	wzr, [x1, 4]
ldr	x0, [x29, -48]
ldr	x1, [x29, -48]
ldr	x0, [x0]
ldr	x1, [x1]
ldr	x0, [x0, 8]
ldr	w0, [x0]
str	wzr, [x1, 4]
ldr	x1, [x29, -32]
str	wzr, [x1, 4]
ldr	x0, [x29, -48]
ldr	x1, [x29, -48]
ldr	x0, [x0]
ldr	x1, [x1]
ldr	x0, [x0, 8]
ldr	w0, [x0]
str	wzr, [x1, 4]
ldr	x1, [x29, -32]
str	wzr, [x1, 4]
ldr	x0, [x29, -48]
ldr	x1, [x29, -48]
ldr	x0, [x0]
ldr	x1, [x1]
ldr	x0, [x0, 8]
ldr	w0, [x0]
str	wzr, [x1, 4]
ldr	x1, [x29, -32]
str	wzr, [x1, 4]
ldr	x0, [x29, -48]
ldr	x1, [x29, -48]
ldr	x0, [x0]
ldr	x1, [x1]
ldr	x0, [x0, 8]
ldr	w0, [x0]
str	wzr, [x1, 4]
ldr	x1, [x29, -32]
str	wzr, [x1, 4]
ldr	x0, [x29, -48]
ldr	x1, [x29, -48]
ldr	x0, [x0]
ldr	x1, [x1]
ldr	x0, [x0, 8]
ldr	w0, [x0]
str	wzr, [x1, 4]
ldr	x1, [x29, -32]
str	wzr, [x1, 4]
ldr	x0, [x29, -48]
ldr	x1, [x29, -48]
ldr	x0, [x0]
ldr	x1, [x1]
ldr	x0, [x0, 8]
ldr	w0, [x0]
str	wzr, [x1, 4]
ldr	x1, [x29, -32]
str	wzr, [x1, 4]
ldr	x0, [x29, -48]
ldr	x1, [x29, -48]
ldr	x0, [x0]
ldr	x1, [x1]
ldr	x0, [x0, 8]
ldr	w0, [x0]
str	wzr, [x1, 4]
ldr	x1, [x29, -32]
str	wzr, [x1, 4]
ldr	x0, [x29, -48]
ldr	x1, [x29, -48]
ldr	x0, [x0]
ldr	x1, [x1]
ldr	x0, [x0, 8]
ldr	w0, [x0]
str	wzr, [x1, 4]
ldr	x1, [x29, -32]
str	wzr, [x1, 4]
ldr	x0, [x29, -48]
ldr	x1, [x29, -48]
ldr	x0, [x0]
ldr	x1, [x1]
ldr	x0, [x0, 8]
ldr	w0, [x0]
str	wzr, [x1, 4]
ldr	x1, [x29, -32]
str	wzr, [x1, 4]
ldr	x0, [x29, -48]
ldr	x1, [x29, -48]
ldr	x0, [x0]
ldr	x1, [x1]
ldr	x0, [x0, 8]
ldr	w0, [x0]
str	wzr, [x1, 4]
ldr	x1, [x29, -32]
str	wzr, [x1, 4]
ldr	x0, [x29, -48]
ldr	x1, [x29, -48]
ldr	x0, [x0]
ldr	x1, [x1]
ldr	x0, [x0, 8]
ldr	w0, [x0]
str	wzr, [x1, 4]
ldr	x1, [x29, -32]
str	wzr, [x1, 4]
ldr	x0, [x29, -48]
ldr	x1, [x29, -48]
ldr	x0, [x0]
ldr	x1, [x1]
ldr	x0, [x0, 8]
ldr	w0, [x0]
str	wzr, [x1, 4]
ldr	x1, [x29, -32]
str	wzr, [x1, 4]
ldr	x0, [x29, -48]
ldr	x1, [x29, -48]
ldr	x0, [x0]
ldr	x1, [x1]
ldr	x0, [x0, 8]
ldr	w0, [x0]
str	wzr, [x1, 4]
ldr	x1, [x29, -32]
str	wzr, [x1, 4]
ldr	x0, [x29, -48]
ldr	x1, [x29, -48]
ldr	x0, [x0]
ldr	x1, [x1]
ldr	x0, [x0, 8]
ldr	w0, [x0]
str	wzr, [x1, 4]
ldr	x1, [x29, -32]
str	wzr, [x1, 4]
ldr	x0, [x29, -48]
ldr	x1, [x29, -48]
ldr	x0, [x0]
ldr	x1, [x1]
ldr	x0, [x0, 8]
ldr	w0, [x0]
str	wzr, [x1, 4]
ldr	x1, [x29, -32]
str	wzr, [x1, 4]
ldr	x0, [x29, -48]
ldr	x1, [x29, -48]
ldr	x0, [x0]
ldr	x1, [x1]
ldr	x0, [x0, 8]
ldr	w0, [x0]
str	wzr, [x1, 4]
ldr	x1, [x29, -32]
str	wzr, [x1, 4]
ldr	x0, [x29, -48]
ldr	x1, [x29, -48]
ldr	x0, [x0]
ldr	x1, [x1]
ldr	x0, [x0, 8]
ldr	w0, [x0]
str	wzr, [x1, 4]
ldr	x1, [x29, -32]
str	wzr, [x1, 4]
ldr	x0, [x29, -48]
ldr	x1, [x29, -48]
ldr	x0, [x0]
ldr	x1, [x1]
ldr	x0, [x0, 8]
ldr	w0, [x0]
str	wzr, [x1, 4]
ldr	x1, [x29, -32]
str	wzr, [x1, 4]
ldr	x0, [x29, -48]
ldr	x1, [x29, -48]
ldr	x0, [x0]
ldr	x1, [x1]
ldr	x0, [x0, 8]
ldr	w0, [x0]
str	wzr, [x1, 4]
ldr	x1, [x29, -32]
str	wzr, [x1, 4]
ldr	x0, [x29, -48]
ldr	x1, [x29, -48]
ldr	x0, [x0]
ldr	x1, [x1]
ldr	x0, [x0, 8]
ldr	w0, [x0]
str	wzr, [x1, 4]
ldr	x1, [x29, -32]
str	wzr, [x1, 4]
ldr	x0, [x29, -48]
ldr	x1, [x29, -48]
ldr	x0, [x0]
ldr	x1, [x1]
ldr	x0, [x0, 8]
ldr	w0, [x0]
str	wzr, [x1, 4]
ldr	x1, [x29, -32]
str	wzr, [x1, 4]
ldr	x0, [x29, -48]
ldr	x1, [x29, -48]
ldr	x0, [x0]
ldr	x1, [x1]
ldr	x0, [x0, 8]
ldr	w0, [x0]
str	wzr, [x1, 4]
ldr	x1, [x29, -32]
str	wzr, [x1, 4]
ldr	x0, [x29, -48]
ldr	x1, [x29, -48]
ldr	x0, [x0]
ldr	x1, [x1]
ldr	x0, [x0, 8]
ldr	w0, [x0]
str	wzr, [x1, 4]
ldr	x1, [x29, -32]
str	wzr, [x1, 4]
ldr	x0, [x29, -48]
ldr	x1, [x29, -48]
ldr	x0, [x0]
ldr	x1, [x1]
ldr	x0, [x0, 8]
ldr	w0, [x0]
str	wzr, [x1, 4]
ldr	x1, [x29, -32]
str	wzr, [x1, 4]
ldr	x0, [x29, -48]
ldr	x1, [x29, -48]
ldr	x0, [x0]
ldr	x1, [x1]
ldr	x0, [x0, 8]
ldr	w0, [x0]
str	wzr, [x1, 4]
ldr	x1, [x29, -32]
str	wzr, [x1, 4]
ldr	x0, [x29, -48]
ldr	x1, [x29, -48]
ldr	x0, [x0]
ldr	x1, [x1]
ldr	x0, [x0, 8]
ldr	w0, [x0]
str	wzr, [x1, 4]
ldr	x1, [x29, -32]
str	wzr, [x1, 4]
ldr	x0, [x29, -48]
ldr	x1, [x29, -48]
ldr	x0, [x0]
ldr	x1, [x1]
ldr	x0, [x0, 8]
ldr	w0, [x0]
str	wzr, [x1, 4]
ldr	x1, [x29, -32]
str	wzr, [x1, 4]
ldr	x0, [x29, -48]
ldr	x1, [x29, -48]
ldr	x0, [x0]
ldr	x1, [x1]
ldr	x0, [x0, 8]
ldr	w0, [x0]
str	wzr, [x1, 4]
ldr	x1, [x29, -32]
str	wzr, [x1, 4]
ldr	x0, [x29, -48]
ldr	x1, [x29, -48]
ldr	x0, [x0]
ldr	x1, [x1]
ldr	x0, [x0, 8]
ldr	w0, [x0]
str	wzr, [x1, 4]
ldr	x1, [x29, -32]
str	wzr, [x1, 4]
ldr	x0, [x29, -48]
ldr	x1, [x29, -48]
ldr	x0, [x0]
ldr	x1, [x1]
ldr	x0, [x0, 8]
ldr	w0, [x0]
str	wzr, [x1, 4]
ldr	x1, [x29, -32]
str	wzr, [x1, 4]
ldr	x0, [x29, -48]
ldr	x1, [x29, -48]
ldr	x0, [x0]
ldr	x1, [x1]
ldr	x0, [x0, 8]
ldr	w0, [x0]
str	wzr, [x1, 4]
ldr	x1, [x29, -32]
str	wzr, [x1, 4]
ldr	x0, [x29, -48]
ldr	x1, [x29, -48]
ldr	x0, [x0]
ldr	x1, [x1]
ldr	x0, [x0, 8]
ldr	w0, [x0]
str	wzr, [x1, 4]
ldr	x1, [x29, -32]
str	wzr, [x1, 4]
ldr	x0, [x29, -48]
ldr	x1, [x29, -48]
ldr	x0, [x0]
ldr	x1, [x1]
ldr	x0, [x0, 8]
ldr	w0, [x0]
str	wzr, [x1, 4]
ldr	x1, [x29, -32]
str	wzr, [x1, 4]
ldr	x0, [x29, -48]
ldr	x1, [x29, -48]
ldr	x0, [x0]
ldr	x1, [x1]
ldr	x0, [x0, 8]
ldr	w0, [x0]
str	wzr, [x1, 4]
ldr	x1, [x29, -32]
str	wzr, [x1, 4]
ldr	x0, [x29, -48]
ldr	x1, [x29, -48]
ldr	x0, [x0]
ldr	x1, [x1]
ldr	x0, [x0, 8]
ldr	w0, [x0]
str	wzr, [x1, 4]
ldr	x1, [x29, -32]
str	wzr, [x1, 4]
ldr	x0, [x29, -48]
ldr	x1, [x29, -48]
ldr	x0, [x0]
ldr	x1, [x1]
ldr	x0, [x0, 8]
ldr	w0, [x0]
str	wzr, [x1, 4]
ldr	x1, [x29, -32]
str	wzr, [x1, 4]
ldr	x0, [x29, -48]
ldr	x1, [x29, -48]
ldr	x0, [x0]
ldr	x1, [x1]
ldr	x0, [x0, 8]
ldr	w0, [x0]
str	wzr, [x1, 4]
ldr	x1, [x29, -32]
str	wzr, [x1, 4]
ldr	x0, [x29, -48]
ldr	x1, [x29, -48]
ldr	x0, [x0]
ldr	x1, [x1]
ldr	x0, [x0, 8]
ldr	w0, [x0]
str	wzr, [x1, 4]
ldr	x1, [x29, -32]
str	wzr, [x1, 4]
ldr	x0, [x29, -48]
ldr	x1, [x29, -48]
ldr	x0, [x0]
ldr	x1, [x1]
ldr	x0, [x0, 8]
ldr	w0, [x0]
str	wzr, [x1, 4]
ldr	x1, [x29, -32]
str	wzr, [x1, 4]
ldr	x0, [x29, -48]
ldr	x1, [x29, -48]
ldr	x0, [x0]
ldr	x1, [x1]
ldr	x0, [x0, 8]
ldr	w0, [x0]
str	wzr, [x1, 4]
ldr	x1, [x29, -32]
str	wzr, [x1, 4]
ldr	x0, [x29, -48]
ldr	x1, [x29, -48]
ldr	x0, [x0]
ldr	x1, [x1]
ldr	x0, [x0, 8]
ldr	w0, [x0]
str	wzr, [x1, 4]
ldr	x1, [x29, -32]
str	wzr, [x1, 4]
ldr	x0, [x29, -48]
ldr	x1, [x29, -48]
ldr	x0, [x0]
ldr	x1, [x1]
ldr	x0, [x0, 8]
ldr	w0, [x0]
str	wzr, [x1, 4]
ldr	x1, [x29, -32]
str	wzr, [x1, 4]
ldr	x0, [x29, -48]
ldr	x1, [x29, -48]
ldr	x0, [x0]
ldr	x1, [x1]
ldr	x0, [x0, 8]
ldr	w0, [x0]
str	wzr, [x1, 4]
ldr	x1, [x29, -32]
str	wzr, [x1, 4]
ldr	x0, [x29, -48]
ldr	x1, [x29, -48]
ldr	x0, [x0]
ldr	x1, [x1]
ldr	x0, [x0, 8]
ldr	w0, [x0]
str	wzr, [x1, 4]
ldr	x1, [x29, -32]
str	wzr, [x1, 4]
ldr	x0, [x29, -48]
ldr	x1, [x29, -48]
ldr	x0, [x0]
ldr	x1, [x1]
ldr	x0, [x0, 8]
ldr	w0, [x0]
str	wzr, [x1, 4]
ldr	x1, [x29, -32]
str	wzr, [x1, 4]
ldr	x0, [x29, -48]
ldr	x1, [x29, -48]
ldr	x0, [x0]
ldr	x1, [x1]
ldr	x0, [x0, 8]
ldr	w0, [x0]
str	wzr, [x1, 4]
ldr	x1, [x29, -32]
str	wzr, [x1, 4]
ldr	x0, [x29, -48]
ldr	x1, [x29, -48]
ldr	x0, [x0]
ldr	x1, [x1]
ldr	x0, [x0, 8]
ldr	w0, [x0]
str	wzr, [x1, 4]
ldr	x1, [x29, -32]
str	wzr, [x1, 4]
ldr	x0, [x29, -48]
ldr	x1, [x29, -48]
ldr	x0, [x0]
ldr	x1, [x1]
ldr	x0, [x0, 8]
ldr	w0, [x0]
str	wzr, [x1, 4]
ldr	x1, [x29, -32]
str	wzr, [x1, 4]
ldr	x0, [x29, -48]
ldr	x1, [x29, -48]
ldr	x0, [x0]
ldr	x1, [x1]
ldr	x0, [x0, 8]
ldr	w0, [x0]
str	wzr, [x1, 4]
ldr	x1, [x29, -32]
str	wzr, [x1, 4]
ldr	x0, [x29, -48]
ldr	x1, [x29, -48]
ldr	x0, [x0]
ldr	x1, [x1]
ldr	x0, [x0, 8]
ldr	w0, [x0]
str	wzr, [x1, 4]
ldr	x1, [x29, -32]
str	wzr, [x1, 4]
ldr	x0, [x29, -48]
ldr	x1, [x29, -48]
ldr	x0, [x0]
ldr	x1, [x1]
ldr	x0, [x0, 8]
ldr	w0, [x0]
str	wzr, [x1, 4]
ldr	x1, [x29, -32]
str	wzr, [x1, 4]
ldr	x0, [x29, -48]
ldr	x1, [x29, -48]
ldr	x0, [x0]
ldr	x1, [x1]
ldr	x0, [x0, 8]
ldr	w0, [x0]
str	wzr, [x1, 4]
ldr	x1, [x29, -32]
str	wzr, [x1, 4]
ldr	x0, [x29, -48]
ldr	x1, [x29, -48]
ldr	x0, [x0]
ldr	x1, [x1]
ldr	x0, [x0, 8]
ldr	w0, [x0]
str	wzr, [x1, 4]
ldr	x1, [x29, -32]
str	wzr, [x1, 4]
ldr	x0, [x29, -48]
ldr	x1, [x29, -48]
ldr	x0, [x0]
ldr	x1, [x1]
ldr	x0, [x0, 8]
ldr	w0, [x0]
str	wzr, [x1, 4]
ldr	x1, [x29, -32]
str	wzr, [x1, 4]
ldr	x0, [x29, -48]
ldr	x1, [x29, -48]
ldr	x0, [x0]
ldr	x1, [x1]
ldr	x0, [x0, 8]
ldr	w0, [x0]
str	wzr, [x1, 4]
ldr	x1, [x29, -32]
str	wzr, [x1, 4]
ldr	x0, [x29, -48]
ldr	x1, [x29, -48]
ldr	x0, [x0]
ldr	x1, [x1]
ldr	x0, [x0, 8]
ldr	w0, [x0]
str	wzr, [x1, 4]
ldr	x1, [x29, -32]
str	wzr, [x1, 4]
ldr	x0, [x29, -48]
ldr	x1, [x29, -48]
ldr	x0, [x0]
ldr	x1, [x1]
ldr	x0, [x0, 8]
ldr	w0, [x0]
str	wzr, [x1, 4]
ldr	x1, [x29, -32]
str	wzr, [x1, 4]
ldr	x0, [x29, -48]
ldr	x1, [x29, -48]
ldr	x0, [x0]
ldr	x1, [x1]
ldr	x0, [x0, 8]
ldr	w0, [x0]
str	wzr, [x1, 4]
ldr	x1, [x29, -32]
str	wzr, [x1, 4]
ldr	x0, [x29, -48]
ldr	x1, [x29, -48]
ldr	x0, [x0]
ldr	x1, [x1]
ldr	x0, [x0, 8]
ldr	w0, [x0]
str	wzr, [x1, 4]
ldr	x1, [x29, -32]
str	wzr, [x1, 4]
ldr	x0, [x29, -48]
ldr	x1, [x29, -48]
ldr	x0, [x0]
ldr	x1, [x1]
ldr	x0, [x0, 8]
ldr	w0, [x0]
str	wzr, [x1, 4]
ldr	x1, [x29, -32]
str	wzr, [x1, 4]
ldr	x0, [x29, -48]
ldr	x1, [x29, -48]
ldr	x0, [x0]
ldr	x1, [x1]
ldr	x0, [x0, 8]
ldr	w0, [x0]
str	wzr, [x1, 4]
ldr	x1, [x29, -32]
str	wzr, [x1, 4]
ldr	x0, [x29, -48]
ldr	x1, [x29, -48]
ldr	x0, [x0]
ldr	x1, [x1]
ldr	x0, [x0, 8]
ldr	w0, [x0]
str	wzr, [x1, 4]
ldr	x1, [x29, -32]
str	wzr, [x1, 4]
ldr	x0, [x29, -48]
ldr	x1, [x29, -48]
ldr	x0, [x0]
ldr	x1, [x1]
ldr	x0, [x0, 8]
ldr	w0, [x0]
str	wzr, [x1, 4]
ldr	x1, [x29, -32]
str	wzr, [x1, 4]
ldr	x0, [x29, -48]
ldr	x1, [x29, -48]
ldr	x0, [x0]
ldr	x1, [x1]
ldr	x0, [x0, 8]
ldr	w0, [x0]
str	wzr, [x1, 4]
ldr	x1, [x29, -32]
str	wzr, [x1, 4]
ldr	x0, [x29, -48]
ldr	x1, [x29, -48]
ldr	x0, [x0]
ldr	x1, [x1]
ldr	x0, [x0, 8]
ldr	w0, [x0]
str	wzr, [x1, 4]
ldr	x1, [x29, -32]
str	wzr, [x1, 4]
ldr	x0, [x29, -48]
ldr	x1, [x29, -48]
ldr	x0, [x0]
ldr	x1, [x1]
ldr	x0, [x0, 8]
ldr	w0, [x0]
str	wzr, [x1, 4]
ldr	x1, [x29, -32]
str	wzr, [x1, 4]
ldr	x0, [x29, -48]
ldr	x1, [x29, -48]
ldr	x0, [x0]
ldr	x1, [x1]
ldr	x0, [x0, 8]
ldr	w0, [x0]
str	wzr, [x1, 4]
ldr	x1, [x29, -32]
str	wzr, [x1, 4]
ldr	x0, [x29, -48]
ldr	x1, [x29, -48]
ldr	x0, [x0]
ldr	x1, [x1]
ldr	x0, [x0, 8]
ldr	w0, [x0]
str	wzr, [x1, 4]
ldr	x1, [x29, -32]
str	wzr, [x1, 4]
ldr	x0, [x29, -48]
ldr	x1, [x29, -48]
ldr	x0, [x0]
ldr	x1, [x1]
ldr	x0, [x0, 8]
ldr	w0, [x0]
str	wzr, [x1, 4]
ldr	x1, [x29, -32]
str	wzr, [x1, 4]
ldr	x0, [x29, -48]
ldr	x1, [x29, -48]
ldr	x0, [x0]
ldr	x1, [x1]
ldr	x0, [x0, 8]
ldr	w0, [x0]
str	wzr, [x1, 4]
ldr	x1, [x29, -32]
str	wzr, [x1, 4]
ldr	x0, [x29, -48]
ldr	x1, [x29, -48]
ldr	x0, [x0]
ldr	x1, [x1]
ldr	x0, [x0, 8]
ldr	w0, [x0]
str	wzr, [x1, 4]
ldr	x1, [x29, -32]
str	wzr, [x1, 4]
ldr	x0, [x29, -48]
ldr	x1, [x29, -48]
ldr	x0, [x0]
ldr	x1, [x1]
ldr	x0, [x0, 8]
ldr	w0, [x0]
str	wzr, [x1, 4]
ldr	x1, [x29, -32]
str	wzr, [x1, 4]
ldr	x0, [x29, -48]
ldr	x1, [x29, -48]
ldr	x0, [x0]
ldr	x1, [x1]
ldr	x0, [x0, 8]
ldr	w0, [x0]
str	wzr, [x1, 4]
ldr	x1, [x29, -32]
str	wzr, [x1, 4]
ldr	x0, [x29, -48]
ldr	x1, [x29, -48]
ldr	x0, [x0]
ldr	x1, [x1]
ldr	x0, [x0, 8]
ldr	w0, [x0]
str	wzr, [x1, 4]
ldr	x1, [x29, -32]
str	wzr, [x1, 4]
ldr	x0, [x29, -48]
ldr	x1, [x29, -48]
ldr	x0, [x0]
ldr	x1, [x1]
ldr	x0, [x0, 8]
ldr	w0, [x0]
str	wzr, [x1, 4]
ldr	x1, [x29, -32]
str	wzr, [x1, 4]
ldr	x0, [x29, -48]
ldr	x1, [x29, -48]
ldr	x0, [x0]
ldr	x1, [x1]
ldr	x0, [x0, 8]
ldr	w0, [x0]
str	wzr, [x1, 4]
ldr	x1, [x29, -32]
str	wzr, [x1, 4]
ldr	x0, [x29, -48]
ldr	x1, [x29, -48]
ldr	x0, [x0]
ldr	x1, [x1]
ldr	x0, [x0, 8]
ldr	w0, [x0]
str	wzr, [x1, 4]
ldr	x1, [x29, -32]
str	wzr, [x1, 4]
ldr	x0, [x29, -48]
ldr	x1, [x29, -48]
ldr	x0, [x0]
ldr	x1, [x1]
ldr	x0, [x0, 8]
ldr	w0, [x0]
str	wzr, [x1, 4]
ldr	x1, [x29, -32]
str	wzr, [x1, 4]
ldr	x0, [x29, -48]
ldr	x1, [x29, -48]
ldr	x0, [x0]
ldr	x1, [x1]
ldr	x0, [x0, 8]
ldr	w0, [x0]
str	wzr, [x1, 4]
ldr	x1, [x29, -32]
str	wzr, [x1, 4]
ldr	x0, [x29, -48]
ldr	x1, [x29, -48]
ldr	x0, [x0]
ldr	x1, [x1]
ldr	x0, [x0, 8]
ldr	w0, [x0]
str	wzr, [x1, 4]
ldr	x1, [x29, -32]
str	wzr, [x1, 4]
ldr	x0, [x29, -48]
ldr	x1, [x29, -48]
ldr	x0, [x0]
ldr	x1, [x1]
ldr	x0, [x0, 8]
ldr	w0, [x0]
str	wzr, [x1, 4]
ldr	x1, [x29, -32]
str	wzr, [x1, 4]
ldr	x0, [x29, -48]
ldr	x1, [x29, -48]
ldr	x0, [x0]
ldr	x1, [x1]
ldr	x0, [x0, 8]
ldr	w0, [x0]
str	wzr, [x1, 4]
ldr	x1, [x29, -32]
str	wzr, [x1, 4]
ldr	x0, [x29, -48]
ldr	x1, [x29, -48]
ldr	x0, [x0]
ldr	x1, [x1]
ldr	x0, [x0, 8]
ldr	w0, [x0]
str	wzr, [x1, 4]
ldr	x1, [x29, -32]
str	wzr, [x1, 4]
ldr	x0, [x29, -48]
ldr	x1, [x29, -48]
ldr	x0, [x0]
ldr	x1, [x1]
ldr	x0, [x0, 8]
ldr	w0, [x0]
str	wzr, [x1, 4]
ldr	x1, [x29, -32]
str	wzr, [x1, 4]
ldr	x0, [x29, -48]
ldr	x1, [x29, -48]
ldr	x0, [x0]
ldr	x1, [x1]
ldr	x0, [x0, 8]
ldr	w0, [x0]
str	wzr, [x1, 4]
ldr	x1, [x29, -32]
str	wzr, [x1, 4]
ldr	x0, [x29, -48]
ldr	x1, [x29, -48]
ldr	x0, [x0]
ldr	x1, [x1]
ldr	x0, [x0, 8]
ldr	w0, [x0]
str	wzr, [x1, 4]
ldr	x1, [x29, -32]
str	wzr, [x1, 4]
ldr	x0, [x29, -48]
ldr	x1, [x29, -48]
ldr	x0, [x0]
ldr	x1, [x1]
ldr	x0, [x0, 8]
ldr	w0, [x0]
str	wzr, [x1, 4]
ldr	x1, [x29, -32]
str	wzr, [x1, 4]
ldr	x0, [x29, -48]
ldr	x1, [x29, -48]
ldr	x0, [x0]
ldr	x1, [x1]
ldr	x0, [x0, 8]
ldr	w0, [x0]
str	wzr, [x1, 4]
ldr	x1, [x29, -32]
str	wzr, [x1, 4]
ldr	x0, [x29, -48]
ldr	x1, [x29, -48]
ldr	x0, [x0]
ldr	x1, [x1]
ldr	x0, [x0, 8]
ldr	w0, [x0]
str	wzr, [x1, 4]
ldr	x1, [x29, -32]
str	wzr, [x1, 4]
ldr	x0, [x29, -48]
ldr	x1, [x29, -48]
ldr	x0, [x0]
ldr	x1, [x1]
ldr	x0, [x0, 8]
ldr	w0, [x0]
str	wzr, [x1, 4]
ldr	x1, [x29, -32]
str	wzr, [x1, 4]
ldr	x0, [x29, -48]
ldr	x1, [x29, -48]
ldr	x0, [x0]
ldr	x1, [x1]
ldr	x0, [x0, 8]
ldr	w0, [x0]
str	wzr, [x1, 4]
ldr	x1, [x29, -32]
str	wzr, [x1, 4]
ldr	x0, [x29, -48]
ldr	x1, [x29, -48]
ldr	x0, [x0]
ldr	x1, [x1]
ldr	x0, [x0, 8]
ldr	w0, [x0]
str	wzr, [x1, 4]
ldr	x1, [x29, -32]
str	wzr, [x1, 4]
ldr	x0, [x29, -48]
ldr	x1, [x29, -48]
ldr	x0, [x0]
ldr	x1, [x1]
ldr	x0, [x0, 8]
ldr	w0, [x0]
str	wzr, [x1, 4]
ldr	x1, [x29, -32]
str	wzr, [x1, 4]
ldr	x0, [x29, -48]
ldr	x1, [x29, -48]
ldr	x0, [x0]
ldr	x1, [x1]
ldr	x0, [x0, 8]
ldr	w0, [x0]
str	wzr, [x1, 4]
ldr	x1, [x29, -32]
str	wzr, [x1, 4]
ldr	x0, [x29, -48]
ldr	x1, [x29, -48]
ldr	x0, [x0]
ldr	x1, [x1]
ldr	x0, [x0, 8]
ldr	w0, [x0]
str	wzr, [x1, 4]
ldr	x1, [x29, -32]
str	wzr, [x1, 4]
ldr	x0, [x29, -48]
ldr	x1, [x29, -48]
ldr	x0, [x0]
ldr	x1, [x1]
ldr	x0, [x0, 8]
ldr	w0, [x0]
str	wzr, [x1, 4]
ldr	x1, [x29, -32]
str	wzr, [x1, 4]
ldr	x0, [x29, -48]
ldr	x1, [x29, -48]
ldr	x0, [x0]
ldr	x1, [x1]
ldr	x0, [x0, 8]
ldr	w0, [x0]
str	wzr, [x1, 4]
ldr	x1, [x29, -32]
str	wzr, [x1, 4]
ldr	x0, [x29, -48]
ldr	x1, [x29, -48]
ldr	x0, [x0]
ldr	x1, [x1]
ldr	x0, [x0, 8]
ldr	w0, [x0]
str	wzr, [x1, 4]
ldr	x1, [x29, -32]
str	wzr, [x1, 4]
ldr	x0, [x29, -48]
ldr	x1, [x29, -48]
ldr	x0, [x0]
ldr	x1, [x1]
ldr	x0, [x0, 8]
ldr	w0, [x0]
str	wzr, [x1, 4]
ldr	x1, [x29, -32]
str	wzr, [x1, 4]
ldr	x0, [x29, -48]
ldr	x1, [x29, -48]
ldr	x0, [x0]
ldr	x1, [x1]
ldr	x0, [x0, 8]
ldr	w0, [x0]
str	wzr, [x1, 4]
ldr	x1, [x29, -32]
str	wzr, [x1, 4]
ldr	x0, [x29, -48]
ldr	x1, [x29, -48]
ldr	x0, [x0]
ldr	x1, [x1]
ldr	x0, [x0, 8]
ldr	w0, [x0]
str	wzr, [x1, 4]
ldr	x1, [x29, -32]
str	wzr, [x1, 4]
ldr	x0, [x29, -48]
ldr	x1, [x29, -48]
ldr	x0, [x0]
ldr	x1, [x1]
ldr	x0, [x0, 8]
ldr	w0, [x0]
str	wzr, [x1, 4]
ldr	x1, [x29, -32]
str	wzr, [x1, 4]
ldr	x0, [x29, -48]
ldr	x1, [x29, -48]
ldr	x0, [x0]
ldr	x1, [x1]
ldr	x0, [x0, 8]
ldr	w0, [x0]
str	wzr, [x1, 4]
ldr	x1, [x29, -32]
str	wzr, [x1, 4]
ldr	x0, [x29, -48]
ldr	x1, [x29, -48]
ldr	x0, [x0]
ldr	x1, [x1]
ldr	x0, [x0, 8]
ldr	w0, [x0]
str	wzr, [x1, 4]
ldr	x1, [x29, -32]
str	wzr, [x1, 4]
ldr	x0, [x29, -48]
ldr	x1, [x29, -48]
ldr	x0, [x0]
ldr	x1, [x1]
ldr	x0, [x0, 8]
ldr	w0, [x0]
str	wzr, [x1, 4]
ldr	x1, [x29, -32]
str	wzr, [x1, 4]
ldr	x0, [x29, -48]
ldr	x1, [x29, -48]
ldr	x0, [x0]
ldr	x1, [x1]
ldr	x0, [x0, 8]
ldr	w0, [x0]
str	wzr, [x1, 4]
ldr	x1, [x29, -32]
str	wzr, [x1, 4]
ldr	x0, [x29, -48]
ldr	x1, [x29, -48]
ldr	x0, [x0]
ldr	x1, [x1]
ldr	x0, [x0, 8]
ldr	w0, [x0]
str	wzr, [x1, 4]
ldr	x1, [x29, -32]
str	wzr, [x1, 4]
ldr	x0, [x29, -48]
ldr	x1, [x29, -48]
ldr	x0, [x0]
ldr	x1, [x1]
ldr	x0, [x0, 8]
ldr	w0, [x0]
str	wzr, [x1, 4]
ldr	x1, [x29, -32]
str	wzr, [x1, 4]
ldr	x0, [x29, -48]
ldr	x1, [x29, -48]
ldr	x0, [x0]
ldr	x1, [x1]
ldr	x0, [x0, 8]
ldr	w0, [x0]
str	wzr, [x1, 4]
ldr	x1, [x29, -32]
str	wzr, [x1, 4]
ldr	x0, [x29, -48]
ldr	x1, [x29, -48]
ldr	x0, [x0]
ldr	x1, [x1]
ldr	x0, [x0, 8]
ldr	w0, [x0]
str	wzr, [x1, 4]
ldr	x1, [x29, -32]
str	wzr, [x1, 4]
ldr	x0, [x29, -48]
ldr	x1, [x29, -48]
ldr	x0, [x0]
ldr	x1, [x1]
ldr	x0, [x0, 8]
ldr	w0, [x0]
str	wzr, [x1, 4]
ldr	x1, [x29, -32]
str	wzr, [x1, 4]
ldr	x0, [x29, -48]
ldr	x1, [x29, -48]
ldr	x0, [x0]
ldr	x1, [x1]
ldr	x0, [x0, 8]
ldr	w0, [x0]
str	wzr, [x1, 4]
ldr	x1, [x29, -32]
str	wzr, [x1, 4]
ldr	x0, [x29, -48]
ldr	x1, [x29, -48]
ldr	x0, [x0]
ldr	x1, [x1]
ldr	x0, [x0, 8]
ldr	w0, [x0]
str	wzr, [x1, 4]
ldr	x1, [x29, -32]
str	wzr, [x1, 4]
ldr	x0, [x29, -48]
ldr	x1, [x29, -48]
ldr	x0, [x0]
ldr	x1, [x1]
ldr	x0, [x0, 8]
ldr	w0, [x0]
str	wzr, [x1, 4]
ldr	x1, [x29, -32]
str	wzr, [x1, 4]
ldr	x0, [x29, -48]
ldr	x1, [x29, -48]
ldr	x0, [x0]
ldr	x1, [x1]
ldr	x0, [x0, 8]
ldr	w0, [x0]
str	wzr, [x1, 4]
ldr	x1, [x29, -32]
str	wzr, [x1, 4]
ldr	x0, [x29, -48]
ldr	x1, [x29, -48]
ldr	x0, [x0]
ldr	x1, [x1]
ldr	x0, [x0, 8]
ldr	w0, [x0]
str	wzr, [x1, 4]
ldr	x1, [x29, -32]
str	wzr, [x1, 4]
ldr	x0, [x29, -48]
ldr	x1, [x29, -48]
ldr	x0, [x0]
ldr	x1, [x1]
ldr	x0, [x0, 8]
ldr	w0, [x0]
str	wzr, [x1, 4]
ldr	x1, [x29, -32]
str	wzr, [x1, 4]
ldr	x0, [x29, -48]
ldr	x1, [x29, -48]
ldr	x0, [x0]
ldr	x1, [x1]
ldr	x0, [x0, 8]
ldr	w0, [x0]
str	wzr, [x1, 4]
ldr	x1, [x29, -32]
str	wzr, [x1, 4]
ldr	x0, [x29, -48]
ldr	x1, [x29, -48]
ldr	x0, [x0]
ldr	x1, [x1]
ldr	x0, [x0, 8]
ldr	w0, [x0]
str	wzr, [x1, 4]
ldr	x1, [x29, -32]
str	wzr, [x1, 4]
ldr	x0, [x29, -48]
ldr	x1, [x29, -48]
ldr	x0, [x0]
ldr	x1, [x1]
ldr	x0, [x0, 8]
ldr	w0, [x0]
str	wzr, [x1, 4]
ldr	x1, [x29, -32]
str	wzr, [x1, 4]
ldr	x0, [x29, -48]
ldr	x1, [x29, -48]
ldr	x0, [x0]
ldr	x1, [x1]
ldr	x0, [x0, 8]
ldr	w0, [x0]
str	wzr, [x1, 4]
ldr	x1, [x29, -32]
str	wzr, [x1, 4]
ldr	x0, [x29, -48]
ldr	x1, [x29, -48]
ldr	x0, [x0]
ldr	x1, [x1]
ldr	x0, [x0, 8]
ldr	w0, [x0]
str	wzr, [x1, 4]
ldr	x1, [x29, -32]
str	wzr, [x1, 4]
ldr	x0, [x29, -48]
ldr	x1, [x29, -48]
ldr	x0, [x0]
ldr	x1, [x1]
ldr	x0, [x0, 8]
ldr	w0, [x0]
str	wzr, [x1, 4]
ldr	x1, [x29, -32]
str	wzr, [x1, 4]
ldr	x0, [x29, -48]
ldr	x1, [x29, -48]
ldr	x0, [x0]
ldr	x1, [x1]
ldr	x0, [x0, 8]
ldr	w0, [x0]
str	wzr, [x1, 4]
ldr	x1, [x29, -32]
str	wzr, [x1, 4]
ldr	x0, [x29, -48]
ldr	x1, [x29, -48]
ldr	x0, [x0]
ldr	x1, [x1]
ldr	x0, [x0, 8]
ldr	w0, [x0]
str	wzr, [x1, 4]
ldr	x1, [x29, -32]
str	wzr, [x1, 4]
ldr	x0, [x29, -48]
ldr	x1, [x29, -48]
ldr	x0, [x0]
ldr	x1, [x1]
ldr	x0, [x0, 8]
ldr	w0, [x0]
str	wzr, [x1, 4]
ldr	x1, [x29, -32]
str	wzr, [x1, 4]
ldr	x0, [x29, -48]
ldr	x1, [x29, -48]
ldr	x0, [x0]
ldr	x1, [x1]
ldr	x0, [x0, 8]
ldr	w0, [x0]
str	wzr, [x1, 4]
ldr	x1, [x29, -32]
str	wzr, [x1, 4]
ldr	x0, [x29, -48]
ldr	x1, [x29, -48]
ldr	x0, [x0]
ldr	x1, [x1]
ldr	x0, [x0, 8]
ldr	w0, [x0]
str	wzr, [x1, 4]
ldr	x1, [x29, -32]
str	wzr, [x1, 4]
ldr	x0, [x29, -48]
ldr	x1, [x29, -48]
ldr	x0, [x0]
ldr	x1, [x1]
ldr	x0, [x0, 8]
ldr	w0, [x0]
str	wzr, [x1, 4]
ldr	x1, [x29, -32]
str	wzr, [x1, 4]
ldr	x0, [x29, -48]
ldr	x1, [x29, -48]
ldr	x0, [x0]
ldr	x1, [x1]
ldr	x0, [x0, 8]
ldr	w0, [x0]
str	wzr, [x1, 4]
ldr	x1, [x29, -32]
str	wzr, [x1, 4]
ldr	x0, [x29, -48]
ldr	x1, [x29, -48]
ldr	x0, [x0]
ldr	x1, [x1]
ldr	x0, [x0, 8]
ldr	w0, [x0]
str	wzr, [x1, 4]
ldr	x1, [x29, -32]
str	wzr, [x1, 4]
ldr	x0, [x29, -48]
ldr	x1, [x29, -48]
ldr	x0, [x0]
ldr	x1, [x1]
ldr	x0, [x0, 8]
ldr	w0, [x0]
str	wzr, [x1, 4]
ldr	x1, [x29, -32]
str	wzr, [x1, 4]
ldr	x0, [x29, -48]
ldr	x1, [x29, -48]
ldr	x0, [x0]
ldr	x1, [x1]
ldr	x0, [x0, 8]
ldr	w0, [x0]
str	wzr, [x1, 4]
ldr	x1, [x29, -32]
str	wzr, [x1, 4]
ldr	x0, [x29, -48]
ldr	x1, [x29, -48]
ldr	x0, [x0]
ldr	x1, [x1]
ldr	x0, [x0, 8]
ldr	w0, [x0]
str	wzr, [x1, 4]
ldr	x1, [x29, -32]
str	wzr, [x1, 4]
ldr	x0, [x29, -48]
ldr	x1, [x29, -48]
ldr	x0, [x0]
ldr	x1, [x1]
ldr	x0, [x0, 8]
ldr	w0, [x0]
str	wzr, [x1, 4]
ldr	x1, [x29, -32]
str	wzr, [x1, 4]
ldr	x0, [x29, -48]
ldr	x1, [x29, -48]
ldr	x0, [x0]
ldr	x1, [x1]
ldr	x0, [x0, 8]
ldr	w0, [x0]
str	wzr, [x1, 4]
ldr	x1, [x29, -32]
str	wzr, [x1, 4]
ldr	x0, [x29, -48]
ldr	x1, [x29, -48]
ldr	x0, [x0]
ldr	x1, [x1]
ldr	x0, [x0, 8]
ldr	w0, [x0]
str	wzr, [x1, 4]
ldr	x1, [x29, -32]
str	wzr, [x1, 4]
ldr	x0, [x29, -48]
ldr	x1, [x29, -48]
ldr	x0, [x0]
ldr	x1, [x1]
ldr	x0, [x0, 8]
ldr	w0, [x0]
str	wzr, [x1, 4]
ldr	x1, [x29, -32]
str	wzr, [x1, 4]
ldr	x0, [x29, -48]
ldr	x1, [x29, -48]
ldr	x0, [x0]
ldr	x1, [x1]
ldr	x0, [x0, 8]
ldr	w0, [x0]
str	wzr, [x1, 4]
ldr	x1, [x29, -32]
str	wzr, [x1, 4]
ldr	x0, [x29, -48]
ldr	x1, [x29, -48]
ldr	x0, [x0]
ldr	x1, [x1]
ldr	x0, [x0, 8]
ldr	w0, [x0]
str	wzr, [x1, 4]
ldr	x1, [x29, -32]
str	wzr, [x1, 4]
ldr	x0, [x29, -48]
ldr	x1, [x29, -48]
ldr	x0, [x0]
ldr	x1, [x1]
ldr	x0, [x0, 8]
ldr	w0, [x0]
str	wzr, [x1, 4]
ldr	x1, [x29, -32]
str	wzr, [x1, 4]
ldr	x0, [x29, -48]
ldr	x1, [x29, -48]
ldr	x0, [x0]
ldr	x1, [x1]
ldr	x0, [x0, 8]
ldr	w0, [x0]
str	wzr, [x1, 4]
ldr	x1, [x29, -32]
str	wzr, [x1, 4]
ldr	x0, [x29, -48]
ldr	x1, [x29, -48]
ldr	x0, [x0]
ldr	x1, [x1]
ldr	x0, [x0, 8]
ldr	w0, [x0]
str	wzr, [x1, 4]
ldr	x1, [x29, -32]
str	wzr, [x1, 4]
ldr	x0, [x29, -48]
ldr	x1, [x29, -48]
ldr	x0, [x0]
ldr	x1, [x1]
ldr	x0, [x0, 8]
ldr	w0, [x0]
str	wzr, [x1, 4]
ldr	x1, [x29, -32]
str	wzr, [x1, 4]
ldr	x0, [x29, -48]
ldr	x1, [x29, -48]
ldr	x0, [x0]
ldr	x1, [x1]
ldr	x0, [x0, 8]
ldr	w0, [x0]
str	wzr, [x1, 4]
ldr	x1, [x29, -32]
str	wzr, [x1, 4]
ldr	x0, [x29, -48]
ldr	x1, [x29, -48]
ldr	x0, [x0]
ldr	x1, [x1]
ldr	x0, [x0, 8]
ldr	w0, [x0]
str	wzr, [x1, 4]
ldr	x1, [x29, -32]
str	wzr, [x1, 4]
ldr	x0, [x29, -48]
ldr	x1, [x29, -48]
ldr	x0, [x0]
ldr	x1, [x1]
ldr	x0, [x0, 8]
ldr	w0, [x0]
str	wzr, [x1, 4]
ldr	x1, [x29, -32]
str	wzr, [x1, 4]
ldr	x0, [x29, -48]
ldr	x1, [x29, -48]
ldr	x0, [x0]
ldr	x1, [x1]
ldr	x0, [x0, 8]
ldr	w0, [x0]
str	wzr, [x1, 4]
ldr	x1, [x29, -32]
str	wzr, [x1, 4]
ldr	x0, [x29, -48]
ldr	x1, [x29, -48]
ldr	x0, [x0]
ldr	x1, [x1]
ldr	x0, [x0, 8]
ldr	w0, [x0]
str	wzr, [x1, 4]
ldr	x1, [x29, -32]
str	wzr, [x1, 4]
ldr	x0, [x29, -48]
ldr	x1, [x29, -48]
ldr	x0, [x0]
ldr	x1, [x1]
ldr	x0, [x0, 8]
ldr	w0, [x0]
str	wzr, [x1, 4]
ldr	x1, [x29, -32]
str	wzr, [x1, 4]
ldr	x0, [x29, -48]
ldr	x1, [x29, -48]
ldr	x0, [x0]
ldr	x1, [x1]
ldr	x0, [x0, 8]
ldr	w0, [x0]
str	wzr, [x1, 4]
ldr	x1, [x29, -32]
str	wzr, [x1, 4]
ldr	x0, [x29, -48]
ldr	x1, [x29, -48]
ldr	x0, [x0]
ldr	x1, [x1]
ldr	x0, [x0, 8]
ldr	w0, [x0]
str	wzr, [x1, 4]
ldr	x1, [x29, -32]
str	wzr, [x1, 4]
ldr	x0, [x29, -48]
ldr	x1, [x29, -48]
ldr	x0, [x0]
ldr	x1, [x1]
ldr	x0, [x0, 8]
ldr	w0, [x0]
str	wzr, [x1, 4]
ldr	x1, [x29, -32]
str	wzr, [x1, 4]
ldr	x0, [x29, -48]
ldr	x1, [x29, -48]
ldr	x0, [x0]
ldr	x1, [x1]
ldr	x0, [x0, 8]
ldr	w0, [x0]
str	wzr, [x1, 4]
ldr	x1, [x29, -32]
str	wzr, [x1, 4]
ldr	x0, [x29, -48]
ldr	x1, [x29, -48]
ldr	x0, [x0]
ldr	x1, [x1]
ldr	x0, [x0, 8]
ldr	w0, [x0]
str	wzr, [x1, 4]
ldr	x1, [x29, -32]
str	wzr, [x1, 4]
ldr	x0, [x29, -48]
ldr	x1, [x29, -48]
ldr	x0, [x0]
ldr	x1, [x1]
ldr	x0, [x0, 8]
ldr	w0, [x0]
str	wzr, [x1, 4]
ldr	x1, [x29, -32]
str	wzr, [x1, 4]
ldr	x0, [x29, -48]
ldr	x1, [x29, -48]
ldr	x0, [x0]
ldr	x1, [x1]
ldr	x0, [x0, 8]
ldr	w0, [x0]
str	wzr, [x1, 4]
ldr	x1, [x29, -32]
str	wzr, [x1, 4]
ldr	x0, [x29, -48]
ldr	x1, [x29, -48]
ldr	x0, [x0]
ldr	x1, [x1]
ldr	x0, [x0, 8]
ldr	w0, [x0]
str	wzr, [x1, 4]
ldr	x1, [x29, -32]
str	wzr, [x1, 4]
ldr	x0, [x29, -48]
ldr	x1, [x29, -48]
ldr	x0, [x0]
ldr	x1, [x1]
ldr	x0, [x0, 8]
ldr	w0, [x0]
str	wzr, [x1, 4]
ldr	x1, [x29, -32]
str	wzr, [x1, 4]
ldr	x0, [x29, -48]
ldr	x1, [x29, -48]
ldr	x0, [x0]
ldr	x1, [x1]
ldr	x0, [x0, 8]
ldr	w0, [x0]
str	wzr, [x1, 4]
ldr	x1, [x29, -32]
str	wzr, [x1, 4]
ldr	x0, [x29, -48]
ldr	x1, [x29, -48]
ldr	x0, [x0]
ldr	x1, [x1]
ldr	x0, [x0, 8]
ldr	w0, [x0]
str	wzr, [x1, 4]
ldr	x1, [x29, -32]
str	wzr, [x1, 4]
ldr	x0, [x29, -48]
ldr	x1, [x29, -48]
ldr	x0, [x0]
ldr	x1, [x1]
ldr	x0, [x0, 8]
ldr	w0, [x0]
str	wzr, [x1, 4]
ldr	x1, [x29, -32]
str	wzr, [x1, 4]
ldr	x0, [x29, -48]
ldr	x1, [x29, -48]
ldr	x0, [x0]
ldr	x1, [x1]
ldr	x0, [x0, 8]
ldr	w0, [x0]
str	wzr, [x1, 4]
ldr	x1, [x29, -32]
str	wzr, [x1, 4]
ldr	x0, [x29, -48]
ldr	x1, [x29, -48]
ldr	x0, [x0]
ldr	x1, [x1]
ldr	x0, [x0, 8]
ldr	w0, [x0]
str	wzr, [x1, 4]
ldr	x1, [x29, -32]
str	wzr, [x1, 4]
ldr	x0, [x29, -48]
ldr	x1, [x29, -48]
ldr	x0, [x0]
ldr	x1, [x1]
ldr	x0, [x0, 8]
ldr	w0, [x0]
str	wzr, [x1, 4]
ldr	x1, [x29, -32]
str	wzr, [x1, 4]
ldr	x0, [x29, -48]
ldr	x1, [x29, -48]
ldr	x0, [x0]
ldr	x1, [x1]
ldr	x0, [x0, 8]
ldr	w0, [x0]
str	wzr, [x1, 4]
ldr	x1, [x29, -32]
str	wzr, [x1, 4]
ldr	x0, [x29, -48]
ldr	x1, [x29, -48]
ldr	x0, [x0]
ldr	x1, [x1]
ldr	x0, [x0, 8]
ldr	w0, [x0]
str	wzr, [x1, 4]
ldr	x1, [x29, -32]
str	wzr, [x1, 4]
ldr	x0, [x29, -48]
ldr	x1, [x29, -48]
ldr	x0, [x0]
ldr	x1, [x1]
ldr	x0, [x0, 8]
ldr	w0, [x0]
str	wzr, [x1, 4]
ldr	x1, [x29, -32]
str	wzr, [x1, 4]
ldr	x0, [x29, -48]
ldr	x1, [x29, -48]
ldr	x0, [x0]
ldr	x1, [x1]
ldr	x0, [x0, 8]
ldr	w0, [x0]
str	wzr, [x1, 4]
ldr	x1, [x29, -32]
str	wzr, [x1, 4]
ldr	x0, [x29, -48]
ldr	x1, [x29, -48]
ldr	x0, [x0]
ldr	x1, [x1]
ldr	x0, [x0, 8]
ldr	w0, [x0]
str	wzr, [x1, 4]
ldr	x1, [x29, -32]
str	wzr, [x1, 4]
ldr	x0, [x29, -48]
ldr	x1, [x29, -48]
ldr	x0, [x0]
ldr	x1, [x1]
ldr	x0, [x0, 8]
ldr	w0, [x0]
str	wzr, [x1, 4]
ldr	x1, [x29, -32]
str	wzr, [x1, 4]
ldr	x0, [x29, -48]
ldr	x1, [x29, -48]
ldr	x0, [x0]
ldr	x1, [x1]
ldr	x0, [x0, 8]
ldr	w0, [x0]
str	wzr, [x1, 4]
ldr	x1, [x29, -32]
str	wzr, [x1, 4]
ldr	x0, [x29, -48]
ldr	x1, [x29, -48]
ldr	x0, [x0]
ldr	x1, [x1]
ldr	x0, [x0, 8]
ldr	w0, [x0]
str	wzr, [x1, 4]
ldr	x1, [x29, -32]
str	wzr, [x1, 4]
ldr	x0, [x29, -48]
ldr	x1, [x29, -48]
ldr	x0, [x0]
ldr	x1, [x1]
ldr	x0, [x0, 8]
ldr	w0, [x0]
str	wzr, [x1, 4]
ldr	x1, [x29, -32]
str	wzr, [x1, 4]
ldr	x0, [x29, -48]
ldr	x1, [x29, -48]
ldr	x0, [x0]
ldr	x1, [x1]
ldr	x0, [x0, 8]
ldr	w0, [x0]
str	wzr, [x1, 4]
ldr	x1, [x29, -32]
str	wzr, [x1, 4]
ldr	x0, [x29, -48]
ldr	x1, [x29, -48]
ldr	x0, [x0]
ldr	x1, [x1]
ldr	x0, [x0, 8]
ldr	w0, [x0]
str	wzr, [x1, 4]
ldr	x1, [x29, -32]
str	wzr, [x1, 4]
ldr	x0, [x29, -48]
ldr	x1, [x29, -48]
ldr	x0, [x0]
ldr	x1, [x1]
ldr	x0, [x0, 8]
ldr	w0, [x0]
str	wzr, [x1, 4]
ldr	x1, [x29, -32]
str	wzr, [x1, 4]
ldr	x0, [x29, -48]
ldr	x1, [x29, -48]
ldr	x0, [x0]
ldr	x1, [x1]
ldr	x0, [x0, 8]
ldr	w0, [x0]
str	wzr, [x1, 4]
ldr	x1, [x29, -32]
str	wzr, [x1, 4]
ldr	x0, [x29, -48]
ldr	x1, [x29, -48]
ldr	x0, [x0]
ldr	x1, [x1]
ldr	x0, [x0, 8]
ldr	w0, [x0]
str	wzr, [x1, 4]
ldr	x1, [x29, -32]
str	wzr, [x1, 4]
ldr	x0, [x29, -48]
ldr	x1, [x29, -48]
ldr	x0, [x0]
ldr	x1, [x1]
ldr	x0, [x0, 8]
ldr	w0, [x0]
str	wzr, [x1, 4]
ldr	x1, [x29, -32]
str	wzr, [x1, 4]
ldr	x0, [x29, -48]
ldr	x1, [x29, -48]
ldr	x0, [x0]
ldr	x1, [x1]
ldr	x0, [x0, 8]
ldr	w0, [x0]
str	wzr, [x1, 4]
ldr	x1, [x29, -32]
str	wzr, [x1, 4]
ldr	x0, [x29, -48]
ldr	x1, [x29, -48]
ldr	x0, [x0]
ldr	x1, [x1]
ldr	x0, [x0, 8]
ldr	w0, [x0]
str	wzr, [x1, 4]
ldr	x1, [x29, -32]
str	wzr, [x1, 4]
ldr	x0, [x29, -48]
ldr	x1, [x29, -48]
ldr	x0, [x0]
ldr	x1, [x1]
ldr	x0, [x0, 8]
ldr	w0, [x0]
str	wzr, [x1, 4]
ldr	x1, [x29, -32]
str	wzr, [x1, 4]
ldr	x0, [x29, -48]
ldr	x1, [x29, -48]
ldr	x0, [x0]
ldr	x1, [x1]
ldr	x0, [x0, 8]
ldr	w0, [x0]
str	wzr, [x1, 4]
ldr	x1, [x29, -32]
str	wzr, [x1, 4]
ldr	x0, [x29, -48]
ldr	x1, [x29, -48]
ldr	x0, [x0]
ldr	x1, [x1]
ldr	x0, [x0, 8]
ldr	w0, [x0]
str	wzr, [x1, 4]
ldr	x1, [x29, -32]
str	wzr, [x1, 4]
ldr	x0, [x29, -48]
ldr	x1, [x29, -48]
ldr	x0, [x0]
ldr	x1, [x1]
ldr	x0, [x0, 8]
ldr	w0, [x0]
str	wzr, [x1, 4]
ldr	x1, [x29, -32]
str	wzr, [x1, 4]
ldr	x0, [x29, -48]
ldr	x1, [x29, -48]
ldr	x0, [x0]
ldr	x1, [x1]
ldr	x0, [x0, 8]
ldr	w0, [x0]
str	wzr, [x1, 4]
ldr	x1, [x29, -32]
str	wzr, [x1, 4]
ldr	x0, [x29, -48]
ldr	x1, [x29, -48]
ldr	x0, [x0]
ldr	x1, [x1]
ldr	x0, [x0, 8]
ldr	w0, [x0]
str	wzr, [x1, 4]
ldr	x1, [x29, -32]
str	wzr, [x1, 4]
ldr	x0, [x29, -48]
ldr	x1, [x29, -48]
ldr	x0, [x0]
ldr	x1, [x1]
ldr	x0, [x0, 8]
ldr	w0, [x0]
str	wzr, [x1, 4]
ldr	x1, [x29, -32]
str	wzr, [x1, 4]
ldr	x0, [x29, -48]
ldr	x1, [x29, -48]
ldr	x0, [x0]
ldr	x1, [x1]
ldr	x0, [x0, 8]
ldr	w0, [x0]
str	wzr, [x1, 4]
ldr	x1, [x29, -32]
str	wzr, [x1, 4]
ldr	x0, [x29, -48]
ldr	x1, [x29, -48]
ldr	x0, [x0]
ldr	x1, [x1]
ldr	x0, [x0, 8]
ldr	w0, [x0]
str	wzr, [x1, 4]
ldr	x1, [x29, -32]
str	wzr, [x1, 4]
ldr	x0, [x29, -48]
ldr	x1, [x29, -48]
ldr	x0, [x0]
ldr	x1, [x1]
ldr	x0, [x0, 8]
ldr	w0, [x0]
str	wzr, [x1, 4]
ldr	x1, [x29, -32]
str	wzr, [x1, 4]
ldr	x0, [x29, -48]
ldr	x1, [x29, -48]
ldr	x0, [x0]
ldr	x1, [x1]
ldr	x0, [x0, 8]
ldr	w0, [x0]
str	wzr, [x1, 4]
ldr	x1, [x29, -32]
str	wzr, [x1, 4]
ldr	x0, [x29, -48]
ldr	x1, [x29, -48]
ldr	x0, [x0]
ldr	x1, [x1]
ldr	x0, [x0, 8]
ldr	w0, [x0]
str	wzr, [x1, 4]
ldr	x1, [x29, -32]
str	wzr, [x1, 4]
ldr	x0, [x29, -48]
ldr	x1, [x29, -48]
ldr	x0, [x0]
ldr	x1, [x1]
ldr	x0, [x0, 8]
ldr	w0, [x0]
str	wzr, [x1, 4]
ldr	x1, [x29, -32]
str	wzr, [x1, 4]
ldr	x0, [x29, -48]
ldr	x1, [x29, -48]
ldr	x0, [x0]
ldr	x1, [x1]
ldr	x0, [x0, 8]
ldr	w0, [x0]
str	wzr, [x1, 4]
ldr	x1, [x29, -32]
str	wzr, [x1, 4]
ldr	x0, [x29, -48]
ldr	x1, [x29, -48]
ldr	x0, [x0]
ldr	x1, [x1]
ldr	x0, [x0, 8]
ldr	w0, [x0]
str	wzr, [x1, 4]
ldr	x1, [x29, -32]
str	wzr, [x1, 4]
ldr	x0, [x29, -48]
ldr	x1, [x29, -48]
ldr	x0, [x0]
ldr	x1, [x1]
ldr	x0, [x0, 8]
ldr	w0, [x0]
str	wzr, [x1, 4]
ldr	x1, [x29, -32]
str	wzr, [x1, 4]
ldr	x0, [x29, -48]
ldr	x1, [x29, -48]
ldr	x0, [x0]
ldr	x1, [x1]
ldr	x0, [x0, 8]
ldr	w0, [x0]
str	wzr, [x1, 4]
ldr	x1, [x29, -32]
str	wzr, [x1, 4]
ldr	x0, [x29, -48]
ldr	x1, [x29, -48]
ldr	x0, [x0]
ldr	x1, [x1]
ldr	x0, [x0, 8]
ldr	w0, [x0]
str	wzr, [x1, 4]
ldr	x1, [x29, -32]
str	wzr, [x1, 4]
ldr	x0, [x29, -48]
ldr	x1, [x29, -48]
ldr	x0, [x0]
ldr	x1, [x1]
ldr	x0, [x0, 8]
ldr	w0, [x0]
str	wzr, [x1, 4]
ldr	x1, [x29, -32]
str	wzr, [x1, 4]
ldr	x0, [x29, -48]
ldr	x1, [x29, -48]
ldr	x0, [x0]
ldr	x1, [x1]
ldr	x0, [x0, 8]
ldr	w0, [x0]
str	wzr, [x1, 4]
ldr	x1, [x29, -32]
str	wzr, [x1, 4]
ldr	x0, [x29, -48]
ldr	x1, [x29, -48]
ldr	x0, [x0]
ldr	x1, [x1]
ldr	x0, [x0, 8]
ldr	w0, [x0]
str	wzr, [x1, 4]
ldr	x1, [x29, -32]
str	wzr, [x1, 4]
ldr	x0, [x29, -48]
ldr	x1, [x29, -48]
ldr	x0, [x0]
ldr	x1, [x1]
ldr	x0, [x0, 8]
ldr	w0, [x0]
str	wzr, [x1, 4]
ldr	x1, [x29, -32]
str	wzr, [x1, 4]
ldr	x0, [x29, -48]
ldr	x1, [x29, -48]
ldr	x0, [x0]
ldr	x1, [x1]
ldr	x0, [x0, 8]
ldr	w0, [x0]
str	wzr, [x1, 4]
ldr	x1, [x29, -32]
str	wzr, [x1, 4]
ldr	x0, [x29, -48]
ldr	x1, [x29, -48]
ldr	x0, [x0]
ldr	x1, [x1]
ldr	x0, [x0, 8]
ldr	w0, [x0]
str	wzr, [x1, 4]
ldr	x1, [x29, -32]
str	wzr, [x1, 4]
ldr	x0, [x29, -48]
ldr	x1, [x29, -48]
ldr	x0, [x0]
ldr	x1, [x1]
ldr	x0, [x0, 8]
ldr	w0, [x0]
str	wzr, [x1, 4]
ldr	x1, [x29, -32]
str	wzr, [x1, 4]
ldr	x0, [x29, -48]
ldr	x1, [x29, -48]
ldr	x0, [x0]
ldr	x1, [x1]
ldr	x0, [x0, 8]
ldr	w0, [x0]
str	wzr, [x1, 4]
ldr	x1, [x29, -32]
str	wzr, [x1, 4]
ldr	x0, [x29, -48]
ldr	x1, [x29, -48]
ldr	x0, [x0]
ldr	x1, [x1]
ldr	x0, [x0, 8]
ldr	w0, [x0]
str	wzr, [x1, 4]
ldr	x1, [x29, -32]
str	wzr, [x1, 4]
ldr	x0, [x29, -48]
ldr	x1, [x29, -48]
ldr	x0, [x0]
ldr	x1, [x1]
ldr	x0, [x0, 8]
ldr	w0, [x0]
str	wzr, [x1, 4]
ldr	x1, [x29, -32]
str	wzr, [x1, 4]
ldr	x0, [x29, -48]
ldr	x1, [x29, -48]
ldr	x0, [x0]
ldr	x1, [x1]
ldr	x0, [x0, 8]
ldr	w0, [x0]
str	wzr, [x1, 4]
ldr	x1, [x29, -32]
str	wzr, [x1, 4]
ldr	x0, [x29, -48]
ldr	x1, [x29, -48]
ldr	x0, [x0]
ldr	x1, [x1]
ldr	x0, [x0, 8]
ldr	w0, [x0]
str	wzr, [x1, 4]
ldr	x1, [x29, -32]
str	wzr, [x1, 4]
ldr	x0, [x29, -48]
ldr	x1, [x29, -48]
ldr	x0, [x0]
ldr	x1, [x1]
ldr	x0, [x0, 8]
ldr	w0, [x0]
str	wzr, [x1, 4]
ldr	x1, [x29, -32]
str	wzr, [x1, 4]
ldr	x0, [x29, -48]
ldr	x1, [x29, -48]
ldr	x0, [x0]
ldr	x1, [x1]
ldr	x0, [x0, 8]
ldr	w0, [x0]
str	wzr, [x1, 4]
ldr	x1, [x29, -32]
str	wzr, [x1, 4]
ldr	x0, [x29, -48]
ldr	x1, [x29, -48]
ldr	x0, [x0]
ldr	x1, [x1]
ldr	x0, [x0, 8]
ldr	w0, [x0]
str	wzr, [x1, 4]
ldr	x1, [x29, -32]
str	wzr, [x1, 4]
ldr	x0, [x29, -48]
ldr	x1, [x29, -48]
ldr	x0, [x0]
ldr	x1, [x1]
ldr	x0, [x0, 8]
ldr	w0, [x0]
str	wzr, [x1, 4]
ldr	x1, [x29, -32]
str	wzr, [x1, 4]
ldr	x0, [x29, -48]
ldr	x1, [x29, -48]
ldr	x0, [x0]
ldr	x1, [x1]
ldr	x0, [x0, 8]
ldr	w0, [x0]
str	wzr, [x1, 4]
ldr	x1, [x29, -32]
str	wzr, [x1, 4]
ldr	x0, [x29, -48]
ldr	x1, [x29, -48]
ldr	x0, [x0]
ldr	x1, [x1]
ldr	x0, [x0, 8]
ldr	w0, [x0]
str	wzr, [x1, 4]
ldr	x1, [x29, -32]
str	wzr, [x1, 4]
ldr	x0, [x29, -48]
ldr	x1, [x29, -48]
ldr	x0, [x0]
ldr	x1, [x1]
ldr	x0, [x0, 8]
ldr	w0, [x0]
str	wzr, [x1, 4]
ldr	x1, [x29, -32]
str	wzr, [x1, 4]
ldr	x0, [x29, -48]
ldr	x1, [x29, -48]
ldr	x0, [x0]
ldr	x1, [x1]
ldr	x0, [x0, 8]
ldr	w0, [x0]
str	wzr, [x1, 4]
ldr	x1, [x29, -32]
str	wzr, [x1, 4]
ldr	x0, [x29, -48]
ldr	x1, [x29, -48]
ldr	x0, [x0]
ldr	x1, [x1]
ldr	x0, [x0, 8]
ldr	w0, [x0]
str	wzr, [x1, 4]
ldr	x1, [x29, -32]
str	wzr, [x1, 4]
ldr	x0, [x29, -48]
ldr	x1, [x29, -48]
ldr	x0, [x0]
ldr	x1, [x1]
ldr	x0, [x0, 8]
ldr	w0, [x0]
str	wzr, [x1, 4]
ldr	x1, [x29, -32]
str	wzr, [x1, 4]
ldr	x0, [x29, -48]
ldr	x1, [x29, -48]
ldr	x0, [x0]
ldr	x1, [x1]
ldr	x0, [x0, 8]
ldr	w0, [x0]
str	wzr, [x1, 4]
ldr	x1, [x29, -32]
str	wzr, [x1, 4]
ldr	x0, [x29, -48]
ldr	x1, [x29, -48]
ldr	x0, [x0]
ldr	x1, [x1]
ldr	x0, [x0, 8]
ldr	w0, [x0]
str	wzr, [x1, 4]
ldr	x1, [x29, -32]
str	wzr, [x1, 4]
ldr	x0, [x29, -48]
ldr	x1, [x29, -48]
ldr	x0, [x0]
ldr	x1, [x1]
ldr	x0, [x0, 8]
ldr	w0, [x0]
str	wzr, [x1, 4]
ldr	x1, [x29, -32]
str	wzr, [x1, 4]
ldr	x0, [x29, -48]
ldr	x1, [x29, -48]
ldr	x0, [x0]
ldr	x1, [x1]
ldr	x0, [x0, 8]
ldr	w0, [x0]
str	wzr, [x1, 4]
ldr	x1, [x29, -32]
str	wzr, [x1, 4]
ldr	x0, [x29, -48]
ldr	x1, [x29, -48]
ldr	x0, [x0]
ldr	x1, [x1]
ldr	x0, [x0, 8]
ldr	w0, [x0]
str	wzr, [x1, 4]
ldr	x1, [x29, -32]
str	wzr, [x1, 4]
ldr	x0, [x29, -48]
ldr	x1, [x29, -48]
ldr	x0, [x0]
ldr	x1, [x1]
ldr	x0, [x0, 8]
ldr	w0, [x0]
str	wzr, [x1, 4]
ldr	x1, [x29, -32]
str	wzr, [x1, 4]
ldr	x0, [x29, -48]
ldr	x1, [x29, -48]
ldr	x0, [x0]
ldr	x1, [x1]
ldr	x0, [x0, 8]
ldr	w0, [x0]
str	wzr, [x1, 4]
ldr	x1, [x29, -32]
str	wzr, [x1, 4]
ldr	x0, [x29, -48]
ldr	x1, [x29, -48]
ldr	x0, [x0]
ldr	x1, [x1]
ldr	x0, [x0, 8]
ldr	w0, [x0]
str	wzr, [x1, 4]
ldr	x1, [x29, -32]
str	wzr, [x1, 4]
ldr	x0, [x29, -48]
ldr	x1, [x29, -48]
ldr	x0, [x0]
ldr	x1, [x1]
ldr	x0, [x0, 8]
ldr	w0, [x0]
str	wzr, [x1, 4]
ldr	x1, [x29, -32]
str	wzr, [x1, 4]
ldr	x0, [x29, -48]
ldr	x1, [x29, -48]
ldr	x0, [x0]
ldr	x1, [x1]
ldr	x0, [x0, 8]
ldr	w0, [x0]
str	wzr, [x1, 4]
ldr	x1, [x29, -32]
str	wzr, [x1, 4]
ldr	x0, [x29, -48]
ldr	x1, [x29, -48]
ldr	x0, [x0]
ldr	x1, [x1]
ldr	x0, [x0, 8]
ldr	w0, [x0]
str	wzr, [x1, 4]
ldr	x1, [x29, -32]
str	wzr, [x1, 4]
ldr	x0, [x29, -48]
ldr	x1, [x29, -48]
ldr	x0, [x0]
ldr	x1, [x1]
ldr	x0, [x0, 8]
ldr	w0, [x0]
str	wzr, [x1, 4]
ldr	x1, [x29, -32]
str	wzr, [x1, 4]
ldr	x0, [x29, -48]
ldr	x1, [x29, -48]
ldr	x0, [x0]
ldr	x1, [x1]
ldr	x0, [x0, 8]
ldr	w0, [x0]
str	wzr, [x1, 4]
ldr	x1, [x29, -32]
str	wzr, [x1, 4]
ldr	x0, [x29, -48]
ldr	x1, [x29, -48]
ldr	x0, [x0]
ldr	x1, [x1]
ldr	x0, [x0, 8]
ldr	w0, [x0]
str	wzr, [x1, 4]
ldr	x1, [x29, -32]
str	wzr, [x1, 4]
ldr	x0, [x29, -48]
ldr	x1, [x29, -48]
ldr	x0, [x0]
ldr	x1, [x1]
ldr	x0, [x0, 8]
ldr	w0, [x0]
str	wzr, [x1, 4]
ldr	x1, [x29, -32]
str	wzr, [x1, 4]
ldr	x0, [x29, -48]
ldr	x1, [x29, -48]
ldr	x0, [x0]
ldr	x1, [x1]
ldr	x0, [x0, 8]
ldr	w0, [x0]
str	wzr, [x1, 4]
ldr	x1, [x29, -3