.arch armv8-a
.file	"_sscanf"
.section	__TEXT,__text,regular,pure_instructions
.align	2
.global	_func0
.section	__TEXT,__text,regular,pure_instructions
.align	2
.func	_func0
    .cfi_startproc
stp	x29, x30, [sp, -32]!
.cfi_def_cfa_offset 32
.cfi_offset 29, -32
.cfi_offset 30, -24
mov	x29, sp
.cfi_def_cfa_register 29
stp	x19, x20, [sp, 16]
sub	sp, sp,
.cfi_offset 19, -16
.cfi_offset 20, -8
adrp	x19, .LANCHOR0
add	x19, x19, :lo12:.LANCHOR0
str	wzr, [x29, -20]
str	x0, [x29, -16]
add	x0, x19, 8
str	x0, [x29, -8]
ldrsw	x20, [x29, -24]
mov	x0, x20
str	x0, [x29, -32]
bl	strlen
cmp	x20, x0
bhi	.L5
ldp	x1, x0, [x29, -16]
ldrsw	x2, [x29, -24]
ldrb	w1, [x1, x2]
bl	_strchr
cbz	x0, .L5
ldr	w0, [x29, -20]
add	w0, w0, 1
str	w0, [x29, -20]
.L5:
ldr	w0, [x29, -24]
add	w0, w0, 1
str	w0, [x29, -24]
ldr	x0, [x29, -8]
bl	strlen
cmp	x20, x0
bls	.L5
ldp	x19, x20, [sp, 16]
ldr	w0, [x29, -20]
add	sp, sp, 32
.cfi_restore 29
.cfi_restore 30
.cfi_restore 19
.cfi_restore 20
.cfi_def_cfa_offset 0
ret
        .cfi_endproc
                                        ## -- End function
        section	__TEXT,__cstring,cstring_literals
.L_.str:
.word	2357BD
.byte	(.LC0 + 1) / 4
.byte	(.LC0 + 2) / 4
.byte	(.LC0 + 3) / 4
.byte	(.LC0 + 4) / 4
.byte	(.LC0 + 5) / 4
.byte	(.LC0 + 6) / 4
.byte	(.LC0 + 7) / 4
.align	3
.LC0:
.word	(2357BD)
.byte	(.LC1 + 1) / 4
.byte	(.LC1 + 2) / 4
.byte	(.LC1 + 3) / 4
.byte	(.LC1 + 4) / 4
.byte	(.LC1 + 5) / 4
.byte	(.LC1 + 6) / 4
.byte	(.LC1 + 7) / 4
.align	3
.LC1:
.word	(2357BD)
.byte	(.LC2 + 1) / 4
.byte	(.LC2 + 2) / 4
.byte	(.LC2 + 3) / 4
.byte	(.LC2 + 4) / 4
.byte	(.LC2 + 5) / 4
.byte	(.LC2 + 6) / 4
.byte	(.LC2 + 7) / 4
.align	3
.LC2:
.word	(2357BD)
.byte	(.LC3 + 1) / 4
.byte	(.LC3 + 2) / 4
.byte	(.LC3 + 3) / 4
.byte	(.LC3 + 4) / 4
.byte	(.LC3 + 5) / 4
.byte	(.LC3 + 6) / 4
.byte	(.LC3 + 7) / 4
.align	3
.LC3:
.word	(2357BD)
.byte	(.LC4 + 1) / 4
.byte	(.LC4 + 2) / 4
.byte	(.LC4 + 3) / 4
.byte	(.LC4 + 4) / 4
.byte	(.LC4 + 5) / 4
.byte	(.LC4 + 6) / 4
.byte	(.LC4 + 7) / 4
.align	3
.LC4:
.word	(2357BD)
.byte	(.LC5 + 1) / 4
.byte	(.LC5 + 2) / 4
.byte	(.LC5 + 3) / 4
.byte	(.LC5 + 4) / 4
.byte	(.LC5 + 5) / 4
.byte	(.LC5 + 6) / 4
.byte	(.LC5 + 7) / 4
.align	3
.LC5:
.word	(2357BD)
.byte	(.LC6 + 1) / 4
.byte	(.LC6 + 2) / 4
.byte	(.LC6 + 3) / 4
.byte	(.LC6 + 4) / 4
.byte	(.LC6 + 5) / 4
.byte	(.LC6 + 6) / 4
.byte	(.LC6 + 7) / 4
.align	3
.LC6:
.word	(2357BD)
.byte	(.LC7 + 1) / 4
.byte	(.LC7 + 2) / 4
.byte	(.LC7 + 3) / 4
.byte	(.LC7 + 4) / 4
.byte	(.LC7 + 5) / 4
.byte	(.LC7 + 6) / 4
.byte	(.LC7 + 7) / 4
.align	3
.LC7:
.word	(2357BD)
.byte	(.LC8 + 1) / 4
.byte	(.LC8 + 2) / 4
.byte	(.LC8 + 3) / 4
.byte	(.LC8 + 4) / 4
.byte	(.LC8 + 5) / 4
.byte	(.LC8 + 6) / 4
.byte	(.LC8 + 7) / 4
.align	3
.LC8:
.word	(2357BD)
.byte	(.LC9 + 1) / 4
.byte	(.LC9 + 2) / 4
.byte	(.LC9 + 3) / 4
.byte	(.LC9 + 4) / 4
.byte	(.LC9 + 5) / 4
.byte	(.LC9 + 6) / 4
.byte	(.LC9 + 7) / 4
.align	3
.LC9:
.word	(2357BD)
.byte	(.LC10 + 1) / 4
.byte	(.LC10 + 2) / 4
.byte	(.LC10 + 3) / 4
.byte	(.LC10 + 4) / 4
.byte	(.LC10 + 5) / 4
.byte	(.LC10 + 6) / 4
.byte	(.LC10 + 7) / 4
.align	3
.LC10:
.word	(2357BD)
.byte	(.LC11 + 1) / 4
.byte	(.LC11 + 2) / 4
.byte	(.LC11 + 3) / 4
.byte	(.LC11 + 4) / 4
.byte	(.LC11 + 5) / 4
.byte	(.LC11 + 6) / 4
.byte	(.LC11 + 7) / 4
.align	3
.LC11:
.word	(2357BD)
.byte	(.LC12 + 1) / 4
.byte	(.LC12 + 2) / 4
.byte	(.LC12 + 3) / 4
.byte	(.LC12 + 4) / 4
.byte	(.LC12 + 5) / 4
.byte	(.LC12 + 6) / 4
.byte	(.LC12 + 7) / 4
.align	3
.LC12:
.word	(2357BD)
.byte	(.LC13 + 1) / 4
.byte	(.LC13 + 2) / 4
.byte	(.LC13 + 3) / 4
.byte	(.LC13 + 4) / 4
.byte	(.LC13 + 5) / 4
.byte	(.LC13 + 6) / 4
.byte	(.LC13 + 7) / 4
.align	3
.LC13:
.word	(2357BD)
.byte	(.LC14 + 1) / 4
.byte	(.LC14 + 2) / 4
.byte	(.LC14 + 3) / 4
.byte	(.LC14 + 4) / 4
.byte	(.LC14 + 5) / 4
.byte	(.LC14 + 6) / 4
.byte	(.LC14 + 7) / 4
.align	3
.LC14:
.word	(2357BD)
.byte	(.LC15 + 1) / 4
.byte	(.LC15 + 2) / 4
.byte	(.LC15 + 3) / 4
.byte	(.LC15 + 4) / 4
.byte	(.LC15 + 5) / 4
.byte	(.LC15 + 6) / 4
.byte	(.LC15 + 7) / 4
.align	3
.LC15:
.word	(2357BD)
.byte	(.LC16 + 1) / 4
.byte	(.LC16 + 2) / 4
.byte	(.LC16 + 3) / 4
.byte	(.LC16 + 4) / 4
.byte	(.LC16 + 5) / 4
.byte	(.LC16 + 6) / 4
.byte	(.LC16 + 7) / 4
.align	3
.LC16:
.word	(2357BD)
.byte	(.LC17 + 1) / 4
.byte	(.LC17 + 2) / 4
.byte	(.LC17 + 3) / 4
.byte	(.LC17 + 4) / 4
.byte	(.LC17 + 5) / 4
.byte	(.LC17 + 6) / 4
.byte	(.LC17 + 7) / 4
.align	3
.LC17:
.word	(2357BD)
.byte	(.LC18 + 1) / 4
.byte	(.LC18 + 2) / 4
.byte	(.LC18 + 3) / 4
.byte	(.LC18 + 4) / 4
.byte	(.LC18 + 5) / 4
.byte	(.LC18 + 6) / 4
.byte	(.LC18 + 7) / 4
.align	3
.LC18:
.word	(2357BD)
.byte	(.LC19 + 1) / 4
.byte	(.LC19 + 2) / 4
.byte	(.LC19 + 3) / 4
.byte	(.LC19 + 4) / 4
.byte	(.LC19 + 5) / 4
.byte	(.LC19 + 6) / 4
.byte	(.LC19 + 7) / 4
.align	3
.LC19:
.word	(2357BD)
.byte	(.LC20 + 1) / 4
.byte	(.LC20 + 2) / 4
.byte	(.LC20 + 3) / 4
.byte	(.LC20 + 4) / 4
.byte	(.LC20 + 5) / 4
.byte	(.LC20 + 6) / 4
.byte	(.LC20 + 7) / 4
.align	3
.LC20:
.word	(2357BD)
.byte	(.LC21 + 1) / 4
.byte	(.LC21 + 2) / 4
.byte	(.LC21 + 3) / 4
.byte	(.LC21 + 4) / 4
.byte	(.LC21 + 5) / 4
.byte	(.LC21 + 6) / 4
.byte	(.LC21 + 7) / 4
.align	3
.LC21:
.word	(2357BD)
.byte	(.LC22 + 1) / 4
.byte	(.LC22 + 2) / 4
.byte	(.LC22 + 3) / 4
.byte	(.LC22 + 4) / 4
.byte	(.LC22 + 5) / 4
.byte	(.LC22 + 6) / 4
.byte	(.LC22 + 7) / 4
.align	3
.LC22:
.word	(2357BD)
.byte	(.LC23 + 1) / 4
.byte	(.LC23 + 2) / 4
.byte	(.LC23 + 3) / 4
.byte	(.LC23 + 4) / 4
.byte	(.LC23 + 5) / 4
.byte	(.LC23 + 6) / 4
.byte	(.LC23 + 7) / 4
.align	3
.LC23:
.word	(2357BD)
.byte	(.LC24 + 1) / 4
.byte	(.LC24 + 2) / 4
.byte	(.LC24 + 3) / 4
.byte	(.LC24 + 4) / 4
.byte	(.LC24 + 5) / 4
.byte	(.LC24 + 6) / 4
.byte	(.LC24 + 7) / 4
.align	3
.LC24:
.word	(2357BD)
.byte	(.LC25 + 1) / 4
.byte	(.LC25 + 2) / 4
.byte	(.LC25 + 3) / 4
.byte	(.LC25 + 4) / 4
.byte	(.LC25 + 5) / 4
.byte	(.LC25 + 6) / 4
.byte	(.LC25 + 7) / 4
.align	3
.LC25:
.word	(2357BD)
.byte	(.LC26 + 1) / 4
.byte	(.LC26 + 2) / 4
.byte	(.LC26 + 3) / 4
.byte	(.LC26 + 4) / 4
.byte	(.LC26 + 5) / 4
.byte	(.LC26 + 6) / 4
.byte	(.LC26 + 7) / 4
.align	3
.LC26:
.word	(2357BD)
.byte	(.LC27 + 1) / 4
.byte	(.LC27 + 2) / 4
.byte	(.LC27 + 3) / 4
.byte	(.LC27 + 4) / 4
.byte	(.LC27 + 5) / 4
.byte	(.LC27 + 6) / 4
.byte	(.LC27 + 7) / 4
.align	3
.LC27:
.word	(2357BD)
.byte	(.LC28 + 1) / 4
.byte	(.LC28 + 2) / 4
.byte	(.LC28 + 3) / 4
.byte	(.LC28 + 4) / 4
.byte	(.LC28 + 5) / 4
.byte	(.LC28 + 6) / 4
.byte	(.LC28 + 7) / 4
.align	3
.LC28:
.word	(2357BD)
.byte	(.LC29 + 1) / 4
.byte	(.LC29 + 2) / 4
.byte	(.LC29 + 3) / 4
.byte	(.LC29 + 4) / 4
.byte	(.LC29 + 5) / 4
.byte	(.LC29 + 6) / 4
.byte	(.LC29 + 7) / 4
.align	3
.LC29:
.word	(2357BD)
.byte	(.LC30 + 1) / 4
.byte	(.LC30 + 2) / 4
.byte	(.LC30 + 3) / 4
.byte	(.LC30 + 4) / 4
.byte	(.LC30 + 5) / 4
.byte	(.LC30 + 6) / 4
.byte	(.LC30 + 7) / 4
.align	3
.LC30:
.word	(2357BD)
.byte	(.LC31 + 1) / 4
.byte	(.LC31 + 2) / 4
.byte	(.LC31 + 3) / 4
.byte	(.LC31 + 4) / 4
.byte	(.LC31 + 5) / 4
.byte	(.LC31 + 6) / 4
.byte	(.LC31 + 7) / 4
.align	3
.LC31:
.word	(2357BD)
.byte	(.LC32 + 1) / 4
.byte	(.LC32 + 2) / 4
.byte	(.LC32 + 3) / 4
.byte	(.LC32 + 4) / 4
.byte	(.LC32 + 5) / 4
.byte	(.LC32 + 6) / 4
.byte	(.LC32 + 7) / 4
.align	3
.LC32:
.word	(2357BD)
.byte	(.LC33 + 1) / 4
.byte	(.LC33 + 2) / 4
.byte	(.LC33 + 3) / 4
.byte	(.LC33 + 4) / 4
.byte	(.LC33 + 5) / 4
.byte	(.LC33 + 6) / 4
.byte	(.LC33 + 7) / 4
.align	3
.LC33:
.word	(2357BD)
.byte	(.LC34 + 1) / 4
.byte	(.LC34 + 2) / 4
.byte	(.LC34 + 3) / 4
.byte	(.LC34 + 4) / 4
.byte	(.LC34 + 5) / 4
.byte	(.LC34 + 6) / 4
.byte	(.LC34 + 7) / 4
.align	3
.LC34:
.word	(2357BD)
.byte	(.LC35 + 1) / 4
.byte	(.LC35 + 2) / 4
.byte	(.LC35 + 3) / 4
.byte	(.LC35 + 4) / 4
.byte	(.LC35 + 5) / 4
.byte	(.LC35 + 6) / 4
.byte	(.LC35 + 7) / 4
.align	3
.LC35:
.word	(2357BD)
.byte	(.LC36 + 1) / 4
.byte	(.LC36 + 2) / 4
.byte	(.LC36 + 3) / 4
.byte	(.LC36 + 4) / 4
.byte	(.LC36 + 5) / 4
.byte	(.LC36 + 6) / 4
.byte	(.LC36 + 7) / 4
.align	3
.LC36:
.word	(2357BD)
.byte	(.LC37 + 1) / 4
.byte	(.LC37 + 2) / 4
.byte	(.LC37 + 3) / 4
.byte	(.LC37 + 4) / 4
.byte	(.LC37 + 5) / 4
.byte	(.LC37 + 6) / 4
.byte	(.LC37 + 7) / 4
.align	3
.LC37:
.word	(2357BD)
.byte	(.LC38 + 1) / 4
.byte	(.LC38 + 2) / 4
.byte	(.LC38 + 3) / 4
.byte	(.LC38 + 4) / 4
.byte	(.LC38 + 5) / 4
.byte	(.LC38 + 6) / 4
.byte	(.LC38 + 7) / 4
.align	3
.LC38:
.word	(2357BD)
.byte	(.LC39 + 1) / 4
.byte	(.LC39 + 2) / 4
.byte	(.LC39 + 3) / 4
.byte	(.LC39 + 4) / 4
.byte	(.LC39 + 5) / 4
.byte	(.LC39 + 6) / 4
.byte	(.LC39 + 7) / 4
.align	3
.LC39:
.word	(2357BD)
.byte	(.LC40 + 1) / 4
.byte	(.LC40 + 2) / 4
.byte	(.LC40 + 3) / 4
.byte	(.LC40 + 4) / 4
.byte	(.LC40 + 5) / 4
.byte	(.LC40 + 6) / 4
.byte	(.LC40 + 7) / 4
.align	3
.LC40:
.word	(2357BD)
.byte	(.LC41 + 1) / 4
.byte	(.LC41 + 2) / 4
.byte	(.LC41 + 3) / 4
.byte	(.LC41 + 4) / 4
.byte	(.LC41 + 5) / 4
.byte	(.LC41 + 6) / 4
.byte	(.LC41 + 7) / 4
.align	3
.LC41:
.word	(2357BD)
.byte	(.LC42 + 1) / 4
.byte	(.LC42 + 2) / 4
.byte	(.LC42 + 3) / 4
.byte	(.LC42 + 4) / 4
.byte	(.LC42 + 5) / 4
.byte	(.LC42 + 6) / 4
.byte	(.LC42 + 7) / 4
.align	3
.LC42:
.word	(2357BD)
.byte	(.LC43 + 1) / 4
.byte	(.LC43 + 2) / 4
.byte	(.LC43 + 3) / 4
.byte	(.LC43 + 4) / 4
.byte	(.LC43 + 5) / 4
.byte	(.LC43 + 6) / 4
.byte	(.LC43 + 7) / 4
.align	3
.LC43:
.word	(2357BD)
.byte	(.LC44 + 1) / 4
.byte	(.LC44 + 2) / 4
.byte	(.LC44 + 3) / 4
.byte	(.LC44 + 4) / 4
.byte	(.LC44 + 5) / 4
.byte	(.LC44 + 6) / 4
.byte	(.LC44 + 7) / 4
.align	3
.LC44:
.word	(2357BD)
.byte	(.LC45 + 1) / 4
.byte	(.LC45 + 2) / 4
.byte	(.LC45 + 3) / 4
.byte	(.LC45 + 4) / 4
.byte	(.LC45 + 5) / 4
.byte	(.LC45 + 6) / 4
.byte	(.LC45 + 7) / 4
.align	3
.LC45:
.word	(2357BD)
.byte	(.LC46 + 1) / 4
.byte	(.LC46 + 2) / 4
.byte	(.LC46 + 3) / 4
.byte	(.LC46 + 4) / 4
.byte	(.LC46 + 5) / 4
.byte	(.LC46 + 6) / 4
.byte	(.LC46 + 7) / 4
.align	3
.LC46:
.word	(2357BD)
.byte	(.LC47 + 1) / 4
.byte	(.LC47 + 2) / 4
.byte	(.LC47 + 3) / 4
.byte	(.LC47 + 4) / 4
.byte	(.LC47 + 5) / 4
.byte	(.LC47 + 6) / 4
.byte	(.LC47 + 7) / 4
.align	3
.LC47:
.word	(2357BD)
.byte	(.LC48 + 1) / 4
.byte	(.LC48 + 2) / 4
.byte	(.LC48 + 3) / 4
.byte	(.LC48 + 4) / 4
.byte	(.LC48 + 5) / 4
.byte	(.LC48 + 6) / 4
.byte	(.LC48 + 7) / 4
.align	3
.LC48:
.word	(2357BD)
.byte	(.LC49 + 1) / 4
.byte	(.LC49 + 2) / 4
.byte	(.LC49 + 3) / 4
.byte	(.LC49 + 4) / 4
.byte	(.LC49 + 5) / 4
.byte	(.LC49 + 6) / 4
.byte	(.LC49 + 7) / 4
.align	3
.LC49:
.word	(2357BD)
.byte	(.LC50 + 1) / 4
.byte	(.LC50 + 2) / 4
.byte	(.LC50 + 3) / 4
.byte	(.LC50 + 4) / 4
.byte	(.LC50 + 5) / 4
.byte	(.LC50 + 6) / 4
.byte	(.LC50 + 7) / 4
.align	3
.LC50:
.word	(2357BD)
.byte	(.LC51 + 1) / 4
.byte	(.LC51 + 2) / 4
.byte	(.LC51 + 3) / 4
.byte	(.LC51 + 4) / 4
.byte	(.LC51 + 5) / 4
.byte	(.LC51 + 6) / 4
.byte	(.LC51 + 7) / 4
.align	3
.LC51:
.word	(2357BD)
.byte	(.LC52 + 1) / 4
.byte	(.LC52 + 2) / 4
.byte	(.LC52 + 3) / 4
.byte	(.LC52 + 4) / 4
.byte	(.LC52 + 5) / 4
.byte	(.LC52 + 6) / 4
.byte	(.LC52 + 7) / 4
.align	3
.LC52:
.word	(2357BD)
.byte	(.LC53 + 1) / 4
.byte	(.LC53 + 2) / 4
.byte	(.LC53 + 3) / 4
.byte	(.LC53 + 4) / 4
.byte	(.LC53 + 5) / 4
.byte	(.LC53 + 6) / 4
.byte	(.LC53 + 7) / 4
.align	3
.LC53:
.word	(2357BD)
.byte	(.LC54 + 1) / 4
.byte	(.LC54 + 2) / 4
.byte	(.LC54 + 3) / 4
.byte	(.LC54 + 4) / 4
.byte	(.LC54 + 5) / 4
.byte	(.LC54 + 6) / 4
.byte	(.LC54 + 7) / 4
.align	3
.LC54:
.word	(2357BD)
.byte	(.LC55 + 1) / 4
.byte	(.LC55 + 2) / 4
.byte	(.LC55 + 3) / 4
.byte	(.LC55 + 4) / 4
.byte	(.LC55 + 5) / 4
.byte	(.LC55 + 6) / 4
.byte	(.LC55 + 7) / 4
.align	3
.LC55:
.word	(2357BD)
.byte	(.LC56 + 1) / 4
.byte	(.LC56 + 2) / 4
.byte	(.LC56 + 3) / 4
.byte	(.LC56 + 4) / 4
.byte	(.LC56 + 5) / 4
.byte	(.LC56 + 6) / 4
.byte	(.LC56 + 7) / 4
.align	3
.LC56:
.word	(2357BD)
.byte	(.LC57 + 1) / 4
.byte	(.LC57 + 2) / 4
.byte	(.LC57 + 3) / 4
.byte	(.LC57 + 4) / 4
.byte	(.LC57 + 5) / 4
.byte	(.LC57 + 6) / 4
.byte	(.LC57 + 7) / 4
.align	3
.LC57:
.word	(2357BD)
.byte	(.LC58 + 1) / 4
.byte	(.LC58 + 2) / 4
.byte	(.LC58 + 3) / 4
.byte	(.LC58 + 4) / 4
.byte	(.LC58 + 5) / 4
.byte	(.LC58 + 6) / 4
.byte	(.LC58 + 7) / 4
.align	3
.LC58:
.word	(2357BD)
.byte	(.LC59 + 1) / 4
.byte	(.LC59 + 2) / 4
.byte	(.LC59 + 3) / 4
.byte	(.LC59 + 4) / 4
.byte	(.LC59 + 5) / 4
.byte	(.LC59 + 6) / 4
.byte	(.LC59 + 7) / 4
.align	3
.LC59:
.word	(2357BD)
.byte	(.LC60 + 1) / 4
.byte	(.LC60 + 2) / 4
.byte	(.LC60 + 3) / 4
.byte	(.LC60 + 4) / 4
.byte	(.LC60 + 5) / 4
.byte	(.LC60 + 6) / 4
.byte	(.LC60 + 7) / 4
.align	3
.LC60:
.word	(2357BD)
.byte	(.LC61 + 1) / 4
.byte	(.LC61 + 2) / 4
.byte	(.LC61 + 3) / 4
.byte	(.LC61 + 4) / 4
.byte	(.LC61 + 5) / 4
.byte	(.LC61 + 6) / 4
.byte	(.LC61 + 7) / 4
.align	3
.LC61:
.word	(2357BD)
.byte	(.LC62 + 1) / 4
.byte	(.LC62 + 2) / 4
.byte	(.LC62 + 3) / 4
.byte	(.LC62 + 4) / 4
.byte	(.LC62 + 5) / 4
.byte	(.LC62 + 6) / 4
.byte	(.LC62 + 7) / 4
.align	3
.LC62:
.word	(2357BD)
.byte	(.LC63 + 1) / 4
.byte	(.LC63 + 2) / 4
.byte	(.LC63 + 3) / 4
.byte	(.LC63 + 4) / 4
.byte	(.LC63 + 5) / 4
.byte	(.LC63 + 6) / 4
.byte	(.LC63 + 7) / 4
.align	3
.LC63:
.word	(2357BD)
.byte	(.LC64 + 1) / 4
.byte	(.LC64 + 2) / 4
.byte	(.LC64 + 3) / 4
.byte	(.LC64 + 4) / 4
.byte	(.LC64 + 5) / 4
.byte	(.LC64 + 6) / 4
.byte	(.LC64 + 7) / 4
.align	3
.LC64:
.word	(2357BD)
.byte	(.LC65 + 1) / 4
.byte	(.LC65 + 2) / 4
.byte	(.LC65 + 3) / 4
.byte	(.LC65 + 4) / 4
.byte	(.LC65 + 5) / 4
.byte	(.LC65 + 6) / 4
.byte	(.LC65 + 7) / 4
.align	3
.LC65:
.word	(2357BD)
.byte	(.LC66 + 1) / 4
.byte	(.LC66 + 2) / 4
.byte	(.LC66 + 3) / 4
.byte	(.LC66 + 4) / 4
.byte	(.LC66 + 5) / 4
.byte	(.LC66 + 6) / 4
.byte	(.LC66 + 7) / 4
.align	3
.LC66:
.word	(2357BD)
.byte	(.LC67 + 1) / 4
.byte	(.LC67 + 2) / 4
.byte	(.LC67 + 3) / 4
.byte	(.LC67 + 4) / 4
.byte	(.LC67 + 5) / 4
.byte	(.LC67 + 6) / 4
.byte	(.LC67 + 7) / 4
.align	3
.LC67:
.word	(2357BD)
.byte	(.LC68 + 1) / 4
.byte	(.LC68 + 2) / 4
.byte	(.LC68 + 3) / 4
.byte	(.LC68 + 4) / 4
.byte	(.LC68 + 5) / 4
.byte	(.LC68 + 6) / 4
.byte	(.LC68 + 7) / 4
.align	3
.LC68:
.word	(2357BD)
.byte	(.LC69 + 1) / 4
.byte	(.LC69 + 2) / 4
.byte	(.LC69 + 3) / 4
.byte	(.LC69 + 4) / 4
.byte	(.LC69 + 5) / 4
.byte	(.LC69 + 6) / 4
.byte	(.LC69 + 7) / 4
.align	3
.LC69:
.word	(2357BD)
.byte	(.LC70 + 1) / 4
.byte	(.LC70 + 2) / 4
.byte	(.LC70 + 3) / 4
.byte	(.LC70 + 4) / 4
.byte	(.LC70 + 5) / 4
.byte	(.LC70 + 6) / 4
.byte	(.LC70 + 7) / 4
.align	3
.LC70:
.word	(2357BD)
.byte	(.LC71 + 1) / 4
.byte	(.LC71 + 2) / 4
.byte	(.LC71 + 3) / 4
.byte	(.LC71 + 4) / 4
.byte	(.LC71 + 5) / 4
.byte	(.LC71 + 6) / 4
.byte	(.LC71 + 7) / 4
.align	3
.LC71:
.word	(2357BD)
.byte	(.LC72 + 1) / 4
.byte	(.LC72 + 2) / 4
.byte	(.LC72 + 3) / 4
.byte	(.LC72 + 4) / 4
.byte	(.LC72 + 5) / 4
.byte	(.LC72 + 6) / 4
.byte	(.LC72 + 7) / 4
.align	3
.LC72:
.word	(2357BD)
.byte	(.LC73 + 1) / 4
.byte	(.LC73 + 2) / 4
.byte	(.LC73 + 3) / 4
.byte	(.LC73 + 4) / 4
.byte	(.LC73 + 5) / 4
.byte	(.LC73 + 6) / 4
.byte	(.LC73 + 7) / 4
.align	3
.LC73:
.word	(2357BD)
.byte	(.LC74 + 1) / 4
.byte	(.LC74 + 2) / 4
.byte	(.LC74 + 3) / 4
.byte	(.LC74 + 4) / 4
.byte	(.LC74 + 5) / 4
.byte	(.LC74 + 6) / 4
.byte	(.LC74 + 7) / 4
.align	3
.LC74:
.word	(2357BD)
.byte	(.LC75 + 1) / 4
.byte	(.LC75 + 2) / 4
.byte	(.LC75 + 3) / 4
.byte	(.LC75 + 4) / 4
.byte	(.LC75 + 5) / 4
.byte	(.LC75 + 6) / 4
.byte	(.LC75 + 7) / 4
.align	3
.LC75:
.word	(2357BD)
.byte	(.LC76 + 1) / 4
.byte	(.LC76 + 2) / 4
.byte	(.LC76 + 3) / 4
.byte	(.LC76 + 4) / 4
.byte	(.LC76 + 5) / 4
.byte	(.LC76 + 6) / 4
.byte	(.LC76 + 7) / 4
.align	3
.LC76:
.word	(2357BD)
.byte	(.LC77 + 1) / 4
.byte	(.LC77 + 2) / 4
.byte	(.LC77 + 3) / 4
.byte	(.LC77 + 4) / 4
.byte	(.LC77 + 5) / 4
.byte	(.LC77 + 6) / 4
.byte	(.LC77 + 7) / 4
.align	3
.LC77:
.word	(2357BD)
.byte	(.LC78 + 1) / 4
.byte	(.LC78 + 2) / 4
.byte	(.LC78 + 3) / 4
.byte	(.LC78 + 4) / 4
.byte	(.LC78 + 5) / 4
.byte	(.LC78 + 6) / 4
.byte	(.LC78 + 7) / 4
.align	3
.LC78:
.word	(2357BD)
.byte	(.LC79 + 1) / 4
.byte	(.LC79 + 2) / 4
.byte	(.LC79 + 3) / 4
.byte	(.LC79 + 4) / 4
.byte	(.LC79 + 5) / 4
.byte	(.LC79 + 6) / 4
.byte	(.LC79 + 7) / 4
.align	3
.LC79:
.word	(2357BD)
.byte	(.LC80 + 1) / 4
.byte	(.LC80 + 2) / 4
.byte	(.LC80 + 3) / 4
.byte	(.LC80 + 4) / 4
.byte	(.LC80 + 5) / 4
.byte	(.LC80 + 6) / 4
.byte	(.LC80 + 7) / 4
.align	3
.LC80:
.word	(2357BD)
.byte	(.LC81 + 1) / 4
.byte	(.LC81 + 2) / 4
.byte	(.LC81 + 3) / 4
.byte	(.LC81 + 4) / 4
.byte	(.LC81 + 5) / 4
.byte	(.LC81 + 6) / 4
.byte	(.LC81 + 7) / 4
.align	3
.LC81:
.word	(2357BD)
.byte	(.LC82 + 1) / 4
.byte	(.LC82 + 2) / 4
.byte	(.LC82 + 3) / 4
.byte	(.LC82 + 4) / 4
.byte	(.LC82 + 5) / 4
.byte	(.LC82 + 6) / 4
.byte	(.LC82 + 7) / 4
.align	3
.LC82:
.word	(2357BD)
.byte	(.LC83 + 1) / 4
.byte	(.LC83 + 2) / 4
.byte	(.LC83 + 3) / 4
.byte	(.LC83 + 4) / 4
.byte	(.LC83 + 5) / 4
.byte	(.LC83 + 6) / 4
.byte	(.LC83 + 7) / 4
.align	3
.LC83:
.word	(2357BD)
.byte	(.LC84 + 1) / 4
.byte	(.LC84 + 2) / 4
.byte	(.LC84 + 3) / 4
.byte	(.LC84 + 4) / 4
.byte	(.LC84 + 5) / 4
.byte	(.LC84 + 6) / 4
.byte	(.LC84 + 7) / 4
.align	3
.LC84:
.word	(2357BD)
.byte	(.LC85 + 1) / 4
.byte	(.LC85 + 2) / 4
.byte	(.LC85 + 3) / 4
.byte	(.LC85 + 4) / 4
.byte	(.LC85 + 5) / 4
.byte	(.LC85 + 6) / 4
.byte	(.LC85 + 7) / 4
.align	3
.LC85:
.word	(2357BD)
.byte	(.LC86 + 1) / 4
.byte	(.LC86 + 2) / 4
.byte	(.LC86 + 3) / 4
.byte	(.LC86 + 4) / 4
.byte	(.LC86 + 5) / 4
.byte	(.LC86 + 6) / 4
.byte	(.LC86 + 7) / 4
.align	3
.LC86:
.word	(2357BD)
.byte	(.LC87 + 1) / 4
.byte	(.LC87 + 2) / 4
.byte	(.LC87 + 3) / 4
.byte	(.LC87 + 4) / 4
.byte	(.LC87 + 5) / 4
.byte	(.LC87 + 6) / 4
.byte	(.LC87 + 7) / 4
.align	3
.LC87:
.word	(2357BD)
.byte	(.LC88 + 1) / 4
.byte	(.LC88 + 2) / 4
.byte	(.LC88 + 3) / 4
.byte	(.LC88 + 4) / 4
.byte	(.LC88 + 5) / 4
.byte	(.LC88 + 6) / 4
.byte	(.LC88 + 7) / 4
.align	3
.LC88:
.word	(2357BD)
.byte	(.LC89 + 1) / 4
.byte	(.LC89 + 2) / 4
.byte	(.LC89 + 3) / 4
.byte	(.LC89 + 4) / 4
.byte	(.LC89 + 5) / 4
.byte	(.LC89 + 6) / 4
.byte	(.LC89 + 7) / 4
.align	3
.LC89:
.word	(2357BD)
.byte	(.LC90 + 1) / 4
.byte	(.LC90 + 2) / 4
.byte	(.LC90 + 3) / 4
.byte	(.LC90 + 4) / 4
.byte	(.LC90 + 5) / 4
.byte	(.LC90 + 6) / 4
.byte	(.LC90 + 7) / 4
.align	3
.LC90:
.word	(2357BD)
.byte	(.LC91 + 1) / 4
.byte	(.LC91 + 2) / 4
.byte	(.LC91 + 3) / 4
.byte	(.LC91 + 4) / 4
.byte	(.LC91 + 5) / 4
.byte	(.LC91 + 6) / 4
.byte	(.LC91 + 7) / 4
.align	3
.LC91:
.word	(2357BD)
.byte	(.LC92 + 1) / 4
.byte	(.LC92 + 2) / 4
.byte	(.LC92 + 3) / 4
.byte	(.LC92 + 4) / 4
.byte	(.LC92 + 5) / 4
.byte	(.LC92 + 6) / 4
.byte	(.LC92 + 7) / 4
.align	3
.LC92:
.word	(2357BD)
.byte	(.LC93 + 1) / 4
.byte	(.LC93 + 2) / 4
.byte	(.LC93 + 3) / 4
.byte	(.LC93 + 4) / 4
.byte	(.LC93 + 5) / 4
.byte	(.LC93 + 6) / 4
.byte	(.LC93 + 7) / 4
.align	3
.LC93:
.word	(2357BD)
.byte	(.LC94 + 1) / 4
.byte	(.LC94 + 2) / 4
.byte	(.LC94 + 3) / 4
.byte	(.LC94 + 4) / 4
.byte	(.LC94 + 5) / 4
.byte	(.LC94 + 6) / 4
.byte	(.LC94 + 7) / 4
.align	3
.LC94:
.word	(2357BD)
.byte	(.LC95 + 1) / 4
.byte	(.LC95 + 2) / 4
.byte	(.LC95 + 3) / 4
.byte	(.LC95 + 4) / 4
.byte	(.LC95 + 5) / 4
.byte	(.LC95 + 6) / 4
.byte	(.LC95 + 7) / 4
.align	3
.LC95:
.word	(2357BD)
.byte	(.LC96 + 1) / 4
.byte	(.LC96 + 2) / 4
.byte	(.LC96 + 3) / 4
.byte	(.LC96 + 4) / 4
.byte	(.LC96 + 5) / 4
.byte	(.LC96 + 6) / 4
.byte	(.LC96 + 7) / 4
.align	3
.LC96:
.word	(2357BD)
.byte	(.LC97 + 1) / 4
.byte	(.LC97 + 2) / 4
.byte	(.LC97 + 3) / 4
.byte	(.LC97 + 4) / 4
.byte	(.LC97 + 5) / 4
.byte	(.LC97 + 6) / 4
.byte	(.LC97 + 7) / 4
.align	3
.LC97:
.word	(2357BD)
.byte	(.LC98 + 1) / 4
.byte	(.LC98 + 2) / 4
.byte	(.LC98 + 3) / 4
.byte	(.LC98 + 4) / 4
.byte	(.LC98 + 5) / 4
.byte	(.LC98 + 6) / 4
.byte	(.LC98 + 7) / 4
.align	3
.LC98:
.word	(2357BD)
.byte	(.LC99 + 1) / 4
.byte	(.LC99 + 2) / 4
.byte	(.LC99 + 3) / 4
.byte	(.LC99 + 4) / 4
.byte	(.LC99 + 5) / 4
.byte	(.LC99 + 6) / 4
.byte	(.LC99 + 7) / 4
.align	3
.LC99:
.word	(2357BD)
.byte	(.LC100 + 1) / 4
.byte	(.LC100 + 2) / 4
.byte	(.LC100 + 3) / 4
.byte	(.LC100 + 4) / 4
.byte	(.LC100 + 5) / 4
.byte	(.LC100 + 6) / 4
.byte	(.LC100 + 7) / 4
.align	3
.LC100:
.word	(2357BD)
.byte	(.LC101 + 1) / 4
.byte	(.LC101 + 2) / 4
.byte	(.LC101 + 3) / 4
.byte	(.LC101 + 4) / 4
.byte	(.LC101 + 5) / 4
.byte	(.LC101 + 6) / 4
.byte	(.LC101 + 7) / 4
.align	3
.LC101:
.word	(2357BD)
.byte	(.LC102 + 1) / 4
.byte	(.LC102 + 2) / 4
.byte	(.LC102 + 3) / 4
.byte	(.LC102 + 4) / 4
.byte	(.LC102 + 5) / 4
.byte	(.LC102 + 6) / 4
.byte	(.LC102 + 7) / 4
.align	3
.LC102:
.word	(2357BD)
.byte	(.LC103 + 1) / 4
.byte	(.LC103 + 2) / 4
.byte	(.LC103 + 3) / 4
.byte	(.LC103 + 4) / 4
.byte	(.LC103 + 5) / 4
.byte	(.LC103 + 6) / 4
.byte	(.LC103 + 7) / 4
.align	3
.LC103:
.word	(2357BD)
.byte	(.LC104 + 1) / 4
.byte	(.LC104 + 2) / 4
.byte	(.LC104 + 3) / 4
.byte	(.LC104 + 4) / 4
.byte	(.LC104 + 5) / 4
.byte	(.LC104 + 6) / 4
.byte	(.LC104 + 7) / 4
.align	3
.LC104:
.word	(2357BD)
.byte	(.LC105 + 1) / 4
.byte	(.LC105 + 2) / 4
.byte	(.LC105 + 3) / 4
.byte	(.LC105 + 4) / 4
.byte	(.LC105 + 5) / 4
.byte	(.LC105 + 6) / 4
.byte	(.LC105 + 7) / 4
.align	3
.LC105:
.word	(2357BD)
.byte	(.LC106 + 1) / 4
.byte	(.LC106 + 2) / 4
.byte	(.LC106 + 3) / 4
.byte	(.LC106 + 4) / 4
.byte	(.LC106 + 5) / 4
.byte	(.LC106 + 6) / 4
.byte	(.LC106 + 7) / 4
.align	3
.LC106:
.word	(2357BD)
.byte	(.LC107 + 1) / 4
.byte	(.LC107 + 2) / 4
.byte	(.LC107 + 3) / 4
.byte	(.LC107 + 4) / 4
.byte	(.LC107 + 5) / 4
.byte	(.LC107 + 6) / 4
.byte	(.LC107 + 7) / 4
.align	3
.LC107:
.word	(2357BD)
.byte	(.LC108 + 1) / 4
.byte	(.LC108 + 2) / 4
.byte	(.LC108 + 3) / 4
.byte	(.LC108 + 4) / 4
.byte	(.LC108 + 5) / 4
.byte	(.LC108 + 6) / 4
.byte	(.LC108 + 7) / 4
.align	3
.LC108:
.word	(2357BD)
.byte	(.LC109 + 1) / 4
.byte	(.LC109 + 2) / 4
.byte	(.LC109 + 3) / 4
.byte	(.LC109 + 4) / 4
.byte	(.LC109 + 5) / 4
.byte	(.LC109 + 6) / 4
.byte	(.LC109 + 7) / 4
.align	3
.LC109:
.word	(2357BD)
.byte	(.LC110 + 1) / 4
.byte	(.LC110 + 2) / 4
.byte	(.LC110 + 3) / 4
.byte	(.LC110 + 4) / 4
.byte	(.LC110 + 5) / 4
.byte	(.LC110 + 6) / 4
.byte	(.LC110 + 7) / 4
.align	3
.LC110:
.word	(2357BD)
.byte	(.LC111 + 1) / 4
.byte	(.LC111 + 2) / 4
.byte	(.LC111 + 3) / 4
.byte	(.LC111 + 4) / 4
.byte	(.LC111 + 5) / 4
.byte	(.LC111 + 6) / 4
.byte	(.LC111 + 7) / 4
.align	3
.LC111:
.word	(2357BD)
.byte	(.LC112 + 1) / 4
.byte	(.LC112 + 2) / 4
.byte	(.LC112 + 3) / 4
.byte	(.LC112 + 4) / 4
.byte	(.LC112 + 5) / 4
.byte	(.LC112 + 6) / 4
.byte	(.LC112 + 7) / 4
.align	3
.LC112:
.word	(2357BD)
.byte	(.LC113 + 1) / 4
.byte	(.LC113 + 2) / 4
.byte	(.LC113 + 3) / 4
.byte	(.LC113 + 4) / 4
.byte	(.LC113 + 5) / 4
.byte	(.LC113 + 6) / 4
.byte	(.LC113 + 7) / 4
.align	3
.LC113:
.word	(2357BD)
.byte	(.LC114 + 1) / 4
.byte	(.LC114 + 2) / 4
.byte	(.LC114 + 3) / 4
.byte	(.LC114 + 4) / 4
.byte	(.LC114 + 5) / 4
.byte	(.LC114 + 6) / 4
.byte	(.LC114 + 7) / 4
.align	3
.LC114:
.word	(2357BD)
.byte	(.LC115 + 1) / 4
.byte	(.LC115 + 2) / 4
.byte	(.LC115 + 3) / 4
.byte	(.LC115 + 4) / 4
.byte	(.LC115 + 5) / 4
.byte	(.LC115 + 6) / 4
.byte	(.LC115 + 7) / 4
.align	3
.LC115:
.word	(2357BD)
.byte	(.LC116 + 1) / 4
.byte	(.LC116 + 2) / 4
.byte	(.LC116 + 3) / 4
.byte	(.LC116 + 4) / 4
.byte	(.LC116 + 5) / 4
.byte	(.LC116 + 6) / 4
.byte	(.LC116 + 7) / 4
.align	3
.LC116:
.word	(2357BD)
.byte	(.LC117 + 1) / 4
.byte	(.LC117 + 2) / 4
.byte	(.LC117 + 3) / 4
.byte	(.LC117 + 4) / 4
.byte	(.LC117 + 5) / 4
.byte	(.LC117 + 6) / 4
.byte	(.LC117 + 7) / 4
.align	3
.LC117:
.word	(2357BD)
.byte	(.LC118 + 1) / 4
.byte	(.LC118 + 2) / 4
.byte	(.LC118 + 3) / 4
.byte	(.LC118 + 4) / 4
.byte	(.LC118 + 5) / 4
.byte	(.LC118 + 6) / 4
.byte	(.LC118 + 7) / 4
.align	3
.LC118:
.word	(2357BD)
.byte	(.LC119 + 1) / 4
.byte	(.LC119 + 2) / 4
.byte	(.LC119 + 3) / 4
.byte	(.LC119 + 4) / 4
.byte	(.LC119 + 5) / 4
.byte	(.LC119 + 6) / 4
.byte	(.LC119 + 7) / 4
.align	3
.LC119:
.word	(2357BD)
.byte	(.LC120 + 1) / 4
.byte	(.LC120 + 2) / 4
.byte	(.LC120 + 3) / 4
.byte	(.LC120 + 4) / 4
.byte	(.LC120 + 5) / 4
.byte	(.LC120 + 6) / 4
.byte	(.LC120 + 7) / 4
.align	3
.LC120:
.word	(2357BD)
.byte	(.LC121 + 1) / 4
.byte	(.LC121 + 2) / 4
.byte	(.LC121 + 3) / 4
.byte	(.LC121 + 4) / 4
.byte	(.LC121 + 5) / 4
.byte	(.LC121 + 6) / 4
.byte	(.LC121 + 7) / 4
.align	3
.LC121:
.word	(2357BD)
.byte	(.LC122 + 1) / 4
.byte	(.LC122 + 2) / 4
.byte	(.LC122 + 3) / 4
.byte	(.LC122 + 4) / 4
.byte	(.LC122 + 5) / 4
.byte	(.LC122 + 6) / 4
.byte	(.LC122 + 7) / 4
.align	3
.LC122:
.word	(2357BD)
.byte	(.LC123 + 1) / 4
.byte	(.LC123 + 2) / 4
.byte	(.LC123 + 3) / 4
.byte	(.LC123 + 4) / 4
.byte	(.LC123 + 5) / 4
.byte	(.LC123 + 6) / 4
.byte	(.LC123 + 7) / 4
.align	3
.LC123:
.word	(2357BD)
.byte	(.LC124 + 1) / 4
.byte	(.LC124 + 2) / 4
.byte	(.LC124 + 3) / 4
.byte	(.LC124 + 4) / 4
.byte	(.LC124 + 5) / 4
.byte	(.LC124 + 6) / 4
.byte	(.LC124 + 7) / 4
.align	3
.LC124:
.word	(2357BD)
.byte	(.LC125 + 1) / 4
.byte	(.LC125 + 2) / 4
.byte	(.LC125 + 3) / 4
.byte	(.LC125 + 4) / 4
.byte	(.LC125 + 5) / 4
.byte	(.LC125 + 6) / 4
.byte	(.LC125 + 7) / 4
.align	3
.LC125:
.word	(2357BD)
.byte	(.LC126 + 1) / 4
.byte	(.LC126 + 2) / 4
.byte	(.LC126 + 3) / 4
.byte	(.LC126 + 4) / 4
.byte	(.LC126 + 5) / 4
.byte	(.LC126 + 6) / 4
.byte	(.LC126 + 7) / 4
.align	3
.LC126:
.word	(2357BD)
.byte	(.LC127 + 1) / 4
.byte	(.LC127 + 2) / 4
.byte	(.LC127 + 3) / 4
.byte	(.LC127 + 4) / 4
.byte	(.LC127 + 5) / 4
.byte	(.LC127 + 6) / 4
.byte	(.LC127 + 7) / 4
.align	3
.LC127:
.word	(2357BD)
.byte	(.LC128 + 1) / 4
.byte	(.LC128 + 2) / 4
.byte	(.LC128 + 3) / 4
.byte	(.LC128 + 4) / 4
.byte	(.LC128 + 5) / 4
.byte	(.LC128 + 6) / 4
.byte	(.LC128 + 7) / 4
.align	3
.LC128:
.word	(2357BD)
.byte	(.LC129 + 1) / 4
.byte	(.LC129 + 2) / 4
.byte	(.LC129 + 3) / 4
.byte	(.LC129 + 4) / 4
.byte	(.LC129 + 5) / 4
.byte	(.LC129 + 6) / 4
.byte	(.LC129 + 7) / 4
.align	3
.LC129:
.word	(2357BD)
.byte	(.LC130 + 1) / 4
.byte	(.LC130 + 2) / 4
.byte	(.LC130 + 3) / 4
.byte	(.LC130 + 4) / 4
.byte	(.LC130 + 5) / 4
.byte	(.LC130 + 6) / 4
.byte	(.LC130 + 7) / 4
.align	3
.LC130:
.word	(2357BD)
.byte	(.LC131 + 1) / 4
.byte	(.LC131 + 2) / 4
.byte	(.LC131 + 3) / 4
.byte	(.LC131 + 4) / 4
.byte	(.LC131 + 5) / 4
.byte	(.LC131 + 6) / 4
.byte	(.LC131 + 7) / 4
.align	3
.LC131:
.word	(2357BD)
.byte	(.LC132 + 1) / 4
.byte	(.LC132 + 2) / 4
.byte	(.LC132 + 3) / 4
.byte	(.LC132 + 4) / 4
.byte	(.LC132 + 5) / 4
.byte	(.LC132 + 6) / 4
.byte	(.LC132 + 7) / 4
.align	3
.LC132:
.word	(2357BD)
.byte	(.LC133 + 1) / 4
.byte	(.LC133 + 2) / 4
.byte	(.LC133 + 3) / 4
.byte	(.LC133 + 4) / 4
.byte	(.LC133 + 5) / 4
.byte	(.LC133 + 6) / 4
.byte	(.LC133 + 7) / 4
.align	3
.LC133:
.word	(2357BD)
.byte	(.LC134 + 1) / 4
.byte	(.LC134 + 2) / 4
.byte	(.LC134 + 3) / 4
.byte	(.LC134 + 4) / 4
.byte	(.LC134 + 5) / 4
.byte	(.LC134 + 6) / 4
.byte	(.LC134 + 7) / 4
.align	3
.LC134:
.word	(2357BD)
.byte	(.LC135 + 1) / 4
.byte	(.LC135 + 2) / 4
.byte	(.LC135 + 3) / 4
.byte	(.LC135 + 4) / 4
.byte	(.LC135 + 5) / 4
.byte	(.LC135 + 6) / 4
.byte	(.LC135 + 7) / 4
.align	3
.LC135:
.word	(2357BD)
.byte	(.LC136 + 1) / 4
.byte	(.LC136 + 2) / 4
.byte	(.LC136 + 3) / 4
.byte	(.LC136 + 4) / 4
.byte	(.LC136 + 5) / 4
.byte	(.LC136 + 6) / 4
.byte	(.LC136 + 7) / 4
.align	3
.LC136:
.word	(2357BD)
.byte	(.LC137 + 1) / 4
.byte	(.LC137 + 2) / 4
.byte	(.LC137 + 3) / 4
.byte	(.LC137 + 4) / 4
.byte	(.LC137 + 5) / 4
.byte	(.LC137 + 6) / 4
.byte	(.LC137 + 7) / 4
.align	3
.LC137:
.word	(2357BD)
.byte	(.LC138 + 1) / 4
.byte	(.LC138 + 2) / 4
.byte	(.LC138 + 3) / 4
.byte	(.LC138 + 4) / 4
.byte	(.LC138 + 5) / 4
.byte	(.LC138 + 6) / 4
.byte	(.LC138 + 7) / 4
.align	3
.LC138:
.word	(2357BD)
.byte	(.LC139 + 1) / 4
.byte	(.LC139 + 2) / 4
.byte	(.LC139 + 3) / 4
.byte	(.LC139 + 4) / 4
.byte	(.LC139 + 5) / 4
.byte	(.LC139 + 6) / 4
.byte	(.LC139 + 7) / 4
.align	3
.LC139:
.word	(2357BD)
.byte	(.LC140 + 1) / 4
.byte	(.LC140 + 2) / 4
.byte	(.LC140 + 3) / 4
.byte	(.LC140 + 4) / 4
.byte	(.LC140 + 5) / 4
.byte	(.LC140 + 6) / 4
.byte	(.LC140 + 7) / 4
.align	3
.LC140:
.word	(2357BD)
.byte	(.LC141 + 1) / 4
.byte	(.LC141 + 2) / 4
.byte	(.LC141 + 3) / 4
.byte	(.LC141 + 4) / 4
.byte	(.LC141 + 5) / 4
.byte	(.LC141 + 6) / 4
.byte	(.LC141 + 7) / 4
.align	3
.LC141:
.word	(2357BD)
.byte	(.LC142 + 1) / 4
.byte	(.LC142 + 2) / 4
.byte	(.LC142 + 3) / 4
.byte	(.LC142 + 4) / 4
.byte	(.LC142 + 5) / 4
.byte	(.LC142 + 6) / 4
.byte	(.LC142 + 7) / 4
.align	3
.LC142:
.word	(2357BD)
.byte	(.LC143 + 1) / 4
.byte	(.LC143 + 2) / 4
.byte	(.LC143 + 3) / 4
.byte	(.LC143 + 4) / 4
.byte	(.LC143 + 5) / 4
.byte	(.LC143 + 6) / 4
.byte	(.LC143 + 7) / 4
.align	3
.LC143:
.word	(2357BD)
.byte	(.LC144 + 1) / 4
.byte	(.LC144 + 2) / 4
.byte	(.LC144 + 3) / 4
.byte	(.LC144 + 4) / 4
.byte	(.LC144 + 5) / 4
.byte	(.LC144 + 6) / 4
.byte	(.LC144 + 7) / 4
.align	3
.LC144:
.word	(2357BD)
.byte	(.LC145 + 1) / 4
.byte	(.LC145 + 2) / 4
.byte	(.LC145 + 3) / 4
.byte	(.LC145 + 4) / 4
.byte	(.LC145 + 5) / 4
.byte	(.LC145 + 6) / 4
.byte	(.LC145 + 7) / 4
.align	3
.LC145:
.word	(2357BD)
.byte	(.LC146 + 1) / 4
.byte	(.LC146 + 2) / 4
.byte	(.LC146 + 3) / 4
.byte	(.LC146 + 4) / 4
.byte	(.LC146 + 5) / 4
.byte	(.LC146 + 6) / 4
.byte	(.LC146 + 7) / 4
.align	3
.LC146:
.word	(2357BD)
.byte	(.LC147 + 1) / 4
.byte	(.LC147 + 2) / 4
.byte	(.LC147 + 3) / 4
.byte	(.LC147 + 4) / 4
.byte	(.LC147 + 5) / 4
.byte	(.LC147 + 6) / 4
.byte	(.LC147 + 7) / 4
.align	3
.LC147:
.word	(2357BD)
.byte	(.LC148 + 1) / 4
.byte	(.LC148 + 2) / 4
.byte	(.LC148 + 3) / 4
.byte	(.LC148 + 4) / 4
.byte	(.LC148 + 5) / 4
.byte	(.LC148 + 6) / 4
.byte	(.LC148 + 7) / 4
.align	3
.LC148:
.word	(2357BD)
.byte	(.LC149 + 1) / 4
.byte	(.LC149 + 2) / 4
.byte	(.LC149 + 3) / 4
.byte	(.LC149 + 4) / 4
.byte	(.LC149 + 5) / 4
.byte	(.LC149 + 6) / 4
.byte	(.LC149 + 7) / 4
.align	3
.LC149:
.word	(2357BD)
.byte	(.LC150 + 1) / 4
.byte	(.LC150 + 2) / 4
.byte	(.LC150 + 3) / 4
.byte	(.LC150 + 4) / 4
.byte	(.LC150 + 5) / 4
.byte	(.LC150 + 6) / 4
.byte	(.LC150 + 7) / 4
.align	3
.LC150:
.word	(2357BD)
.byte	(.LC151 + 1) / 4
.byte	(.LC151 + 2) / 4
.byte	(.LC151 + 3) / 4
.byte	(.LC151 + 4) / 4
.byte	(.LC151 + 5) / 4
.byte	(.LC151 + 6) / 4
.byte	(.LC151 + 7) / 4
.align	3
.LC151:
.word	(2357BD)
.byte	(.LC152 + 1) / 4
.byte	(.LC152 + 2) / 4
.byte	(.LC152 + 3) / 4
.byte	(.LC152 + 4) / 4
.byte	(.LC152 + 5) / 4
.byte	(.LC152 + 6) / 4
.byte	(.LC152 + 7) / 4
.align	3
.LC152:
.word	(2357BD)
.byte	(.LC153 + 1) / 4
.byte	(.LC153 + 2) / 4
.byte	(.LC153 + 3) / 4
.byte	(.LC153 + 4) / 4
.byte	(.LC153 + 5) / 4
.byte	(.LC153 + 6) / 4
.byte	(.LC153 + 7) / 4
.align	3
.LC153:
.word	(2357BD)
.byte	(.LC154 + 1) / 4
.byte	(.LC154 + 2) / 4
.byte	(.LC154 + 3) / 4
.byte	(.LC154 + 4) / 4
.byte	(.LC154 + 5) / 4
.byte	(.LC154 + 6) / 4
.byte	(.LC154 + 7) / 4
.align	3
.LC154:
.word	(2357BD)
.byte	(.LC155 + 1) / 4
.byte	(.LC155 + 2) / 4
.byte	(.LC155 + 3) / 4
.byte	(.LC155 + 4) / 4
.byte	(.LC155 + 5) / 4
.byte	(.LC155 + 6) / 4
.byte	(.LC155 + 7) / 4
.align	3
.LC155:
.word	(2357BD)
.byte	(.LC156 + 1) / 4
.byte	(.LC156 + 2) / 4
.byte	(.LC156 + 3) / 4
.byte	(.LC156 + 4) / 4
.byte	(.LC156 + 5) / 4
.byte	(.LC156 + 6) / 4
.byte	(.LC156 + 7) / 4
.align	3
.LC156:
.word	(2357BD)
.byte	(.LC157 + 1) / 4
.byte	(.LC157 + 2) / 4
.byte	(.LC157 + 3) / 4
.byte	(.LC157 + 4) / 4
.byte	(.LC157 + 5) / 4
.byte	(.LC157 + 6) / 4
.byte	(.LC157 + 7) / 4
.align	3
.LC157:
.word	(2357BD)
.byte	(.LC158 + 1) / 4
.byte	(.LC158 + 2) / 4
.byte	(.LC158 + 3) / 4
.byte	(.LC158 + 4) / 4
.byte	(.LC158 + 5) / 4
.byte	(.LC158 + 6) / 4
.byte	(.LC158 + 7) / 4
.align	3
.LC158:
.word	(2357BD)
.byte	(.LC159 + 1) / 4
.byte	(.LC159 + 2) / 4
.byte	(.LC159 + 3) / 4
.byte	(.LC159 + 4) / 4
.byte	(.LC159 + 5) / 4
.byte	(.LC159 + 6) / 4
.byte	(.LC159 + 7) / 4
.align	3
.LC159:
.word	(2357BD)
.byte	(.LC160 + 1) / 4
.byte	(.LC160 + 2) / 4
.byte	(.LC160 + 3) / 4
.byte	(.LC160 + 4) / 4
.byte	(.LC160 + 5) / 4
.byte	(.LC160 + 6) / 4
.byte	(.LC160 + 7) / 4
.align	3
.LC160:
.word	(2357BD)
.byte	(.LC161 + 1) / 4
.byte	(.LC161 + 2) / 4
.byte	(.LC161 + 3) / 4
.byte	(.LC161 + 4) / 4
.byte	(.LC161 + 5) / 4
.byte	(.LC161 + 6) / 4
.byte	(.LC161 + 7) / 4
.align	3
.LC161:
.word	(2357BD)
.byte	(.LC162 + 1) / 4
.byte	(.LC162 + 2) / 4
.byte	(.LC162 + 3) / 4
.byte	(.LC162 + 4) / 4
.byte	(.LC162 + 5) / 4
.byte	(.LC162 + 6) / 4
.byte	(.LC162 + 7) / 4
.align	3
.LC162:
.word	(2357BD)
.byte	(.LC163 + 1) / 4
.byte	(.LC163 + 2) / 4
.byte	(.LC163 + 3) / 4
.byte	(.LC163 + 4) / 4
.byte	(.LC163 + 5) / 4
.byte	(.LC163 + 6) / 4
.byte	(.LC163 + 7) / 4
.align	3
.LC163:
.word	(2357BD)
.byte	(.LC164 + 1) / 4
.byte	(.LC164 + 2) / 4
.byte	(.LC164 + 3) / 4
.byte	(.LC164 + 4) / 4
.byte	(.LC164 + 5) / 4
.byte	(.LC164 + 6) / 4
.byte	(.LC164 + 7) / 4
.align	3
.LC164:
.word	(2357BD)
.byte	(.LC165 + 1) / 4
.byte	(.LC165 + 2) / 4
.byte	(.LC165 + 3) / 4
.byte	(.LC165 + 4) / 4
.byte	(.LC165 + 5) / 4
.byte	(.LC165 + 6) / 4
.byte	(.LC165 + 7) / 4
.align	3
.LC165:
.word	(2357BD)
.byte	(.LC166 + 1) / 4
.byte	(.LC166 + 2) / 4
.byte	(.LC166 + 3) / 4
.byte	(.LC166 + 4) / 4
.byte	(.LC166 + 5) / 4
.byte	(.LC166 + 6) / 4
.byte	(.LC166 + 7) / 4
.align	3
.LC166:
.word	(2357BD)
.byte	(.LC167 + 1) / 4
.byte	(.LC167 + 2) / 4
.byte	(.LC167 + 3) / 4
.byte	(.LC167 + 4) / 4
.byte	(.LC167 + 5) / 4
.byte	(.LC167 + 6) / 4
.byte	(.LC167 + 7) / 4
.align	3
.LC167:
.word	(2357BD)
.byte	(.LC168 + 1) / 4
.byte	(.LC168 + 2) / 4
.byte	(.LC168 + 3) / 4
.byte	(.LC168 + 4) / 4
.byte	(.LC168 + 5) / 4
.byte	(.LC168 + 6) / 4
.byte	(.LC168 + 7) / 4
.align	3
.LC168:
.word	(2357BD)
.byte	(.LC169 + 1) / 4
.byte	(.LC169 + 2) / 4
.byte	(.LC169 + 3) / 4
.byte	(.LC169 + 4) / 4
.byte	(.LC169 + 5) / 4
.byte	(.LC169 + 6) / 4
.byte	(.LC169 + 7) / 4
.align	3
.LC169:
.word	(2357BD)
.byte	(.LC170 + 1) / 4
.byte	(.LC170 + 2) / 4
.byte	(.LC170 + 3) / 4
.byte	(.LC170 + 4) / 4
.byte	(.LC170 + 5) / 4
.byte	(.LC170 + 6) / 4
.byte	(.LC170 + 7) / 4
.align	3
.LC170:
.word	(2357BD)
.byte	(.LC171 + 1) / 4
.byte	(.LC171 + 2) / 4
.byte	(.LC171 + 3) / 4
.byte	(.LC171 + 4) / 4
.byte	(.LC171 + 5) / 4
.byte	(.LC171 + 6) / 4
.byte	(.LC171 + 7) / 4
.align	3
.LC171:
.word	(2357BD)
.byte	(.LC172 + 1) / 4
.byte	(.LC172 + 2) / 4
.byte	(.LC172 + 3) / 4
.byte	(.LC172 + 4) / 4
.byte	(.LC172 + 5) / 4
.byte	(.LC172 + 6) / 4
.byte	(.LC172 + 7) / 4
.align	3
.LC172:
.word	(2357BD)
.byte	(.LC173 + 1) / 4
.byte	(.LC173 + 2) / 4
.byte	(.LC173 + 3) / 4
.byte	(.LC173 + 4) / 4
.byte	(.LC173 + 5) / 4
.byte	(.LC173 + 6) / 4
.byte	(.LC173 + 7) / 4
.align	3
.LC173:
.word	(2357BD)
.byte	(.LC174 + 1) / 4
.byte	(.LC174 + 2) / 4
.byte	(.LC174 + 3) / 4
.byte	(.LC174 + 4) / 4
.byte	(.LC174 + 5) / 4
.byte	(.LC174 + 6) / 4
.byte	(.LC174 + 7) / 4
.align	3
.LC174:
.word	(2357BD)
.byte	(.LC175 + 1) / 4
.byte	(.LC175 + 2) / 4
.byte	(.LC175 + 3) / 4
.byte	(.LC175 + 4) / 4
.byte	(.LC175 + 5) / 4
.byte	(.LC175 + 6) / 4
.byte	(.LC175 + 7) / 4
.align	3
.LC175:
.word	(2357BD)
.byte	(.LC176 + 1) / 4
.byte	(.LC176 + 2) / 4
.byte	(.LC176 + 3) / 4
.byte	(.LC176 + 4) / 4
.byte	(.LC176 + 5) / 4
.byte	(.LC176 + 6) / 4
.byte	(.LC176 + 7) / 4
.align	3
.LC176:
.word	(2357BD)
.byte	(.LC177 + 1) / 4
.byte	(.LC177 + 2) / 4
.byte	(.LC177 + 3) / 4
.byte	(.LC177 + 4) / 4
.byte	(.LC177 + 5) / 4
.byte	(.LC177 + 6) / 4
.byte	(.LC177 + 7) / 4
.align	3
.LC177:
.word	(2357BD)
.byte	(.LC178 + 1) / 4
.byte	(.LC178 + 2) / 4
.byte	(.LC178 + 3) / 4
.byte	(.LC178 + 4) / 4
.byte	(.LC178 + 5) / 4
.byte	(.LC178 + 6) / 4
.byte	(.LC178 + 7) / 4
.align	3
.LC178:
.word	(2357BD)
.byte	(.LC179 + 1) / 4
.byte	(.LC179 + 2) / 4
.byte	(.LC179 + 3) / 4
.byte	(.LC179 + 4) / 4
.byte	(.LC179 + 5) / 4
.byte	(.LC179 + 6) / 4
.byte	(.LC179 + 7) / 4
.align	3
.LC179:
.word	(2357BD)
.byte	(.LC180 + 1) / 4
.byte	(.LC180 + 2) / 4
.byte	(.LC180 + 3) / 4
.byte	(.LC180 + 4) / 4
.byte	(.LC180 + 5) / 4
.byte	(.LC180 + 6) / 4
.byte	(.LC180 + 7) / 4
.align	3
.LC180:
.word	(2357BD)
.byte	(.LC181 + 1) / 4
.byte	(.LC181 + 2) / 4
.byte	(.LC181 + 3) / 4
.byte	(.LC181 + 4) / 4
.byte	(.LC181 + 5) / 4
.byte	(.LC181 + 6) / 4
.byte	(.LC181 + 7) / 4
.align	3
.LC181:
.word	(2357BD)
.byte	(.LC182 + 1) / 4
.byte	(.LC182 + 2) / 4
.byte	(.LC182 + 3) / 4
.byte	(.LC182 + 4) / 4
.byte	(.LC182 + 5) / 4
.byte	(.LC182 + 6) / 4
.byte	(.LC182 + 7) / 4
.align	3
.LC182:
.word	(2357BD)
.byte	(.LC183 + 1) / 4
.byte	(.LC183 + 2) / 4
.byte	(.LC183 + 3) / 4
.byte	(.LC183 + 4) / 4
.byte	(.LC183 + 5) / 4
.byte	(.LC183 + 6) / 4
.byte	(.LC183 + 7) / 4
.align	3
.LC183:
.word	(2357BD)
.byte	(.LC184 + 1) / 4
.byte	(.LC184 + 2) / 4
.byte	(.LC184 + 3) / 4
.byte	(.LC184 + 4) / 4
.byte	(.LC184 + 5) / 4
.byte	(.LC184 + 6) / 4
.byte	(.LC184 + 7) / 4
.align	3
.LC184:
.word	(2357BD)
.byte	(.LC185 + 1) / 4
.byte	(.LC185 + 2) / 4
.byte	(.LC185 + 3) / 4
.byte	(.LC185 + 4) / 4
.byte	(.LC185 + 5) / 4
.byte	(.LC185 + 6) / 4
.byte	(.LC185 + 7) / 4
.align	3
.LC185:
.word	(2357BD)
.byte	(.LC186 + 1) / 4
.byte	(.LC186 + 2) / 4
.byte	(.LC186 + 3) / 4
.byte	(.LC186 + 4) / 4
.byte	(.LC186 + 5) / 4
.byte	(.LC186 + 6) / 4
.byte	(.LC186 + 7) / 4
.align	3
.LC186:
.word	(2357BD)
.byte	(.LC187 + 1) / 4
.byte	(.LC187 + 2) / 4
.byte	(.LC187 + 3) / 4
.byte	(.LC187 + 4) / 4
.byte	(.LC187 + 5) / 4
.byte	(.LC187 + 6) / 4
.byte	(.LC187 + 7) / 4
.align	3
.LC187:
.word	(2357BD)
.byte	(.LC188 + 1) / 4
.byte	(.LC188 + 2) / 4
.byte	(.LC188 + 3) / 4
.byte	(.LC188 + 4) / 4
.byte	(.LC188 + 5) / 4
.byte	(.LC188 + 6) / 4
.byte	(.LC188 + 7) / 4
.align	3
.LC188:
.word	(2357BD)
.byte	(.LC189 + 1) / 4
.byte	(.LC189 + 2) / 4
.byte	(.LC189 + 3) / 4
.byte	(.LC189 + 4) / 4
.byte	(.LC189 + 5) / 4
.byte	(.LC189 + 6) / 4
.byte	(.LC189 + 7) / 4
.align	3
.LC189:
.word	(2357BD)
.byte	(.LC190 + 1) / 4
.byte	(.LC190 + 2) / 4
.byte	(.LC190 + 3) / 4
.byte	(.LC190 + 4) / 4
.byte	(.LC190 + 5) / 4
.byte	(.LC190 + 6) / 4
.byte	(.LC190 + 7) / 4
.align	3
.LC190:
.word	(2357BD)
.byte	(.LC191 + 1) / 4
.byte	(.LC191 + 2) / 4
.byte	(.LC191 + 3) / 4
.byte	(.LC191 + 4) / 4
.byte	(.LC191 + 5) / 4
.byte	(.LC191 + 6) / 4
.byte	(.LC191 + 7) / 4
.align	3
.LC191:
.word	(2357BD)
.byte	(.LC192 + 1) / 4
.byte	(.LC192 + 2) / 4
.byte	(.LC192 + 3) / 4
.byte	(.LC192 + 4) / 4
.byte	(.LC192 + 5) / 4
.byte	(.LC192 + 6) / 4
.byte	(.LC192 + 7) / 4
.align	3
.LC192:
.word	(2357BD)
.byte	(.LC193 + 1) / 4
.byte	(.LC193 + 2) / 4
.byte	(.LC193 + 3) / 4
.byte	(.LC193 + 4) / 4
.byte	(.LC193 + 5) / 4
.byte	(.LC193 + 6) / 4
.byte	(.LC193 + 7) / 4
.align	3
.LC193:
.word	(2357BD)
.byte	(.LC194 + 1) / 4
.byte	(.LC194 + 2) / 4
.byte	(.LC194 + 3) / 4
.byte	(.LC194 + 4) / 4
.byte	(.LC194 + 5) / 4
.byte	(.LC194 + 6) / 4
.byte	(.LC194 + 7) / 4
.align	3
.LC194:
.word	(2357BD)
.byte	(.LC195 + 1) / 4
.byte	(.LC195 + 2) / 4
.byte	(.LC195 + 3) / 4
.byte	(.LC195 + 4) / 4
.byte	(.LC195 + 5) / 4
.byte	(.LC195 + 6) / 4
.byte	(.LC195 + 7) / 4
.align	3
.LC195:
.word	(2357BD)
.byte	(.LC196 + 1) / 4
.byte	(.LC196 + 2) / 4
.byte	(.LC196 + 3) / 4
.byte	(.LC196 + 4) / 4
.byte	(.LC196 + 5) / 4
.byte	(.LC196 + 6) / 4
.byte	(.LC196 + 7) / 4
.align	3
.LC196:
.word	(2357BD)
.byte	(.LC197 + 1) / 4
.byte	(.LC197 + 2) / 4
.byte	(.LC197 + 3) / 4
.byte	(.LC197 + 4) / 4
.byte	(.LC197 + 5) / 4
.byte	(.LC197 + 6) / 4
.byte	(.LC197 + 7) / 4
.align	3
.LC197:
.word	(2357BD)
.byte	(.LC198 + 1) / 4
.byte	(.LC198 + 2) / 4
.byte	(.LC198 + 3) / 4
.byte	(.LC198 + 4) / 4
.byte	(.LC198 + 5) / 4
.byte	(.LC198 + 6) / 4
.byte	(.LC198 + 7) / 4
.align	3
.LC198:
.word	(2357BD)
.byte	(.LC199 + 1) / 4
.byte	(.LC199 + 2) / 4
.byte	(.LC199 + 3) / 4
.byte	(.LC199 + 4) / 4
.byte	(.LC199 + 5) / 4
.byte	(.LC199 + 6) / 4
.byte	(.LC199 + 7) / 4
.align	3
.LC199:
.word	(2357BD)
.byte	(.LC200 + 1) / 4
.byte	(.LC200 + 2) / 4
.byte	(.LC200 + 3) / 4
.byte	(.LC200 + 4) / 4
.byte	(.LC200 + 5) / 4
.byte	(.LC200 + 6) / 4
.byte	(.LC200 + 7) / 4
.align	3
.LC200:
.word	(2357BD)
.byte	(.LC201 + 1) / 4
.byte	(.LC201 + 2) / 4
.byte	(.LC201 + 3) / 4
.byte	(.LC201 + 4) / 4
.byte	(.LC201 + 5) / 4
.byte	(.LC201 + 6) / 4
.byte	(.LC201 + 7) / 4
.align	3
.LC201:
.word	(2357BD)
.byte	(.LC202 + 1) / 4
.byte	(.LC202 + 2) / 4
.byte	(.LC202 + 3) / 4
.byte	(.LC202 + 4) / 4
.byte	(.LC202 + 5) / 4
.byte	(.LC202 + 6) / 4
.byte	(.LC202 + 7) / 4
.align	3
.LC202:
.word	(2357BD)
.byte	(.LC203 + 1) / 4
.byte	(.LC203 + 2) / 4
.byte	(.LC203 + 3) / 4
.byte	(.LC203 + 4) / 4
.byte	(.LC203 + 5) / 4
.byte	(.LC203 + 6) / 4
.byte	(.LC203 + 7) / 4
.align	3
.LC203:
.word	(2357BD)
.byte	(.LC204 + 1) / 4
.byte	(.LC204 + 2) / 4
.byte	(.LC204 + 3) / 4
.byte	(.LC204 + 4) / 4
.byte	(.LC204 + 5) / 4
.byte	(.LC204 + 6) / 4
.byte	(.LC204 + 7) / 4
.align	3
.LC204:
.word	(2357BD)
.byte	(.LC205 + 1) / 4
.byte	(.LC205 + 2) / 4
.byte	(.LC205 + 3) / 4
.byte	(.LC205 + 4) / 4
.byte	(.LC205 + 5) / 4
.byte	(.LC205 + 6) / 4
.byte	(.LC205 + 7) / 4
.align	3
.LC205:
.word	(2357BD)
.byte	(.LC206 + 1) / 4
.byte	(.LC206 + 2) / 4
.byte	(.LC206 + 3) / 4
.byte	(.LC206 + 4) / 4
.byte	(.LC206 + 5) / 4
.byte	(.LC206 + 6) / 4
.byte	(.LC206 + 7) / 4
.align	3
.LC206:
.word	(2357BD)
.byte	(.LC207 + 1) / 4
.byte	(.LC207 + 2) / 4
.byte	(.LC207 + 3) / 4
.byte	(.LC207 + 4) / 4
.byte	(.LC207 + 5) / 4
.byte	(.LC207 + 6) / 4
.byte	(.LC207 + 7) / 4
.align	3
.LC207:
.word	(2357BD)
.byte	(.LC208 + 1) / 4
.byte	(.LC208 + 2) / 4
.byte	(.LC208 + 3) / 4
.byte	(.LC208 + 4) / 4
.byte	(.LC208 + 5) / 4
.byte	(.LC208 + 6) / 4
.byte	(.LC208 + 7) / 4
.align	3
.LC208:
.word	(2357BD)
.byte	(.LC209 + 1) / 4
.byte	(.LC209 + 2) / 4
.byte	(.LC209 + 3) / 4
.byte	(.LC209 + 4) / 4
.byte	(.LC209 + 5) / 4
.byte	(.LC209 + 6) / 4
.byte	(.LC209 + 7) / 4
.align	3
.LC209:
.word	(2357BD)
.byte	(.LC210 + 1) / 4
.byte	(.LC210 + 2) / 4
.byte	(.LC210 + 3) / 4
.byte	(.LC210 + 4) / 4
.byte	(.LC210 + 5) / 4
.byte	(.LC210 + 6) / 4
.byte	(.LC210 + 7) / 4
.align	3
.LC210:
.word	(2357BD)
.byte	(.LC211 + 1) / 4
.byte	(.LC211 + 2) / 4
.byte	(.LC211 + 3) / 4
.byte	(.LC211 + 4) / 4
.byte	(.LC211 + 5) / 4
.byte	(.LC211 + 6) / 4
.byte	(.LC211 + 7) / 4
.align	3
.LC211:
.word	(2357BD)
.byte	(.LC212 + 1) / 4
.byte	(.LC212 + 2) / 4
.byte	(.LC212 + 3) / 4
.byte	(.LC212 + 4) / 4
.byte	(.LC212 + 5) / 4
.byte	(.LC212 + 6) / 4
.byte	(.LC212 + 7) / 4
.align	3
.LC212:
.word	(2357BD)
.byte	(.LC213 + 1) / 4
.byte	(.LC213 + 2) / 4
.byte	(.LC213 + 3) / 4
.byte	(.LC213 + 4) / 4
.byte	(.LC213 + 5) / 4
.byte	(.LC213 + 6) / 4
.byte	(.LC213 + 7) / 4
.align	3
.LC213:
.word	(2357BD)
.byte	(.LC214 + 1) / 4
.byte	(.LC214 + 2) / 4
.byte	(.LC214 + 3) / 4
.byte	(.LC214 + 4) / 4
.byte	(.LC214 + 5) / 4
.byte	(.LC214 + 6) / 4
.byte	(.LC214 + 7) / 4
.align	3
.LC214:
.word	(2357BD)
.byte	(.LC215 + 1) / 4
.byte	(.LC215 + 2) / 4
.byte	(.LC215 + 3) / 4
.byte	(.LC215 + 4) / 4
.byte	(.LC215 + 5) / 4
.byte	(.LC215 + 6) / 4
.byte	(.LC215 + 7) / 4
.align	3
.LC215:
.word	(2357BD)
.byte	(.LC216 + 1) / 4
.byte	(.LC216 + 2) / 4
.byte	(.LC216 + 3) / 4
.byte	(.LC216 + 4) / 4
.byte	(.LC216 + 5) / 4
.byte	(.LC216 + 6) / 4
.byte	(.LC216 + 7) / 4
.align	3
.LC216:
.word	(2357BD)
.byte	(.LC217 + 1) / 4
.byte	(.LC217 + 2) / 4
.byte	(.LC217 + 3) / 4
.byte	(.LC217 + 4) / 4
.byte	(.LC217 + 5) / 4
.byte	(.LC217 + 6) / 4
.byte	(.LC217 + 7) / 4
.align	3
.LC217:
.word	(2357BD)
.byte	(.LC218 + 1) / 4
.byte	(.LC218 + 2) / 4
.byte	(.LC218 + 3) / 4
.byte	(.LC218 + 4) / 4
.byte	(.LC218 + 5) / 4
.byte	(.LC218 + 6) / 4
.byte	(.LC218 + 7) / 4
.align	3
.LC218:
.word	(2357BD)
.byte	(.LC219 + 1) / 4
.byte	(.LC219 + 2) / 4
.byte	(.LC219 + 3) / 4
.byte	(.LC219 + 4) / 4
.byte	(.LC219 + 5) / 4
.byte	(.LC219 + 6) / 4
.byte	(.LC219 + 7) / 4
.align	3
.LC219:
.word	(2357BD)
.byte	(.LC220 + 1) / 4
.byte	(.LC220 + 2) / 4
.byte	(.LC220 + 3) / 4
.byte	(.LC220 + 4) / 4
.byte	(.LC220 + 5) / 4
.byte	(.LC220 + 6) / 4
.byte	(.LC220 + 7) / 4
.align	3
.LC220:
.word	(2357BD)
.byte	(.LC221 + 1) / 4
.byte	(.LC221 + 2) / 4
.byte	(.LC221 + 3) / 4
.byte	(.LC221 + 4) / 4
.byte	(.LC221 + 5) / 4
.byte	(.LC221 + 6) / 4
.byte	(.LC221 + 7) / 4
.align	3
.LC221:
.word	(2357BD)
.byte	(.LC222 + 1) / 4
.byte	(.LC222 + 2) / 4
.byte	(.LC222 + 3) / 4
.byte	(.LC222 + 4) / 4
.byte	(.LC222 + 5) / 4
.byte	(.LC222 + 6) / 4
.byte	(.LC222 + 7) / 4
.align	3
.LC222:
.word	(2357BD)
.byte	(.LC223 + 1) / 4
.byte	(.LC223 + 2) / 4
.byte	(.LC223 + 3) / 4
.byte	(.LC223 + 4) / 4
.byte	(.LC223 + 5) / 4
.byte	(.LC223 + 6) / 4
.byte	(.LC223 + 7) / 4
.align	3
.LC223:
.word	(2357BD)
.byte	(.LC224 + 1) / 4
.byte	(.LC224 + 2) / 4
.byte	(.LC224 + 3) / 4
.byte	(.LC224 + 4) / 4
.byte	(.LC224 + 5) / 4
.byte	(.LC224 + 6) / 4
.byte	(.LC224 + 7) / 4
.align	3
.LC224:
.word	(2357BD)
.byte	(.LC225 + 1) / 4
.byte	(.LC225 + 2) / 4
.byte	(.LC225 + 3) / 4
.byte	(.LC225 + 4) / 4
.byte	(.LC225 + 5) / 4
.byte	(.LC225 + 6) / 4
.byte	(.LC225 + 7) / 4
.align	3
.LC225:
.word	(2357BD)
.byte	(.LC226 + 1) / 4
.byte	(.LC226 + 2) / 4
.byte	(.LC226 + 3) / 4
.byte	(.LC226 + 4) / 4
.byte	(.LC226 + 5) / 4
.byte	(.LC226 + 6) / 4
.byte	(.LC226 + 7) / 4
.align	3
.LC226:
.word	(2357BD)
.byte	(.LC227 + 1) / 4
.byte	(.LC227 + 2) / 4
.byte	(.LC227 + 3) / 4
.byte	(.LC227 + 4) / 4
.byte	(.LC227 + 5) / 4
.byte	(.LC227 + 6) / 4
.byte	(.LC227 + 7) / 4
.align	3
.LC227:
.word	(2357BD)
.byte	(.LC228 + 1) / 4
.byte	(.LC228 + 2) / 4
.byte	(.LC228 + 3) / 4
.byte	(.LC228 + 4) / 4
.byte	(.LC228 + 5) / 4
.byte	(.LC228 + 6) / 4
.byte	(.LC228 + 7) / 4
.align	3
.LC228:
.word	(2357BD)
.byte	(.LC229 + 1) / 4
.byte	(.LC229 + 2) / 4
.byte	(.LC229 + 3) / 4
.byte	(.LC229 + 4) / 4
.byte	(.LC229 + 5) / 4
.byte	(.LC229 + 6) / 4
.byte	(.LC229 + 7) / 4
.align	3
.LC229:
.word	(2357BD)
.byte	(.LC230 + 1) / 4
.byte	(.LC230 + 2) / 4
.byte	(.LC230 + 3) / 4
.byte	(.LC230 + 4) / 4
.byte	(.LC230 + 5) / 4
.byte	(.LC230 + 6) / 4
.byte	(.LC230 + 7) / 4
.align	3
.LC230:
.word	(2357BD)
.byte	(.LC231 + 1) / 4
.byte	(.LC231 + 2) / 4
.byte	(.LC231 + 3) / 4
.byte	(.LC231 + 4) / 4
.byte	(.LC231 + 5) / 4
.byte	(.LC231 + 6) / 4
.byte	(.LC231 + 7) / 4
.align	3
.LC231:
.word	(2357BD)
.byte	(.LC232 + 1) / 4
.byte	(.LC232 + 2) / 4
.byte	(.LC232 + 3) / 4
.byte	(.LC232 + 4) / 4
.byte	(.LC232 + 5) / 4
.byte	(.LC232 + 6) / 4
.byte	(.LC232 + 7) / 4
.align	3
.LC232:
.word	(2357BD)
.byte	(.LC233 + 1) / 4
.byte	(.LC233 + 2) / 4
.byte	(.LC233 + 3) / 4
.byte	(.LC233 + 4) / 4
.byte	(.LC233 + 5) / 4
.byte	(.LC233 + 6) / 4
.byte	(.LC233 + 7) / 4
.align	3
.LC233:
.word	(2357BD)
.byte	(.LC234 + 1) / 4
.byte	(.LC234 + 2) / 4
.byte	(.LC234 + 3) / 4
.byte	(.LC234 + 4) / 4
.byte	(.LC234 + 5) / 4
.byte	(.LC234 + 6) / 4
.byte	(.LC234 + 7) / 4
.align	3
.LC234:
.word	(2357BD)
.byte	(.LC235 + 1) / 4
.byte	(.LC235 + 2) / 4
.byte	(.LC235 + 3) / 4
.byte	(.LC235 + 4) / 4
.byte	(.LC235 + 5) / 4
.byte	(.LC235 + 6) / 4
.byte	(.LC235 + 7) / 4
.align	3
.LC235:
.word	(2357BD)
.byte	(.LC236 + 1) / 4
.byte	(.LC236 + 2) / 4
.byte	(.LC236 + 3) / 4
.byte	(.LC236 + 4) / 4
.byte	(.LC236 + 5) / 4
.byte	(.LC236 + 6) / 4
.byte	(.LC236 + 7) / 4
.align	3
.LC236:
.word	(2357BD)
.byte	(.LC237 + 1) / 4
.byte	(.LC237 + 2) / 4
.byte	(.LC237 + 3) / 4
.byte	(.LC237 + 4) / 4
.byte	(.LC237 + 5) / 4
.byte	(.LC237 + 6) / 4
.byte	(.LC237 + 7) / 4
.align	3
.LC237:
.word	(2357BD)
.byte	(.LC238 + 1) / 4
.byte	(.LC238 + 2) / 4
.byte	(.LC238 + 3) / 4
.byte	(.LC238 + 4) / 4
.byte	(.LC238 + 5) / 4
.byte	(.LC238 + 6) / 4
.byte	(.LC238 + 7) / 4
.align	3
.LC238:
.word	(2357BD)
.byte	(.LC239 + 1) / 4
.byte	(.LC239 + 2) / 4
.byte	(.LC239 + 3) / 4
.byte	(.LC239 + 4) / 4
.byte	(.LC239 + 5) / 4
.byte	(.LC239 + 6) / 4
.byte	(.LC239 + 7) / 4
.align	3
.LC239:
.word	(2357BD)
.byte	(.LC240 + 1) / 4
.byte	(.LC240 + 2) / 4
.byte	(.LC240 + 3) / 4
.byte	(.LC240 + 4) / 4
.byte	(.LC240 + 5) / 4
.byte	(.LC240 + 6) / 4
.byte	(.LC240 + 7) / 4
.align	3
.LC240:
.word	(2357BD)
.byte	(.LC241 + 1) / 4
.byte	(.LC241 + 2) / 4
.byte	(.LC241 + 3) / 4
.byte	(.LC241 + 4) / 4
.byte	(.LC241 + 5) / 4
.byte	(.LC241 + 6) / 4
.byte	(.LC241 + 7) / 4
.align	3
.LC241:
.word	(2357BD)
.byte	(.LC242 + 1) / 4
.byte	(.LC242 + 2) / 4
.byte	(.LC242 + 3) / 4
.byte	(.LC242 + 4) / 4
.byte	(.LC242 + 5) / 4
.byte	(.LC242 + 6) / 4
.byte	(.LC242 + 7) / 4
.align	3
.LC242:
.word	(2357BD)
.byte	(.LC243 + 1) / 4
.byte	(.LC243 + 2) / 4
.byte	(.LC243 + 3) / 4
.byte	(.LC243 + 4) / 4
.byte	(.LC243 + 5) / 4
.byte	(.LC243 + 6) / 4
.byte	(.LC243 + 7) / 4
.align	3
.LC243:
.word	(2357BD)
.byte	(.LC244 + 1) / 4
.byte	(.LC244 + 2) / 4
.byte	(.LC244 + 3) / 4
.byte	(.LC244 + 4) / 4
.byte	(.LC244 + 5) / 4
.byte	(.LC244 + 6) / 4
.byte	(.LC244 + 7) / 4
.align	3
.LC244:
.word	(2357BD)
.byte	(.LC245 + 1) / 4
.byte	(.LC245 + 2) / 4
.byte	(.LC245 + 3) / 4
.byte	(.LC245 + 4) / 4
.byte	(.LC245 + 5) / 4
.byte	(.LC245 + 6) / 4
.byte	(.LC245 + 7) / 4
.align	3
.LC245:
.word	(2357BD)
.byte	(.LC246 + 1) / 4
.byte	(.LC246 + 2) / 4
.byte	(.LC246 + 3) / 4
.byte	(.LC246 + 4) / 4
.byte	(.LC246 + 5) / 4
.byte	(.LC246 + 6) / 4
.byte	(.LC246 + 7) / 4
.align	3
.LC246:
.word	(2357BD)
.byte	(.LC247 + 1) / 4
.byte	(.LC247 + 2) / 4
.byte	(.LC247 + 3) / 4
.byte	(.LC247 + 4) / 4
.byte	(.LC247 + 5) / 4
.byte	(.LC247 + 6) / 4
.byte	(.LC247 + 7) / 4
.align	3
.LC247:
.word	(2357BD)
.byte	(.LC248 + 1) / 4
.byte	(.LC248 + 2) / 4
.byte	(.LC248 + 3) / 4
.byte	(.LC248 + 4) / 4
.byte	(.LC248 + 5) / 4
.byte	(.LC248 + 6) / 4
.byte	(.LC248 + 7) / 4
.align	3
.LC248:
.word	(2357BD)
.byte	(.LC249 + 1) / 4
.byte	(.LC249 + 2) / 4
.byte	(.LC249 + 3) / 4
.byte	(.LC249 + 4) / 4
.byte	(.LC249 + 5) / 4
.byte	(.LC249 + 6) / 4
.byte	(.LC249 + 7) / 4
.align	3
.LC249:
.word	(2357BD)
.byte	(.LC250 + 1) / 4
.byte	(.LC250 + 2) / 4
.byte	(.LC250 + 3) / 4
.byte	(.LC250 + 4) / 4
.byte	(.LC250 + 5) / 4
.byte	(.LC250 + 6) / 4
.byte	(.LC250 + 7) / 4
.align	3
.LC250:
.word	(2357BD)
.byte	(.LC251 + 1) / 4
.byte	(.LC251 + 2) / 4
.byte	(.LC251 + 3) / 4
.byte	(.LC251 + 4) / 4
.byte	(.LC251 + 5) / 4
.byte	(.LC251 + 6) / 4
.byte	(.LC251 + 7) / 4
.align	3
.LC251:
.word	(2357BD)
.byte	(.LC252 + 1) / 4
.byte	(.LC252 + 2) / 4
.byte	(.LC252 + 3) / 4
.byte	(.LC252 + 4) / 4
.byte	(.LC252 + 5) / 4
.byte	(.LC252 + 6) / 4
.byte	(.LC252 + 7) / 4
.align	3
.LC252:
.word	(2357BD)
.byte	(.LC253 + 1) / 4
.byte	(.LC253 + 2) / 4
.byte	(.LC253 + 3) / 4
.byte	(.LC253 + 4) / 4
.byte	(.LC253 + 5) / 4
.byte	(.LC253 + 6) / 4
.byte	(.LC253 + 7) / 4
.align	3
.LC253:
.word	(2357BD)
.byte	(.LC254 + 1) / 4
.byte	(.LC254 +