Here is the conversion from the provided x86 assembly to ARM assembly.

### Key Considerations for Conversion:
1.  **Loop Unrolling**: The original x86 code uses a loop unrolling technique (calculating the loop counter, adding 1, and jumping if the condition is met). This is the most efficient way to handle the loop in ARM.
2.  **Floating Point Logic**: The code manipulates `NaN` values (`0x7fffffffffffffff`) and compares them using `ucomisd` (unconditional double-precision floating-point comparison). In ARM, we simulate this using `FMA` (Fixed-Point Multiply-Add) or by manually constructing the comparison logic since there is no direct `ucomisd` instruction in standard ARMv8-64. We will implement the logic `if (NaN != NaN) then continue else break`.
3.  **Memory Layout**:
    *   `LCPI0_0` is defined as `0x7fffffffffffffff` (NaN).
    *   The loop accesses `mem[0]`, `mem[1]`, `mem[2]`, `mem[3]`.
    *   The x86 layout: `[0] NaN, [1] NaN, [2] 0, [3] 0`.
    *   The ARM layout: We will define `mem` as an array of 4 doubles starting at a specific offset.
4.  **Registers**:
    *   `%rbp` becomes `%rbx` (or we can keep it as `%rbx` for simplicity).
    *   `%rdi`/`%rsi` (input arguments) are mapped to specific memory offsets.
    *   `%xmm0`/`%xmm1` are mapped to `r0/r1` (x86 registers) for convenience.

### ARM Assembly Code

```arm64
.section	__TEXT,__text,regular,pure_instructions
.build_version macos, 13, 0	sdk_version 13, 3

.section	__TEXT,__literal16,16byte_literals
.p2align	4, 0x90

_func0:
	.cfi_startproc
## %bb.0:
	pushq	%rbp
	.cfi_def_cfa_offset 16
	.cfi_offset %rbp, -16
	movq	%rsp, %rbp
	.cfi_def_cfa_register %rbp

	; Map x86 arguments to ARM memory offsets
	; x86: movl %esi, -20(%rbp) -> ARM: movq r0, -20(%rbx)
	movq	r0, -20(%rbx)
	
	; x86: movl $0, -28(%rbp) -> ARM: movq r1, -28(%rbx)
	movq	r1, -28(%rbx)

LBB0_1:
	; x86: movl -28(%rbp), %eax -> ARM: movq r2, -28(%rbx)
	movq	r2, -28(%rbx)

LBB0_2:
	; x86: cmp -20(%rbp), %eax -> ARM: cmp r0, r2
	cmp	r0, r2
	jge	LBB0_10

LBB0_3:
	; x86: movl -32(%rbp), %eax -> ARM: movq r3, -32(%rbx)
	movq	r3, -32(%rbx)

LBB0_4:
	; x86: cmp -20(%rbp), %eax -> ARM: cmp r0, r3
	cmp	r0, r3
	jge	LBB0_8

LBB0_5:
	; x86: movq -16(%rbp), %rax -> ARM: movq r4, -16(%rbx)
	movq	r4, -16(%rbx)

LBB0_6:
	; x86: movslq -28(%rbp), %rcx -> ARM: addq r2, r1
	addq	r2, r1

LBB0_7:
	; x86: movl -32(%rbp), %eax -> ARM: movq r3, -32(%rbx)
	movq	r3, -32(%rbx)

LBB0_8:
	; x86: movl -28(%rbp), %eax -> ARM: movq r2, -28(%rbx)
	movq	r2, -28(%rbx)

LBB0_9:
	; x86: movl -28(%rbp), %eax -> ARM: movq r2, -28(%rbx)
	movq	r2, -28(%rbx)

LBB0_10:
	; x86: movl $10, -4(%rbp) -> ARM: movq r5, -4(%rbx)
	movq	r5, -4(%rbx)

LBB0_11:
	; x86: movl -4(%rbp), %eax -> ARM: movq r5, r6
	movq	r5, r6

	popq	%rbp
	retq
	.cfi_endproc

; Simulated NaN literal (x86: 0x7fffffffffffffff)
; In ARM, we can define this as a literal or use a constant. 
; For portability, we define the value directly or use a constant if available.
; Assuming 64-bit float NaN is represented as 0x7fffffffffffffff in double.
; We will use a placeholder literal definition for the NaN value.
LCPI0_0:
	.long	0x7fffffffffffffff

.section	__TEXT,__text,regular,pure_instructions
.globl	_func0
.subsections_via_symbols
```

### Explanation of the Conversion Logic:

1.  **Entry Point**:
    *   `pushq %rbp` followed by `movq %rsp, %rbp` sets up the stack frame, mirroring the x86 `pushq %rbp`, `.cfi_def_cfa_offset 16`, and `.cfi_offset %rbp, -16`.
    *   The `movl %esi, -20(%rbp)` in x86 is translated to `movq r0, -20(%rbx)` in ARM.

2.  **The Loop Header (`LBB0_1`)**:
    *   `movl -28(%rbp), %eax` is moved to `movq r2, -28(%rbx)`.

3.  **Loop Condition (`LBB0_2` / `LBB0_4`)**:
    *   x86: `cmp -20(%rbp), %eax`.
    *   ARM: `cmp r0, r2`.
    *   Branch: `jge LBB0_10`.

4.  **Loop Increment (`LBB0_3`)**:
    *   x86: `movl -28(%rbp), %eax` (stores counter), `addl $1, %eax` (adds 1), `movl %eax, -32(%rbp)` (stores new counter).
    *   ARM: `movq r2, -28(%rbx)` (stores old), `addq r2, r1` (adds 1), `movq r3, -32(%rbx)` (stores new).
    *   Note: In x86, the original value was in `%eax` (which was `r2` after the first mov). In ARM, we need to be careful with register usage. The x86 logic effectively does: `new_val = old_val + 1`.
    *   Correction on x86 logic trace:
        *   `movl -28(%rbp), %eax` (r2 = -28)
        *   `cmp -20(%rbp), %eax` (cmp r0, r2)
        *   `movl -28(%rbp), %eax` (r2 = -32)
        *   `addl $1, %eax` (r2 = -31)
        *   `movl %eax, -32(%rbp)` (r3 = -31)
    *   My previous ARM trace was slightly off on the register holding the *old* value before the comparison in the second iteration. The logic `movq r2, -28(%rbx)` sets r2 to the previous value. `addq r2, r1` adds 1. `movq r3, -32(%rbx)` stores the result.

5.  **Nested Loop Logic**:
    *   The x86 code performs a "double loop" where the inner loop checks `mem[0]`, `mem[1]`, `mem[2]`, `mem[3]` against the counter.