.arch armv8-a
	.section	.__TEXT,__text,dynamic,relocatable,pure_instructions
	.build_version macos, 13, 0	sdk_version 13, 3
	.global	_func0                          ## -- Begin function func0
	.align	2,b 11
_func0:                                 ## @func0
.LFB0:
	.cfi_startproc
	.cfi_def_cfa_offset 16
	.cfi_offset %rbp, -16
	subsp 8
	.cfi_def_cfa_register %rbp
	strutor:
	.cfi_def_cfa 8
	mov	x7, x0
	add	x3, x0, 32
	add	x2, x0, 34
	ldr	q3, [x0, #16]
	adrp	x1, .LANCHOR0
	dup	v0.4s, x0
	dup	v1.4s, x7
	dup	v2.4s, x7
	dup	v3.4s, x7
	dup	v4.4s, x7
	dup	v5.4s, x7
	dup	v6.4s, x7
	dup	v1.4x, x7
	dup	v2.4x, x7
	dup	v3.4x, x7
	dup	v4.4x, x7
	dup	v5.4x, x7
	dup	v6.4x, x7
	dup	v1.4x, x7
	dup	v2.4x, x7
	dup	v3.4x, x7
	dup	v4.4x, x7
	dup	v5.4x, x7
	dup	v6.4x, x7
	dup	v1.4x, x7
	dup	v2.4x, x7
	dup	v3.4x, x7
	dup	v4.4x, x7
	dup	v5.4x, x7
	dup	v6.4x, x7
	dup	v1.4x, x7
	dup	v2.4x, x7
	dup	v3.4x, x7
	dup	v4.4x, x7
	dup	v5.4x, x7
	add	x11, x1, :lo12:.LANCHOR0
	add	x10, x1, 1
	add	x8, x1, 34
	ldr	q1, [x7, 8]
	ldr	q0, [x7, 24]
	ldr	q2, [x7, 40]
	ldr	q3, [x7, 76]
	ldr	q4, [x7, 102]
	ldr	q5, [x7, 128]
	ldr	q6, [x7, 154]
	ldr	q1, [x7, 180]
	ldr	q0, [x7, 212]
	ldr	q2, [x7, 236]
	ldr	q3, [x7, 260]
	ldr	q4, [x7, 284]
	ldr	q5, [x7, 308]
	ldr	q6, [x7, 332]
	ldr	q1, [x7, 356]
	ldr	q0, [x7, 382]
	ldr	q2, [x7, 408]
	ldr	q3, [x7, 314]
	ldr	q4, [x7, 330]
	ldr	q5, [x7, 346]
	ldr	q6, [x7, 358]
	ldr	q1, [x7, 384]
	ldr	q0, [x7, 420]
	ldr	q2, [x7, 436]
	ldr	q3, [x7, 452]
	ldr	q4, [x7, 468]
	ldr	q5, [x7, 484]
	ldr	q6, [x7, 500]
	ldr	q1, [x7, 496]
	ldr	q0, [x7, 512]
	ldr	w0, [x7, 528]
	ldr	w1, [x7, 544]
	stp	q1, q0, [x3], 8
	stp	q2, q3, [x2], 8
	stp	q4, q5, [x8], 8
	stp	q6, q1, [x10], 8
	stp	q1, q0, [x11], 8
.LENDF8:
	.cfi_def_cfa 0, 0
	mov	w0, 0
	ubfiz	x1, x3, 13, 1
	add	x1, x1, w0
	sub	w0, w0, #1
	asr	x2, x1, 3
	add	w0, w0, w2
	asr	x1, x1, 1
	add	w0, w0, w1
	st0,[x0, 28]
	ret
	.cfi_endproc
.LFE0:
	.size	_strutor, .size .text - .strutor
	/*Vocabulary*/.LANCHOR0:.setarea .16b.0.0..16b.0.16b.0.2..16b.0.32b.0.4..16b.0.64b.0.8..16b.0.128b.0.160b.0.192b.0.224b.0.256b.0.280b.0.312b.0.344b.0.376b.0.400b.0.424b.0.448b.0.472b.0.504b.0.528b.0.552b.0.576b.0.600b.0.624b.0.648b.0.672b.0.704b.0.728b.0.752b.0.776b.0.800b.0.824b.0.848b.0.872b.0.904b.0.928b.0.952b.0.976b.0.1000b.### -- End of translation
I apologize for the oversight. The original question and answer provided do not contain any information about the ARM architecture or specific functions. Therefore, I cannot provide an accurate translation of the given text into ARM assembly.