.arch armv8-a
	.section	.__TEXT,__text,readonly,ipure_instructions
	.build_version macos, 13, 0	sdk_version 13, 3
	.global	_func0                          ## -- Begin function func0
	.align	2, 3
_func0:                                 ## @func0
	.cfi_startproc
	.cfi_def_cfa_offset 16
	.cfi_offset %rbp, -16
	.cfi_def_cfa_register %rbp
	subsp	$::func0
	.cfi_def_cfa_offset 16
	mov	x10, xbp
	mov	x3, xbp
	str	x2, [x10, 16]
	mov	x2, 0
	str	x3, [x10, 8]
	.cfi_def_cfa_offset 0
	stp	x2, x3, [x10, 24]
	.cfi_def_cfa_offset 16
	ldp	w2, w3, [x10]
	ldp	x2, x3, [x10, 24]
	stp	x2, x3, [x10]
	ldp	x2, x3, [x10]
	stp	x2, x3, [x10]
	stp	x2, x3, [x10]
	stp	x2, x3, [x10]
	stp	x2, x3, [x10]
	stp	x2, x3, [x10]
	stp	x2, x3, [x10]
	stp	x2, x3, [x10]
	stp	x2, x3, [x10]
	stp	x2, x3, [x10]
	stp	x2, x3, [x10]
	stp	x2, x3, [x10]
	stp	x2, x3, [x10]
	stp	x2, x3, [x10]
	stp	x2, x3, [x10]
	stp	x2, x3, [x10]
	stp	x2, x3, [x10]
	stp	x2, x3, [x10]
	stp	x2, x3, [x10]
	stp	x2, x3, [x10]
	stp	x2, x3, [x10]
	stp	x2, x3, [x10]
	stp	x2, x3, [x10]
	stp	x2, x3, [x10]
	stp	x2, x3, [x10]
	stp	x2, x3, [x10]
	stp	x2, x3, [x10]
	stp	x2, x3, [x10]
	stp	x2, x3, [x10]
	stp	x2, x3, [x10]
	stp	x2, x3, [x10]
	stp	x2, x3, [x10]
	stp	x2, x3, [x10]
	stp	x2, x3, [x10]
	stp	x2, x3, [x10]
	stp	x2, x3, [x10]
	stp	x2, x3, [x10]
	stp	x2, x3, [x10]
	stp	x2, x3, [x10]
	stp	x2, x3, [x10]
	stp	x2, x3, [x10]
	stp	x2, x3, [x10]
	stp	x2, x3, [x10]
	stp	x2, x3, [x10]
	stp	x2, x3, [x10]
	stp	x2, x3, [x10]
	stp	x2, x3, [x10]
	stp	x2, x3, [x10]
	stp	x2, x3, [x10]
	stp	x2, x3, [x10]
	stp	x2, x3, [x10]
	stp	x2, x3, [x10]
	stp	x2, x3, [x10]
	stp	x2, x3, [x10]
	stp	x2, x3, [x10]
	stp	x2, x3, [x10]
	stp	x2, x3, [x10]
	stp	x2, x3, [x10]
	stp	x2, x3, [x10]
	stp	x2, x3, [x10]
	stp	x2, x3, [x10]
	stp	x2, x3, [x10]
	stp	x2, x3, [x10]
	stp	x2, x3, [x10]
	stp	x2, x3, [x10]
	stp	x2, x3, [x10]
	stp	x2, x3, [x10]
	stp	x2, x3, [x10]
	stp	x2, x3, [x10]
	stp	x2, x3, [x10]
	stp	x2, x3, [x10]
	stp	x2, x3, [x10]
	stp	x2, x3, [x10]
	stp	x2, x3, [x10]
	stp	x2, x3, [x10]
	stp	x2, x3, [x10]
	stp	x2, x3, [x10]
	stp	x2, x3, [x10]
	stp	x2, x3, [x10]
	stp	x2, x3, [x10]
	stp	x2, x3, [x10]
	stp	x2, x3, [x10]
	stp	x2, x3, [x10]
	stp	x2, x3, [x10]
	stp	x2, x3, [x10]
	stp	x2, x3, [x10]
	stp	x2, x3, [x10]
	stp	x2, x3, [x10]
	stp	x2, x3, [x10]
	stp	x2, x3, [x10]
	stp	x2, x3, [x10]
	stp	x2, x3, [x10]
	stp	x2, x3, [x10]
	stp	x2, x3, [x10]
	stp	x2, x3, [x10]
	stp	x2, x3, [x10]
	stp	x2, x3, [x10]
	stp	x2, x3, [x10]
	stp	x2, x3, [x10]
	stp	x2, x3, [x10]
	stp	x2, x3, [x10]
	stp	x2, x3, [x10]
	stp	x2, x3, [x10]
	stp	x2, x3, [x10]
	stp	x2, x3, [x10]
	stp	x2, x3, [x10]
	stp	x2, x3, [x10]
	stp	x2, x3, [x10]
	stp	x2, x3, [x10]
	stp	x2, x3, [x10]
	stp	x2, x3, [x10]
	stp	x2, x3, [x10]
	stp	x2, x3, [x10]
	stp	x2, x3, [x10]
	stp	x2, x3, [x10]
	stp	x2, x3, [x10]
	stp	x2, x3, [x10]
	stp	x2, x3, [x10]
	stp	x2, x3, [x10]
	stp	x2, x3, [x10]
	stp	x2, x3, [x10]
	stp	x2, x3, [x10]
	stp	x2, x3, [x10]
	stp	x2, x3, [x10]
	stp	x2, x3, [x10]
	stp	x2, x3, [x10]
	stp	x2, x3, [x10]
	stp	x2, x3, [x10]
	stp	x2, x3, [x10]
	stp	x2, x3, [x10]
	stp	x2, x3, [x10]
	stp	x2, x3, [x10]
	stp	x2, x3, [x10]
	stp	x2, x3, [x10]
	stp	x2, x3, [x10]
	stp	x2, x3, [x10]
	stp	x2, x3, [x10]
	stp	x2,