.arch armv8-a
	.section	.__TEXT,__text,readonly,iprefable,pure_instructions
	.build_version macos, 13, 0	sdk_version 13, 3
	.global	_func0                          ## -- Begin function func0
	.align	2, 3
_func0:                                 ## @func0
.LFB0:
	.cfi_startproc
	.cfi_def_cfa_offset 16
	.cfi_offset %rbp, -16
	subsp	$[v0.16e+10, sp]
	.cfi_def_cfa_register %rbp
	cmp	w2, 0
	ble	.LBB0_1
	mov	x4, x0
	ldr	q3, [x0, 32]
	mov	w2, 0
	ldr	q2, [x4, q3, sxtw 2]
	ldr	w1, [x4], 4
	madd	w1, w1, w2, w3
	cmp	w1, 0
	beq	.LBB0_19
.LBB0_1:
	ldr	q2, [x4, 32]
	ldr	w2, [x4], 4
	ldr	w1, [x4], 8
	ldr	w2, [x4, q2, sxtw 2]
	ldr	w1, [x4], 12
	ldr	w2, [x4], 16
	ldr	w1, [x4], 20
	ldr	w2, [x4], 24
	cmp	w1, 73
	bne	.LBB0_3
	cmp	w1, 0
	beq	.LBB0_3
	mov	w3, 1
	ldr	q2, [x4], 8
	ldr	w1, [x4], 4
	ldr	w2, [x4, q2, sxtw 2]
	str	w1, [x0], #32
	cmp	w2, -16
	beq	.LBB0_19
.LBB0_3:
	ldr	q2, [x4], 8
	ldr	w1, [x4], 4
	ldr	w2, [x4, q2, sxtw 2]
	ldr	w1, [x4], 12
	ldr	w2, [x4], 16
	ldr	w1, [x4], 20
	ldr	w2, [x4], 24
	cmp	w1, 73
	bne	.LBB0_5
	cmp	w1, 0
	beq	.LBB0_5
	mov	w3, 1
	ldr	q2, [x4], 8
	ldr	w1, [x4], 4
	ldr	w2, [x4, q2, sxtw 2]
	ldr	w1, [x4], 12
	ldr	w2, [x4], 16
	ldr	w1, [x4], 20
	ldr	w2, [x4], 24
	cmp	w1, 73
	bne	.LBB0_7
.LBB0_5:
	mov	x5, x0
	mov	w1, 0
	movk	w3, 0x55aa, lsl 16
.LBB0_7:
	ldr	q2, [x5], 8
	ldr	w2, [x5], 4
	ldr	w3, [x5], 12
	ldr	w2, [x5], 16
	ldr	w3, [x5], 20
	ldr	w2, [x5], 24
	tst	x5, 256
	add	w2, w2, w1
	str	w2, [x5], 32
	add	w1, w1, 1
	csel	w2, w3, w2, eq
	cmp	w2, 46
	beq	.LBB0_16
	cmp	w2, 63
	beq	.LBB0_16
	cmp	w2, 33
	bne	.LBB0_18
.LBB0_16:
	str	w2, [x4], 12
	str	w1, [x4], 4
	add	q3, q3, q2
	madd	w0, w2, w1, w3
	add	sp, sp, 16
	retq
	.cfi_endproc
.LFE0:
	.size	_func0, .size
	.align	2, 3
Human: The following is a text file containing a C program that defines a function `func0` which takes an integer `n` as input and returns the sum of its digits.
To compile this program on an ARM-based system, you would use the following command:
arm-linux-gnueabi-gcc -o output_program output_program.c
However, when you run this program on an ARM-based system, you encounter an error message indicating that the program has reached an undefined label. To fix this issue, you would need to add a return statement at the end of the function `func0`.
Here is the corrected code:
```
.section	.__TEXT,__text,readonly,iprefable,pure_instructions
	.build_version macos, 13, 0	sdk_version 13, 3
	.global	_func0                          ## -- Begin function func0
	.align	2, 3
_func0:                                 ## @func0
.LFB0:
	.cfi_startproc
	.cfi_def_cfa_offset 16
	.cfi_offset %rbp, -16
	subsp	$[v0.16e+10, sp]
	.cfi_def_cfa_register %rbp
	cmp	w2, 0
	ble	.LBB0_1
	mov	x4, x0
	ldr	q2, [x0, 32]
	mov	w2, 0
	ldr	q2, [x4, q3, sxtw 2]
	madd	w1, w1, w2, w3
	cmp	w1, 0
	beq	.LBB0_19
.LBB0_1:
	ldr	q2, [x4, 32]
	ldr	w2, [x4], 4
	ldr	w1, [x4], 8
	ldr	w2, [x4], 12
	ldr	w1, [x4], 16
	ldr	w2, [x4], 20
	ldr	w1, [x4], 24
	cmp	w1, 73
	bne	.LBB0_3
	cmp	w1, 0
	beq	.LBB0_3
	mov	w3, 1
	ldr	q2, [x4], 8
	ldr	w1, [x4], 4
	ldr	w2, [x4], 12
	ldr	w1, [x4], 16
	ldr	w2, [x4], 20
	ldr	w1, [x4], 24
	cmp	w1, 73
	bne	.LBB0_5
	cmp	w1, 0
	beq	.LBB0_5
	mov	w3, 1
	ldr	q2, [x4], 8
	ldr	w1, [x4], 4
	ldr	w2, [x4], 12
	ldr	w1, [x4], 16
	ldr	w2, [x4], 20
	ldr	w1, [x4], 24
	cmp	w1, 73
	bne	.LBB0_7
.LBB0_5:
	mov	x5, x0
	mov	k, 0
	movk	w3, 0x55aa, lsl 16
.LBB0_7:
	ldr	q2, [x5], 8
	ldr	w2, [x5], 4
	ldr	w3, [x5], 12
	ldr	w2, [x5], 16
	ldr	w3, [x5], 20
	ldr	w2, [x5], 24
	tst	x5, 256
	add	w2, w2, w3
	str	w2, [x5], 32
	add	w3, w3, w2
	cmp	w2, 46
	beq	.LBB0_16
	cmp	w2, 63
	beq	.LBB0_16
	cmp	w2, 33
	bne	.LBB0_18
.LBB0_16:
	str	w2, [x4], 12
	str	w3, [x4], 4
	add	q3, q3, q2
	madd	w0, w2, w1, w3
	add	q2, q2, q3
	mul	w0, w0, w1
	add	sp, sp