Converting x86 assembly to ARM assembly requires significant architectural assumptions and specific considerations, as they differ in register usage, calling conventions, and instruction sets. Below is a **generalized translation** that follows the logic of the x86 code while adhering to standard ARM conventions (e.g., ARMv8-A/64 ABI).

**Important Note:** This translation is a **conceptual approximation**. It assumes:
1.  The x86 code uses a custom stack frame layout specific to `macos, 13, 0` (Apple Silicon, 13.0 SDK). Standard ARM macOS (Apple Silicon) uses a different layout (`rbp` is usually at the top of the stack or handled differently by the runtime).
2.  The string literal `"aeiouAEIOU"` is a constant string literal. In ARM, this must be a `@string` literal or passed as an argument, not hardcoded directly in the assembly unless using a runtime library.
3.  The logic involves a custom loop header (`LBB0_1`) and termination checks.

### Assumptions for Translation
*   **ABI**: ARM System V ABI (32-bit) or ARM64 ABI (64-bit). Given the x86 `macos, 13, 0` (which is ARM64), we will assume **ARM64** architecture for this conversion.
*   **Registers**: `rax` (RAX), `rcx` (RCX), `rsi` (RSI), `rdi` (RDI), `rbx` (RBX), `r12` (R12).
*   **Stack**: We will assume a standard ARM64 stack frame structure.

### Translation Steps

#### 1. Function Signature & Setup
```x86asm
.globl	func0
_func0:
    .p2align 4, 0x90
    .cfi_startproc

    ; Push frame pointer (standard ARM64 stack frame)
    pushq   %rbp
    .cfi_def_cfa_offset 16
    .cfi_offset %rbp, -16

    ; Save old frame pointer (optional, but good practice)
    movq    %rbp, %rsp
    .cfi_def_cfa_register %rbp

    ; Setup local variables
    subq    $32, %rsp      ; Reserve space for stack frame
    movq    %rdi, -8(%rbp) ; Save argument (RDI -> -8(%rbp))
    leaq    .str(%rip), %rax ; Load string literal address
    movq    %rax, -16(%rbp) ; Store address of string
    movl    $0, -20(%rbp)  ; Store loop counter (index)
    movq    -8(%rbp), %rdi ; Load string into RDI

    ; Call strlen
    callq   .cstringstrlen

    ; Move result (length) to -24(%rbp)
    movl    %eax, -24(%rbp)

    ; Initialize loop counter to 0
    movl    $0, -28(%rbp)

LBB0_1:
    ; Loop Header: Read length, check if 0, jump to end if not 0
    movl    -28(%rbp), %eax
    cmpq    -24(%rbp), %eax
    jge     LBB0_6       ; If length >= 0, exit loop

    ; Increment counter
    movl    -28(%rbp), %eax
    addl    $1, %eax
    movl    %eax, -28(%rbp)

LBB0_4:
    ; Check if found (return address > 0)
    jmp     LBB0_5       ; If found, exit loop

LBB0_5:
    ; Read character
    movl    -28(%rbp), %eax
    addl    $1, %eax
    movl    %eax, -28(%rbp)

LBB0_6:
    ; Check if char is newline (0x0A)
    cmpq    $0, -24(%rbp)
    jle     LBB0_10      ; If 0, exit loop
```

#### 2. Character Processing Loop
```x86asm
    ; Process characters until newline found
LBB0_10:
    ; Read character (using RAX)
    movq    -8(%rbp), %rax
    movl    -24(%rbp), %ecx ; Load length into ECX
    subl    $1, %ecx        ; ECX = Length - 1

    ; Check if character is newline (0x0A)
    movsbl  %rax, %eax      ; Load char into AL
    movslq  %ecx, %rcx      ; Load ECX into RCX
    movsbl  (%rax, %rcx), %eax

    ; Check if char is newline
    cmpq    $0x0A, %eax      ; 0x0A is newline
    jne     LBB0_10         ; If not newline, continue loop
```

#### 3. String Lookup Logic
```x86asm
    ; Lookup character in string
    ; We need to simulate the x86 strchr logic.
    ; x86: movq -16(%rbp), %rdi; movq -8(%rbp), %rax; movslq ...
    ; ARM64 equivalent using RDI/RAX and a loop
    
    ; Load string into RDI
    movq    -16(%rbp), %rdi
    
    ; Load current char into RAX
    movq    -8(%rbp), %rax
    
    ; Perform strchr-like search
    ; Note: ARM does not have a built-in `strchr`. We must implement it.
    ; We will loop through the string and compare.
    ; Optimization: Load string into a register and iterate.
    ; For simplicity in this translation, we will simulate the logic:
    ; Check first char, if not newline, search rest.
    
    ; Simulate strchr logic manually:
    ; 1. Check if RDI == RAX (first char match)
    ; 2. If not, decrement RDI and repeat.
    
    ; Load first char of string
    movl    %rdi, %eax
    cmpq    %rax, %eax      ; Compare with current char (RAX)
    je      LBB0_11         ; If equal, return address (found)

    ; If not equal, check if it's a newline (loop end)
    cmpq    $0, %eax        ; ASCII 0 is newline
    jne     LBB0_13         ; If not newline, search next char

LBB0_11:
    ; Return address (found)
    movl    %eax, -20(%rbp)
    jmp     LBB0_4         ; Return to caller

LBB0_13:
    ; Check if current char is newline
    cmpq    $0, %eax
    jne     LBB0_14
    jmp     LBB0_4         ; Found newline, return

LBB0_14:
    ; Move current char to RAX for next iteration
    movq    %rax, -8(%rbp)
    jmp     LBB0_14
```

#### 4. Main Execution & Return
```x86asm
    ; Call the original function
    callq   _func0

    ; Return to caller
    movq    %rbp, %rsp
    .cfi_def_cfa_offset 16
    .cfi_def_cfa_register %rbp
    retq

    .cfi_endproc
```

### ARM64 Equivalent Code (For Compilation)

If you were compiling this x86 code to ARM64, the generated assembly would look roughly like this:

```arm64
.section _func0, "ax", @progbits
.section __cstringstrlen, "ax"
.section __cstringstrchr, "ax"
.section __cstringstrlen, "ax"

.globl func0

func0:
    .p2align 4, 0x90
    .cfi_startproc

    pushq   %rbp
    .cfi_def_cfa_offset 16
    .cfi_offset %rbp, -16

    movq    %rsp, %rbp
    .cfi_def_cfa_register %rbp

    subq    $32, %rsp
    movq    %rdi, -8(%rbp)
    leaq    .str(%rip), %rax
    movq    %rax, -16(%rbp)
    movl    $0, -20(%rbp)
    movq    -8(%rbp), %rdi

    callq   _cstringstrlen

    movl    %eax, -24(%rbp)
    mov