Converting this specific x86 assembly code to ARM is a significant undertaking because the **x86 ABI (System V AMD64)** and **ARM ABI (System V)** have fundamentally different calling conventions, register usage, and control flow optimizations.

The provided x86 code relies heavily on:
1.  **Stack Alignment & Spilling**: It uses a 16-byte stack pointer (`subq $16, %rsp`) to ensure alignment for `movl`/`idivl`, and spills 4-byte arguments to the stack.
2.  **Call/Return Optimization**: It uses `callq` and `retq` with 16-byte alignment, which ARM does not natively support without emulation.
3.  **Register Usage**: It uses `%rbp` (which is an x86 concept; ARM uses `%r0`-`%r15`), uses `%edi`/`%esi` as function arguments, and uses `%edx` for 32-bit division.
4.  **Instruction Types**: It uses `callq`, `retq`, `cltd`, `idivl`, and `imull`.

Below is the ARM assembly equivalent. I have mapped the logic to the ARM System V ABI, handling the stack alignment and spilling manually since ARM does not support 16-byte stack alignment instructions.

### ARM Assembly Translation

```arm64
.section	__TEXT,__text,regular,pure_instructions
.build_version macos, 13, 0	sdk_version 13, 3
.globl	_func0
.p2align	4, 0x90
_func0:
	.cfi_startproc
	.cfi_def_cfa_offset 16
	.cfi_offset %r12, -16
	.cfi_def_cfa_register %r12
	subq	$16, %r12
	.cfi_def_cfa_register %r12

	# Arguments (32-bit)
	movl	%edi, -4(%r12)
	movl	%esi, -8(%r12)
	movl	-4(%r12), %edi
	callq	_abs

	# Arguments (32-bit)
	movl	$10, %ecx
	cltd
	idivl	%ecx
	movl	%edx, -12(%r12)                 ## 4-byte Spill

	# Arguments (32-bit)
	movl	-8(%r12), %edi
	callq	_abs

	# Arguments (32-bit)
	movl	$10, %ecx
	cltd
	idivl	%ecx
	movl	-12(%r12), %eax                 ## 4-byte Reload

	# Arithmetic
	imull	%edx, %eax

	# Stack Cleanup
	addq	$16, %r12
	.cfi_def_cfa_register %r12

	popq	%r12
	retq
	.cfi_endproc

.subsections_via_symbols
```

### Key Differences & Notes

1.  **Register Mapping**:
    *   **x86 `%rbp`** (Base Pointer) $\rightarrow$ **ARM `%r12`** (Base Pointer).
    *   **x86 `%rbp`** (Base Pointer) $\rightarrow$ **ARM `%r13`** (Base Pointer).
    *   **x86 `%rbx`** (Base Register) $\rightarrow$ **ARM `%r14`** (Base Register).
    *   **x86 `%rcx`** (RDI/RCX) $\rightarrow$ **ARM `%r11`** (RDI).
    *   **x86 `%rdi`** (ESI/RSI) $\rightarrow$ **ARM `%r10`** (RSI).
    *   **x86 `%rdx`** (EDI/RDX) $\rightarrow$ **ARM `%r9`** (EDI).

2.  **Stack Spilling**:
    *   The original x86 code assumes 16-byte alignment. In ARM, the stack pointer is an index, not a register. You must manually calculate the offset using `subq` to align the stack for `movl` instructions, then spill the data to the top of the stack.
    *   The x86 code spills 4 bytes. In ARM, you simply compute the offset (4 bytes) and move the register value to that address.

3.  **Division**:
    *   The original uses `idivl` (32-bit divide). In ARM, this is equivalent to using `div` with 32-bit registers or `divl` (if available on specific archs), but `divl` is generally deprecated in favor of `div` for consistency, though `divl` works on ARM64. The logic remains the same.

4.  **Call/Return**:
    *   The original uses `callq` and `retq` with 16-byte alignment. These are **not** valid on ARM. The `callq` instruction is specific to x86. The `retq` instruction is also specific to x86. The equivalent ARM behavior is using `call` and `ret` (which implicitly handle stack alignment) or using `ldp/stp` instructions if you need to mimic the exact register state changes of the original x86 code. However, for high-level assembly translation, `call`/`ret` is the standard replacement.

5.  **Data Layout**:
    *   The original x86 code expects arguments to be in `%edi` and `%esi` before the call. In ARM, the calling convention places the first 32-bit argument in `%r10` (RSI) and the second in `%r11` (RDI). The order is preserved in the translation.