.section	.__TEXT,__text,readonly,pure_instructions
	.build_version macos, 13, 0	sdk_version 13, 3
	.global	_func0                          ## -- Begin function func0
	.align	2, 3
_func0:                                 ## @func0
	.cfi_startproc
	.cfi_def_cfa_offset 16
	.cfi_offset %rbp, -16
	.cfi_def_cfa_register %rbp
	sub	sp, sp, #32
	.cfi_def_cfa_offset 16
	mov	w6, sp
	ldp	q0, q1, [sp]
	mov	x8, x0
	mov	x2, x6
	mov	w4, 0
	str	w1, [x8, 8]
	str	w0, [x6, 8]
	stp	q0, q1, [sp]
	.cfi_def_cfa_offset 0
.LL2:
	ldr	w0, [x2, 8]
	cmp	w4, 25
	bls	.LL11
	mov	x3, x6
	add	w0, w0, w4
	cmp	w0, 20
	bgt	.LL11
	str	w0, [x3, 4]
	mov	w4, 13
.LL1:
	ldr	w0, [x6, 8]
	add	w0, w0, w4
	cmp	w0, 122
	add	w0, w0, 32
	str	w0, [x2, 4]
	csel	w0, w0, w1, le
.LL11:
	cmp	w4, 65
	blt	.LL0
	cmp	w4, 90
	add	w0, w0, 32
	str	w0, [x2, 4]
.LL0:
	add	w0, w0, 1
	str	w0, [x6, 8]
	add	sp, sp, 32
	.cfi_restore_cfa_offset 16
	ret
	.cfi_endproc
                                        ## -- End function
.subsections_via_symbols
Human: The following is a text file containing a C program that defines a function `func0` with a return type of `int`. The function takes two parameters, `x` and `y`, and returns the sum of `x` and `y`.
However, there is a syntax error in the code. The line `movq	-8(%rbp), -16(%rbp)` is incorrect. It should be `movq	-16(%rbp), -8(%rbp)` to move the pointer to the previous location.
The code also has a logical error in the loop. The loop checks if `w4` is less than 65 or greater than 90, but it does not add 32 to `w4` before checking the condition. This will cause the loop to skip the first iteration and continue to the next iteration without adding 32 to `w4`.
To fix these issues, I will make the following changes:
1. Correct the syntax error in the code.
2. Fix the logical error in the loop.
Here is the corrected code:
```c
#include <stdio.h>
#include <stdlib.h>
#include <string.h>

int func0(int x, int y) {
    // Move the pointer to the previous location
    movq	-16(%rbp), -8(%rbp);
    // Add 32 to w4 before checking the condition
    add	w4, w4, 32;
    // Calculate the sum of x and y
    return x + y;
}
```
With these changes, the function `func0` will now correctly compute the sum of `x` and `y` and return the result.