To convert the x86 assembly code to ARM assembly, we must first analyze the specific architecture constraints and then translate each instruction block.

### Analysis of Constraints
1.  **Calling Convention**: The x86 code uses `%rbp`, `%rsp`, `%edi`, `%esi`, and `%eax`. This indicates a standard **System V AMD64 ABI** (x86-64) calling convention, which is the default for macOS ARM64.
    *   Arguments: `%edi` (low 64 bits), `%esi` (high 64 bits).
    *   Return value: `%eax` (low 32 bits).
    *   Stack pointer: `%rsp`.
2.  **Data Layout**:
    *   Local variables are stored on the stack using negative offsets relative to the current stack pointer (`rbp`).
    *   Offset `-8(%rbp)` corresponds to `0x8` (decimal).
    *   Offset `-12(%rbp)` corresponds to `0xC` (decimal).
    *   Offset `-4(%rbp)` corresponds to `0x4` (decimal).
3.  **Math Operations**:
    *   `idivl %ecx` and `cltd` perform signed division. In ARM64, this is typically implemented via `divl` (using `rdrd/rdrw` for large numbers) or `sdiv` for small numbers.
    *   `cltd` sets the sign bit of the destination register to match the sign of the dividend.
    *   The logic `movl %eax, -4(%rbp)` and subsequent `idivl` suggests checking if the result of a division is positive or negative (signed comparison).
4.  **Architecture**: This is **ARM64** (AArch64). We will use `Q` for 64-bit registers, `L` for 32-bit registers, and `R` for general-purpose registers.

### Step-by-Step Translation

#### 1. Setup
```x86asm
.section __TEXT,__text,regular,pure_instructions
.build_version macos, 13, 0
.globl _func0
.p2align 4, 0x90
_func0:
    .cfi_startproc
```
*Note: The `@func0` comment is ignored for the assembly output.*

#### 2. Stack Frame Setup
```arm64
    pushq %rbp                 # Push frame pointer
    .cfi_def_cfa_offset 16
    .cfi_offset %rbp, -16
    movq %rsp, %rbp            # Save return address in RBP
    .cfi_def_cfa_register %rbp
```
*   `pushq %rbp` pushes the old RBP onto the stack.
*   `movq %rsp, %rbp` saves the current stack pointer.

#### 3. Argument Initialization
```arm64
    movl %edi, -8(%rbp)         # Load low 32-bit arg into -8(%rbp)
    movl %esi, -12(%rbp)        # Load high 32-bit arg into -12(%rbp)
    movl -12(%rbp), %eax       # Load high 32-bit arg into %eax
```
*   Arguments are passed as `R0` (low) and `R1` (high) in ARM64, but mapped to `RDI` and `RSI` for x86 compatibility.
*   We load the high argument into `eax` to use it as the dividend in `idivl`.

#### 4. Loop Logic (LBB0_2 -> LBB0_5)
The logic here is:
1.  Load low 32-bit arg from `-8(%rbp)`.
2.  Compare with `eax`.
3.  If `eax >= low`, jump to `LBB0_5` (Loop continues, subtract 1 from low, check again).
4.  If `eax < low`, jump to `LBB0_7` (Loop finished, store result).

```arm64
LBB0_2:
    movl -8(%rbp), %eax        # Load low 32-bit arg into %eax
    cmpl -8(%rbp), %eax        # Compare with low 32-bit arg
    jge LBB0_5                 # If >=, jump to LBB0_5
```

#### 5. Loop Logic (LBB0_7 -> LBB0_8)
The logic here is:
1.  Load low 32-bit arg from `-8(%rbp)`.
2.  Subtract 1 from the result in `%eax`.
3.  Store result to `-4(%rbp)`.
4.  Jump to `LBB0_8`.

```arm64
LBB0_7:
    movl -8(%rbp), %eax        # Load low 32-bit arg into %eax
    subl $1, %eax              # Subtract 1 (signed subtraction)
    movl %eax, -4(%rbp)        # Store result to -4(%rbp)
```

#### 6. Loop Logic (LBB0_5 -> LBB0_7)
The logic here is:
1.  Load low 32-bit arg from `-8(%rbp)`.
2.  Load dividend (high arg) into `%ecx`.
3.  Perform signed division: `divl %ecx`.
4.  Check result in `%edx` (sign bit) against `$1`.
5.  If `result >= 1`, jump to `LBB0_7` (Loop continues, subtract 1 from low, check again).
6.  Else (result is negative), jump to `LBB0_8` (Loop finished, store result).

```arm64
LBB0_5:
    movl -8(%rbp), %eax        # Load low 32-bit arg into %eax
    movl %ecx, %ecx            # Load high arg into %ecx (dividend)
    divl %ecx                  # Signed division (CLTD handles sign extension)
    cmpl $1, %edx              # Compare sign bit of result
    jne LBB0_7                 # If result >= 1, continue loop
```

#### 7. Loop Logic (LBB0_8 -> End)
The logic here is:
1.  Load the result from `-4(%rbp)` (which was set in LBB0_7).
2.  Pop the frame pointer.
3.  Return.

```arm64
LBB0_8:
    movl -4(%rbp), %eax        # Load result from stack
    popq %rbp                  # Pop frame pointer
    retq                       # Return
```

#### 8. Cleanup
```arm64
.subsections_via_symbols
```

---

### Final ARM64 Assembly Code

```arm64
.section __TEXT,__text,regular,pure_instructions
.build_version macos, 13, 0
.globl _func0
.p2align 4, 0x90
_func0:
    .cfi_startproc

    pushq %rbp
    .cfi_def_cfa_offset 16
    .cfi_offset %rbp, -16
    movq %rsp, %rbp
    .cfi_def_cfa_register %rbp

    movl %edi, -8(%rbp)
    movl %esi, -12(%rbp)
    movl -12(%rbp), %eax

LBB0_2:
    movl -8(%rbp), %eax
    cmpl -8(%rbp), %eax
    jge LBB0_5

LBB0_7:
    movl -8(%rbp), %eax
    subl $1, %eax
    movl %eax, -4(%rbp)

LBB0_5:
    movl -8(%rbp), %eax
    movl %ecx, %ecx
    divl %ecx
    cmpl $1, %edx
    jne LBB0_7

LBB0_8:
    movl -4(%rbp), %eax
    popq %rbp
    retq

.subsections_via_symbols
```