.globl	_func0                          ## -- Begin function func0
	.p2align	4, 0x90
_func0:                                 ## @func0
	.cfi_startproc
; %bb.0:
	sub	sp, sp, #16
	.cfi_def_cfa_offset 16
	str	x0, [sp, #8]
	ldr	x8, [sp, #8]
	ldp	q1, q2, [x8]
	ldp	q0, q3, [x8, #8]
	ldp	q5, q4, [x8, #16]
	ldp	q7, q6, [x8, #24]
	ldp	q9, q8, [x8, #32]
	ldp	q10, q9, [x8, #40]
	ldp	q11, q10, [x8, #48]
	ldp	q12, q11, [x8, #56]
	ldp	q13, q12, [x8, #64]
	ldp	q14, q13, [x8, #72]
	ldp	q15, q14, [x8, #80]
	ldp	q16, q15, [x8, #88]
	ldp	q17, q16, [x8, #96]
	ldp	q18, q17, [x8, #104]
	ldp	q19, q18, [x8, #112]
	ldp	q20, q19, [x8, #120]
	ldp	q21, q20, [x8, #128]
	ldp	q22, q21, [x8, #136]
	ldp	q23, q22, [x8, #144]
	ldp	q24, q23, [x8, #152]
	ldp	q25, q24, [x8, #160]
	ldp	q26, q25, [x8, #168]
	ldp	q27, q26, [x8, #176]
	ldp	q28, q27, [x8, #184]
	ldp	q29, q28, [x8, #192]
	ldp	q30, q29, [x8, #200]
	ldp	q31, q29, [x8, #208]
	add	sp, sp, #16
	ret
	.cfi_endproc
                                        ## -- End function
.subsections_via_symbols
.armasm:
	.globl	_func0                          ## -- Begin function func0
	.p2align	4, 0x90
_func0:                                 ## @func0
	.cfi_startproc
; %bb.0:
	sub	sp, sp, #16
	.cfi_def_cfa_offset 16
	str	x0, [sp, #8]
	ldr	x8, [sp, #8]
	ldp	q1, q2, [x8]
	ldp	q0, q3, [x8, #8]
	ldp	q5, q4, [x8, #16]
	ldp	q7, q6, [x8, #24]
	ldp	q9, q8, [x8, #32]
	ldp	q10, q9, [x8, #40]
	ldp	q11, q10, [x8, #48]
	ldp	q12, q11, [x8, #56]
	ldp	q13, q12, [x8, #64]
	ldp	q14, q13, [x8, #72]
	ldp	q15, q14, [x8, #80]
	ldp	q16, q15, [x8, #88]
	ldp	q17, q16, [x8, #96]
	ldp	q18, q17, [x8, #104]
	ldp	q20, q19, [x8, #112]
	ldp	q21, q20, [x8, #120]
	ldp	q22, q21, [x8, #128]
	ldp	q23, q22, [x8, #136]
	ldp	q24, q23, [x8, #144]
	ldp	q25, q24, [x8, #152]
	ldp	q26, q25, [x8, #160]
	ldp	q27, q26, [x8, #168]
	ldp	q28, q27, [x8, #176]
	ldp	q29, q28, [x8, #184]
	ldp	q30, q29, [x8, #192]
	ldp	q31, q29, [x8, #200]
	add	sp, sp, #16
	ret
	.cfi_endproc
                                        ## -- End function
	.p2align	2                               ## -- Begin function func1
_func1:                                 ## @func1
	.cfi_startproc
; %bb.0:
	sub	sp, sp, #16
	.cfi_def_cfa_offset 16
	str	w0, [sp, #12]
	ldr	w8, [sp, #12]
	str	w8, [sp, #8]
	ldr	w8, [sp, #8]
	str	w8, [sp, #4]
	ldr	w0, [sp, #4]
	add	sp, sp, #16
	ret
	.cfi_endproc
                                        ## -- End function
	.p2align	2                               ## -- Begin function func2
_func2:                                 ## @func2
	.cfi_startproc
; %bb.0:
	sub	sp, sp, #16
	.cfi_def_cfa_offset 16
	str	w0, [sp, #12]
	ldr	w8, [sp, #12]
	str	w8, [sp, #8]
	ldr	w8, [sp, #8]
	str	w8, [sp, #4]
	ldr	w0, [sp, #4]
	add	sp, sp, #16
	ret
	.cfi_endproc
                                        ## -- End function
	.p2align	2                               ## -- Begin function func3
_func3:                                 ## @func3
	.cfi_startproc
; %bb.0:
	sub	sp, sp, #16
	.cfi_def_cfa_offset 16
	str	w0, [sp, #12]
	ldr	w8, [sp, #12]
	str	w8, [sp, #8]
	ldr	w8, [sp, #8]
	str	w8, [sp, #4]
	ldr	w0, [sp, #4]
	add	sp, sp, #16
	ret
	.cfi_endproc
                                        ## -- End function
	.p2align	2                               ## -- Begin function func4
_func4:                                 ## @func4
	.cfi_startproc
; %bb.0:
	sub	sp, sp, #16
	.cfi_def_cfa_offset 16
	str	w0, [sp, #12]
	ldr	w8, [sp, #12]
	str	w8, [sp, #8]
	ldr	w8, [sp, #8]
	str	w8, [sp, #4]
	ldr	w0, [sp, #4]
	add	sp, sp, #16
	ret
	.cfi_endproc
                                        ## -- End function
	.p2align	2                               ## -- Begin function func5
_func5:                                 ## @func5
	.cfi_startproc
; %bb.0:
	sub	sp, sp, #16
	.cfi_def_cfa_offset 16
	str	w0, [sp, #12]
	ldr	w8, [sp, #12]
	str	w8, [sp, #8]
	ldr	w8, [sp, #8]
	str	w8, [sp, #4]
	ldr	w0, [sp, #4]
	add	sp, sp, #16
	ret
	.cfi_endproc
                                        ## -- End function
	.p2align	2                               ## -- Begin function func6
_func6:                                 ## @func6
	.cfi_startproc
; %bb.0:
	sub	sp, sp, #16
	.cfi_def_cfa_offset 16
	str	w0, [sp, #12]
	ldr	w8, [sp, #12]
	str	w8, [sp, #8]
	ldr	w8, [sp, #8]