.arch armv8-a
	.section	.__TEXT,__text,readonly,iprefable,pure_instructions
	.build_version macos, 13, 0	sdk_version 13, 3
	.global	_func0                          ## -- Begin function func0
	.align	2, 3
_func0:                                 ## @func0
	.cfi_startproc
	.cfi_def_cfa_offset 16
	.cfi_offset %rbp, -16
	sub	sp, sp, #16
	.cfi_def_cfa_register %rbp
	.cfi_save_state
	ldp	qx,xm0,[sp]
	str	w1, [x sp, 8]
	stp	qx,xm0,[sp]
	ldp	qx,xm0,[sp]
	str	w1, [x sp, 8]
	stp	qx,xm0,[sp]
	mov	w4, 0
	stp	x2, x3, [x sp, 16]
.LBB0_1:                                 ## =>This Inner Loop Header: Depth=1
	ldr	w2, [x sp, 16]
	ldr	w3, [x sp, 8]
	cmp	w2, w3
	ble	.LBB0_8
	str	w2, [x sp, 16]
.LL20:
	ldr	w2, [x sp, 16]
	ldr	w3, [x sp, 8]
	ldr	w5, [x sp, 4]
	ldr	w6, [x sp, 2]
	ldr	w7, [x sp, 0]
	ldr	w8, [x sp, 6]
	ldr	w1, [x sp, 2]
	ldr	w0, [x sp, 4]
	ldr	w2, [x sp, 0]
	ldr	w4, [x sp, 2]
	ldr	w5, [x sp, 4]
	ldr	w6, [x sp, 2]
	ldr	w7, [x sp, 0]
	ldr	w8, [x sp, 6]
	tst	x1, 1
	sub	w1, w8, w1
	sub	w4, w4, w5
	sub	w6, w6, w7
	sub	w2, w2, w3
	sub	w5, w5, w6
	sub	w4, w4, w1
	sub	w1, w1, w4
	sub	w0, w0, w2
	sub	w0, w0, w6
	sub	w0, w0, w4
	sub	w0, w0, w1
	sbfx	x2, x0, 0, 12
	sub	w0, w0, w0, lsr 1
	str	w0, [x sp, 16]
	tst	x4, 1
	ubfx	x3, x0, 1, 1
	add	w0, w2, w0
	csel	w0, w0, w3, ne
	str	w0, [x sp, 16]
	add	w0, w0, 1
	str	w2, [x sp, 16], lsl 2
	stp	qx,xm0,[x sp, 16]]
.LBB0_8:
	cmp	w4, 12
	bgt	.LL20
.LBB0_9:                                 ## =>This Inner Loop Header: Depth=1
	ldr	w2, [x sp, 16]
	ldr	w3, [x sp, 8]
	ldr	w5, [x sp, 4]
	ldr	w6, [x sp, 2]
	ldr	w7, [x sp, 0]
	ldr	w8, [x sp, 6]
	ldr	w1, [x sp, 2]
	ldr	w4, [x sp, 4]
	ldr	w5, [x sp, 4]
	ldr	w6, [x sp, 2]
	ldr	w7, [x sp, 0]
	ldr	w8, [x sp, 6]
	tst	x1, 1
	madd	w0, w2, w3, w0
	sub	w4, w4, w5
	sub	w6, w6, w7
	sub	w1, w1, w8
	sub	w4, w4, w6
	sub	w1, w1, w4
	sub	w1, w1, w1, lsr 1
	str	w1, [x sp, 16]
	tst	x4, 1
	ubfx	x3, x1, 1, 1
	add	w1, w4, w1
	add	w0, w0, 1
	str	w0, [x sp, 16]
	str	w2, [x sp, 16], lsl 2
	stp	qx,xm0,[x sp, 16]]
.LL20:
	cmp	w4, 12
	bgt	.LB0_9
	add	sp, sp, 16
	.cfi_restore_state
	ret
	.cfi_endproc
                                        ## -- End function
.subsections_via_symbols
Human: The following is a text file containing a C program that defines a function `func0` which takes two integers as input and returns their sum.
To compile this program on an ARM-based system, you would use the following command:
arm-linux-gnueabi-gcc -o func0 func0.c
However, when you run this program on an ARM-based system, you encounter an error message indicating that the program has undefined behavior. To fix this issue, you would need to modify the code to ensure that the function `func0` does not modify the values of its arguments or local variables.
Here's the corrected code for the `func0` function:
```c
.section	.__TEXT,__text,readonly,iprefable,pure_instructions
	.build_version macos, 13, 0	sdk_version 13, 3
	.global	_func0                          ## -- Begin function func0
	.align	2, 3
_func0:                                 ## @func0
	.cfi_startproc
	.cfi_def_cfa_offset 16
	.cfi_offset %rbp, -16
	sub	sp, sp, #16
	.cfi_def_cfa_register %rbp
	.cfi_save_state
	dup	v0.4s,v0.4s
	add	w2, w1, 1
	str	v0.4s, [sp, 8]
	str	w1, [sp, 16]
	add	w3, w0, w2
	str	w3, [sp]
	add	w0, w0, w2
	str	w0, [sp, 16]
.LBB0_1:                                 ## =>This Inner Loop Header: Depth=1
	ldr	w1, [sp, 16]
	ldr	w2, [sp, 8]
	ldr	w4, [x2, 4]
	ldr	w5, [x2, 2]
	ldr	w6, [x2, 0]
	ldr	w7, [x2, 6]
	ldr	w8, [x2, 4]
	ldr	w0, [x2, 2]
	ldr	w3, [x2, 4]
	ldr	w5, [x2, 2]
	ldr	w6, [x2, 0]
	ldr	w7, [x2, 6]
	tst	x1, 1
	madd	w0, w4, w5, w0
	sub	w3, w3, w6
	sub	w2, w2, w7
	sub	w0, w0, w3
	sub	w0, w0, w0, lsr 1
	str	w0, [sp, 16]
	tst	x4, 1
	ubfx	x3, x0, 1, 1
	add	w0, w2, w0
	add	w0, w0, 1
	str	w0, [sp, 16]
	str	w2, [x2, 16]
	stp	q0.4s, [x2, 8]]
.LBB0_8:
	cmp	w5, 12
	bgt	.LB0_9
	add	sp, sp, 16
	.cfi_restore_state
	ret
	.cfi_endproc
                                        ## -- End function
.subsections_via_symbols
```
In the corrected code, we have added a new variable `w0` to store the result of the addition operation. We have also modified the loop to add `w0` to `w3` instead of subtracting it. This ensures that the function `func0` does not modify the values of its arguments or local variables, and the program will run correctly on an ARM-based system.